(dp0
S'cyprus'
p1
I1
sS'marching'
p2
I3
sS'increase'
p3
I18
sS'27-11'
p4
I1
sS'1,118'
p5
I2
sS'shielding'
p6
I1
sS'border.a'
p7
I1
sS'regional'
p8
I24
sS'pierce'
p9
I1
sS'bringing'
p10
I2
sS'internally'
p11
I1
sS'wooden'
p12
I3
sS'wednesday'
p13
I38
sS'solid'
p14
I1
sS'month.l'
p15
I1
sS'miller'
p16
I2
sS'6pm'
p17
I1
sS'second'
p18
I25
sS'273'
p19
I2
sS'279'
p20
I1
sS'forgetting'
p21
I1
sS'contributed'
p22
I1
sS'4san'
p23
I1
sS'increasing'
p24
I4
sS'reported'
p25
I8
sS'china'
p26
I1
sS'thermocoax'
p27
I3
sS'cyclical'
p28
I1
sS'k'
p29
I1
sS'reports'
p30
I9
sS'neurologist'
p31
I1
sS'military'
p32
I1
sS"i'm"
p33
I1
sS'home.libertarian'
p34
I1
sS'owed'
p35
I1
sS'brought'
p36
I4
sS'smolders'
p37
I1
sS'unit'
p38
I18
sS'42'
p39
I3
sS'schiphol'
p40
I1
sS'occupying'
p41
I9
sS'music'
p42
I1
sS'13.38'
p43
I1
sS'distortions'
p44
I1
sS'strike'
p45
I1
sS'marchers'
p46
I3
sS'successful'
p47
I3
sS'benefiting'
p48
I2
sS'4.09freight-reuters'
p49
I1
sS'91'
p50
I2
sS'90'
p51
I4
sS'92'
p52
I1
sS'95'
p53
I1
sS'97'
p54
I17
sS'96'
p55
I6
sS'locked'
p56
I2
sS'pursue'
p57
I1
sS'diplomat.only'
p58
I1
sS'plunged'
p59
I5
sS'rulings'
p60
I2
sS'30.the'
p61
I1
sS'revenues'
p62
I1
sS'example'
p63
I5
sS'0.831'
p64
I1
sS'household'
p65
I1
sS'currency'
p66
I19
sS'want'
p67
I5
sS'turn'
p68
I3
sS'travel'
p69
I1
sS'damage'
p70
I4
sS'machine'
p71
I3
sS'hot'
p72
I4
sS'preferable'
p73
I2
sS'19.477'
p74
I1
sS'1174'
p75
I1
sS'utilise'
p76
I1
sS'modest'
p77
I3
sS'italy'
p78
I9
sS'effective'
p79
I5
sS'headquarters'
p80
I3
sS'18th'
p81
I1
sS'keeps'
p82
I1
sS'democratic'
p83
I3
sS'welcomed'
p84
I3
sS'626'
p85
I1
sS'tailings'
p86
I1
sS'fit'
p87
I1
sS'walem'
p88
I2
sS'rankings'
p89
I1
sS'uniwear'
p90
I13
sS'wales'
p91
I1
sS'lambert'
p92
I8
sS'effects'
p93
I2
sS'verhaeren'
p94
I1
sS'structural'
p95
I3
sS'debut'
p96
I1
sS'cftc'
p97
I3
sS'distillers'
p98
I1
sS'nijmegen'
p99
I1
sS'financial'
p100
I13
sS'swathe'
p101
I1
sS'series'
p102
I2
sS'250,000'
p103
I1
sS'solution'
p104
I2
sS'391'
p105
I1
sS'390'
p106
I1
sS'397'
p107
I1
sS'2,500'
p108
I1
sS'394'
p109
I1
sS'substantially'
p110
I4
sS'laboratory'
p111
I2
sS'10-50'
p112
I1
sS'brussels.ryanair'
p113
I1
sS'almelo'
p114
I3
sS'thursday.michele'
p115
I1
sS'bullishness'
p116
I1
sS'encourage'
p117
I2
sS'rb'
p118
I1
sS'foundation'
p119
I2
sS'midpoint'
p120
I2
sS'context.the'
p121
I1
sS'corrects'
p122
I1
sS'enhance'
p123
I1
sS'estimate'
p124
I1
sS'shipper'
p125
I1
sS'atm'
p126
I2
sS'ups'
p127
I1
sS'ministries'
p128
I7
sS'lubumbashi'
p129
I8
sS'178'
p130
I1
sS'millers'
p131
I4
sS'175'
p132
I1
sS'172'
p133
I1
sS'171'
p134
I22
sS'733zurich'
p135
I1
sS'arose.jacobs'
p136
I1
sS'service'
p137
I5
sS'needed'
p138
I9
sS'listed'
p139
I2
sS'legs'
p140
I1
sS'bitter'
p141
I1
sS'danish'
p142
I4
sS'bjerregaard'
p143
I1
sS'showed'
p144
I4
sS'nations'
p145
I2
sS'project'
p146
I7
sS'there.vilvoorde'
p147
I1
sS'feeling'
p148
I1
sS'acquisition'
p149
I9
sS'6810'
p150
I48
sS'6812'
p151
I1
sS'6815'
p152
I8
sS'6817'
p153
I4
sS'6816'
p154
I4
sS'dozen'
p155
I1
sS'affairs'
p156
I3
sS'2.70'
p157
I1
sS'responsible'
p158
I1
sS'recommended'
p159
I1
sS'causing'
p160
I1
sS'layoffs'
p161
I2
sS'3872'
p162
I1
sS'shipments'
p163
I1
sS'transactions'
p164
I2
sS'automaker'
p165
I5
sS'gallagher'
p166
I1
sS'letter'
p167
I1
sS'clearance'
p168
I2
sS'professor'
p169
I2
sS'camp'
p170
I2
sS'verlaine'
p171
I1
sS'karry'
p172
I1
sS'tech'
p173
I1
sS'came'
p174
I10
sS'saying'
p175
I9
sS'meetings'
p176
I3
sS'6.760'
p177
I1
sS'694'
p178
I1
sS'headline'
p179
I1
sS'interbank'
p180
I1
sS'zaireans'
p181
I2
sS'rich'
p182
I2
sS'rice'
p183
I7
sS'4.07'
p184
I2
sS'4.09'
p185
I3
sS'reversal'
p186
I1
sS'altogether'
p187
I1
sS'volatility'
p188
I2
sS'trader.by'
p189
I2
sS'stunningly'
p190
I1
sS'release'
p191
I6
sS'fair'
p192
I2
sS'clarified'
p193
I1
sS'241,592'
p194
I1
sS'unexpectedly'
p195
I4
sS'result'
p196
I8
sS'resigned'
p197
I1
sS'financials'
p198
I4
sS'pressured'
p199
I2
sS'ambitions'
p200
I1
sS'xvi'
p201
I1
sS'pressures'
p202
I6
sS'globally.but'
p203
I2
sS'discipline'
p204
I1
sS'nature'
p205
I1
sS'rolled'
p206
I1
sS'icelandic'
p207
I1
sS'17.15'
p208
I1
sS'debt'
p209
I6
sS'country'
p210
I22
sS'pits'
p211
I1
sS'62.5'
p212
I1
sS'untrue.british'
p213
I2
sS'planned'
p214
I13
sS'argue'
p215
I1
sS'asked'
p216
I2
sS'102'
p217
I1
sS'253'
p218
I1
sS'250'
p219
I1
sS'251'
p220
I1
sS'3.82'
p221
I1
sS'3.80'
p222
I2
sS'source'
p223
I3
sS'union'
p224
I64
sS'103,966'
p225
I1
sS'protecion'
p226
I1
sS'105'
p227
I1
sS'life'
p228
I5
sS'eastern'
p229
I3
sS'worker'
p230
I7
sS'chile'
p231
I4
sS'child'
p232
I2
sS'diverted'
p233
I1
sS'manet'
p234
I2
sS'employ'
p235
I4
sS'law.in'
p236
I1
sS'ago.all'
p237
I2
sS'levies'
p238
I2
sS'played'
p239
I3
sS'hong'
p240
I6
sS'jobs.the'
p241
I6
sS'things'
p242
I3
sS'cumulative'
p243
I9
sS'split'
p244
I2
sS'babies'
p245
I4
sS'rebound'
p246
I3
sS'european'
p247
I130
sS'217.1'
p248
I1
sS'workforce'
p249
I4
sS'hectares'
p250
I4
sS'5.75'
p251
I7
sS'kamina'
p252
I2
sS'may.some'
p253
I1
sS'corporate'
p254
I3
sS'saturday.steel'
p255
I3
sS'distribute'
p256
I5
sS'plight'
p257
I1
sS'previous'
p258
I9
sS'hai'
p259
I2
sS'hac'
p260
I1
sS'topical'
p261
I1
sS'east'
p262
I3
sS'hat'
p263
I1
sS'disagreement'
p264
I2
sS'possible'
p265
I14
sS'firmer'
p266
I1
sS'possibly'
p267
I2
sS'said.prospects'
p268
I1
sS'wednesday.renault'
p269
I3
sS'firmed'
p270
I1
sS'fortis'
p271
I9
sS'seaside'
p272
I1
sS'8.6'
p273
I1
sS'right'
p274
I2
sS'old'
p275
I6
sS'crowd'
p276
I3
sS'people'
p277
I36
sS'czech'
p278
I3
sS'santiago'
p279
I1
sS'olo'
p280
I15
sS'percent.wall'
p281
I1
sS'b-1050'
p282
I2
sS'creative'
p283
I3
sS'continue'
p284
I14
sS'1,833,448'
p285
I1
sS'oscillating'
p286
I1
sS'eduard'
p287
I1
sS'12,250'
p288
I1
sS'6,000'
p289
I1
sS'rhone'
p290
I2
sS'losing'
p291
I1
sS'brokerage'
p292
I5
sS'manufacturing'
p293
I1
sS'dollars'
p294
I2
sS'said.vilvoorde'
p295
I3
sS'slightly'
p296
I3
sS'raised'
p297
I4
sS'facility'
p298
I3
sS'raises'
p299
I1
sS'reducing'
p300
I2
sS'claimed.lerner'
p301
I1
sS'support'
p302
I8
sS'reasons.the'
p303
I2
sS'tubize'
p304
I1
sS'resulted'
p305
I2
sS'happy'
p306
I1
sS'offer'
p307
I2
sS'forming'
p308
I1
sS'available.walem'
p309
I1
sS'3.974'
p310
I1
sS'inside'
p311
I3
sS'complications'
p312
I1
sS'19.39'
p313
I1
sS'150'
p314
I4
sS'unchanged.recommendation'
p315
I1
sS'152'
p316
I1
sS'liberal'
p317
I1
sS'156'
p318
I1
sS'159'
p319
I1
sS'accounting'
p320
I5
sS'dealer'
p321
I5
sS'negotiations'
p322
I4
sS'britain.basf'
p323
I2
sS'eventual'
p324
I1
sS'agoperiod'
p325
I1
sS'role'
p326
I2
sS'developers'
p327
I1
sS'schuman'
p328
I2
sS'intent'
p329
I2
sS'variable'
p330
I1
sS'0.443'
p331
I1
sS'time'
p332
I26
sS'push'
p333
I1
sS'pover'
p334
I4
sS'chain'
p335
I1
sS'67.720'
p336
I1
sS'9779'
p337
I1
sS'8864'
p338
I1
sS'hold'
p339
I13
sS'ven'
p340
I4
sS'816'
p341
I1
sS'3,150'
p342
I1
sS'market.however'
p343
I1
sS'consolidation'
p344
I2
sS'spate'
p345
I2
sS'18-month'
p346
I1
sS'tear'
p347
I3
sS'rights'
p348
I1
sS'leave'
p349
I5
sS'settle'
p350
I2
sS'36,090'
p351
I2
sS'team'
p352
I5
sS'speculation'
p353
I2
sS'prevent'
p354
I3
sS'bulldozer'
p355
I6
sS'1999.krueger'
p356
I1
sS'february.while'
p357
I1
sS'antwerp'
p358
I4
sS'3021'
p359
I1
sS'current'
p360
I13
sS'falling'
p361
I4
sS'boost'
p362
I9
sS'climbs'
p363
I1
sS'goma'
p364
I1
sS'address'
p365
I1
sS'funded'
p366
I1
sS'myers'
p367
I1
sS'studies'
p368
I2
sS'182,000'
p369
I1
sS'love'
p370
I1
sS'prefer'
p371
I1
sS'carol'
p372
I2
sS'working'
p373
I3
sS'koniklijke'
p374
I1
sS'positive'
p375
I11
sS'angry'
p376
I5
sS'wondering'
p377
I2
sS'scope'
p378
I2
sS'introducing'
p379
I2
sS'apparent'
p380
I1
sS'257.105'
p381
I1
sS'riders'
p382
I1
sS'1,730'
p383
I1
sS'harmonious'
p384
I1
sS'believed'
p385
I7
sS'542-7706'
p386
I3
sS'allowed'
p387
I1
sS'237'
p388
I1
sS'230'
p389
I65
sS'ip/97/270'
p390
I1
sS'added.both'
p391
I1
sS'spot'
p392
I2
sS'date'
p393
I21
sS'brussels.febiac'
p394
I2
sS'sectors'
p395
I1
sS'176,662'
p396
I1
sS'sclerosis'
p397
I1
sS'gendarmerie'
p398
I3
sS'sa'
p399
I14
sS'misplaced'
p400
I1
sS'pulled'
p401
I1
sS'nanterre'
p402
I3
sS'6.40'
p403
I2
sS'epilepsy'
p404
I1
sS'6.48'
p405
I1
sS'unacceptable'
p406
I2
sS'kong'
p407
I6
sS'course'
p408
I2
sS'experiments'
p409
I1
sS'tendency'
p410
I1
sS'internationally'
p411
I1
sS'antonovics'
p412
I5
sS'dji'
p413
I2
sS'troubled'
p414
I1
sS'decades'
p415
I2
sS'musee'
p416
I1
sS'udinese'
p417
I2
sS'month.infotrade'
p418
I1
sS'5.50'
p419
I2
sS'matches'
p420
I2
sS'subordinated'
p421
I1
sS'f-16s'
p422
I1
sS'75,013'
p423
I1
sS'sambre'
p424
I2
sS'yields.technically'
p425
I1
sS'01203'
p426
I1
sS'securitiescomment'
p427
I1
sS'fire.alz'
p428
I1
sS'square'
p429
I1
sS'783manchester'
p430
I1
sS'breakthrough'
p431
I1
sS'797'
p432
I1
sS'0.704'
p433
I1
sS'abide'
p434
I1
sS'seriously'
p435
I1
sS'bln'
p436
I16
sS'birmingham.smith'
p437
I1
sS'internet'
p438
I7
sS'million'
p439
I75
sS'governing'
p440
I1
sS'quite'
p441
I1
sS'emulation'
p442
I1
sS'remainder'
p443
I1
sS'punt'
p444
I1
sS'undesirable'
p445
I1
sS'routes'
p446
I2
sS'squibb'
p447
I1
sS'mucha'
p448
I1
sS'luykx'
p449
I2
sS'clause'
p450
I1
sS'safety'
p451
I2
sS'velde'
p452
I1
sS'parkinson'
p453
I1
sS'mignon'
p454
I2
sS'spanish'
p455
I4
sS'open'
p456
I20
sS'city'
p457
I11
sS'2'
p458
I162
sS'draft'
p459
I1
sS'revolution.belgium'
p460
I1
sS'0930-1630'
p461
I1
sS'forward'
p462
I1
sS'clients'
p463
I5
sS'representing'
p464
I3
sS'depressed'
p465
I1
sS'rival'
p466
I4
sS'future'
p467
I8
sS'russia'
p468
I1
sS'prospect'
p469
I1
sS'france.hugo'
p470
I1
sS'san'
p471
I7
sS'turned'
p472
I12
sS'argument'
p473
I1
sS'deutsche'
p474
I1
sS'say'
p475
I6
sS'taken.the'
p476
I1
sS'financier'
p477
I1
sS'burundi'
p478
I1
sS'2,540'
p479
I1
sS'saw'
p480
I2
sS'sat'
p481
I1
sS'aside'
p482
I1
sS'note'
p483
I4
sS'maintain'
p484
I2
sS'coincide'
p485
I1
sS'46.5'
p486
I1
sS'altered'
p487
I2
sS'1,072'
p488
I2
sS'year.mining'
p489
I1
sS'bbl.he'
p490
I1
sS'serie'
p491
I1
sS'average'
p492
I13
sS'sale'
p493
I8
sS'ways'
p494
I1
sS'jitters'
p495
I1
sS'axa'
p496
I7
sS'link'
p497
I2
sS'30,000'
p498
I1
sS'liquidity'
p499
I1
sS'laws'
p500
I4
sS'surplus'
p501
I1
sS'belgium.several'
p502
I3
sS'aggressive'
p503
I1
sS'slow'
p504
I7
sS'liberation'
p505
I10
sS'going'
p506
I11
sS'caroline'
p507
I2
sS'dispute'
p508
I4
sS'sector.at'
p509
I1
sS'2700'
p510
I1
sS'mysticism'
p511
I1
sS'awaiting'
p512
I2
sS'prime'
p513
I5
sS'council.renault'
p514
I1
sS'worries'
p515
I5
sS'noisier'
p516
I1
sS'2002.but'
p517
I1
sS'city.the'
p518
I1
sS'expensive.the'
p519
I1
sS'836'
p520
I1
sS'jumped'
p521
I2
sS'838'
p522
I2
sS'representatives'
p523
I1
sS'vaccines'
p524
I4
sS'bureau'
p525
I3
sS'welcomes'
p526
I1
sS'jobs'
p527
I29
sS'screen'
p528
I1
sS'concentrate'
p529
I3
sS'awards'
p530
I2
sS'jets'
p531
I1
sS'consumption.the'
p532
I1
sS'planes.from'
p533
I1
sS'personal'
p534
I1
sS's'
p535
I18
sS"can't"
p536
I3
sS'twil'
p537
I5
sS'anti'
p538
I2
sS'artistically.french'
p539
I1
sS'boat'
p540
I1
sS'west'
p541
I1
sS'airlines'
p542
I9
sS'1584'
p543
I1
sS'breath'
p544
I1
sS'combined'
p545
I6
sS'diatribe'
p546
I1
sS'wants'
p547
I1
sS'enable'
p548
I2
sS'musampa'
p549
I1
sS'formed'
p550
I4
sS'curbing'
p551
I1
sS'tightened'
p552
I1
sS'said.belgium'
p553
I1
sS'polls'
p554
I2
sS'single'
p555
I11
sS'policies'
p556
I2
sS'newspaper'
p557
I9
sS'situation'
p558
I4
sS'spotlight'
p559
I1
sS'320,822'
p560
I1
sS'322'
p561
I2
sS'ctry'
p562
I1
sS'13.8'
p563
I3
sS'13.9'
p564
I1
sS'13.4'
p565
I1
sS'technology'
p566
I8
sS'13.3'
p567
I7
sS'13.1'
p568
I6
sS'afdl'
p569
I2
sS'parliament'
p570
I5
sS'legalistic'
p571
I1
sS'downs'
p572
I1
sS'sterling'
p573
I3
sS'barbed'
p574
I6
sS'edged'
p575
I1
sS'singapore'
p576
I1
sS'tolar'
p577
I1
sS'deflate'
p578
I1
sS'wired'
p579
I1
sS'nowadays.there'
p580
I1
sS'said.lubumbashi'
p581
I1
sS'95-feb'
p582
I2
sS'60,000'
p583
I2
sS'costs'
p584
I27
sS'comes'
p585
I2
sS'trains'
p586
I2
sS'france.renault'
p587
I2
sS'gdp'
p588
I2
sS'summer'
p589
I2
sS'rest'
p590
I3
sS'rubens'
p591
I1
sS'weekly'
p592
I6
sS'esprit'
p593
I3
sS'geological'
p594
I1
sS'formative'
p595
I1
sS'absense'
p596
I1
sS'aspects'
p597
I1
sS'francaise'
p598
I1
sS'rejoin'
p599
I1
sS'fetterlein'
p600
I1
sS'period'
p601
I22
sS'traffic'
p602
I8
sS'preference'
p603
I1
sS'world'
p604
I21
sS'1984-85'
p605
I1
sS'clad'
p606
I3
sS'62'
p607
I1
sS'superiority'
p608
I1
sS'bankruptcies'
p609
I2
sS'6.60'
p610
I4
sS'5017'
p611
I8
sS'6.68'
p612
I2
sS'31,1996'
p613
I1
sS'negotiations.no'
p614
I1
sS'tvi'
p615
I3
sS'1playing'
p616
I1
sS'plans.but'
p617
I1
sS'composers'
p618
I2
sS'memories'
p619
I1
sS'style'
p620
I1
sS'parasitology'
p621
I1
sS'915'
p622
I1
sS'francois'
p623
I3
sS'910'
p624
I1
sS'conference.he'
p625
I1
sS'scientific'
p626
I1
sS'power'
p627
I7
sS'percent.in'
p628
I3
sS'debt.it'
p629
I1
sS'frenchman'
p630
I1
sS'industry'
p631
I16
sS'rate53.8'
p632
I2
sS'mechelen'
p633
I1
sS'act'
p634
I3
sS'mean'
p635
I2
sS'burning'
p636
I3
sS'flawed'
p637
I1
sS'tshisekedi'
p638
I1
sS'12netherlands'
p639
I1
sS'antoon'
p640
I3
sS'45,352'
p641
I7
sS'brazilian'
p642
I5
sS'1996a'
p643
I1
sS'bunds'
p644
I6
sS'reuters.from'
p645
I1
sS'buying'
p646
I8
sS'october'
p647
I11
sS'francs.arbed'
p648
I1
sS'netherlands.ims'
p649
I1
sS'politically'
p650
I1
sS'pulp'
p651
I4
sS'detailed'
p652
I3
sS'gone'
p653
I2
sS'ab'
p654
I3
sS'ag'
p655
I9
sS'exhausted'
p656
I1
sS'certain'
p657
I5
sS'delhaize'
p658
I4
sS'machicura'
p659
I1
sS'ao'
p660
I1
sS'tight'
p661
I1
sS'1445'
p662
I2
sS'easdaq'
p663
I1
sS'1115'
p664
I1
sS'1442'
p665
I2
sS'1440'
p666
I1
sS'congress'
p667
I4
sS'30.707'
p668
I1
sS'a1'
p669
I1
sS'tanganyika'
p670
I1
sS'one.the'
p671
I1
sS'shipping'
p672
I2
sS'mass'
p673
I2
sS'market.traders'
p674
I1
sS'original'
p675
I1
sS'consider'
p676
I2
sS'caused'
p677
I6
sS'closures.the'
p678
I1
sS'said.analysts'
p679
I4
sS'restated'
p680
I2
sS'0next'
p681
I2
sS'crop.the'
p682
I1
sS'tv'
p683
I3
sS'diseases.a'
p684
I1
sS'tail'
p685
I6
sS'returned'
p686
I2
sS'capoten'
p687
I2
sS'1,500'
p688
I2
sS'saved'
p689
I1
sS'diary'
p690
I3
sS'existing'
p691
I8
sS'cable'
p692
I6
sS'accompanying'
p693
I1
sS'joined'
p694
I12
sS'large'
p695
I6
sS'pbf'
p696
I3
sS'small'
p697
I14
sS'sa.vthe'
p698
I1
sS'9,691'
p699
I1
sS'penalties'
p700
I2
sS'iscor'
p701
I1
sS'past'
p702
I3
sS'96.9'
p703
I1
sS'situated'
p704
I1
sS'richard'
p705
I1
sS'ecsc.this'
p706
I1
sS'resume'
p707
I9
sS'undecided'
p708
I1
sS'method'
p709
I1
sS'threatened'
p710
I2
sS'hours'
p711
I8
sS'november'
p712
I1
sS'backlash'
p713
I3
sS'ekeren'
p714
I1
sS'memorandum'
p715
I2
sS'social'
p716
I12
sS'action'
p717
I14
sS'followed'
p718
I10
sS'vis'
p719
I2
sS'revelled'
p720
I1
sS'objectives'
p721
I1
sS'859'
p722
I1
sS'6'
p723
I4
sS'cyclicals'
p724
I1
sS'substances'
p725
I1
sS'company'
p726
I88
sS'solvay'
p727
I3
sS'keeping'
p728
I1
sS'only.sabena'
p729
I1
sS'science'
p730
I4
sS'industrialists'
p731
I1
sS'belgo'
p732
I3
sS'resources'
p733
I2
sS'morgan'
p734
I2
sS'knocked'
p735
I1
sS'male'
p736
I1
sS'belga'
p737
I8
sS'nervousness'
p738
I1
sS'ostend'
p739
I3
sS'prompt'
p740
I1
sS'stated'
p741
I6
sS'accept'
p742
I4
sS'states'
p743
I12
sS'sense'
p744
I5
sS'said.from'
p745
I1
sS'huge'
p746
I2
sS'respective'
p747
I1
sS'imminent'
p748
I2
sS'hugo'
p749
I1
sS'scifo'
p750
I2
sS'earnings'
p751
I14
sS'cling'
p752
I1
sS'naftowe'
p753
I1
sS'sabena.the'
p754
I1
sS'496note'
p755
I1
sS'plant'
p756
I80
sS'intended'
p757
I2
sS'mestrallet'
p758
I1
sS'maltese'
p759
I1
sS'acquisitions'
p760
I4
sS'eindhoven'
p761
I3
sS'gmos.the'
p762
I1
sS'11.5'
p763
I2
sS'steinmann'
p764
I1
sS'1300'
p765
I4
sS'trade'
p766
I28
sS'paper'
p767
I11
sS'signs'
p768
I2
sS'bulldozers'
p769
I6
sS'497'
p770
I1
sS'491'
p771
I1
sS'3,260'
p772
I1
sS'termed'
p773
I3
sS'filip'
p774
I1
sS'damme'
p775
I8
sS'travelling'
p776
I1
sS'propose'
p777
I2
sS'ago.he'
p778
I1
sS'area.if'
p779
I1
sS'vilvoorde.friday'
p780
I1
sS'235note'
p781
I1
sS'adnewslon@reuters.com'
p782
I1
sS'inc.philips'
p783
I2
sS'england'
p784
I1
sS'reduce'
p785
I9
sS'slowdown'
p786
I1
sS'advertisers'
p787
I2
sS'operation'
p788
I3
sS'really'
p789
I6
sS'1,192'
p790
I2
sS'criteria.after'
p791
I1
sS'20.8'
p792
I1
sS'research'
p793
I7
sS'indexation'
p794
I2
sS'9,064'
p795
I2
sS'nervously'
p796
I1
sS'risen'
p797
I4
sS'sparked'
p798
I5
sS'10.70'
p799
I1
sS'rises'
p800
I2
sS'44.329'
p801
I1
sS'driven'
p802
I1
sS'retained'
p803
I1
sS'flesh.the'
p804
I1
sS'flowing.the'
p805
I1
sS'2573'
p806
I1
sS'w'
p807
I2
sS'exhibited'
p808
I1
sS'major'
p809
I22
sS'6.00'
p810
I8
sS'number'
p811
I8
sS'baudelaire'
p812
I2
sS'stage'
p813
I6
sS'977'
p814
I1
sS'jet'
p815
I2
sS'introduction'
p816
I1
sS'threatening'
p817
I1
sS'brittan'
p818
I2
sS'saint'
p819
I1
sS'relationship'
p820
I3
sS'5.90'
p821
I2
sS'sum.schweitzer'
p822
I1
sS'immediate'
p823
I4
sS'projektspedition'
p824
I1
sS'consult'
p825
I14
sS'focusing'
p826
I1
sS'1.95440'
p827
I1
sS'aad'
p828
I1
sS'emirates'
p829
I1
sS'swisscargo'
p830
I1
sS'beet.however'
p831
I1
sS'edma'
p832
I3
sS'organisations'
p833
I6
sS'reorganisation'
p834
I4
sS'sell'
p835
I19
sS'eaux'
p836
I2
sS'internal'
p837
I1
sS'absorbtion'
p838
I1
sS'play'
p839
I1
sS'singles'
p840
I1
sS'virus'
p841
I6
sS'plan'
p842
I7
sS'singled'
p843
I2
sS'cover'
p844
I5
sS'reply.but'
p845
I2
sS'bernheim'
p846
I3
sS'barred'
p847
I5
sS'artistic'
p848
I4
sS'febiac'
p849
I10
sS'charged'
p850
I2
sS'technical'
p851
I5
sS'wording'
p852
I1
sS'gold'
p853
I1
sS'nasdaq'
p854
I2
sS'tariff.the'
p855
I1
sS'freight'
p856
I14
sS'year.most'
p857
I1
sS'impact'
p858
I2
sS'indicator'
p859
I2
sS'writer'
p860
I1
sS'thursday.organisers'
p861
I1
sS'failed'
p862
I11
sS'1469'
p863
I1
sS'equity'
p864
I6
sS'13.7561'
p865
I1
sS'dependent'
p866
I2
sS'banned'
p867
I2
sS'closely'
p868
I2
sS'reporters'
p869
I6
sS'crs'
p870
I4
sS'banking'
p871
I20
sS'river'
p872
I1
sS'318'
p873
I1
sS'313'
p874
I1
sS'potent'
p875
I1
sS'314'
p876
I1
sS'cattaneo'
p877
I2
sS'spirits'
p878
I1
sS'slippages'
p879
I1
sS'currently'
p880
I9
sS'306.40'
p881
I1
sS'europe'
p882
I37
sS'sodec'
p883
I1
sS'targeted'
p884
I3
sS'renewed'
p885
I4
sS'dividend'
p886
I16
sS'prospects'
p887
I3
sS'enables'
p888
I1
sS'improved'
p889
I1
sS'offending'
p890
I1
sS'1.66'
p891
I1
sS'connection'
p892
I1
sS'approve'
p893
I3
sS'financieel'
p894
I1
sS'14875'
p895
I1
sS'underperforming'
p896
I4
sS'octave'
p897
I1
sS'acted'
p898
I2
sS'community'
p899
I4
sS'consideration'
p900
I1
sS'belt'
p901
I1
sS'parliament.bousquin'
p902
I1
sS'publishing'
p903
I1
sS'monthly'
p904
I2
sS'mwene'
p905
I1
sS'4.653'
p906
I1
sS'4,796,925'
p907
I1
sS'firm'
p908
I29
sS'champion'
p909
I1
sS'mind'
p910
I1
sS'representative'
p911
I8
sS'percent.paszkowski'
p912
I1
sS'handling'
p913
I1
sS'straight'
p914
I1
sS'mln'
p915
I1
sS'budget'
p916
I5
sS'1997total'
p917
I1
sS'real'
p918
I8
sS'pound'
p919
I1
sS'backing'
p920
I4
sS'germany.record'
p921
I1
sS'binding'
p922
I1
sS'weeks.bond'
p923
I1
sS'barney'
p924
I1
sS'873'
p925
I2
sS'870'
p926
I1
sS'shorter'
p927
I2
sS'virtually'
p928
I2
sS'survey'
p929
I2
sS'46.tests'
p930
I1
sS'commune'
p931
I1
sS'levels'
p932
I10
sS'deposit.the'
p933
I1
sS'implement'
p934
I1
sS'recent'
p935
I11
sS'reginald'
p936
I1
sS'johan'
p937
I2
sS'knp'
p938
I1
sS'militiamen'
p939
I1
sS'arrests'
p940
I2
sS'50.1'
p941
I2
sS'deflt'
p942
I1
sS'24.kredietbank'
p943
I1
sS'surprises'
p944
I1
sS'admission'
p945
I1
sS'signals'
p946
I1
sS'76.3'
p947
I1
sS'location'
p948
I2
sS'australia'
p949
I2
sS'victims'
p950
I3
sS'emergency'
p951
I3
sS'couple'
p952
I1
sS'suffering'
p953
I1
sS'aerospace'
p954
I2
sS'weights'
p955
I1
sS'projects'
p956
I5
sS'sorting'
p957
I2
sS'imposed'
p958
I1
sS'd'
p959
I2
sS'communications'
p960
I4
sS'individuals'
p961
I1
sS'yields'
p962
I11
sS'67.67'
p963
I1
sS'1320'
p964
I1
sS'methods'
p965
I5
sS'senate'
p966
I1
sS'spring'
p967
I1
sS'disease.britain'
p968
I1
sS'1329'
p969
I1
sS'sight'
p970
I1
sS'pctdexia'
p971
I1
sS'veterinary'
p972
I7
sS'3,240'
p973
I1
sS'98.625'
p974
I1
sS'4.88'
p975
I1
sS'agreement'
p976
I7
sS'bt'
p977
I2
sS'bv'
p978
I2
sS'relating'
p979
I1
sS'1,200'
p980
I1
sS'blackburn'
p981
I1
sS'exaggerated'
p982
I1
sS'percent.dexia'
p983
I1
sS'francs.gbl'
p984
I1
sS'primarily'
p985
I2
sS'7.44657'
p986
I1
sS'9,041'
p987
I2
sS'spending'
p988
I2
sS'hikes.traders'
p989
I2
sS'submit'
p990
I1
sS'suit'
p991
I1
sS'belgium.laker'
p992
I1
sS'spat'
p993
I1
sS'7.861'
p994
I1
sS'atlantic'
p995
I1
sS'pacific'
p996
I14
sS'line'
p997
I10
sS'considerable'
p998
I1
sS'posted'
p999
I2
sS'5.631'
p1000
I3
sS'cie'
p1001
I5
sS'maturity'
p1002
I10
sS'uk'
p1003
I9
sS'5,850'
p1004
I1
sS'home.a'
p1005
I1
sS'1.207'
p1006
I1
sS'globally'
p1007
I1
sS'diverse'
p1008
I1
sS'951'
p1009
I1
sS'uranium'
p1010
I1
sS'said.parent'
p1011
I1
sS'6by'
p1012
I1
sS'jci'
p1013
I1
sS'elements'
p1014
I5
sS'prosecution'
p1015
I1
sS'lufthansa'
p1016
I1
sS'coal.since'
p1017
I1
sS'sides'
p1018
I5
sS'ago'
p1019
I13
sS'land'
p1020
I2
sS'dexia'
p1021
I24
sS'age'
p1022
I2
sS'product.should'
p1023
I1
sS'6.25'
p1024
I2
sS'confederation'
p1025
I1
sS'6.20'
p1026
I1
sS'fresh'
p1027
I2
sS'having'
p1028
I4
sS'bvs'
p1029
I1
sS'week.uniwear'
p1030
I2
sS'denoms'
p1031
I1
sS'1950.reflecting'
p1032
I1
sS'reuters.the'
p1033
I1
sS'sharply'
p1034
I5
sS'treasuries'
p1035
I1
sS'scratch'
p1036
I3
sS'results'
p1037
I35
sS'cobalt'
p1038
I3
sS'illustrated'
p1039
I1
sS'maastricht'
p1040
I7
sS'softer'
p1041
I1
sS'luxembourg'
p1042
I12
sS'broader'
p1043
I1
sS'shrugged'
p1044
I1
sS'turkish'
p1045
I2
sS'concerned'
p1046
I10
sS'01/04/97'
p1047
I1
sS'send'
p1048
I1
sS'citing'
p1049
I1
sS'sent'
p1050
I2
sS'silber'
p1051
I1
sS'comment.by'
p1052
I1
sS'continues'
p1053
I1
sS'reopened'
p1054
I2
sS'use.it'
p1055
I1
sS'quadrupled'
p1056
I1
sS'continued'
p1057
I7
sS'categories'
p1058
I1
sS'uncompetitive'
p1059
I1
sS'eve'
p1060
I1
sS'try'
p1061
I14
sS'race'
p1062
I3
sS'1668'
p1063
I1
sS'logistics'
p1064
I1
sS'gendarmes'
p1065
I3
sS'592'
p1066
I1
sS'595'
p1067
I1
sS'594'
p1068
I2
sS'596'
p1069
I1
sS'598'
p1070
I1
sS'hyde'
p1071
I2
sS'23london'
p1072
I1
sS'victor'
p1073
I1
sS'index'
p1074
I13
sS'wednesday.scorer'
p1075
I1
sS'expressed'
p1076
I1
sS'consistently'
p1077
I1
sS'turnaround'
p1078
I1
sS'firms'
p1079
I3
sS'led'
p1080
I4
sS'respectively'
p1081
I2
sS'sources.dieusaert'
p1082
I2
sS'let'
p1083
I1
sS'euro'
p1084
I2
sS'ghent'
p1085
I4
sS'impressionism'
p1086
I1
sS'great'
p1087
I5
sS'receive'
p1088
I2
sS'involved'
p1089
I1
sS'1353frankfurt'
p1090
I1
sS'resulting'
p1091
I1
sS'maker'
p1092
I20
sS'involves'
p1093
I1
sS'338'
p1094
I1
sS'telecom'
p1095
I2
sS'331'
p1096
I1
sS'standing'
p1097
I1
sS'confidence'
p1098
I7
sS'certificate'
p1099
I2
sS'illegal'
p1100
I5
sS'ministers'
p1101
I14
sS'memo/97/35'
p1102
I1
sS'chloride'
p1103
I1
sS'midday'
p1104
I2
sS'carrying'
p1105
I4
sS'8,212'
p1106
I1
sS'payrolls'
p1107
I2
sS'animals'
p1108
I1
sS'63.8'
p1109
I1
sS'publications'
p1110
I1
sS'1.41'
p1111
I1
sS'1.40'
p1112
I2
sS'weaker'
p1113
I3
sS'process'
p1114
I5
sS'high'
p1115
I16
sS'grundig'
p1116
I2
sS'torino'
p1117
I1
sS'delay'
p1118
I2
sS'animal'
p1119
I1
sS'halted'
p1120
I1
sS'cbr.steel'
p1121
I1
sS'preferring'
p1122
I1
sS'solidarity'
p1123
I2
sS'efficiently'
p1124
I1
sS'boeing'
p1125
I2
sS'tutsis'
p1126
I1
sS'element'
p1127
I2
sS'zabel'
p1128
I1
sS'allow'
p1129
I8
sS'intellectuals'
p1130
I1
sS'year.late'
p1131
I1
sS'reuter'
p1132
I3
sS'producer'
p1133
I1
sS'produces'
p1134
I1
sS'vaccinated'
p1135
I2
sS'8.53'
p1136
I1
sS'produced'
p1137
I3
sS'17,119'
p1138
I2
sS'volta'
p1139
I2
sS'chosen'
p1140
I1
sS'153,479'
p1141
I1
sS'repercussions'
p1142
I4
sS'said.earlier'
p1143
I1
sS'stabilise'
p1144
I2
sS'1,214note'
p1145
I1
sS'presidential'
p1146
I1
sS'kpw'
p1147
I1
sS'70,000'
p1148
I1
sS'accounts'
p1149
I4
sS'rancour.the'
p1150
I1
sS'exacerbated'
p1151
I1
sS'doing'
p1152
I1
sS'france.ccb'
p1153
I1
sS'society'
p1154
I3
sS'books'
p1155
I2
sS'static'
p1156
I1
sS'agriculture'
p1157
I4
sS'fundamentally'
p1158
I1
sS'bad'
p1159
I3
sS'73.6'
p1160
I1
sS'shut'
p1161
I12
sS'clemmow'
p1162
I1
sS'inferiority'
p1163
I1
sS'disintegrating'
p1164
I1
sS'defining'
p1165
I1
sS'mainland'
p1166
I2
sS'dubbed'
p1167
I1
sS'david'
p1168
I1
sS'length'
p1169
I3
sS'stoppage'
p1170
I1
sS'1997white'
p1171
I1
sS'thursday.three'
p1172
I1
sS'stimulate'
p1173
I3
sS'453'
p1174
I1
sS'owned'
p1175
I10
sS'groups.this'
p1176
I1
sS'7710'
p1177
I65
sS'conference.lerner'
p1178
I1
sS'7717'
p1179
I2
sS'ordering'
p1180
I4
sS'condensate'
p1181
I1
sS'interests'
p1182
I1
sS'pollination.however'
p1183
I1
sS'chagrin'
p1184
I1
sS'steel'
p1185
I35
sS'colleagues'
p1186
I14
sS'warfare'
p1187
I1
sS'suresnes'
p1188
I3
sS'guilder'
p1189
I1
sS'appealing'
p1190
I1
sS'bind'
p1191
I1
sS'briefing'
p1192
I5
sS'negatively'
p1193
I2
sS'steep'
p1194
I1
sS'value.on'
p1195
I1
sS'path.another'
p1196
I1
sS'40.33'
p1197
I2
sS'9.79'
p1198
I1
sS'9.75'
p1199
I2
sS'blockbuster'
p1200
I1
sS'clearly'
p1201
I2
sS'viewed'
p1202
I1
sS'documents'
p1203
I1
sS'mechanism'
p1204
I1
sS'best'
p1205
I2
sS'korean'
p1206
I1
sS'visa'
p1207
I1
sS'cabinet'
p1208
I2
sS'segment'
p1209
I1
sS'5.618'
p1210
I1
sS'stronger'
p1211
I6
sS'face'
p1212
I2
sS'painting'
p1213
I1
sS'fact'
p1214
I7
sS'jacqmijn'
p1215
I4
sS'half.relations'
p1216
I1
sS'22.681'
p1217
I1
sS'bring'
p1218
I2
sS'asylum'
p1219
I1
sS'economist'
p1220
I9
sS'decade'
p1221
I1
sS'jan'
p1222
I8
sS'brazzaville'
p1223
I1
sS'planted'
p1224
I1
sS'molecules'
p1225
I2
sS'ahlfeld'
p1226
I1
sS'hope'
p1227
I4
sS'meant'
p1228
I2
sS'advisory'
p1229
I2
sS'bonds'
p1230
I8
sS'2005.huge'
p1231
I1
sS'bribes'
p1232
I1
sS'circulation'
p1233
I2
sS'denmark'
p1234
I5
sS'gbl'
p1235
I7
sS'taxes'
p1236
I5
sS'strengthened'
p1237
I1
sS'temporarily'
p1238
I2
sS'frame'
p1239
I1
sS'ireland.the'
p1240
I1
sS'brande.the'
p1241
I2
sS'agricultural'
p1242
I2
sS'1999.recommendation'
p1243
I1
sS'electrode'
p1244
I1
sS'wire'
p1245
I13
sS'nuclear'
p1246
I2
sS'email'
p1247
I1
sS'industries'
p1248
I3
sS'ends'
p1249
I1
sS'invited'
p1250
I1
sS'deficits'
p1251
I5
sS'drug'
p1252
I6
sS'figures'
p1253
I15
sS'bristol'
p1254
I1
sS'bertini'
p1255
I2
sS'737-500'
p1256
I1
sS'boonstra'
p1257
I4
sS'panne'
p1258
I1
sS'cc'
p1259
I4
sS'102,586'
p1260
I1
sS'575'
p1261
I3
sS'escudo'
p1262
I1
sS'meunier'
p1263
I2
sS'8.3'
p1264
I6
sS'8.2'
p1265
I1
sS'8.7'
p1266
I1
sS'1.621'
p1267
I1
sS'8.9'
p1268
I1
sS'3-mo'
p1269
I2
sS'adopted'
p1270
I2
sS'sales'
p1271
I40
sS'neighbour'
p1272
I1
sS'plant.noisy'
p1273
I1
sS'spain'
p1274
I22
sS'tonne'
p1275
I5
sS'maus'
p1276
I1
sS'registrationsfell'
p1277
I1
sS"d'escompte"
p1278
I1
sS'779'
p1279
I3
sS'site'
p1280
I6
sS'madrid.renault'
p1281
I3
sS'6,272.36'
p1282
I1
sS'vs'
p1283
I79
sS'optimistic'
p1284
I1
sS'vw'
p1285
I2
sS'waigel'
p1286
I1
sS'ransom'
p1287
I3
sS'newsroom'
p1288
I93
sS'outbreak'
p1289
I1
sS'government.the'
p1290
I1
sS'forecasts'
p1291
I2
sS'expand'
p1292
I3
sS'discounted'
p1293
I3
sS'disrupted'
p1294
I1
sS'colour'
p1295
I1
sS'353'
p1296
I2
sS'1.21'
p1297
I1
sS'1.26'
p1298
I1
sS'359'
p1299
I1
sS'enzo'
p1300
I2
sS'1997/98'
p1301
I2
sS'paul'
p1302
I11
sS'afflicted'
p1303
I1
sS'web'
p1304
I1
sS'hauntingly'
p1305
I1
sS'residential'
p1306
I3
sS'transparent'
p1307
I1
sS'1,565'
p1308
I1
sS'1,560'
p1309
I1
sS'fluctuating'
p1310
I1
sS'increased'
p1311
I7
sS'government'
p1312
I57
sS'1995/96'
p1313
I5
sS'increases'
p1314
I2
sS'belgium'
p1315
I106
sS'emma'
p1316
I2
sS'finnish'
p1317
I1
sS'level.but'
p1318
I1
sS'nerves'
p1319
I1
sS'crisi'
p1320
I1
sS'therapeutic'
p1321
I2
sS'liquidation'
p1322
I1
sS'transport'
p1323
I4
sS'13/16'
p1324
I1
sS'avoid'
p1325
I5
sS'salaries'
p1326
I2
sS'fedex'
p1327
I2
sS'demonstrators'
p1328
I9
sS'does'
p1329
I12
sS'benefitted'
p1330
I3
sS'schedule'
p1331
I1
sS'495,832'
p1332
I1
sS'pressure'
p1333
I7
sS'accompanied'
p1334
I2
sS'jobs.it'
p1335
I2
sS'loans'
p1336
I5
sS'1.434'
p1337
I1
sS'payout'
p1338
I1
sS'added.kredietbank'
p1339
I2
sS'91.773'
p1340
I1
sS'angeles'
p1341
I1
sS'holdings'
p1342
I5
sS'seeds'
p1343
I1
sS'gainer'
p1344
I1
sS'percent.ims'
p1345
I1
sS'henrique'
p1346
I1
sS'alliance'
p1347
I10
sS'unfavourable'
p1348
I1
sS'rectify'
p1349
I1
sS'catherine'
p1350
I2
sS'commitment'
p1351
I3
sS'assess'
p1352
I1
sS'bruxelles'
p1353
I8
sS'cumulative.some'
p1354
I1
sS'roads'
p1355
I1
sS'mere'
p1356
I1
sS'spots'
p1357
I2
sS'9.8'
p1358
I1
sS'9.7'
p1359
I4
sS'pretax'
p1360
I1
sS'out.but'
p1361
I1
sS'merging.royale'
p1362
I1
sS'delivery'
p1363
I2
sS'convergence'
p1364
I4
sS'official'
p1365
I3
sS'knudsen'
p1366
I1
sS'placed'
p1367
I1
sS'convince'
p1368
I1
sS'distribution'
p1369
I3
sS'bearing'
p1370
I4
sS'irish'
p1371
I9
sS'ing'
p1372
I5
sS'planting'
p1373
I1
sS'compared'
p1374
I27
sS'tenth'
p1375
I1
sS'compares'
p1376
I1
sS'details'
p1377
I6
sS'8.269'
p1378
I1
sS'repeat'
p1379
I1
sS'monday'
p1380
I4
sS'raeford'
p1381
I2
sS'chance'
p1382
I1
sS'comofi'
p1383
I2
sS'rule'
p1384
I2
sS'471'
p1385
I1
sS'compete'
p1386
I1
sS'475'
p1387
I1
sS'comptoir'
p1388
I1
sS'consolidated'
p1389
I6
sS'doubts'
p1390
I2
sS'0830'
p1391
I1
sS'controversial'
p1392
I2
sS'2,200'
p1393
I1
sS'rekindle'
p1394
I1
sS'voter'
p1395
I1
sS'neighbours'
p1396
I1
sS'voted'
p1397
I1
sS'worth'
p1398
I11
sS'0.55'
p1399
I1
sS'perishable'
p1400
I1
sS'distort'
p1401
I1
sS'15.70'
p1402
I2
sS"we'll"
p1403
I2
sS'unrest'
p1404
I1
sS'cmb'
p1405
I2
sS'monsanto'
p1406
I1
sS'delegate'
p1407
I1
sS'299'
p1408
I1
sS'297'
p1409
I1
sS'294'
p1410
I1
sS'1,602'
p1411
I1
sS'1,600'
p1412
I2
sS'iraq'
p1413
I1
sS'established'
p1414
I3
sS'pts'
p1415
I1
sS'reconstruction'
p1416
I1
sS'toll'
p1417
I1
sS'zoomed'
p1418
I1
sS'career.scifo'
p1419
I1
sS'told'
p1420
I58
sS'equals'
p1421
I1
sS'0.36'
p1422
I1
sS'study'
p1423
I3
sS'0.31'
p1424
I1
sS'stressed'
p1425
I1
sS'postponed'
p1426
I2
sS'schweitzer'
p1427
I14
sS'opportunities'
p1428
I2
sS'total'
p1429
I50
sS'vilvoorde'
p1430
I70
sS'areas.irish'
p1431
I1
sS'negative'
p1432
I12
sS'harelbeke'
p1433
I1
sS'francs.cbr'
p1434
I1
sS'71.1'
p1435
I1
sS'cardiology'
p1436
I1
sS'65.556'
p1437
I2
sS'casteleyn'
p1438
I2
sS'brugge'
p1439
I2
sS'striving'
p1440
I1
sS'blocking'
p1441
I3
sS'overrun'
p1442
I1
sS'20,750'
p1443
I1
sS'1990'
p1444
I1
sS'1992'
p1445
I3
sS'1995'
p1446
I18
sS'1994'
p1447
I3
sS'1997'
p1448
I62
sS'1996'
p1449
I86
sS'1999'
p1450
I9
sS'1998'
p1451
I13
sS'work'
p1452
I16
sS'kistaindustrier'
p1453
I3
sS'containment'
p1454
I1
sS'erm'
p1455
I5
sS'crackers'
p1456
I3
sS'559'
p1457
I1
sS'2.81'
p1458
I1
sS'2.82'
p1459
I1
sS'555'
p1460
I1
sS'554'
p1461
I2
sS'cited'
p1462
I1
sS'550'
p1463
I1
sS'1871-77'
p1464
I1
sS'recovery'
p1465
I7
sS'carriers'
p1466
I1
sS'provide'
p1467
I4
sS'5452'
p1468
I6
sS'interview'
p1469
I9
sS'ordinary'
p1470
I3
sS'offshore'
p1471
I2
sS'earlier'
p1472
I18
sS'damaged'
p1473
I1
sS'davis'
p1474
I1
sS'lay'
p1475
I2
sS'techsnabexport'
p1476
I1
sS'law'
p1477
I12
sS'noted.washington'
p1478
I1
sS'zaire'
p1479
I16
sS'comparison.operating'
p1480
I1
sS'reinstill'
p1481
I1
sS'work.france'
p1482
I1
sS'supermarkets'
p1483
I1
sS'greek'
p1484
I1
sS'green'
p1485
I4
sS'miert.van'
p1486
I3
sS'order'
p1487
I2
sS'office'
p1488
I6
sS'satisfied'
p1489
I2
sS'6.7'
p1490
I1
sS'6.5'
p1491
I1
sS'6.4'
p1492
I1
sS'12.7'
p1493
I1
sS'12.6'
p1494
I1
sS'12.5'
p1495
I1
sS'japan'
p1496
I4
sS'chronically'
p1497
I3
sS'economische'
p1498
I1
sS'highlights'
p1499
I1
sS'cerle'
p1500
I1
sS'50,000'
p1501
I2
sS'westwards'
p1502
I1
sS'spain.renault'
p1503
I5
sS'production'
p1504
I35
sS'2,079'
p1505
I1
sS'versus'
p1506
I3
sS'coffee'
p1507
I5
sS'affected'
p1508
I4
sS'safe'
p1509
I2
sS'break'
p1510
I7
sS'bank'
p1511
I49
sS'1.06'
p1512
I1
sS'l'
p1513
I2
sS'reasonable'
p1514
I1
sS'375'
p1515
I3
sS'lifted'
p1516
I1
sS'network'
p1517
I3
sS'1996/97'
p1518
I3
sS'daniel'
p1519
I1
sS'medicine'
p1520
I2
sS'disagreements'
p1521
I1
sS'standard'
p1522
I2
sS'452,639'
p1523
I4
sS'1994/95'
p1524
I2
sS'recovering'
p1525
I1
sS'created'
p1526
I5
sS'writhing'
p1527
I1
sS'refugee'
p1528
I1
sS'renew'
p1529
I1
sS'incorporated'
p1530
I1
sS'delay.the'
p1531
I1
sS'corluy'
p1532
I1
sS'ronge'
p1533
I1
sS'spain.in'
p1534
I1
sS'electronic'
p1535
I10
sS'rated'
p1536
I1
sS'moderates.aid'
p1537
I1
sS'rates'
p1538
I40
sS'inflate'
p1539
I1
sS'john'
p1540
I2
sS'damaging'
p1541
I1
sS'chanted'
p1542
I3
sS'enhancing'
p1543
I1
sS'albert'
p1544
I1
sS'rejected'
p1545
I2
sS'mercy'
p1546
I1
sS'100.797'
p1547
I1
sS'fuelled'
p1548
I2
sS'target'
p1549
I5
sS'hike'
p1550
I3
sS'rate'
p1551
I54
sS'iron'
p1552
I4
sS'disclosed.twil'
p1553
I1
sS'lula'
p1554
I2
sS'forced'
p1555
I3
sS'union.meeting'
p1556
I1
sS'materials'
p1557
I3
sS'forces'
p1558
I6
sS'explanation'
p1559
I2
sS'circles'
p1560
I1
sS'friday.dealers'
p1561
I1
sS'bruce'
p1562
I1
sS'germany'
p1563
I36
sS'calculated'
p1564
I1
sS'investments'
p1565
I3
sS'accounted'
p1566
I2
sS'responded'
p1567
I1
sS'reserve'
p1568
I4
sS'7.2'
p1569
I2
sS'7.3'
p1570
I5
sS'7.0'
p1571
I1
sS'7.5'
p1572
I1
sS'7.8'
p1573
I1
sS'107.578'
p1574
I1
sS'implementation'
p1575
I2
sS'guidance'
p1576
I1
sS'screening'
p1577
I2
sS'pursuing'
p1578
I3
sS'adequate'
p1579
I1
sS'di'
p1580
I1
sS'preferred'
p1581
I1
sS'yielded'
p1582
I2
sS'25,000'
p1583
I1
sS'20.60'
p1584
I2
sS'2,194'
p1585
I1
sS'6.615'
p1586
I2
sS'runs'
p1587
I1
sS'covering'
p1588
I3
sS'emi'
p1589
I2
sS'statement.in'
p1590
I1
sS'emu'
p1591
I20
sS'417'
p1592
I1
sS'410'
p1593
I1
sS'analytical'
p1594
I3
sS'419'
p1595
I1
sS'secretary'
p1596
I2
sS'fetched.although'
p1597
I1
sS'2,224'
p1598
I2
sS'0.74'
p1599
I1
sS'2,220'
p1600
I1
sS'observed'
p1601
I1
sS'cattle'
p1602
I2
sS'techniques'
p1603
I1
sS'away'
p1604
I5
sS'sweden'
p1605
I6
sS'announcement.bekaert'
p1606
I1
sS'unable'
p1607
I1
sS'cooperation'
p1608
I2
sS'r&d'
p1609
I1
sS'misguided'
p1610
I2
sS'accord'
p1611
I1
sS'terms'
p1612
I9
sS'declerck'
p1613
I2
sS'buyers'
p1614
I6
sS'downgraded'
p1615
I1
sS'received'
p1616
I5
sS'essentially'
p1617
I1
sS'cor'
p1618
I2
sS'550-strong'
p1619
I1
sS'cow'
p1620
I3
sS'ill'
p1621
I1
sS'bnp'
p1622
I1
sS'tough'
p1623
I1
sS'thierry'
p1624
I1
sS'wider'
p1625
I2
sS'telecommunications'
p1626
I1
sS'interes'
p1627
I1
sS'flexible'
p1628
I2
sS'attacked'
p1629
I5
sS'concerning'
p1630
I4
sS'0.17'
p1631
I1
sS'0.10'
p1632
I1
sS'0.13'
p1633
I2
sS'0.18'
p1634
I3
sS'ahead'
p1635
I22
sS'publicly'
p1636
I1
sS'competition.the'
p1637
I1
sS'air'
p1638
I24
sS'aim'
p1639
I4
sS'applies'
p1640
I2
sS'charleroi'
p1641
I3
sS'aid'
p1642
I4
sS'property'
p1643
I6
sS'launched'
p1644
I6
sS'weakens'
p1645
I1
sS'cons'
p1646
I4
sS'dumped'
p1647
I1
sS'conc'
p1648
I1
sS'comparative'
p1649
I1
sS'canvases'
p1650
I1
sS'confirmed'
p1651
I3
sS'said.at'
p1652
I2
sS'patent'
p1653
I2
sS'independent'
p1654
I1
sS'rail'
p1655
I1
sS'rain'
p1656
I1
sS'hand'
p1657
I1
sS'norwegian'
p1658
I1
sS'producers'
p1659
I2
sS'hans'
p1660
I1
sS'outperformer'
p1661
I1
sS'blamed'
p1662
I2
sS'centred'
p1663
I1
sS'kept'
p1664
I1
sS'scenario'
p1665
I7
sS'penalised'
p1666
I1
sS'eps'
p1667
I3
sS'119.25.abn'
p1668
I1
sS'client'
p1669
I2
sS'centres'
p1670
I2
sS'stood.out'
p1671
I1
sS'camps'
p1672
I2
sS'stringent'
p1673
I3
sS'quoted'
p1674
I3
sS'photo'
p1675
I2
sS'thanks'
p1676
I3
sS'8.10'
p1677
I1
sS'adding'
p1678
I7
sS'segment.de'
p1679
I1
sS'hills'
p1680
I1
sS'5,500'
p1681
I1
sS'passive'
p1682
I1
sS'spread'
p1683
I7
sS'transformed'
p1684
I1
sS'board'
p1685
I11
sS'gecamines'
p1686
I3
sS'326'
p1687
I1
sS'expelled'
p1688
I1
sS'mayi'
p1689
I3
sS'groep'
p1690
I1
sS'court.both'
p1691
I1
sS'glitch'
p1692
I1
sS'securities'
p1693
I3
sS'scrutinised'
p1694
I1
sS'cirrus'
p1695
I1
sS'538'
p1696
I1
sS'portuguese'
p1697
I1
sS'dando.raeford'
p1698
I1
sS'eyeing'
p1699
I2
sS'born'
p1700
I2
sS'simba'
p1701
I4
sS'asking'
p1702
I8
sS'denied'
p1703
I5
sS'2,050'
p1704
I1
sS'participation'
p1705
I1
sS'vermeulen'
p1706
I6
sS'marketing'
p1707
I11
sS'constructive'
p1708
I1
sS'plg'
p1709
I1
sS'shares.he'
p1710
I1
sS'plc'
p1711
I2
sS'post'
p1712
I1
sS'differed.eu'
p1713
I1
sS'months'
p1714
I13
sS'banker'
p1715
I1
sS'jacques'
p1716
I2
sS'wasting'
p1717
I1
sS'float'
p1718
I2
sS'bound'
p1719
I2
sS'capped'
p1720
I1
sS'sparred'
p1721
I1
sS'legislation'
p1722
I1
sS'462.216'
p1723
I1
sS'fight'
p1724
I9
sS'way'
p1725
I20
sS'editions'
p1726
I1
sS'war'
p1727
I12
sS'accountancy'
p1728
I1
sS'10,683'
p1729
I1
sS'markets'
p1730
I23
sS'maximum'
p1731
I3
sS'263,747'
p1732
I1
sS'genfinance'
p1733
I1
sS'gather'
p1734
I1
sS'3.52'
p1735
I1
sS'scandalous'
p1736
I1
sS'3.59'
p1737
I1
sS'line.the'
p1738
I1
sS'added.analysts'
p1739
I1
sS'dying'
p1740
I1
sS'stake'
p1741
I20
sS'reality'
p1742
I2
sS'negotiators'
p1743
I4
sS'interested'
p1744
I3
sS'holding'
p1745
I21
sS'test'
p1746
I6
sS'shrink'
p1747
I1
sS'scored'
p1748
I1
sS'husked'
p1749
I1
sS'welcome'
p1750
I1
sS'update'
p1751
I1
sS'lampreia.brittan'
p1752
I1
sS'published.belgian'
p1753
I1
sS'vandersmissen'
p1754
I1
sS'cumulative.for'
p1755
I1
sS'concept'
p1756
I1
sS'switched'
p1757
I1
sS'maglificio'
p1758
I1
sS'global'
p1759
I2
sS'battle'
p1760
I1
sS'19,261'
p1761
I1
sS'zone'
p1762
I3
sS'york.saes'
p1763
I1
sS'southwest'
p1764
I2
sS'division'
p1765
I10
sS'protective'
p1766
I1
sS'6-1johan'
p1767
I1
sS'entries'
p1768
I2
sS'10-year'
p1769
I20
sS'blast'
p1770
I3
sS'aggressively'
p1771
I1
sS'perceived'
p1772
I3
sS'respiratory'
p1773
I1
sS'presented'
p1774
I1
sS'12th'
p1775
I1
sS'p'
p1776
I2
sS'guy'
p1777
I1
sS'revolution'
p1778
I1
sS'regret'
p1779
I2
sS'711,840'
p1780
I1
sS'cost'
p1781
I11
sS'cargo'
p1782
I21
sS'assistance'
p1783
I1
sS'shares'
p1784
I44
sS'shared'
p1785
I1
sS'1016'
p1786
I1
sS'appeal'
p1787
I20
sS'0.4418'
p1788
I1
sS'satisfy'
p1789
I1
sS'genes'
p1790
I1
sS'states.philips'
p1791
I2
sS'change'
p1792
I22
sS'eko'
p1793
I2
sS'buck'
p1794
I2
sS'430'
p1795
I1
sS'regardless'
p1796
I3
sS'lending'
p1797
I6
sS'marked'
p1798
I1
sS'8london'
p1799
I1
sS'market'
p1800
I75
sS'guilders.kenya'
p1801
I1
sS'prove'
p1802
I1
sS'provs'
p1803
I1
sS'marginally'
p1804
I1
sS'commissioner'
p1805
I13
sS'club'
p1806
I5
sS'1,422'
p1807
I2
sS'8,000'
p1808
I1
sS'emphasising'
p1809
I2
sS'graphic'
p1810
I1
sS'kasai'
p1811
I2
sS'measures.the'
p1812
I2
sS'car'
p1813
I33
sS'hardest'
p1814
I4
sS'totalled'
p1815
I4
sS'ibt'
p1816
I4
sS'antwerpen'
p1817
I11
sS'december'
p1818
I20
sS'chip'
p1819
I6
sS"didn't"
p1820
I2
sS'cancer.mobutu'
p1821
I1
sS'city.police'
p1822
I2
sS'handle'
p1823
I2
sS'occur'
p1824
I1
sS'bankrupt'
p1825
I11
sS'40.3266'
p1826
I1
sS'spreads'
p1827
I1
sS'75-percent'
p1828
I1
sS'write'
p1829
I10
sS'10.96'
p1830
I1
sS'championshipgroup'
p1831
I1
sS'economy'
p1832
I8
sS'product'
p1833
I2
sS'influenced'
p1834
I3
sS'liberalisation'
p1835
I1
sS'dive'
p1836
I1
sS'southern'
p1837
I4
sS'motorway'
p1838
I3
sS'produce'
p1839
I2
sS'restate'
p1840
I1
sS'5.4'
p1841
I1
sS'heroes'
p1842
I1
sS'added.brokerage'
p1843
I1
sS'lifting'
p1844
I2
sS'pointillists.among'
p1845
I1
sS'collective'
p1846
I5
sS'futures'
p1847
I3
sS'319,631'
p1848
I1
sS'accelerated'
p1849
I1
sS'progressively'
p1850
I1
sS'consulting'
p1851
I1
sS'ended'
p1852
I19
sS'statistical'
p1853
I2
sS'culmination'
p1854
I1
sS'1995.pulp'
p1855
I1
sS'network.in'
p1856
I1
sS'non'
p1857
I16
sS'halt'
p1858
I1
sS'100,000'
p1859
I3
sS'introduce'
p1860
I3
sS'1955'
p1861
I1
sS'wealthy'
p1862
I1
sS'provision'
p1863
I5
sS'discuss'
p1864
I2
sS'january'
p1865
I11
sS'drop'
p1866
I4
sS'stockholm'
p1867
I1
sS'22.5'
p1868
I1
sS'29,341'
p1869
I1
sS'unloaded'
p1870
I2
sS'challenges'
p1871
I1
sS'ex'
p1872
I3
sS'year'
p1873
I90
sS'eu'
p1874
I68
sS'et'
p1875
I1
sS'chain.dealers'
p1876
I1
sS'1.139'
p1877
I1
sS'shown'
p1878
I3
sS'opened'
p1879
I5
sS'showa'
p1880
I1
sS'looking'
p1881
I5
sS'gencor'
p1882
I1
sS'thursday.whatever'
p1883
I1
sS'shows'
p1884
I2
sS'2944paris'
p1885
I1
sS'cars'
p1886
I9
sS'divergence'
p1887
I1
sS'mercedes'
p1888
I2
sS'rebel'
p1889
I8
sS'marino'
p1890
I4
sS'tightening'
p1891
I2
sS'repurchase'
p1892
I1
sS'ago.whatever'
p1893
I1
sS'obligation'
p1894
I3
sS'kredietbank'
p1895
I3
sS'fixed'
p1896
I2
sS'66.844'
p1897
I1
sS'wednesday.a'
p1898
I2
sS'british'
p1899
I16
sS'entrusted'
p1900
I1
sS'514'
p1901
I1
sS'debt.countries'
p1902
I1
sS'striking'
p1903
I1
sS'xx'
p1904
I1
sS'directly'
p1905
I1
sS'comprises'
p1906
I2
sS'impossible'
p1907
I2
sS'message'
p1908
I1
sS'tomorrow'
p1909
I1
sS'size'
p1910
I1
sS'jeopardise'
p1911
I2
sS'sheet'
p1912
I5
sS'caught'
p1913
I3
sS'lb.fundamentalsyugoslavia'
p1914
I1
sS'bourse'
p1915
I8
sS'450.457'
p1916
I1
sS'3878'
p1917
I1
sS'taxation'
p1918
I2
sS'market.kredietbank'
p1919
I1
sS'appreciated'
p1920
I1
sS'television'
p1921
I10
sS'7565'
p1922
I1
sS'week.at'
p1923
I1
sS'accordance'
p1924
I1
sS'optimism'
p1925
I3
sS'investors'
p1926
I22
sS'remained'
p1927
I4
sS'correction'
p1928
I3
sS'kalemie'
p1929
I1
sS'firstdivision'
p1930
I1
sS'anger'
p1931
I1
sS'recover'
p1932
I2
sS'81.6'
p1933
I1
sS'offering'
p1934
I1
sS'manufacturers'
p1935
I8
sS'1,600.the'
p1936
I1
sS'figures.arbed'
p1937
I1
sS'equipment'
p1938
I14
sS'objective'
p1939
I3
sS'swelled'
p1940
I3
sS'begin'
p1941
I2
sS'aircraft.flights'
p1942
I1
sS'price'
p1943
I21
sS'explained.steinmann'
p1944
I1
sS'1,895'
p1945
I1
sS'america'
p1946
I2
sS'reform'
p1947
I2
sS'steady'
p1948
I8
sS'hurled'
p1949
I3
sS'professional'
p1950
I1
sS'dispersed'
p1951
I1
sS'3.76'
p1952
I2
sS'german'
p1953
I26
sS'fifty'
p1954
I2
sS'discovered'
p1955
I1
sS'4572'
p1956
I1
sS'2new'
p1957
I1
sS'fifth'
p1958
I2
sS'ground'
p1959
I3
sS'ratio'
p1960
I2
sS'agreements'
p1961
I5
sS'proportion'
p1962
I3
sS'government.a'
p1963
I2
sS'8.86811'
p1964
I1
sS'notepct'
p1965
I3
sS'starvation.the'
p1966
I1
sS'cannon'
p1967
I12
sS'leon'
p1968
I1
sS'losers'
p1969
I2
sS'ago.after'
p1970
I1
sS'staged'
p1971
I1
sS'kiely'
p1972
I10
sS'concern'
p1973
I4
sS'thursday.failure'
p1974
I1
sS'justifies'
p1975
I2
sS'colours'
p1976
I2
sS'3'
p1977
I21
sS'import'
p1978
I5
sS'notice'
p1979
I1
sS'garde'
p1980
I1
sS'bonino'
p1981
I2
sS'enabling'
p1982
I1
sS'kisangani'
p1983
I3
sS'downtrodden'
p1984
I1
sS'swissair'
p1985
I9
sS'evict'
p1986
I1
sS'passenger'
p1987
I2
sS'reuters.belgian'
p1988
I1
sS'minsiters'
p1989
I1
sS'proved'
p1990
I2
sS'oliver'
p1991
I1
sS'sese'
p1992
I3
sS'kerb.oil'
p1993
I1
sS'1035'
p1994
I1
sS'krona'
p1995
I2
sS'krone'
p1996
I2
sS'shortages'
p1997
I1
sS'developing'
p1998
I3
sS'trick'
p1999
I1
sS'fines'
p2000
I4
sS'editorial'
p2001
I1
sS'orientation'
p2002
I3
sS'11.769'
p2003
I1
sS'euro.here'
p2004
I1
sS'groping'
p2005
I1
sS'develop'
p2006
I7
sS'media'
p2007
I5
sS'11.0'
p2008
I2
sS'inquiry'
p2009
I2
sS'angered'
p2010
I1
sS'finish'
p2011
I1
sS'centuries'
p2012
I1
sS'court.it'
p2013
I3
sS'16london'
p2014
I1
sS'complained'
p2015
I2
sS'charges'
p2016
I6
sS'delcuve'
p2017
I2
sS'severe'
p2018
I4
sS'gain'
p2019
I1
sS'imports.traffic'
p2020
I1
sS'laboratories'
p2021
I1
sS'ccb'
p2022
I11
sS'francs.delhaize'
p2023
I1
sS'speed'
p2024
I4
sS'death'
p2025
I1
sS'conclude'
p2026
I1
sS'improvement'
p2027
I5
sS'lender'
p2028
I1
sS'treatment'
p2029
I4
sS'halftime'
p2030
I2
sS'republic'
p2031
I1
sS'ditu'
p2032
I1
sS'rules'
p2033
I32
sS'early'
p2034
I12
sS'symbolism'
p2035
I1
sS'using'
p2036
I1
sS'earls'
p2037
I8
sS'reap'
p2038
I1
sS'amt'
p2039
I7
sS'ruled'
p2040
I9
sS'pounds'
p2041
I2
sS'suppliers'
p2042
I3
sS'annually'
p2043
I2
sS'benefit'
p2044
I2
sS't'
p2045
I6
sS'output'
p2046
I12
sS'downward'
p2047
I3
sS'bellamy'
p2048
I2
sS'walloon'
p2049
I1
sS'added.alternatively'
p2050
I1
sS'eddie'
p2051
I1
sS'1852'
p2052
I1
sS'hepatitis'
p2053
I10
sS'deficit'
p2054
I6
sS'2,104.29'
p2055
I2
sS'esthetique'
p2056
I1
sS'assembly'
p2057
I9
sS'business'
p2058
I6
sS'equivalent'
p2059
I4
sS'volkswagen'
p2060
I1
sS'39,329'
p2061
I7
sS'francis'
p2062
I2
sS'comparison'
p2063
I3
sS'central'
p2064
I42
sS'4457london'
p2065
I1
sS'powered'
p2066
I1
sS'165.443'
p2067
I1
sS'methods.an'
p2068
I1
sS'invested'
p2069
I1
sS'freeing'
p2070
I2
sS'outlook'
p2071
I7
sS'protests'
p2072
I14
sS'control.narmon'
p2073
I1
sS'33.3'
p2074
I2
sS'rolling'
p2075
I1
sS'kwaremont'
p2076
I1
sS'stabilisation'
p2077
I1
sS'operator'
p2078
I2
sS'shrinking'
p2079
I1
sS'prepare'
p2080
I2
sS'area'
p2081
I8
sS'barco'
p2082
I1
sS'qualifying'
p2083
I2
sS'people.claes'
p2084
I1
sS'said.irish'
p2085
I1
sS'start'
p2086
I34
sS'low'
p2087
I13
sS'lot'
p2088
I3
sS'5040'
p2089
I1
sS'jones'
p2090
I1
sS'delayed'
p2091
I1
sS'recouped'
p2092
I1
sS'trying'
p2093
I4
sS'fraud'
p2094
I1
sS'shareholders.he'
p2095
I1
sS'paratroops'
p2096
I2
sS'illnesses'
p2097
I1
sS'607'
p2098
I1
sS'601'
p2099
I1
sS'600'
p2100
I1
sS'company.fuel'
p2101
I1
sS'moved'
p2102
I8
sS'1200'
p2103
I1
sS'moves'
p2104
I6
sS'rulings.despite'
p2105
I1
sS'intercontinental'
p2106
I3
sS'poor'
p2107
I1
sS'polar'
p2108
I2
sS'10-to'
p2109
I1
sS'vaccinate'
p2110
I2
sS'preconditions'
p2111
I1
sS'peak'
p2112
I1
sS'suited'
p2113
I1
sS'massenet'
p2114
I1
sS'3,597note'
p2115
I1
sS'fiscal'
p2116
I1
sS'bulk'
p2117
I3
sS'kolwezi.zairean'
p2118
I1
sS'exhibitions'
p2119
I1
sS'pointing'
p2120
I1
sS'month'
p2121
I28
sS'ceased'
p2122
I1
sS'motorway.there'
p2123
I1
sS'deadline'
p2124
I8
sS'barrick'
p2125
I1
sS'pledged'
p2126
I2
sS'29,561'
p2127
I1
sS'equivalency'
p2128
I3
sS'8am.charges'
p2129
I1
sS'flattening'
p2130
I1
sS'airfreight'
p2131
I1
sS'profit.turnover'
p2132
I1
sS'confidential'
p2133
I1
sS'coalition.the'
p2134
I1
sS'decide'
p2135
I4
sS'frederik'
p2136
I1
sS'1,872'
p2137
I2
sS'louis'
p2138
I11
sS'mild'
p2139
I2
sS'3.11'
p2140
I1
sS'attributable'
p2141
I3
sS'penalise'
p2142
I1
sS'consumers'
p2143
I2
sS'witnessed'
p2144
I1
sS'two.over'
p2145
I1
sS'gazownictwo'
p2146
I1
sS'friday'
p2147
I84
sS'loose'
p2148
I1
sS'modify'
p2149
I1
sS'selective'
p2150
I2
sS'excess'
p2151
I2
sS'strong'
p2152
I5
sS'e3-harelbeke'
p2153
I1
sS'inspired'
p2154
I3
sS'losses'
p2155
I9
sS'unrestthis'
p2156
I1
sS'advertising'
p2157
I7
sS'mediator'
p2158
I3
sS'requiring'
p2159
I1
sS'tendered'
p2160
I2
sS'7340'
p2161
I1
sS'fair.neuchatel'
p2162
I1
sS'takes'
p2163
I1
sS'0.796'
p2164
I1
sS'taken'
p2165
I6
sS'injury'
p2166
I2
sS'terminally'
p2167
I1
sS'excuse'
p2168
I1
sS'market.they'
p2169
I1
sS'broke'
p2170
I6
sS'factories'
p2171
I2
sS'producing'
p2172
I2
sS'sukur'
p2173
I1
sS'spain.several'
p2174
I2
sS'respected'
p2175
I1
sS'coalition'
p2176
I4
sS'96-feb'
p2177
I2
sS'745'
p2178
I1
sS'pushes'
p2179
I1
sS'748'
p2180
I1
sS'pushed'
p2181
I7
sS'gecamines.anglo'
p2182
I1
sS'426484'
p2183
I1
sS'12.205'
p2184
I2
sS'firmly'
p2185
I1
sS'1052'
p2186
I1
sS'1.566'
p2187
I1
sS'anote'
p2188
I2
sS'1055'
p2189
I1
sS'ratified'
p2190
I1
sS'results.spector'
p2191
I1
sS'tried'
p2192
I10
sS'long'
p2193
I16
sS'selling.payrolls'
p2194
I1
sS'gornictwo'
p2195
I1
sS'fo'
p2196
I1
sS'preferential'
p2197
I1
sS'overnight'
p2198
I4
sS'banks'
p2199
I1
sS'help'
p2200
I6
sS'hierarchy'
p2201
I1
sS'soon'
p2202
I7
sS'ashanti'
p2203
I1
sS'held'
p2204
I6
sS'committee'
p2205
I6
sS'cardiovascular'
p2206
I1
sS'fined'
p2207
I1
sS'5,010'
p2208
I2
sS'actually'
p2209
I1
sS'absence'
p2210
I2
sS'systems'
p2211
I9
sS'differed'
p2212
I1
sS'founders'
p2213
I2
sS'lira'
p2214
I3
sS"haven't"
p2215
I1
sS'gmos'
p2216
I2
sS'rwe'
p2217
I1
sS'food'
p2218
I11
sS'anticipated'
p2219
I1
sS'sweeping'
p2220
I2
sS'impressionists'
p2221
I1
sS'fully'
p2222
I7
sS'stopped'
p2223
I1
sS'results.jacobs'
p2224
I1
sS'success@www'
p2225
I1
sS"isn't"
p2226
I1
sS'heavy'
p2227
I1
sS'resolved.the'
p2228
I1
sS'francs.suez'
p2229
I1
sS'taunted'
p2230
I3
sS'robert'
p2231
I2
sS'dominated'
p2232
I2
sS'7'
p2233
I8
sS'issue'
p2234
I13
sS'5,900'
p2235
I2
sS'basf'
p2236
I12
sS'houses'
p2237
I2
sS'reason'
p2238
I7
sS'base'
p2239
I1
sS'ask'
p2240
I2
sS'earliest'
p2241
I1
sS'unresolved'
p2242
I1
sS'launch'
p2243
I4
sS'terribly'
p2244
I1
sS'american'
p2245
I11
sS'expecting'
p2246
I1
sS'leading'
p2247
I12
sS'syria'
p2248
I1
sS'partnerships'
p2249
I1
sS'consultations'
p2250
I5
sS'reflected'
p2251
I1
sS'1951.by'
p2252
I1
sS'1871'
p2253
I1
sS'station'
p2254
I7
sS'2114'
p2255
I1
sS'raws'
p2256
I1
sS'selling'
p2257
I14
sS'said.prime'
p2258
I2
sS'trapped'
p2259
I2
sS'authors'
p2260
I1
sS'ogata'
p2261
I2
sS'financing'
p2262
I3
sS'grew'
p2263
I5
sS'depry'
p2264
I1
sS'procedural'
p2265
I5
sS'urgently'
p2266
I1
sS'alongside'
p2267
I1
sS'substantial'
p2268
I1
sS'plants.on'
p2269
I3
sS'plant.renault'
p2270
I1
sS'lid'
p2271
I1
sS'u.s'
p2272
I2
sS'speculative'
p2273
I5
sS'officers'
p2274
I2
sS'labour'
p2275
I24
sS'experienced'
p2276
I2
sS'quota'
p2277
I1
sS'sponsored'
p2278
I1
sS'privatised'
p2279
I1
sS'5-7'
p2280
I1
sS'clear'
p2281
I10
sS'retirements.schweitzer'
p2282
I1
sS'unreasonable'
p2283
I2
sS'tenex'
p2284
I3
sS'661'
p2285
I1
sS'interestrates'
p2286
I1
sS'northern'
p2287
I4
sS'justice'
p2288
I1
sS'flights'
p2289
I3
sS'executive'
p2290
I9
sS'dominant'
p2291
I2
sS'king'
p2292
I1
sS'zambia'
p2293
I4
sS'interdiscount'
p2294
I2
sS'stg'
p2295
I2
sS'reorganise'
p2296
I2
sS'3,496'
p2297
I1
sS'3,490'
p2298
I3
sS'1.86'
p2299
I1
sS'24london'
p2300
I1
sS'retaliation'
p2301
I1
sS'4,157'
p2302
I2
sS'0.781'
p2303
I1
sS'switzerland'
p2304
I3
sS'21london'
p2305
I1
sS'throwing'
p2306
I7
sS'plummeted'
p2307
I1
sS'tenderers'
p2308
I1
sS'close'
p2309
I46
sS'165,000'
p2310
I1
sS'won'
p2311
I2
sS'probably'
p2312
I2
sS'23.may.97'
p2313
I1
sS'59.56'
p2314
I1
sS'league'
p2315
I1
sS'secrets'
p2316
I1
sS'minorities'
p2317
I2
sS'sensitive'
p2318
I4
sS'liked'
p2319
I2
sS'headed'
p2320
I1
sS'battery'
p2321
I1
sS'complied'
p2322
I4
sS'627vancouver'
p2323
I1
sS'described'
p2324
I2
sS'exert'
p2325
I1
sS'reciprocate'
p2326
I1
sS'threaten'
p2327
I1
sS'napm'
p2328
I3
sS'territory'
p2329
I3
sS'zaire.sadako'
p2330
I1
sS'889'
p2331
I1
sS'dialogue'
p2332
I6
sS'lived'
p2333
I1
sS'partly'
p2334
I2
sS'0008'
p2335
I1
sS'monday.kiely'
p2336
I1
sS'liver'
p2337
I5
sS'bidding'
p2338
I2
sS'pact'
p2339
I7
sS'look'
p2340
I5
sS'socialist'
p2341
I1
sS'governor'
p2342
I1
sS'3.36'
p2343
I5
sS'pace'
p2344
I3
sS'3.34'
p2345
I1
sS'287'
p2346
I72
sS'fleet'
p2347
I1
sS'richter'
p2348
I1
sS'guide'
p2349
I2
sS'3.38'
p2350
I2
sS'3.39'
p2351
I2
sS'straggling'
p2352
I1
sS'avro'
p2353
I1
sS'loosened'
p2354
I1
sS'ready'
p2355
I3
sS'besler'
p2356
I1
sS'communal'
p2357
I9
sS'grand'
p2358
I1
sS'www.cabsat.co.uk'
p2359
I1
sS'used'
p2360
I10
sS'curators'
p2361
I1
sS'uses'
p2362
I3
sS'brussels'
p2363
I168
sS'15.7'
p2364
I1
sS'15.8'
p2365
I2
sS'poland'
p2366
I2
sS'obviously'
p2367
I1
sS'gsa'
p2368
I1
sS'chronicles'
p2369
I1
sS'coup'
p2370
I1
sS'judgments'
p2371
I3
sS'764'
p2372
I1
sS'reviewed'
p2373
I2
sS'1079'
p2374
I1
sS'informal'
p2375
I3
sS'questioned'
p2376
I1
sS'remaining'
p2377
I3
sS'emmanuelli'
p2378
I2
sS'march'
p2379
I91
sS'82.09'
p2380
I1
sS'showing'
p2381
I1
sS'1998.once'
p2382
I1
sS'5.managing'
p2383
I1
sS'direction.traders'
p2384
I1
sS'beffa'
p2385
I1
sS'submission'
p2386
I1
sS'kredietbank.it'
p2387
I1
sS'signal'
p2388
I1
sS'toyota'
p2389
I2
sS'popular'
p2390
I2
sS'noordwijk'
p2391
I3
sS'creation'
p2392
I3
sS'pierre'
p2393
I3
sS'usa.philips'
p2394
I1
sS'afternoon.volume'
p2395
I1
sS'urgent'
p2396
I5
sS'trends'
p2397
I1
sS'added'
p2398
I19
sS'markka'
p2399
I1
sS'delivered'
p2400
I1
sS'unchanged.the'
p2401
I4
sS'exceeding'
p2402
I1
sS'commitments.the'
p2403
I1
sS'slash'
p2404
I2
sS'43.30'
p2405
I2
sS'eating'
p2406
I1
sS'fomc'
p2407
I1
sS'processing'
p2408
I5
sS'laker'
p2409
I1
sS'rue'
p2410
I2
sS'step'
p2411
I3
sS'classic.but'
p2412
I1
sS'cgt'
p2413
I4
sS'troops'
p2414
I4
sS'radio.renault'
p2415
I1
sS'bourses'
p2416
I1
sS'trucking'
p2417
I1
sS'block'
p2418
I8
sS'sandra'
p2419
I1
sS'rules.under'
p2420
I1
sS'reuters.he'
p2421
I1
sS'ruling.friday'
p2422
I1
sS'statistics'
p2423
I3
sS'placing'
p2424
I1
sS'besieged'
p2425
I1
sS'approved'
p2426
I3
sS'consultation'
p2427
I12
sS'systemems'
p2428
I1
sS'5,922'
p2429
I2
sS'0-0'
p2430
I1
sS'registered'
p2431
I5
sS'reiterated'
p2432
I6
sS'34.48'
p2433
I1
sS'properly'
p2434
I1
sS'authority'
p2435
I2
sS'russian'
p2436
I3
sS'mineral'
p2437
I3
sS'paolo'
p2438
I3
sS'923.4'
p2439
I6
sS'similar'
p2440
I6
sS'said.in'
p2441
I6
sS'ordered'
p2442
I1
sS'interventions'
p2443
I1
sS'metals'
p2444
I1
sS'shareholding.analysts'
p2445
I2
sS'said.it'
p2446
I1
sS'571,560'
p2447
I1
sS'aeronautical'
p2448
I2
sS'dashed'
p2449
I1
sS'fears'
p2450
I7
sS'nam'
p2451
I1
sS'application'
p2452
I1
sS'politicians'
p2453
I1
sS'department'
p2454
I4
sS'level1-1'
p2455
I1
sS'visits'
p2456
I1
sS'regulations'
p2457
I1
sS'revamped'
p2458
I1
sS'francedexia'
p2459
I1
sS'e'
p2460
I2
sS'month.zairean'
p2461
I1
sS'required'
p2462
I5
sS'requires'
p2463
I1
sS'kilometre'
p2464
I4
sS'1.153'
p2465
I1
sS'martinair'
p2466
I1
sS'8.695'
p2467
I1
sS'gm'
p2468
I2
sS'excludes'
p2469
I1
sS'club.udinese'
p2470
I1
sS'date.such'
p2471
I1
sS'carpeaux'
p2472
I1
sS'miniere'
p2473
I1
sS'earnings.he'
p2474
I2
sS'mind.in'
p2475
I1
sS'1796'
p2476
I1
sS'miners'
p2477
I1
sS'wave'
p2478
I1
sS'eaux.jean'
p2479
I1
sS'rattling'
p2480
I1
sS'minera'
p2481
I1
sS'6,851.14'
p2482
I1
sS'positions'
p2483
I1
sS'transposing'
p2484
I1
sS'inspection'
p2485
I6
sS'interest.however'
p2486
I1
sS'compensated'
p2487
I1
sS'7,420'
p2488
I2
sS'picked'
p2489
I2
sS'zairean'
p2490
I5
sS'paintings'
p2491
I1
sS'marketed'
p2492
I1
sS'volatile'
p2493
I1
sS'said.restructuring'
p2494
I1
sS'marketer'
p2495
I2
sS'commercial'
p2496
I4
sS'lierse'
p2497
I1
sS'hepatitis.up'
p2498
I2
sS'following'
p2499
I12
sS'focused'
p2500
I3
sS'256-km'
p2501
I1
sS'lyonnaise'
p2502
I7
sS'added.since'
p2503
I1
sS'640'
p2504
I1
sS'products'
p2505
I32
sS'1532'
p2506
I1
sS'648'
p2507
I1
sS'gene'
p2508
I1
sS'danger'
p2509
I1
sS'win'
p2510
I4
sS'manage'
p2511
I1
sS'austria'
p2512
I1
sS'4.74'
p2513
I1
sS'4.72'
p2514
I1
sS'4.71'
p2515
I1
sS'announced'
p2516
I29
sS'blockaded'
p2517
I1
sS'remains'
p2518
I5
sS'hudson'
p2519
I1
sS'vehicle'
p2520
I1
sS'means'
p2521
I2
sS'jonathan'
p2522
I1
sS'paristhe'
p2523
I1
sS'belgian'
p2524
I237
sS'problem.some'
p2525
I1
sS'compatriot'
p2526
I1
sS'formally'
p2527
I1
sS'allegations.ibt'
p2528
I1
sS'started'
p2529
I6
sS'statutes'
p2530
I1
sS'benchmark'
p2531
I16
sS'visibility'
p2532
I1
sS'24.92'
p2533
I2
sS'appointed'
p2534
I1
sS'whisky'
p2535
I4
sS'announcing'
p2536
I9
sS'sanctions'
p2537
I3
sS'ride'
p2538
I2
sS'subsidies.under'
p2539
I1
sS'crossed'
p2540
I2
sS'meet'
p2541
I10
sS'smoking.more'
p2542
I2
sS'control'
p2543
I7
sS'1,162'
p2544
I2
sS'links'
p2545
I1
sS'1,168'
p2546
I2
sS'9belgium'
p2547
I1
sS'years.the'
p2548
I3
sS'44.60'
p2549
I2
sS'steepening'
p2550
I1
sS'located'
p2551
I3
sS'fare'
p2552
I1
sS'farm'
p2553
I3
sS'brachytherapy'
p2554
I2
sS'introduced'
p2555
I2
sS'petrofina'
p2556
I2
sS'agenda'
p2557
I1
sS'1943.04'
p2558
I1
sS"won't"
p2559
I4
sS'said.renault'
p2560
I2
sS'masset'
p2561
I3
sS'headquarters.the'
p2562
I3
sS'hands'
p2563
I1
sS'kilometres'
p2564
I1
sS'university'
p2565
I5
sS'said.serge'
p2566
I1
sS'registrations'
p2567
I5
sS'mode'
p2568
I1
sS'sectors.production'
p2569
I1
sS'heidelberger'
p2570
I1
sS'705'
p2571
I1
sS'701'
p2572
I1
sS'mar'
p2573
I4
sS'measure'
p2574
I1
sS'margins'
p2575
I1
sS'belgolaise'
p2576
I1
sS'special'
p2577
I3
sS'entertainment'
p2578
I2
sS'thriving'
p2579
I1
sS'cause'
p2580
I4
sS'america.a'
p2581
I1
sS'recommendations'
p2582
I2
sS'eci'
p2583
I2
sS'ecu'
p2584
I2
sS'saturday.a'
p2585
I1
sS'20,000'
p2586
I2
sS'resumed'
p2587
I2
sS'sustainability'
p2588
I1
sS'determining'
p2589
I1
sS'route'
p2590
I3
sS'management.he'
p2591
I1
sS'times'
p2592
I7
sS'timed'
p2593
I1
sS'people.the'
p2594
I1
sS'designed'
p2595
I3
sS'bars'
p2596
I3
sS'baldato'
p2597
I1
sS'congo'
p2598
I5
sS'poncelet'
p2599
I1
sS'awarded'
p2600
I1
sS'videoland'
p2601
I2
sS'bears'
p2602
I1
sS'data'
p2603
I15
sS'10-for'
p2604
I1
sS'relations'
p2605
I1
sS'23.719'
p2606
I2
sS'banque'
p2607
I7
sS'final'
p2608
I8
sS'loadedamsterdam'
p2609
I1
sS'exactly'
p2610
I2
sS'rsb'
p2611
I2
sS'chemicals'
p2612
I5
sS'noted.traders'
p2613
I1
sS'photograph'
p2614
I1
sS'ultimatum'
p2615
I2
sS'submitted'
p2616
I4
sS'smeets'
p2617
I2
sS'providing'
p2618
I1
sS'bet'
p2619
I1
sS'amsterdam.trading'
p2620
I1
sS'unchanged'
p2621
I11
sS'sidmar'
p2622
I1
sS'need'
p2623
I11
sS'constrained'
p2624
I1
sS'border'
p2625
I2
sS'basis.the'
p2626
I1
sS'pursued'
p2627
I1
sS'able'
p2628
I6
sS'arm'
p2629
I3
sS'issuing'
p2630
I1
sS'declined'
p2631
I4
sS'intentions'
p2632
I6
sS'said.bbl'
p2633
I2
sS'15,540'
p2634
I1
sS'details.narmon'
p2635
I1
sS'laurent'
p2636
I2
sS'2,861'
p2637
I7
sS'upset'
p2638
I1
sS'affair'
p2639
I2
sS'emerging'
p2640
I1
sS'motorway.the'
p2641
I3
sS'soldiers'
p2642
I1
sS'partners'
p2643
I5
sS'arbed'
p2644
I6
sS'based'
p2645
I10
sS'winner'
p2646
I2
sS'hopeful'
p2647
I1
sS'rash'
p2648
I3
sS'employer'
p2649
I3
sS'libre'
p2650
I1
sS'fuel'
p2651
I4
sS'employed'
p2652
I3
sS'achieve'
p2653
I1
sS'overall'
p2654
I5
sS'120'
p2655
I2
sS'joint'
p2656
I11
sS'123'
p2657
I1
sS'joins'
p2658
I1
sS'127'
p2659
I1
sS'buyer'
p2660
I1
sS'years'
p2661
I19
sS'procedures'
p2662
I4
sS'bloc.reliable'
p2663
I1
sS'felipe'
p2664
I1
sS'wish'
p2665
I1
sS'shake'
p2666
I1
sS'operates'
p2667
I4
sS'computer'
p2668
I1
sS'desperate'
p2669
I1
sS'3.660'
p2670
I1
sS'positions.it'
p2671
I1
sS'lux'
p2672
I2
sS'tend'
p2673
I1
sS'state'
p2674
I12
sS'luc'
p2675
I11
sS'allotted'
p2676
I6
sS'tens'
p2677
I6
sS'comparable'
p2678
I1
sS'importance'
p2679
I1
sS'bierhoff'
p2680
I1
sS'key'
p2681
I18
sS'police'
p2682
I28
sS'problem'
p2683
I2
sS'limits'
p2684
I1
sS'marched.a'
p2685
I2
sS'minds'
p2686
I3
sS'admit'
p2687
I1
sS'tutsi'
p2688
I1
sS'jersey'
p2689
I3
sS'diplomats'
p2690
I2
sS'budgetary'
p2691
I4
sS'tuesday'
p2692
I28
sS'johann'
p2693
I1
sS'7658'
p2694
I1
sS'3,100'
p2695
I19
sS'industrials'
p2696
I1
sS'dexia.ccb'
p2697
I1
sS'addition'
p2698
I2
sS'liberals'
p2699
I1
sS'slowly'
p2700
I2
sS'treat'
p2701
I1
sS'poet'
p2702
I1
sS'no2/97'
p2703
I1
sS'controlled'
p2704
I4
sS'levels.other'
p2705
I1
sS'expenditure'
p2706
I1
sS'hamburg'
p2707
I3
sS'establissements'
p2708
I1
sS'14.750'
p2709
I2
sS'83.50'
p2710
I2
sS'180,000'
p2711
I1
sS'935'
p2712
I1
sS'owns'
p2713
I5
sS'2,300'
p2714
I2
sS'businesses.heavy'
p2715
I2
sS'generic'
p2716
I8
sS'began'
p2717
I3
sS'moscow.the'
p2718
I1
sS'chants'
p2719
I3
sS'parts'
p2720
I1
sS'northwest'
p2721
I3
sS'party'
p2722
I7
sS'2.638'
p2723
I1
sS'http'
p2724
I2
sS'absorb'
p2725
I1
sS'effect'
p2726
I2
sS'friday.very'
p2727
I1
sS'network.they'
p2728
I2
sS'fierce'
p2729
I1
sS'frequently'
p2730
I2
sS'poultry'
p2731
I8
sS'transaction'
p2732
I1
sS'particultar'
p2733
I1
sS'127.40'
p2734
I1
sS'3,518.82note'
p2735
I1
sS'increasingly'
p2736
I1
sS'1,100'
p2737
I2
sS'accurate'
p2738
I1
sS'43'
p2739
I5
sS'sources'
p2740
I2
sS'consultations.but'
p2741
I1
sS'7,000'
p2742
I1
sS'kick'
p2743
I1
sS'clouded'
p2744
I1
sS'ample'
p2745
I1
sS'munich'
p2746
I1
sS'267'
p2747
I1
sS'burden'
p2748
I2
sS'immediately'
p2749
I7
sS'prominent'
p2750
I1
sS'loss'
p2751
I36
sS'sylviane'
p2752
I2
sS'necessary'
p2753
I4
sS'lost'
p2754
I13
sS'raemdonck'
p2755
I4
sS'fernando'
p2756
I1
sS'7,145'
p2757
I2
sS'sized'
p2758
I1
sS'payments'
p2759
I2
sS'refugees'
p2760
I16
sS'trucked'
p2761
I2
sS'shed'
p2762
I3
sS'980'
p2763
I1
sS'profits.it'
p2764
I1
sS'home'
p2765
I12
sS'peter'
p2766
I1
sS'competitor'
p2767
I3
sS'broad'
p2768
I1
sS'objected'
p2769
I1
sS'grinding'
p2770
I1
sS'links.for'
p2771
I1
sS'opinion.the'
p2772
I1
sS'end.asked'
p2773
I1
sS'indicated'
p2774
I1
sS'decline'
p2775
I6
sS'journal'
p2776
I2
sS'monetary'
p2777
I14
sS'expansion'
p2778
I3
sS'offset'
p2779
I2
sS'refuge'
p2780
I1
sS'quarter'
p2781
I26
sS'3500'
p2782
I1
sS'anchorage'
p2783
I1
sS'friday.in'
p2784
I2
sS'23.2'
p2785
I1
sS'23.0'
p2786
I2
sS'persuaded'
p2787
I1
sS'23.9'
p2788
I1
sS'2929'
p2789
I1
sS'equally'
p2790
I1
sS'glenn'
p2791
I1
sS'previously'
p2792
I2
sS'washington'
p2793
I5
sS'terence'
p2794
I1
sS'5.23'
p2795
I1
sS'artists'
p2796
I5
sS'managing'
p2797
I4
sS'utility'
p2798
I3
sS'additional'
p2799
I2
sS'museum'
p2800
I1
sS'inspiration'
p2801
I1
sS'bfrnote'
p2802
I1
sS'north'
p2803
I5
sS'evacuate'
p2804
I1
sS'neutral'
p2805
I1
sS'goals'
p2806
I1
sS'courts'
p2807
I1
sS'courreges'
p2808
I1
sS'ha'
p2809
I3
sS'dma'
p2810
I1
sS'signed'
p2811
I6
sS'727'
p2812
I1
sS'converted'
p2813
I1
sS'limit'
p2814
I1
sS'7,490'
p2815
I1
sS'728'
p2816
I1
sS'vnetherlands'
p2817
I1
sS'universal'
p2818
I8
sS'erik'
p2819
I2
sS'eric'
p2820
I1
sS'kinshasa'
p2821
I3
sS'offensive'
p2822
I1
sS'1.486'
p2823
I1
sS'conference.monod'
p2824
I1
sS'sadako'
p2825
I1
sS'stay'
p2826
I5
sS'towns.french'
p2827
I1
sS'frankfurt'
p2828
I6
sS'kista'
p2829
I3
sS'compromised'
p2830
I2
sS'124.238'
p2831
I2
sS'protest'
p2832
I27
sS'asian'
p2833
I1
sS'consists'
p2834
I1
sS'painters'
p2835
I1
sS'plants'
p2836
I16
sS'said.there'
p2837
I3
sS'railways'
p2838
I3
sS'francsnote'
p2839
I1
sS'reforms'
p2840
I1
sS'continue.university'
p2841
I1
sS'affect'
p2842
I2
sS'polskie'
p2843
I1
sS'vast'
p2844
I1
sS'crops'
p2845
I1
sS'companies'
p2846
I28
sS'upc'
p2847
I2
sS'2310'
p2848
I1
sS'thebelgian'
p2849
I1
sS'subsidising'
p2850
I1
sS'unrelated'
p2851
I3
sS'employees'
p2852
I7
sS'currency.he'
p2853
I2
sS'heading'
p2854
I2
sS'kasman'
p2855
I1
sS'favoured'
p2856
I1
sS'force'
p2857
I14
sS'percent.sales'
p2858
I1
sS'japanese'
p2859
I2
sS'likely'
p2860
I17
sS'1,590'
p2861
I1
sS'9,350'
p2862
I1
sS'10.642'
p2863
I1
sS'neg'
p2864
I1
sS'spokesman'
p2865
I24
sS'percent.one'
p2866
I1
sS'new'
p2867
I70
sS'net'
p2868
I38
sS'reviving'
p2869
I1
sS'3.33'
p2870
I3
sS'deemed'
p2871
I3
sS'drew'
p2872
I2
sS'met'
p2873
I7
sS'108'
p2874
I2
sS'possibility'
p2875
I2
sS'active'
p2876
I7
sS'100'
p2877
I21
sS'106'
p2878
I1
sS'107'
p2879
I1
sS'contraction'
p2880
I1
sS'credit'
p2881
I17
sS'prospects.polyvinyl'
p2882
I1
sS'moral'
p2883
I1
sS'site.the'
p2884
I3
sS'schilling'
p2885
I1
sS'army'
p2886
I1
sS'arms'
p2887
I1
sS'jobs.however'
p2888
I3
sS'calm'
p2889
I3
sS'survive'
p2890
I1
sS'type'
p2891
I1
sS'tell'
p2892
I2
sS'supporters'
p2893
I1
sS'wary'
p2894
I2
sS'said.financials'
p2895
I2
sS'wars'
p2896
I3
sS'6800'
p2897
I2
sS'32,769'
p2898
I1
sS'contract.so'
p2899
I1
sS'berlin'
p2900
I4
sS'1.369note'
p2901
I1
sS'room'
p2902
I4
sS'dc-10'
p2903
I1
sS'2.69'
p2904
I2
sS'stressing'
p2905
I1
sS'10,000'
p2906
I1
sS'trade.the'
p2907
I1
sS'profit.in'
p2908
I2
sS'20.6255'
p2909
I2
sS'flanders'
p2910
I9
sS'answer'
p2911
I1
sS'massive'
p2912
I1
sS'minority'
p2913
I7
sS'loyalty'
p2914
I1
sS'curiosity'
p2915
I1
sS'president'
p2916
I13
sS'purchase'
p2917
I5
sS'attempt'
p2918
I1
sS'1282'
p2919
I1
sS'1578'
p2920
I1
sS'689'
p2921
I1
sS'norrkoping'
p2922
I1
sS'operate'
p2923
I1
sS'operations'
p2924
I3
sS'foresaw'
p2925
I1
sS'said.she'
p2926
I2
sS'4.38'
p2927
I2
sS'4.32'
p2928
I2
sS'10.1'
p2929
I2
sS'10.4'
p2930
I1
sS'10.6'
p2931
I3
sS'10.9'
p2932
I3
sS'product.german'
p2933
I1
sS'better'
p2934
I6
sS'superhighway'
p2935
I2
sS'officials.no'
p2936
I1
sS'weeks'
p2937
I14
sS'surcharges'
p2938
I1
sS'overcome'
p2939
I1
sS'weakness'
p2940
I2
sS'unemployed'
p2941
I1
sS'forthose'
p2942
I1
sS'uap.one'
p2943
I1
sS'wrongdoing.several'
p2944
I1
sS'sectors.the'
p2945
I1
sS'meat'
p2946
I11
sS'bel-20'
p2947
I19
sS'germany.for'
p2948
I2
sS"d'airain"
p2949
I1
sS'bonn'
p2950
I3
sS'went'
p2951
I3
sS'penalty.others'
p2952
I1
sS'bone'
p2953
I1
sS'bond'
p2954
I17
sS'principles'
p2955
I2
sS'milan'
p2956
I2
sS'trading'
p2957
I8
sS'caustic'
p2958
I2
sS'aids'
p2959
I2
sS'extract'
p2960
I1
sS'79.5'
p2961
I1
sS'7,028'
p2962
I1
sS'restricted'
p2963
I1
sS'debit'
p2964
I1
sS'surprise'
p2965
I3
sS'sluggish'
p2966
I2
sS'turning'
p2967
I1
sS'linear'
p2968
I4
sS'mcevoy'
p2969
I1
sS'11.00'
p2970
I1
sS'247'
p2971
I1
sS'struggle'
p2972
I2
sS'iss'
p2973
I1
sS'friday.there'
p2974
I1
sS'arrived'
p2975
I1
sS'210,379'
p2976
I1
sS'economists'
p2977
I2
sS'grade'
p2978
I1
sS'influence'
p2979
I2
sS'francs.financial'
p2980
I2
sS'gained'
p2981
I1
sS'584,348'
p2982
I1
sS'somewhat'
p2983
I1
sS'begins'
p2984
I1
sS'rodin'
p2985
I2
sS'preparation'
p2986
I2
sS'sairgroup'
p2987
I11
sS'evaporated'
p2988
I1
sS'illegal.renault'
p2989
I1
sS'extracting'
p2990
I1
sS'minh'
p2991
I2
sS'complex.the'
p2992
I1
sS'steelmaker'
p2993
I3
sS'2.19909'
p2994
I1
sS'modern'
p2995
I2
sS'miert'
p2996
I8
sS'eyes'
p2997
I1
sS'seen'
p2998
I9
sS'5.06'
p2999
I1
sS'seek'
p3000
I2
sS'abroad'
p3001
I2
sS'allegedly'
p3002
I2
sS'said.delocalisation'
p3003
I2
sS'traffic.there'
p3004
I1
sS'mahwah'
p3005
I3
sS'chest'
p3006
I1
sS'nieck'
p3007
I4
sS'regular'
p3008
I1
sS'markets.the'
p3009
I1
sS'zealand'
p3010
I5
sS'medical'
p3011
I4
sS'points'
p3012
I28
sS'spain.the'
p3013
I1
sS'breathed'
p3014
I1
sS'consumer'
p3015
I7
sS'dow'
p3016
I4
sS'probe'
p3017
I2
sS'ending'
p3018
I3
sS'voluntarily.bjerregaard'
p3019
I1
sS'scuptors'
p3020
I1
sS'northeast'
p3021
I1
sS'1,734,450'
p3022
I1
sS'sugar'
p3023
I21
sS'jailed'
p3024
I1
sS'exports'
p3025
I11
sS'2002.the'
p3026
I3
sS'stop'
p3027
I9
sS'cracks'
p3028
I1
sS'comply'
p3029
I5
sS'peseta'
p3030
I1
sS'122,918'
p3031
I2
sS'fields'
p3032
I2
sS'monumental'
p3033
I1
sS'bae'
p3034
I1
sS'briefed'
p3035
I1
sS'bt.tenneco'
p3036
I1
sS'ban'
p3037
I2
sS'reference'
p3038
I4
sS'decided'
p3039
I5
sS'brazil'
p3040
I5
sS'00'
p3041
I1
sS'said'
p3042
I376
sS'staves'
p3043
I3
sS'383'
p3044
I1
sS'385'
p3045
I1
sS'picking'
p3046
I2
sS'hundreds'
p3047
I8
sS'resistant'
p3048
I2
sS'uncertainty'
p3049
I2
sS'und'
p3050
I1
sS'contribution'
p3051
I3
sS'win.museeuw'
p3052
I1
sS'melisandre'
p3053
I1
sS'said.on'
p3054
I2
sS'loaded'
p3055
I1
sS'said.of'
p3056
I1
sS"l'aqueduc"
p3057
I2
sS'puts'
p3058
I1
sS'basis'
p3059
I16
sS'febiac.registrations'
p3060
I2
sS'commission'
p3061
I32
sS'trigger'
p3062
I4
sS'basin'
p3063
I1
sS'said.internationally'
p3064
I1
sS'threw'
p3065
I5
sS'quantities'
p3066
I1
sS'open.angry'
p3067
I1
sS'aviation'
p3068
I4
sS'regretted'
p3069
I2
sS'160'
p3070
I3
sS'163'
p3071
I1
sS'exception'
p3072
I2
sS'economies'
p3073
I3
sS'near'
p3074
I30
sS'suppose'
p3075
I1
sS'16,796'
p3076
I2
sS'balance'
p3077
I6
sS'0.35'
p3078
I1
sS'seven'
p3079
I7
sS'customers'
p3080
I1
sS'80,000'
p3081
I1
sS'grown'
p3082
I4
sS'bottles'
p3083
I1
sS'make'
p3084
I13
sS'poulenc'
p3085
I2
sS'belly'
p3086
I2
sS'sidelines'
p3087
I2
sS'generale'
p3088
I11
sS'governors'
p3089
I1
sS'delight'
p3090
I1
sS'guilders'
p3091
I7
sS'opportunity'
p3092
I5
sS'changes'
p3093
I3
sS'failing'
p3094
I7
sS'practices'
p3095
I1
sS'claims'
p3096
I2
sS'806'
p3097
I1
sS'left'
p3098
I6
sS'just'
p3099
I20
sS'yen'
p3100
I1
sS'statement.it'
p3101
I2
sS'jobs.some'
p3102
I3
sS'bandwidth'
p3103
I1
sS'human'
p3104
I2
sS'yes'
p3105
I1
sS'dewinter'
p3106
I2
sS'21.840'
p3107
I1
sS'4,404'
p3108
I2
sS'candidate'
p3109
I1
sS'regarded'
p3110
I2
sS'royal'
p3111
I2
sS'save'
p3112
I8
sS'0.710406'
p3113
I1
sS'opt'
p3114
I2
sS'carlssen'
p3115
I1
sS'shoulder'
p3116
I1
sS'nude'
p3117
I1
sS'disillusioned'
p3118
I3
sS'deal'
p3119
I13
sS'deaf'
p3120
I3
sS'notification'
p3121
I1
sS'track'
p3122
I2
sS'132,621march'
p3123
I2
sS'statistician'
p3124
I1
sS'160-mile'
p3125
I1
sS'chilean'
p3126
I1
sS'1501los'
p3127
I1
sS'afternoon'
p3128
I5
sS'commit'
p3129
I1
sS'managers'
p3130
I2
sS'amounted'
p3131
I8
sS'intellectual'
p3132
I1
sS'shippers'
p3133
I1
sS'6.58243'
p3134
I1
sS'miert.the'
p3135
I1
sS'amsterdam'
p3136
I9
sS'39.5'
p3137
I1
sS'weathered'
p3138
I1
sS'product.the'
p3139
I2
sS'initial'
p3140
I2
sS'inspected'
p3141
I2
sS'noting'
p3142
I1
sS'11.28'
p3143
I1
sS'form'
p3144
I5
sS'11.27'
p3145
I1
sS'ford'
p3146
I2
sS'failure'
p3147
I1
sS'229'
p3148
I1
sS'228'
p3149
I1
sS'223'
p3150
I2
sS'analyst'
p3151
I4
sS'prevents'
p3152
I2
sS'attached'
p3153
I2
sS'geoghegan'
p3154
I1
sS'cargolux'
p3155
I1
sS'economic'
p3156
I20
sS'strengthening'
p3157
I2
sS'away.the'
p3158
I1
sS'46,000'
p3159
I1
sS'1996.basf'
p3160
I1
sS'march.on'
p3161
I3
sS'20attendance'
p3162
I1
sS'generally'
p3163
I2
sS'handed'
p3164
I1
sS'ip/97/269'
p3165
I1
sS'2503'
p3166
I1
sS'143.0'
p3167
I1
sS'sale.there'
p3168
I1
sS'fell'
p3169
I23
sS'exported'
p3170
I1
sS'aalst'
p3171
I1
sS'authorities'
p3172
I9
sS'transfers'
p3173
I1
sS'weekend'
p3174
I7
sS'died'
p3175
I1
sS'32,675'
p3176
I1
sS'billion'
p3177
I71
sS'million.sairgroup'
p3178
I2
sS'daily'
p3179
I11
sS'bendern'
p3180
I8
sS'pellets'
p3181
I1
sS'profits'
p3182
I4
sS'managed'
p3183
I2
sS'wiil'
p3184
I1
sS'manager'
p3185
I3
sS'37.5'
p3186
I1
sS'correction.traders'
p3187
I1
sS'depend'
p3188
I1
sS'tariff'
p3189
I1
sS'0'
p3190
I32
sS'marks'
p3191
I8
sS'suffered'
p3192
I2
sS'adviser'
p3193
I1
sS'string'
p3194
I4
sS'lynch'
p3195
I1
sS'uneventful'
p3196
I1
sS'governments'
p3197
I16
sS'did'
p3198
I30
sS'proposals'
p3199
I2
sS'0.625'
p3200
I1
sS'round'
p3201
I3
sS'olympia'
p3202
I2
sS'unexpected'
p3203
I2
sS'1120'
p3204
I1
sS'dealing'
p3205
I1
sS'1124'
p3206
I1
sS'run'
p3207
I7
sS'targets'
p3208
I2
sS'growth.analysts'
p3209
I1
sS'soured'
p3210
I1
sS'adds'
p3211
I1
sS'favour'
p3212
I2
sS'international'
p3213
I24
sS'lubumbashi.the'
p3214
I1
sS'transportation'
p3215
I1
sS'french'
p3216
I94
sS'ptswales'
p3217
I1
sS'560,460'
p3218
I1
sS'stem'
p3219
I1
sS'wait'
p3220
I4
sS'instituto'
p3221
I1
sS'canadian'
p3222
I3
sS'institute'
p3223
I2
sS'flexibility'
p3224
I1
sS'ailing'
p3225
I1
sS'everybody'
p3226
I1
sS'franch'
p3227
I1
sS'franco'
p3228
I6
sS'434,858'
p3229
I2
sS'visit'
p3230
I6
sS'france'
p3231
I67
sS'uap'
p3232
I5
sS'francs'
p3233
I122
sS'sharing'
p3234
I1
sS'acceptable'
p3235
I1
sS'malay'
p3236
I1
sS'tandem'
p3237
I1
sS'2,550'
p3238
I2
sS'fly'
p3239
I4
sS'flu'
p3240
I1
sS'growing'
p3241
I5
sS'making'
p3242
I11
sS'ulf'
p3243
I1
sS'excahnge'
p3244
I1
sS'nearest'
p3245
I2
sS'kenneth'
p3246
I1
sS'uruguay'
p3247
I3
sS'agent'
p3248
I2
sS'council'
p3249
I15
sS'pink'
p3250
I1
sS'chemical'
p3251
I2
sS'sunday'
p3252
I2
sS'maestro'
p3253
I1
sS'146'
p3254
I1
sS'147'
p3255
I1
sS'145'
p3256
I1
sS'140'
p3257
I3
sS'141'
p3258
I1
sS'fed'
p3259
I8
sS'results.in'
p3260
I1
sS'helmut'
p3261
I2
sS'mac'
p3262
I1
sS'mad'
p3263
I3
sS'maj'
p3264
I1
sS'grow'
p3265
I5
sS'maybe'
p3266
I2
sS'borrowing'
p3267
I2
sS'avant'
p3268
I1
sS'1191'
p3269
I1
sS'african'
p3270
I6
sS'talk'
p3271
I2
sS'serge'
p3272
I1
sS'gradual'
p3273
I2
sS'shaky'
p3274
I1
sS'wishing'
p3275
I1
sS'argues'
p3276
I3
sS'stability'
p3277
I3
sS'cuts'
p3278
I6
sS'argued'
p3279
I3
sS'consolidating'
p3280
I2
sS'group'
p3281
I82
sS'interesting'
p3282
I2
sS'0.456'
p3283
I1
sS'listing'
p3284
I6
sS'policy'
p3285
I18
sS'mail'
p3286
I3
sS'main'
p3287
I9
sS'finance'
p3288
I17
sS'views'
p3289
I2
sS'krueger'
p3290
I2
sS'boats'
p3291
I1
sS'touching'
p3292
I2
sS'9700'
p3293
I1
sS'37,463'
p3294
I4
sS'killed'
p3295
I1
sS'unpredictability'
p3296
I1
sS'14.5'
p3297
I1
sS'14.1'
p3298
I1
sS'lunchtime.van'
p3299
I1
sS'4alimentary'
p3300
I1
sS'narmon'
p3301
I5
sS'peasant'
p3302
I1
sS'828'
p3303
I1
sS'zurich'
p3304
I3
sS'unlock'
p3305
I1
sS'339,000'
p3306
I1
sS'summary'
p3307
I2
sS'canada'
p3308
I7
sS'living'
p3309
I4
sS'details.dexia'
p3310
I1
sS'20,667'
p3311
I2
sS'nominal'
p3312
I1
sS'emerged'
p3313
I1
sS'dutch'
p3314
I12
sS'dominate'
p3315
I1
sS'correct'
p3316
I3
sS'assurance'
p3317
I3
sS'ajax'
p3318
I1
sS'ore'
p3319
I2
sS'keith'
p3320
I1
sS'advance'
p3321
I4
sS'language'
p3322
I1
sS'ministry'
p3323
I1
sS'think'
p3324
I8
sS'frequent'
p3325
I1
sS'fleeing'
p3326
I1
sS'said.sales'
p3327
I1
sS'fast'
p3328
I1
sS'carry'
p3329
I1
sS'little'
p3330
I10
sS'speaking'
p3331
I1
sS'mining'
p3332
I3
sS'140,000'
p3333
I1
sS'memo'
p3334
I1
sS'trader.the'
p3335
I2
sS'11'
p3336
I11
sS'10'
p3337
I19
sS'13'
p3338
I14
sS'12'
p3339
I15
sS'15'
p3340
I21
sS'14'
p3341
I4
sS'17'
p3342
I8
sS'16'
p3343
I1
sS'19'
p3344
I1
sS'18'
p3345
I6
sS'fertilisation'
p3346
I1
sS'venture'
p3347
I6
sS'gathering'
p3348
I1
sS'20,876'
p3349
I1
sS'coalminers'
p3350
I1
sS'winding'
p3351
I3
sS'occupied'
p3352
I4
sS'july.the'
p3353
I3
sS'warsaw'
p3354
I1
sS'consortium'
p3355
I4
sS'potential'
p3356
I7
sS'performance'
p3357
I2
sS'channel'
p3358
I1
sS'200'
p3359
I1
sS'203'
p3360
I1
sS'204'
p3361
I1
sS'5,820'
p3362
I1
sS'arguing'
p3363
I1
sS'paid'
p3364
I6
sS'6,208'
p3365
I2
sS'complaints'
p3366
I1
sS'lerner'
p3367
I2
sS'especially'
p3368
I1
sS'people.renault'
p3369
I1
sS'debussy.french'
p3370
I1
sS'0.739259'
p3371
I1
sS'ip/97/262'
p3372
I1
sS'licht'
p3373
I1
sS'precise'
p3374
I1
sS'rating'
p3375
I2
sS'percent.no'
p3376
I2
sS'label'
p3377
I2
sS'principality'
p3378
I1
sS'black'
p3379
I2
sS'11.47'
p3380
I2
sS'treasury'
p3381
I3
sS'awareness'
p3382
I2
sS'6.55'
p3383
I1
sS'hungarian'
p3384
I1
sS'hostage'
p3385
I2
sS'designated'
p3386
I1
sS'employers'
p3387
I2
sS'repo'
p3388
I3
sS'hailed'
p3389
I2
sS'nearly'
p3390
I15
sS'conjunction'
p3391
I1
sS'nouveau'
p3392
I4
sS'ratzeburg'
p3393
I1
sS'yield'
p3394
I24
sS'morning'
p3395
I1
sS'928'
p3396
I2
sS'929'
p3397
I1
sS'miles'
p3398
I7
sS'920'
p3399
I1
sS'finishing'
p3400
I1
sS'924'
p3401
I1
sS'925'
p3402
I1
sS'10.497'
p3403
I1
sS'6.1'
p3404
I1
sS'5.46'
p3405
I2
sS'parties.only'
p3406
I1
sS'seat'
p3407
I2
sS'kredietfinance'
p3408
I1
sS'tonnes.tendersthe'
p3409
I1
sS'calendar'
p3410
I2
sS'miba'
p3411
I1
sS'forecast'
p3412
I7
sS'0.029'
p3413
I1
sS'infrastructure'
p3414
I4
sS'august'
p3415
I2
sS'parent'
p3416
I6
sS'jp'
p3417
I2
sS'coupons'
p3418
I2
sS'dkr'
p3419
I1
sS'trader'
p3420
I25
sS'788'
p3421
I1
sS'according'
p3422
I10
sS'said.jean'
p3423
I2
sS'tour'
p3424
I4
sS'patrons'
p3425
I1
sS'disappointment'
p3426
I2
sS'holders'
p3427
I1
sS'traded'
p3428
I3
sS'cancer'
p3429
I4
sS'herck'
p3430
I1
sS'maintained'
p3431
I1
sS'cobalt.anglo'
p3432
I2
sS'considering'
p3433
I1
sS'unusual'
p3434
I2
sS'caricature'
p3435
I1
sS'marc'
p3436
I1
sS'mark'
p3437
I6
sS'workshop'
p3438
I1
sS'plant.it'
p3439
I2
sS'industrie'
p3440
I4
sS'offered'
p3441
I3
sS'dramatic'
p3442
I2
sS'france.for'
p3443
I1
sS'bmw'
p3444
I2
sS'declaration'
p3445
I2
sS'yugoslav'
p3446
I3
sS'tuesday.cepi'
p3447
I1
sS'profiles'
p3448
I1
sS'ongoing'
p3449
I1
sS'1100'
p3450
I1
sS'cancelled'
p3451
I5
sS'awakened'
p3452
I1
sS'theo'
p3453
I1
sS'conferences'
p3454
I5
sS'characteristics'
p3455
I1
sS'middle'
p3456
I1
sS'pressing'
p3457
I1
sS'inspections.he'
p3458
I1
sS'movements'
p3459
I3
sS'different'
p3460
I5
sS'pas'
p3461
I2
sS'absences'
p3462
I1
sS'doctor'
p3463
I1
sS'pay'
p3464
I3
sS'speech'
p3465
I1
sS'pan'
p3466
I1
sS'dated'
p3467
I2
sS'exhaust'
p3468
I1
sS'oil'
p3469
I2
sS'running'
p3470
I7
sS'totally'
p3471
I2
sS'roughly'
p3472
I2
sS'mortgages'
p3473
I1
sS'solve'
p3474
I2
sS'money'
p3475
I13
sS'sights'
p3476
I2
sS'dipped'
p3477
I1
sS'4'
p3478
I11
sS'pill'
p3479
I1
sS'tijd'
p3480
I1
sS'grip'
p3481
I1
sS'admitting'
p3482
I2
sS'aiming'
p3483
I2
sS'disappointed'
p3484
I1
sS'16,066'
p3485
I1
sS'2,080.67'
p3486
I1
sS'retailers'
p3487
I1
sS'border.sizarail'
p3488
I1
sS'1.375'
p3489
I1
sS'specified'
p3490
I1
sS'booming'
p3491
I1
sS'gross'
p3492
I9
sS'confirm'
p3493
I2
sS'lotto'
p3494
I1
sS'critical'
p3495
I1
sS'moderate'
p3496
I2
sS'1980s'
p3497
I1
sS'airways'
p3498
I5
sS'broker'
p3499
I2
sS'notably'
p3500
I2
sS'broken'
p3501
I4
sS'olos'
p3502
I2
sS'galvanised'
p3503
I1
sS'squarely'
p3504
I1
sS'refers'
p3505
I1
sS'pounds.the'
p3506
I1
sS'manufacturer'
p3507
I4
sS'846'
p3508
I1
sS'conducting'
p3509
I2
sS'said.while'
p3510
I3
sS'840'
p3511
I1
sS'violence'
p3512
I4
sS'generated'
p3513
I1
sS'airline'
p3514
I9
sS'mixed'
p3515
I4
sS'marriott'
p3516
I1
sS'road'
p3517
I1
sS'171-637-4383'
p3518
I1
sS'petfood'
p3519
I2
sS'fertile'
p3520
I1
sS'coupon'
p3521
I4
sS'0.928'
p3522
I1
sS'cercle'
p3523
I1
sS'pharmaceutical'
p3524
I2
sS'labelling'
p3525
I5
sS'hanover'
p3526
I1
sS'7.252'
p3527
I2
sS'maeterlinck'
p3528
I1
sS'1997/98.belgium'
p3529
I1
sS'kolwezi'
p3530
I1
sS'powerless'
p3531
I3
sS'general'
p3532
I13
sS'examine'
p3533
I1
sS'bekaert'
p3534
I9
sS'ago.in'
p3535
I1
sS'fuels.basf'
p3536
I2
sS'field'
p3537
I1
sS'unemployment.germany'
p3538
I1
sS'thames'
p3539
I1
sS'0008.london'
p3540
I1
sS'mind.a'
p3541
I1
sS'brande'
p3542
I1
sS'important'
p3543
I8
sS'489'
p3544
I1
sS'tackle'
p3545
I2
sS'decorated'
p3546
I1
sS'peugeot'
p3547
I2
sS'482'
p3548
I1
sS'legal'
p3549
I6
sS'3,275'
p3550
I1
sS'assets'
p3551
I2
sS'wake'
p3552
I2
sS'resolution'
p3553
I1
sS'represent'
p3554
I2
sS'forges'
p3555
I10
sS'emile'
p3556
I1
sS'forget'
p3557
I2
sS'forbidden'
p3558
I1
sS'dollar'
p3559
I11
sS'talks'
p3560
I6
sS'children'
p3561
I3
sS'reluctant'
p3562
I1
sS'hakan'
p3563
I1
sS'15-nation'
p3564
I4
sS'rwanda'
p3565
I1
sS'sound'
p3566
I1
sS'premium'
p3567
I2
sS'27.72'
p3568
I1
sS'news.a'
p3569
I1
sS'3,600'
p3570
I3
sS'fall'
p3571
I8
sS'witted'
p3572
I1
sS'6,733'
p3573
I1
sS'3,608'
p3574
I1
sS'pigmeat'
p3575
I5
sS'mothers'
p3576
I4
sS'40.65'
p3577
I2
sS'2054luxemburg'
p3578
I1
sS'cycle.five'
p3579
I1
sS'life.however'
p3580
I1
sS'20th'
p3581
I2
sS'slower.the'
p3582
I1
sS'titles'
p3583
I1
sS'defence'
p3584
I1
sS'stood'
p3585
I1
sS'2544'
p3586
I1
sS'wrecked'
p3587
I6
sS'public'
p3588
I12
sS'movement'
p3589
I2
sS'5000'
p3590
I2
sS'component'
p3591
I1
sS'ranges'
p3592
I1
sS'favourable'
p3593
I2
sS'disastrous'
p3594
I1
sS'operating'
p3595
I23
sS'900'
p3596
I3
sS'909'
p3597
I1
sS'zaire.bonino'
p3598
I1
sS'airport'
p3599
I8
sS'published'
p3600
I8
sS'wednesday.alz'
p3601
I1
sS'palais'
p3602
I1
sS'transit'
p3603
I1
sS'africa'
p3604
I8
sS'note.by'
p3605
I1
sS'wiped'
p3606
I1
sS'destination'
p3607
I1
sS'direction'
p3608
I6
sS'0.83'
p3609
I1
sS'cultivation'
p3610
I1
sS'0.002'
p3611
I1
sS'diamond'
p3612
I3
sS'statement.the'
p3613
I4
sS'particular'
p3614
I2
sS'town'
p3615
I2
sS'amro'
p3616
I1
sS'hour'
p3617
I3
sS'der'
p3618
I2
sS'sprit'
p3619
I1
sS'meunier.the'
p3620
I1
sS'remain'
p3621
I13
sS'strategies'
p3622
I2
sS'dec'
p3623
I3
sS'stores.even'
p3624
I1
sS'valparaiso'
p3625
I1
sS'said.stefan'
p3626
I1
sS'burundian'
p3627
I1
sS'numbers'
p3628
I1
sS'sharp'
p3629
I2
sS'maturing'
p3630
I1
sS'needs'
p3631
I3
sS'sizarail'
p3632
I8
sS'718'
p3633
I1
sS'fame'
p3634
I2
sS'rigour.another'
p3635
I1
sS'joblessness'
p3636
I1
sS'duesseldorf'
p3637
I1
sS'petrovietnam'
p3638
I2
sS'inflationary'
p3639
I4
sS'advice'
p3640
I2
sS'questioning'
p3641
I1
sS'poorter'
p3642
I8
sS'4neuchatel'
p3643
I1
sS'lower.in'
p3644
I2
sS'coming'
p3645
I10
sS'percent.the'
p3646
I10
sS'deserted'
p3647
I1
sS'coal'
p3648
I13
sS'responsibility'
p3649
I2
sS'playing'
p3650
I2
sS'suffer'
p3651
I3
sS'4221'
p3652
I6
sS'shareholding'
p3653
I1
sS'24'
p3654
I5
sS'25'
p3655
I16
sS'26'
p3656
I6
sS'27'
p3657
I15
sS'20'
p3658
I17
sS'21'
p3659
I4
sS'22'
p3660
I3
sS'way.petersen'
p3661
I1
sS'28'
p3662
I4
sS'29'
p3663
I1
sS'pct'
p3664
I86
sS'late'
p3665
I17
sS'thursday.the'
p3666
I3
sS'reuters'
p3667
I20
sS'etienne'
p3668
I1
sS'good'
p3669
I12
sS'primary'
p3670
I3
sS'compound'
p3671
I2
sS'association'
p3672
I3
sS'divested'
p3673
I1
sS'pregnant'
p3674
I2
sS'exiled'
p3675
I1
sS'notes'
p3676
I3
sS'forthright'
p3677
I1
sS'installations.a'
p3678
I2
sS'fish'
p3679
I1
sS'hard'
p3680
I3
sS'deluged'
p3681
I1
sS'connect'
p3682
I1
sS'insurance'
p3683
I6
sS'projected'
p3684
I2
sS'1.74'
p3685
I1
sS'acting'
p3686
I1
sS'evaluation'
p3687
I3
sS'tempelhof'
p3688
I1
sS'constantin'
p3689
I1
sS'extraordinary'
p3690
I3
sS'members'
p3691
I3
sS'backed'
p3692
I2
sS'beginning'
p3693
I6
sS'benefits'
p3694
I4
sS'409,542'
p3695
I1
sS'conducted'
p3696
I1
sS'reinforced'
p3697
I1
sS'exports.on'
p3698
I1
sS'copper'
p3699
I5
sS'wages'
p3700
I2
sS'bousquin'
p3701
I1
sS'182'
p3702
I1
sS'180'
p3703
I1
sS'assumption'
p3704
I1
sS'statement'
p3705
I28
sS'compromise'
p3706
I1
sS'188'
p3707
I1
sS'189'
p3708
I1
sS'lease'
p3709
I1
sS'park'
p3710
I3
sS'sizable'
p3711
I1
sS'believe'
p3712
I5
sS'peaked'
p3713
I1
sS'b'
p3714
I6
sS'861'
p3715
I1
sS'activities.in'
p3716
I2
sS'2027'
p3717
I1
sS'87.75'
p3718
I2
sS'treated'
p3719
I2
sS'declare'
p3720
I4
sS'0.767'
p3721
I1
sS'cepi'
p3722
I4
sS'orders'
p3723
I6
sS'built'
p3724
I1
sS'majority'
p3725
I3
sS'rimbaud'
p3726
I1
sS'commentary'
p3727
I2
sS'province'
p3728
I6
sS'eggs'
p3729
I9
sS'significant'
p3730
I1
sS'lophem'
p3731
I4
sS'services'
p3732
I12
sS'kb'
p3733
I3
sS'kg'
p3734
I1
sS'humanitarian'
p3735
I7
sS'km'
p3736
I9
sS'france.comparing'
p3737
I1
sS'joining'
p3738
I1
sS'sector'
p3739
I15
sS'thomas'
p3740
I1
sS'particularly'
p3741
I6
sS'rebels'
p3742
I8
sS'obligations'
p3743
I5
sS'businesses'
p3744
I7
sS'fina'
p3745
I3
sS'fine'
p3746
I5
sS'giant'
p3747
I6
sS'merger'
p3748
I16
sS'nervous'
p3749
I2
sS'distributed'
p3750
I2
sS'waiting'
p3751
I1
sS'67.78'
p3752
I1
sS'accounts.sairgroup'
p3753
I2
sS'8'
p3754
I4
sS'kabila'
p3755
I4
sS'1312'
p3756
I1
sS'express'
p3757
I4
sS'1319'
p3758
I1
sS'cheaper'
p3759
I2
sS'pellet'
p3760
I1
sS'resolve'
p3761
I1
sS'doubled'
p3762
I2
sS'common'
p3763
I7
sS'logistic'
p3764
I3
sS'900,000'
p3765
I2
sS"d'orsay"
p3766
I1
sS'lion'
p3767
I7
sS'individual'
p3768
I2
sS'tender'
p3769
I2
sS'plans.organisers'
p3770
I2
sS'materially'
p3771
I1
sS'feared'
p3772
I1
sS'expert'
p3773
I1
sS'fans'
p3774
I2
sS'dividends'
p3775
I1
sS'aircraft'
p3776
I5
sS'annual'
p3777
I7
sS'foreign'
p3778
I15
sS'tightens'
p3779
I1
sS'newsdesk'
p3780
I2
sS'upgraded'
p3781
I1
sS'supply'
p3782
I2
sS'2573.london'
p3783
I1
sS'recycling'
p3784
I2
sS'truiden'
p3785
I1
sS'shutdown'
p3786
I1
sS'weaving'
p3787
I1
sS'raise'
p3788
I5
sS'create'
p3789
I2
sS'million.the'
p3790
I1
sS'screened'
p3791
I2
sS'secret'
p3792
I2
sS'ireland'
p3793
I3
sS'said.the'
p3794
I13
sS'meeting'
p3795
I19
sS'6.18'
p3796
I2
sS'6.12'
p3797
I1
sS'6.11'
p3798
I2
sS'6.10'
p3799
I4
sS'6.17'
p3800
I2
sS'books.u.s'
p3801
I1
sS'gap'
p3802
I4
sS'understand'
p3803
I1
sS'prices'
p3804
I20
sS'966'
p3805
I1
sS'coventry'
p3806
I1
sS'elections'
p3807
I2
sS'8,053'
p3808
I1
sS'withdrawing'
p3809
I1
sS'century'
p3810
I5
sS'cents'
p3811
I4
sS'starving'
p3812
I1
sS'encountered'
p3813
I1
sS'cathay'
p3814
I13
sS'getters'
p3815
I2
sS'ethylene'
p3816
I2
sS'france.clabecq'
p3817
I2
sS'textile'
p3818
I5
sS'crediop'
p3819
I2
sS'645'
p3820
I1
sS'liberalised'
p3821
I1
sS'genk'
p3822
I2
sS'development'
p3823
I6
sS'currencies'
p3824
I2
sS'yesterday'
p3825
I2
sS'moment'
p3826
I8
sS'ruashi'
p3827
I2
sS'regis'
p3828
I1
sS'halve'
p3829
I1
sS'spent'
p3830
I3
sS'5.85'
p3831
I1
sS'priced'
p3832
I2
sS'swiss'
p3833
I6
sS'organization'
p3834
I1
sS'signalled'
p3835
I2
sS'shape'
p3836
I1
sS'alternative'
p3837
I6
sS'injuries'
p3838
I6
sS'wage'
p3839
I3
sS'cut'
p3840
I17
sS'cup'
p3841
I4
sS'shouting'
p3842
I3
sS'cue'
p3843
I2
sS'2-61-6'
p3844
I1
sS'easter'
p3845
I3
sS'big'
p3846
I5
sS'bid'
p3847
I10
sS'bit'
p3848
I1
sS'bribing'
p3849
I1
sS'insect'
p3850
I1
sS'beauvais'
p3851
I2
sS'follows'
p3852
I3
sS'indication'
p3853
I6
sS'163.68'
p3854
I2
sS'interconnecting'
p3855
I1
sS'motor'
p3856
I3
sS'absolutely'
p3857
I1
sS'2,023'
p3858
I2
sS'delegation'
p3859
I10
sS'strongest'
p3860
I1
sS'pricing'
p3861
I3
sS'scale'
p3862
I1
sS'pex'
p3863
I3
sS'affects'
p3864
I2
sS'decision'
p3865
I34
sS'netherlands.while'
p3866
I1
sS'integration'
p3867
I2
sS'newmediaage'
p3868
I1
sS'309'
p3869
I1
sS'patient'
p3870
I2
sS'13.7note'
p3871
I1
sS'taxing'
p3872
I2
sS'300'
p3873
I3
sS'302'
p3874
I1
sS'304'
p3875
I1
sS'305'
p3876
I3
sS'306'
p3877
I2
sS'goods'
p3878
I1
sS'drama'
p3879
I1
sS'consequently'
p3880
I1
sS'pollution'
p3881
I3
sS'retailer'
p3882
I3
sS'satisfactory'
p3883
I1
sS'steven'
p3884
I1
sS'liege'
p3885
I1
sS'1.52'
p3886
I1
sS'1.53'
p3887
I1
sS'1.51'
p3888
I1
sS'infected'
p3889
I7
sS'up.they'
p3890
I1
sS'africa.that'
p3891
I1
sS'fax'
p3892
I75
sS'adjusting'
p3893
I1
sS'gauss'
p3894
I2
sS'hoped'
p3895
I2
sS'baudouin'
p3896
I1
sS'subsidiary'
p3897
I4
sS'pickers'
p3898
I1
sS'halfhearted'
p3899
I2
sS'added.corluy'
p3900
I1
sS'exploration'
p3901
I2
sS'1.675'
p3902
I1
sS'consulted'
p3903
I1
sS'cure'
p3904
I1
sS'curb'
p3905
I3
sS'hanart'
p3906
I2
sS'commission.the'
p3907
I1
sS'stoppages'
p3908
I9
sS'depicting'
p3909
I1
sS'988,722'
p3910
I1
sS'737-300'
p3911
I1
sS'vehicles'
p3912
I17
sS'bankers'
p3913
I4
sS'appalling'
p3914
I1
sS'superclub'
p3915
I2
sS'2001'
p3916
I2
sS'2007'
p3917
I3
sS'2005'
p3918
I1
sS'footing'
p3919
I1
sS'13.57'
p3920
I2
sS'vietnamese'
p3921
I1
sS'genaux'
p3922
I1
sS'fatal'
p3923
I1
sS'bottomed'
p3924
I1
sS'ingredient'
p3925
I1
sS'jakob'
p3926
I1
sS'ruling.in'
p3927
I1
sS'presently'
p3928
I1
sS'automotive'
p3929
I1
sS'said.all'
p3930
I2
sS'putting'
p3931
I6
sS'entire'
p3932
I2
sS'operations.kolwezi'
p3933
I1
sS'diverging'
p3934
I1
sS'shock'
p3935
I3
sS'technogym'
p3936
I1
sS'choppy'
p3937
I2
sS'1080'
p3938
I1
sS'dewulf'
p3939
I1
sS'year.at'
p3940
I5
sS'1669toronto'
p3941
I1
sS'giving'
p3942
I1
sS'access'
p3943
I3
sS'21,000'
p3944
I1
sS'body'
p3945
I1
sS'exchange'
p3946
I10
sS'sint'
p3947
I1
sS'jointly'
p3948
I1
sS'luiz'
p3949
I1
sS'7706'
p3950
I5
sS'38'
p3951
I2
sS'33'
p3952
I5
sS'32'
p3953
I139
sS'31'
p3954
I22
sS'30'
p3955
I11
sS'34'
p3956
I2
sS'leadership'
p3957
I1
sS'principally'
p3958
I1
sS'climb'
p3959
I1
sS'232.23'
p3960
I1
sS'named'
p3961
I2
sS'private'
p3962
I5
sS'decrease'
p3963
I2
sS'names'
p3964
I1
sS'scandal'
p3965
I2
sS'8340'
p3966
I1
sS'gateway'
p3967
I3
sS'writedown'
p3968
I1
sS'morning.staff'
p3969
I1
sS'institutionals'
p3970
I1
sS'oils'
p3971
I1
sS'international.in'
p3972
I1
sS'0.5'
p3973
I3
sS'6,264'
p3974
I2
sS'train'
p3975
I3
sS'8,850'
p3976
I1
sS'icumsa-45'
p3977
I1
sS'iii'
p3978
I1
sS'4aj'
p3979
I1
sS'subscription'
p3980
I2
sS'account'
p3981
I4
sS'f'
p3982
I2
sS'degroof'
p3983
I1
sS'stations'
p3984
I1
sS'0800'
p3985
I1
sS'closing'
p3986
I8
sS'effectively'
p3987
I3
sS'reserves'
p3988
I1
sS'employs'
p3989
I5
sS'maturities'
p3990
I2
sS'routeing'
p3991
I1
sS'holds'
p3992
I1
sS'strict.kiely'
p3993
I1
sS'forest'
p3994
I1
sS'frere'
p3995
I1
sS'said.but'
p3996
I2
sS'furnace'
p3997
I2
sS'stock'
p3998
I22
sS'buildings'
p3999
I3
sS'prostate'
p4000
I1
sS'chicken.as'
p4001
I1
sS'947'
p4002
I1
sS'6-mo'
p4003
I2
sS'lines'
p4004
I5
sS'deceuninck'
p4005
I1
sS'940'
p4006
I1
sS'chief'
p4007
I3
sS'supranational'
p4008
I1
sS'network.europay'
p4009
I1
sS'800,000'
p4010
I1
sS'austrian'
p4011
I2
sS'saying.financial'
p4012
I1
sS'le'
p4013
I3
sS'lb'
p4014
I2
sS'la'
p4015
I4
sS'arrests.up'
p4016
I3
sS'flemish'
p4017
I19
sS'winning'
p4018
I1
sS'whites'
p4019
I3
sS'6.35'
p4020
I1
sS'dan'
p4021
I1
sS'cutting'
p4022
I4
sS'paszkowski'
p4023
I4
sS'insisting'
p4024
I3
sS'day'
p4025
I51
sS'strive'
p4026
I1
sS'february'
p4027
I49
sS'airports'
p4028
I2
sS'warned'
p4029
I1
sS'slipping'
p4030
I2
sS'warner'
p4031
I4
sS'3,000'
p4032
I8
sS'traded.fortis'
p4033
I1
sS'slumped'
p4034
I3
sS'ecofin'
p4035
I1
sS'marius'
p4036
I1
sS'sncz'
p4037
I1
sS'wholly'
p4038
I1
sS'electronics'
p4039
I10
sS'red'
p4040
I7
sS'franc'
p4041
I16
sS'585'
p4042
I1
sS'approached'
p4043
I1
sS'payroll'
p4044
I1
sS'espress'
p4045
I1
sS'receipts'
p4046
I1
sS'1435'
p4047
I1
sS'cured'
p4048
I1
sS'chicken'
p4049
I1
sS'barriers'
p4050
I1
sS'retail'
p4051
I8
sS'south'
p4052
I15
sS'plastics'
p4053
I2
sS'overshoot'
p4054
I2
sS'2,000'
p4055
I2
sS'strategic'
p4056
I5
sS'reached'
p4057
I10
sS'unthinkable.the'
p4058
I1
sS'unspecified'
p4059
I1
sS'bosch'
p4060
I1
sS'plantings'
p4061
I1
sS'gear'
p4062
I3
sS'completed'
p4063
I5
sS'acquire'
p4064
I1
sS'environmental'
p4065
I1
sS'reaffirm'
p4066
I1
sS'capitalised'
p4067
I1
sS'compensation'
p4068
I2
sS'again.but'
p4069
I1
sS'2128'
p4070
I1
sS'unlikely'
p4071
I5
sS'apparently'
p4072
I2
sS'cognac.brittan'
p4073
I1
sS'bribes.some'
p4074
I1
sS'7,700'
p4075
I1
sS'mid'
p4076
I4
sS'1.38'
p4077
I1
sS'1.39'
p4078
I3
sS'321'
p4079
I1
sS'shares.amerbank'
p4080
I1
sS'324'
p4081
I3
sS'1.32'
p4082
I1
sS'1.36'
p4083
I1
sS'unless'
p4084
I8
sS'statement.bernheim'
p4085
I1
sS'arrests.renault'
p4086
I1
sS'payment'
p4087
I2
sS'beets'
p4088
I1
sS'bargaining'
p4089
I2
sS'stranded'
p4090
I1
sS'frederick'
p4091
I4
sS'disease'
p4092
I10
sS'1,000'
p4093
I6
sS'graphs'
p4094
I1
sS'artificially'
p4095
I1
sS'normally'
p4096
I3
sS'supported'
p4097
I3
sS'6,102'
p4098
I1
sS'industrialist'
p4099
I1
sS'portfolio'
p4100
I1
sS'staff'
p4101
I6
sS'knowledge'
p4102
I1
sS'brueck'
p4103
I1
sS'controls'
p4104
I5
sS'communist'
p4105
I2
sS'regularly'
p4106
I1
sS'exceptional'
p4107
I2
sS'beat'
p4108
I3
sS'700,000'
p4109
I2
sS'bear'
p4110
I1
sS'thursday.in'
p4111
I2
sS'areas'
p4112
I4
sS'monod'
p4113
I1
sS'it.these'
p4114
I1
sS'teams'
p4115
I1
sS'2792'
p4116
I2
sS'including'
p4117
I15
sS'cycles'
p4118
I1
sS'national'
p4119
I14
sS'breakaway'
p4120
I1
sS'36.8'
p4121
I1
sS'awaits'
p4122
I2
sS'radio.van'
p4123
I1
sS'attempting'
p4124
I1
sS'difficulties'
p4125
I4
sS'routine'
p4126
I1
sS'progress'
p4127
I2
sS'million.however'
p4128
I1
sS'deliver'
p4129
I1
sS'upcountry'
p4130
I2
sS'optional'
p4131
I1
sS'commenting'
p4132
I2
sS'joke'
p4133
I2
sS'taking'
p4134
I8
sS'equal'
p4135
I2
sS'attributed'
p4136
I1
sS'agree'
p4137
I7
sS'fulfilled'
p4138
I7
sS'assure'
p4139
I2
sS'passing'
p4140
I1
sS'comment'
p4141
I1
sS'said.kiely'
p4142
I3
sS'56.3'
p4143
I1
sS'molenbeek'
p4144
I1
sS'indicators'
p4145
I1
sS'cities.it'
p4146
I1
sS'define'
p4147
I1
sS'magnetism.yet'
p4148
I1
sS'stationed'
p4149
I3
sS'463'
p4150
I1
sS'ridden'
p4151
I1
sS'finished'
p4152
I3
sS'tense'
p4153
I1
sS'bull'
p4154
I3
sS'mersin'
p4155
I1
sS'napoleon'
p4156
I1
sS'welcoming'
p4157
I1
sS'brasilia'
p4158
I3
sS'value'
p4159
I18
sS'promoted'
p4160
I1
sS'hampering'
p4161
I1
sS'tie.results'
p4162
I1
sS'cereals'
p4163
I1
sS'weighed'
p4164
I1
sS'partner'
p4165
I5
sS'42.08'
p4166
I2
sS'cfdt'
p4167
I5
sS'carrier.since'
p4168
I1
sS'province.earlier'
p4169
I1
sS'injured'
p4170
I5
sS'tighten'
p4171
I5
sS'practice'
p4172
I1
sS'plant.protesters'
p4173
I3
sS'9.69'
p4174
I1
sS'profitnote'
p4175
I1
sS'judgment'
p4176
I3
sS'freres'
p4177
I1
sS'center'
p4178
I3
sS'weapon'
p4179
I4
sS'sets'
p4180
I2
sS'position'
p4181
I7
sS'usual'
p4182
I1
sS'france.belgian'
p4183
I2
sS'resolved.chile'
p4184
I1
sS'domestic'
p4185
I6
sS'necessitate'
p4186
I1
sS'underlying'
p4187
I1
sS'protecting'
p4188
I1
sS'gmo'
p4189
I4
sS'onward'
p4190
I1
sS'lake'
p4191
I1
sS'recommending'
p4192
I1
sS'1996.at'
p4193
I1
sS'288'
p4194
I5
sS'add'
p4195
I2
sS'delegations'
p4196
I3
sS'280'
p4197
I2
sS'refit'
p4198
I1
sS'282'
p4199
I1
sS'match'
p4200
I3
sS'gmt'
p4201
I17
sS'resolved'
p4202
I3
sS'present.dieusaert'
p4203
I2
sS'displaced'
p4204
I2
sS'like'
p4205
I10
sS'success'
p4206
I1
sS'praecipuum'
p4207
I1
sS'works'
p4208
I13
sS'soft'
p4209
I2
sS'italian'
p4210
I4
sS'leuven'
p4211
I1
sS'alive'
p4212
I1
sS'mark.george'
p4213
I1
sS'recommendation'
p4214
I3
sS'happens'
p4215
I1
sS'est'
p4216
I2
sS'pisco'
p4217
I1
sS'joachim'
p4218
I1
sS'marched'
p4219
I6
sS'added.positive'
p4220
I1
sS'discretion'
p4221
I3
sS'regain'
p4222
I1
sS'slight'
p4223
I2
sS'expiry'
p4224
I4
sS'actual'
p4225
I2
sS'beef'
p4226
I4
sS'soybeans.nor'
p4227
I1
sS'bloodstream'
p4228
I1
sS'companies.following'
p4229
I2
sS'billions'
p4230
I8
sS'brands'
p4231
I2
sS'midfielder'
p4232
I1
sS'stainless'
p4233
I5
sS'25-percent'
p4234
I1
sS'france.the'
p4235
I1
sS'4.033'
p4236
I1
sS'biggest'
p4237
I8
sS'buy'
p4238
I9
sS'insurer'
p4239
I7
sS'562'
p4240
I1
sS'565'
p4241
I1
sS'extended'
p4242
I1
sS'8.23'
p4243
I1
sS'group.sairgroup'
p4244
I1
sS'4,290'
p4245
I1
sS'dangerous'
p4246
I1
sS'11.electrafina'
p4247
I1
sS'mbuji'
p4248
I3
sS'18.49'
p4249
I1
sS'4973brussels'
p4250
I1
sS'saes'
p4251
I1
sS'proceeds'
p4252
I2
sS'week.de'
p4253
I1
sS'48'
p4254
I1
sS'49'
p4255
I4
sS'46'
p4256
I3
sS'corporation'
p4257
I2
sS'44'
p4258
I26
sS'45'
p4259
I1
sS'claiming'
p4260
I2
sS'mortimer'
p4261
I2
sS'40'
p4262
I6
sS'41'
p4263
I1
sS'85'
p4264
I1
sS'seismic'
p4265
I1
sS'philips'
p4266
I34
sS'starting'
p4267
I2
sS'hikes'
p4268
I4
sS'2,069'
p4269
I2
sS'limited'
p4270
I6
sS'facilities'
p4271
I1
sS'23.may.06'
p4272
I1
sS'hate'
p4273
I1
sS'paris'
p4274
I41
sS'344'
p4275
I1
sS'346'
p4276
I1
sS'341'
p4277
I2
sS'343'
p4278
I1
sS'million.this'
p4279
I1
sS'risk'
p4280
I8
sS'rise'
p4281
I22
sS'said.van'
p4282
I2
sS'school'
p4283
I1
sS'vaccinating'
p4284
I2
sS'1,570'
p4285
I1
sS'leaders'
p4286
I6
sS'capitalisation'
p4287
I1
sS'175,000'
p4288
I1
sS'estimates'
p4289
I3
sS'direct'
p4290
I7
sS'surrounding'
p4291
I2
sS'street'
p4292
I15
sS'2.the'
p4293
I1
sS'estimated'
p4294
I9
sS'blue'
p4295
I10
sS'organisms'
p4296
I2
sS'revolves'
p4297
I1
sS'poison'
p4298
I1
sS'spitaels'
p4299
I5
sS'causes'
p4300
I2
sS'endorse'
p4301
I1
sS'seeks'
p4302
I2
sS'philippe'
p4303
I1
sS'forint'
p4304
I1
sS'remo'
p4305
I2
sS'centre.narmon'
p4306
I1
sS'forum'
p4307
I6
sS'auction'
p4308
I5
sS'changed'
p4309
I3
sS'completely'
p4310
I1
sS'analysts'
p4311
I16
sS'irbab'
p4312
I1
sS'settled'
p4313
I3
sS'offs'
p4314
I2
sS'1.423'
p4315
I1
sS'heathrow'
p4316
I2
sS'republic.kiely'
p4317
I2
sS'tenders'
p4318
I4
sS'1,278'
p4319
I1
sS'asset'
p4320
I6
sS'tchmil'
p4321
I1
sS'assessment'
p4322
I2
sS'nationalisation.encroaching'
p4323
I1
sS'shoot'
p4324
I2
sS'mg'
p4325
I1
sS'join'
p4326
I4
sS'brandishing'
p4327
I3
sS'mn'
p4328
I6
sS'europe.in'
p4329
I1
sS'tissue'
p4330
I1
sS'cleutinx'
p4331
I1
sS'petersen'
p4332
I4
sS'estate'
p4333
I3
sS'said.among'
p4334
I1
sS'end'
p4335
I46
sS'75.9'
p4336
I1
sS'gatt'
p4337
I2
sS'writers'
p4338
I2
sS'reinvested'
p4339
I2
sS'widespread'
p4340
I2
sS'badly'
p4341
I2
sS'elizabeth'
p4342
I2
sS'it.in'
p4343
I1
sS'2,093.20'
p4344
I1
sS'sioen'
p4345
I2
sS'comment.lerner'
p4346
I1
sS'amid'
p4347
I3
sS'releases.austria'
p4348
I1
sS'jungle'
p4349
I2
sS'enter'
p4350
I3
sS'preventive'
p4351
I2
sS'eec'
p4352
I1
sS'drachma'
p4353
I1
sS'interpretation'
p4354
I1
sS'expects'
p4355
I2
sS'20.54'
p4356
I2
sS'london'
p4357
I26
sS'receptiveness'
p4358
I1
sS'4383'
p4359
I1
sS'clf'
p4360
I7
sS'multidisciplinary'
p4361
I1
sS'196.269'
p4362
I1
sS'expectations'
p4363
I6
sS'407'
p4364
I1
sS'ims'
p4365
I6
sS'drawback'
p4366
I1
sS'16.3'
p4367
I1
sS'16.2'
p4368
I1
sS'tractebel'
p4369
I4
sS'16.8'
p4370
I2
sS'diseases'
p4371
I1
sS'prevented'
p4372
I3
sS'amerbank'
p4373
I4
sS'netherlands'
p4374
I22
sS'03/04/97'
p4375
I1
sS'steelworkers'
p4376
I13
sS'consolidate'
p4377
I1
sS'signing'
p4378
I1
sS'saturday'
p4379
I9
sS'said.reflecting'
p4380
I1
sS'driving'
p4381
I8
sS'adjust'
p4382
I3
sS'got'
p4383
I7
sS'newly'
p4384
I3
sS'gov'
p4385
I1
sS'ciba'
p4386
I2
sS'outperformed'
p4387
I1
sS'free'
p4388
I4
sS'masterpiece'
p4389
I1
sS'formation'
p4390
I1
sS'82,557'
p4391
I1
sS'boosting'
p4392
I2
sS'freq'
p4393
I1
sS'wanted'
p4394
I8
sS'days'
p4395
I18
sS'economically'
p4396
I2
sS'soda'
p4397
I1
sS'corrections'
p4398
I1
sS'22london'
p4399
I1
sS'inspectors'
p4400
I1
sS'rand'
p4401
I1
sS'industrial'
p4402
I14
sS'researcher'
p4403
I2
sS'encouraging'
p4404
I1
sS'theragenics.ibt'
p4405
I1
sS'hoozee'
p4406
I2
sS'0.09'
p4407
I1
sS'revival'
p4408
I1
sS'0.02'
p4409
I2
sS'0.01'
p4410
I2
sS'0.07'
p4411
I1
sS'confirming'
p4412
I1
sS'london.one'
p4413
I1
sS'ceiling'
p4414
I1
sS'took'
p4415
I6
sS'western'
p4416
I1
sS'injected'
p4417
I1
sS'abandoning'
p4418
I1
sS'1979'
p4419
I1
sS'quarter.total'
p4420
I1
sS'18.5'
p4421
I1
sS'18.6'
p4422
I1
sS'raw'
p4423
I12
sS'seminar'
p4424
I2
sS'relatively'
p4425
I2
sS'investment'
p4426
I10
sS'contact'
p4427
I11
sS'effectiveness'
p4428
I3
sS'rider'
p4429
I1
sS'positions.but'
p4430
I1
sS'2873'
p4431
I1
sS'mapei'
p4432
I1
sS'monaco'
p4433
I4
sS'40-percent'
p4434
I1
sS'coil'
p4435
I1
sS'parting'
p4436
I1
sS'1.670'
p4437
I1
sS'flow'
p4438
I5
sS'treaty'
p4439
I6
sS'seko'
p4440
I3
sS'109,749'
p4441
I1
sS'reductions'
p4442
I1
sS'mishandling'
p4443
I1
sS'radio'
p4444
I2
sS'solutions'
p4445
I3
sS'delays'
p4446
I1
sS'unemployment'
p4447
I10
sS'542'
p4448
I12
sS'announce'
p4449
I2
sS'continuity'
p4450
I1
sS'mixture'
p4451
I1
sS'criticized'
p4452
I1
sS'borrower'
p4453
I1
sS'despite'
p4454
I9
sS'report'
p4455
I15
sS'knocks'
p4456
I1
sS'countries'
p4457
I28
sS'206,760'
p4458
I1
sS'making.before'
p4459
I1
sS'automatic'
p4460
I1
sS'alkalis'
p4461
I1
sS'capacity'
p4462
I8
sS'tuesday.in'
p4463
I1
sS'365'
p4464
I1
sS'approach'
p4465
I1
sS'discovery'
p4466
I2
sS'weak'
p4467
I8
sS'southeast'
p4468
I1
sS'news'
p4469
I36
sS'faced'
p4470
I1
sS'embarked'
p4471
I2
sS'unicef'
p4472
I2
sS'13,300'
p4473
I1
sS'participating'
p4474
I2
sS'players'
p4475
I14
sS'merging'
p4476
I1
sS'expense'
p4477
I2
sS'standings'
p4478
I2
sS'betting'
p4479
I3
sS'creutzfeldt'
p4480
I1
sS'9.77'
p4481
I1
sS'karel'
p4482
I6
sS'agusta'
p4483
I1
sS'subscribing'
p4484
I2
sS'trust'
p4485
I1
sS'life.before'
p4486
I1
sS'conference'
p4487
I22
sS'jobless'
p4488
I4
sS'months.traffic'
p4489
I2
sS'ropes'
p4490
I1
sS'rebounded'
p4491
I1
sS'ndola'
p4492
I1
sS'quickly'
p4493
I3
sS'confident'
p4494
I1
sS'beer'
p4495
I1
sS'cognac'
p4496
I8
sS'beet'
p4497
I5
sS'satisfactory.last'
p4498
I1
sS'expected'
p4499
I36
sS'mallarme'
p4500
I1
sS'refuted'
p4501
I1
sS'drugs'
p4502
I6
sS'catch'
p4503
I1
sS'n'
p4504
I14
sS'wfp'
p4505
I1
sS'claes'
p4506
I3
sS'procedure'
p4507
I11
sS'della'
p4508
I2
sS'1429anchorage'
p4509
I1
sS'thalys'
p4510
I1
sS'expenses'
p4511
I1
sS'agreement.but'
p4512
I1
sS'experts'
p4513
I3
sS'colbun'
p4514
I1
sS'containing'
p4515
I3
sS'suggest'
p4516
I3
sS'complex'
p4517
I4
sS'satellite'
p4518
I4
sS'theodore'
p4519
I1
sS'pick'
p4520
I10
sS'suburb'
p4521
I3
sS'francophone'
p4522
I2
sS'cycle'
p4523
I1
sS'proforma'
p4524
I5
sS'shortly'
p4525
I2
sS'council.the'
p4526
I1
sS'greatest'
p4527
I1
sS'jean'
p4528
I8
sS'proposed'
p4529
I6
sS'346.5'
p4530
I1
sS'grades'
p4531
I2
sS'scattering'
p4532
I1
sS'production.producing'
p4533
I1
sS'staffhowever'
p4534
I1
sS'panic.the'
p4535
I1
sS'pharmacy'
p4536
I1
sS'608'
p4537
I1
sS'gave'
p4538
I10
sS'advances'
p4539
I2
sS'sanitary'
p4540
I1
sS'apart'
p4541
I2
sS'59'
p4542
I1
sS'6.153'
p4543
I1
sS'interest.block'
p4544
I1
sS'bukavu'
p4545
I1
sS'51'
p4546
I2
sS'50'
p4547
I13
sS'52'
p4548
I1
sS'specific'
p4549
I3
sS'offices'
p4550
I9
sS'officer'
p4551
I3
sS'54'
p4552
I2
sS'july.a'
p4553
I2
sS'57'
p4554
I1
sS'election'
p4555
I3
sS'specialities'
p4556
I1
sS'thursday.petersen'
p4557
I1
sS'hours.the'
p4558
I2
sS'20.73'
p4559
I2
sS'cns'
p4560
I2
sS'21.831'
p4561
I1
sS'421'
p4562
I1
sS'420'
p4563
I1
sS'423'
p4564
I1
sS'422'
p4565
I1
sS'426'
p4566
I2
sS'cord'
p4567
I2
sS'core'
p4568
I8
sS'corn'
p4569
I1
sS'9.28'
p4570
I1
sS'shareholders'
p4571
I12
sS'up.however'
p4572
I2
sS'corp'
p4573
I3
sS'security'
p4574
I10
sS'chapter'
p4575
I2
sS'attacks'
p4576
I2
sS'eminence'
p4577
I1
sS'plunging'
p4578
I1
sS'genocide'
p4579
I1
sS'ruling.the'
p4580
I1
sS'efforts'
p4581
I3
sS'presence'
p4582
I2
sS'civil'
p4583
I5
sS'courts.the'
p4584
I1
sS'obtaining'
p4585
I1
sS'1,430'
p4586
I1
sS'year.the'
p4587
I4
sS'lambeaux'
p4588
I1
sS'comparing'
p4589
I3
sS'buffoons'
p4590
I1
sS'outbreaks'
p4591
I1
sS'stuck'
p4592
I1
sS'gib'
p4593
I5
sS'metabolism'
p4594
I1
sS'head'
p4595
I3
sS'medium'
p4596
I1
sS'schiphol.it'
p4597
I1
sS'differences'
p4598
I1
sS'costs.the'
p4599
I1
sS'removed'
p4600
I1
sS'bids'
p4601
I1
sS'submitting'
p4602
I1
sS'said.eko'
p4603
I1
sS'escape'
p4604
I1
sS'0.64'
p4605
I1
sS'cobbles'
p4606
I1
sS'telecoms'
p4607
I1
sS'horta'
p4608
I1
sS'door'
p4609
I1
sS'trip'
p4610
I1
sS'regime'
p4611
I1
sS'6.90'
p4612
I2
sS'setting'
p4613
I2
sS'nv'
p4614
I16
sS'evergreen'
p4615
I2
sS'reconsider'
p4616
I1
sS'meeting.the'
p4617
I3
sS'longer'
p4618
I7
sS'1800'
p4619
I1
sS'vietnam'
p4620
I2
sS'mismanaged'
p4621
I1
sS'impression'
p4622
I1
sS'brokerages'
p4623
I1
sS'focus'
p4624
I14
sS'leads'
p4625
I2
sS'statement.pixtech'
p4626
I1
sS'rj85'
p4627
I1
sS'protection.police'
p4628
I3
sS'rot'
p4629
I1
sS'clarification'
p4630
I1
sS'20,725'
p4631
I1
sS'1945'
p4632
I1
sS'environment'
p4633
I2
sS'charge'
p4634
I1
sS'federation'
p4635
I8
sS'masisi'
p4636
I1
sS'frequencies'
p4637
I1
sS'start.san'
p4638
I1
sS'down.brazil'
p4639
I1
sS'1395'
p4640
I1
sS'7.322'
p4641
I1
sS'level'
p4642
I7
sS'posts'
p4643
I1
sS'brussels.a'
p4644
I1
sS'standards'
p4645
I11
sS'klm'
p4646
I1
sS'quick'
p4647
I1
sS'edax'
p4648
I3
sS'des'
p4649
I6
sS'says'
p4650
I2
sS'trend'
p4651
I5
sS'inland'
p4652
I1
sS'widened'
p4653
I4
sS'slowed'
p4654
I1
sS'2,079.26'
p4655
I1
sS'port'
p4656
I3
sS'substitute'
p4657
I1
sS'stands'
p4658
I6
sS'ilebo'
p4659
I1
sS'525'
p4660
I1
sS'520'
p4661
I1
sS'goes'
p4662
I3
sS'eurostat'
p4663
I1
sS'tenneco'
p4664
I1
sS'groupe'
p4665
I4
sS'1230'
p4666
I1
sS'area.the'
p4667
I2
sS'water'
p4668
I13
sS'belge'
p4669
I10
sS'groups'
p4670
I3
sS'6-7'
p4671
I1
sS'6-4'
p4672
I1
sS'6-2'
p4673
I1
sS'6-0'
p4674
I1
sS'noticeable'
p4675
I2
sS'discount'
p4676
I5
sS'clabecq'
p4677
I25
sS'dublin'
p4678
I8
sS'restructuring'
p4679
I7
sS'cockerill'
p4680
I5
sS'choppy.but'
p4681
I1
sS'emerge'
p4682
I2
sS'humour'
p4683
I1
sS'soybeans'
p4684
I1
sS'morale'
p4685
I5
sS'bribery'
p4686
I1
sS'10paris'
p4687
I1
sS'swallowed'
p4688
I1
sS'crisis'
p4689
I2
sS'workers.renault'
p4690
I2
sS'3,426'
p4691
I1
sS'criteria'
p4692
I3
sS'australian'
p4693
I1
sS'101.75'
p4694
I1
sS'today'
p4695
I8
sS'riot'
p4696
I10
sS'share'
p4697
I53
sS'dole.if'
p4698
I1
sS'southwards'
p4699
I1
sS'yves'
p4700
I5
sS'local'
p4701
I14
sS'modified'
p4702
I3
sS'weedkiller'
p4703
I1
sS'1996.between'
p4704
I2
sS'slightest'
p4705
I1
sS'pixtech'
p4706
I4
sS'nursing'
p4707
I1
sS'dropped'
p4708
I11
sS'swedish'
p4709
I1
sS'drazek'
p4710
I1
sS'requirements'
p4711
I1
sS'cuba'
p4712
I1
sS'mismanagement'
p4713
I1
sS'1'
p4714
I38
sS'vital'
p4715
I1
sS'fourth'
p4716
I5
sS'subsidiaries'
p4717
I4
sS'3.47'
p4718
I2
sS'3.46'
p4719
I2
sS'3.45'
p4720
I3
sS'3.42'
p4721
I6
sS'3.41'
p4722
I3
sS'information'
p4723
I4
sS'3.49'
p4724
I2
sS'4th'
p4725
I1
sS'europe.the'
p4726
I1
sS'commodity'
p4727
I1
sS'inform'
p4728
I6
sS'gerard'
p4729
I4
sS'refund'
p4730
I1
sS'exclusive'
p4731
I1
sS'mgt'
p4732
I1
sS'mainly'
p4733
I9
sS'128'
p4734
I1
sS'motions'
p4735
I1
sS'blocked'
p4736
I8
sS'organisation'
p4737
I2
sS'coordinated'
p4738
I7
sS'hamilton'
p4739
I2
sS'17.the'
p4740
I2
sS'term'
p4741
I14
sS'realist'
p4742
I1
sS'opera'
p4743
I1
sS'belts'
p4744
I1
sS'eaux.electrafina'
p4745
I2
sS'realistic'
p4746
I3
sS'realism'
p4747
I1
sS'weighted'
p4748
I1
sS'divisional'
p4749
I1
sS'me97/4.4'
p4750
I1
sS'begun'
p4751
I2
sS'plans'
p4752
I33
sS'ultimately'
p4753
I1
sS'continuing'
p4754
I5
sS'profit'
p4755
I46
sS'tensions'
p4756
I2
sS'factory'
p4757
I9
sS'attracted'
p4758
I2
sS'telephone.lemaire'
p4759
I1
sS'contain'
p4760
I3
sS'308.20'
p4761
I1
sS'impose'
p4762
I3
sS'vaccination'
p4763
I13
sS'place'
p4764
I8
sS'geigy'
p4765
I1
sS'1003'
p4766
I1
sS'origin'
p4767
I2
sS'merrill'
p4768
I1
sS'revenue'
p4769
I3
sS'said.retailers'
p4770
I1
sS'gemeentekrediet'
p4771
I2
sS'commissioners'
p4772
I1
sS'george'
p4773
I3
sS'millions'
p4774
I6
sS'airbus'
p4775
I1
sS'given'
p4776
I8
sS'ian'
p4777
I1
sS'virgin'
p4778
I1
sS'plastic'
p4779
I1
sS'cooling'
p4780
I2
sS'white'
p4781
I2
sS'ias'
p4782
I1
sS'hub'
p4783
I1
sS'season'
p4784
I4
sS'overcapacity'
p4785
I3
sS'released'
p4786
I8
sS'gir/1'
p4787
I1
sS'lieven'
p4788
I1
sS'said.financial'
p4789
I2
sS'population'
p4790
I4
sS'wide'
p4791
I1
sS'debussy'
p4792
I1
sS'spokeswoman'
p4793
I2
sS'officials'
p4794
I13
sS'cards'
p4795
I8
sS'outcome'
p4796
I2
sS'scandalised'
p4797
I1
sS'pre'
p4798
I2
sS'germany.total'
p4799
I2
sS'bancario'
p4800
I1
sS'cart.news'
p4801
I1
sS'prl'
p4802
I2
sS'enagas'
p4803
I1
sS'sells'
p4804
I1
sS'agreed.where'
p4805
I1
sS'5,081-reuters'
p4806
I1
sS'31-year'
p4807
I2
sS'multiple'
p4808
I2
sS'ukrainian'
p4809
I1
sS'falls'
p4810
I3
sS'cleared'
p4811
I1
sS'considered'
p4812
I4
sS'later'
p4813
I7
sS'senior'
p4814
I2
sS'quantity'
p4815
I2
sS'cheap'
p4816
I3
sS'25brussels'
p4817
I1
sS'0.46'
p4818
I2
sS'0.47'
p4819
I1
sS'0.45'
p4820
I1
sS'merger.chairman'
p4821
I1
sS'44.4'
p4822
I1
sS'cautioned'
p4823
I1
sS'expectation'
p4824
I2
sS'tailor'
p4825
I2
sS'closure'
p4826
I45
sS'outperform'
p4827
I2
sS'finance.belgolaise'
p4828
I1
sS'13,053'
p4829
I1
sS'jokes'
p4830
I1
sS'embassy'
p4831
I2
sS'predicted'
p4832
I3
sS'kickbacks'
p4833
I1
sS'diplomats.one'
p4834
I1
sS'2148'
p4835
I1
sS'imposing'
p4836
I1
sS'violated'
p4837
I6
sS'closures'
p4838
I3
sS'fails'
p4839
I3
sS'detect'
p4840
I1
sS'mortgage'
p4841
I3
sS'farmers'
p4842
I2
sS'federal'
p4843
I10
sS'subsequent'
p4844
I1
sS'review'
p4845
I1
sS'opening'
p4846
I4
sS'outside'
p4847
I5
sS'arrogant'
p4848
I1
sS'places.the'
p4849
I3
sS'arrival'
p4850
I2
sS'bancassurance'
p4851
I2
sS'1700/1600'
p4852
I1
sS'8.48'
p4853
I1
sS'come'
p4854
I9
sS'reaction'
p4855
I4
sS'acquiring'
p4856
I1
sS'said.by'
p4857
I1
sS'ryanair'
p4858
I4
sS'region'
p4859
I5
sS'quiet'
p4860
I2
sS'contract'
p4861
I11
sS'amez'
p4862
I2
sS'railway'
p4863
I6
sS'duty'
p4864
I4
sS'cobbled'
p4865
I2
sS'10.907'
p4866
I1
sS'60'
p4867
I4
sS'pol'
p4868
I1
sS'63'
p4869
I2
sS'66'
p4870
I1
sS'approval'
p4871
I1
sS'68'
p4872
I5
sS'69'
p4873
I2
sS'turkey'
p4874
I7
sS'subscribed'
p4875
I2
sS'helicopter'
p4876
I1
sS'504'
p4877
I3
sS'hardly'
p4878
I2
sS'503'
p4879
I1
sS'500'
p4880
I1
sS'631'
p4881
I1
sS'1210'
p4882
I1
sS'1217'
p4883
I1
sS'637'
p4884
I1
sS'4,100'
p4885
I1
sS'andrei'
p4886
I1
sS'minister'
p4887
I13
sS'andrea'
p4888
I2
sS'case'
p4889
I1
sS'cash'
p4890
I21
sS'specialises'
p4891
I2
sS'208,810'
p4892
I1
sS'telephone'
p4893
I1
sS'1999.there'
p4894
I1
sS'author'
p4895
I2
sS'granted'
p4896
I1
sS'reminder'
p4897
I1
sS'insurers'
p4898
I1
sS'events'
p4899
I2
sS'week'
p4900
I43
sS'auctions'
p4901
I1
sS'weed'
p4902
I2
sS'director'
p4903
I15
sS'vowed'
p4904
I4
sS'parks.the'
p4905
I1
sS'ammerlaan'
p4906
I4
sS'relief'
p4907
I2
sS'components'
p4908
I2
sS'actions'
p4909
I8
sS'kill'
p4910
I2
sS'1,888'
p4911
I2
sS'polish'
p4912
I2
sS'corner.contact'
p4913
I2
sS'guides'
p4914
I3
sS'blow'
p4915
I2
sS'announcement'
p4916
I24
sS'nations.on'
p4917
I1
sS'rose'
p4918
I25
sS'regent'
p4919
I1
sS'poised'
p4920
I1
sS'disrupt'
p4921
I1
sS'scheduled'
p4922
I2
sS'rwandan'
p4923
I5
sS'kills'
p4924
I2
sS'3.66'
p4925
I1
sS'10turkey'
p4926
I1
sS'inflation'
p4927
I15
sS'confined'
p4928
I1
sS'accepted'
p4929
I6
sS'kennedy'
p4930
I1
sS'patrick'
p4931
I2
sS'nissan'
p4932
I2
sS'reduced'
p4933
I3
sS'madrid'
p4934
I7
sS'competition'
p4935
I7
sS'respect'
p4936
I4
sS'brandy.brittan'
p4937
I1
sS'provided'
p4938
I1
sS'prolific'
p4939
I1
sS'737s'
p4940
I1
sS'iberdrola'
p4941
I1
sS'stops'
p4942
I2
sS'provides'
p4943
I1
sS'slaughter'
p4944
I2
sS'134.891'
p4945
I2
sS'royale'
p4946
I10
sS'pelleas'
p4947
I1
sS"l'age"
p4948
I1
sS'discussed'
p4949
I1
sS'reinforcing'
p4950
I2
sS'tariffs'
p4951
I1
sS'communication'
p4952
I3
sS'rising'
p4953
I10
sS'determine'
p4954
I2
sS'speculated'
p4955
I1
sS'issue.the'
p4956
I1
sS'strictly'
p4957
I1
sS'alleged'
p4958
I2
sS'strict'
p4959
I1
sS'valley'
p4960
I1
sS'energy'
p4961
I3
sS'morrison'
p4962
I1
sS'754'
p4963
I1
sS'fundamentals'
p4964
I1
sS'759'
p4965
I1
sS'regard'
p4966
I1
sS'fibernet'
p4967
I2
sS'promote'
p4968
I2
sS'faster'
p4969
I1
sS'subcontractors'
p4970
I2
sS'1022'
p4971
I1
sS'internationale'
p4972
I2
sS'strongly'
p4973
I5
sS'repatriation'
p4974
I1
sS'2,147'
p4975
I1
sS'workers.gecamines'
p4976
I1
sS'cbr'
p4977
I4
sS'britain'
p4978
I17
sS'corresponding'
p4979
I1
sS'4.5'
p4980
I1
sS'4.6'
p4981
I3
sS'4.1'
p4982
I3
sS'4.3'
p4983
I5
sS'4.9'
p4984
I2
sS'4.8'
p4985
I4
sS'5'
p4986
I12
sS'3helsinki'
p4987
I1
sS'immunity'
p4988
I1
sS'paddy'
p4989
I1
sS'briefly'
p4990
I1
sS'separate'
p4991
I2
sS'wednesday.elsewhere'
p4992
I1
sS'includes'
p4993
I6
sS'nucleus'
p4994
I1
sS'included'
p4995
I3
sS'stocks'
p4996
I9
sS'invest'
p4997
I2
sS'synergies'
p4998
I1
sS'curve'
p4999
I2
sS'directors'
p5000
I1
sS'chinese'
p5001
I1
sS'lack'
p5002
I5
sS'alz'
p5003
I4
sS'follow'
p5004
I3
sS'break.the'
p5005
I1
sS'decisions'
p5006
I3
sS'jerome'
p5007
I1
sS'participants'
p5008
I4
sS'thursday'
p5009
I46
sS'dairy'
p5010
I1
sS'present'
p5011
I9
sS'presentation'
p5012
I1
sS'activities'
p5013
I9
sS'belonging'
p5014
I1
sS'far'
p5015
I5
sS'worst'
p5016
I2
sS'8,094'
p5017
I2
sS'treating'
p5018
I2
sS'list'
p5019
I2
sS'prolonged'
p5020
I1
sS'programme'
p5021
I7
sS'entourage'
p5022
I1
sS'lorrayne'
p5023
I1
sS'tel'
p5024
I8
sS'negotiator'
p5025
I1
sS'invention'
p5026
I2
sS'etoile'
p5027
I2
sS'imported'
p5028
I3
sS'sub'
p5029
I1
sS'brief'
p5030
I2
sS'2386'
p5031
I1
sS'1,697'
p5032
I2
sS'christian'
p5033
I2
sS'said.other'
p5034
I2
sS'infectives'
p5035
I2
sS'allows'
p5036
I4
sS'legal.shareholders'
p5037
I1
sS'sticking'
p5038
I1
sS'employees.renault'
p5039
I1
sS'texts'
p5040
I1
sS'85.013'
p5041
I2
sS'72,419'
p5042
I1
sS'lemaire'
p5043
I1
sS'branded'
p5044
I1
sS'unthinkable'
p5045
I1
sS'minor'
p5046
I2
sS'flat'
p5047
I3
sS'1255london'
p5048
I1
sS'1.168'
p5049
I1
sS'bartoli'
p5050
I1
sS'known'
p5051
I2
sS'1.691'
p5052
I1
sS'1995.within'
p5053
I1
sS'mines.the'
p5054
I1
sS'v'
p5055
I3
sS'said.de'
p5056
I2
sS'1996.the'
p5057
I4
sS'elements.philips'
p5058
I2
sS'court.renault'
p5059
I1
sS'protects'
p5060
I2
sS'swung'
p5061
I1
sS'5.1'
p5062
I2
sS'5.2'
p5063
I7
sS'5.3'
p5064
I1
sS'court'
p5065
I47
sS'goal'
p5066
I1
sS'operations.the'
p5067
I1
sS'breaking'
p5068
I1
sS'johannesburg'
p5069
I1
sS'furnace.the'
p5070
I1
sS'614'
p5071
I1
sS'reflect'
p5072
I1
sS'concerns'
p5073
I2
sS'carmaker'
p5074
I21
sS'marched.organisers'
p5075
I1
sS'short'
p5076
I9
sS'courbet'
p5077
I1
sS'lhr'
p5078
I1
sS'pctnote'
p5079
I6
sS'turnover'
p5080
I3
sS'september'
p5081
I4
sS'developed'
p5082
I1
sS'1.96'
p5083
I2
sS'silguy'
p5084
I1
sS'plants.clabecq'
p5085
I1
sS'jacobs'
p5086
I2
sS'clashed'
p5087
I10
sS'clashes'
p5088
I2
sS'disagrees'
p5089
I1
sS'soccer'
p5090
I2
sS'alter'
p5091
I7
sS'france.it'
p5092
I1
sS'return'
p5093
I11
sS'ensor'
p5094
I1
sS'6.05'
p5095
I3
sS'framework'
p5096
I1
sS'2,600'
p5097
I1
sS'bigger'
p5098
I2
sS'2005.coal'
p5099
I1
sS'6.490'
p5100
I1
sS'mastercard'
p5101
I2
sS'1995.it'
p5102
I1
sS'museeuw'
p5103
I3
sS'rate60.2'
p5104
I2
sS'weight'
p5105
I1
sS'generation'
p5106
I4
sS'year.swisscargo'
p5107
I1
sS'expect'
p5108
I17
sS'undertake'
p5109
I2
sS'organised'
p5110
I5
sS'1,860'
p5111
I1
sS'health'
p5112
I9
sS'assembly.on'
p5113
I1
sS'1-0'
p5114
I3
sS'europay'
p5115
I3
sS'shutdown.earlier'
p5116
I1
sS'3.00'
p5117
I9
sS'alzheimer'
p5118
I1
sS'execute'
p5119
I1
sS'4541'
p5120
I1
sS'disposals'
p5121
I2
sS'fiat'
p5122
I2
sS'threat'
p5123
I1
sS'8,420'
p5124
I2
sS'fallen'
p5125
I6
sS'feed'
p5126
I2
sS'meridien'
p5127
I2
sS'vietnam.it'
p5128
I1
sS'2593'
p5129
I1
sS'360,000'
p5130
I1
sS'linking'
p5131
I3
sS'bernadette'
p5132
I2
sS'added.arbed'
p5133
I1
sS'colombia'
p5134
I1
sS'fees'
p5135
I1
sS'54,500'
p5136
I1
sS'story'
p5137
I3
sS'automobile'
p5138
I8
sS'regulation'
p5139
I3
sS'181'
p5140
I1
sS'passed'
p5141
I2
sS'17,659'
p5142
I1
sS'finances'
p5143
I2
sS'store'
p5144
I2
sS'option'
p5145
I6
sS'sackings.if'
p5146
I1
sS'hotel'
p5147
I7
sS'convinced'
p5148
I2
sS'pede'
p5149
I1
sS'kind'
p5150
I2
sS'nagging'
p5151
I1
sS'5.81937'
p5152
I1
sS'double'
p5153
I1
sS'aims'
p5154
I1
sS'dane'
p5155
I1
sS'moreels'
p5156
I1
sS'outstanding'
p5157
I4
sS'strengthen'
p5158
I4
sS'imports'
p5159
I17
sS'fighting'
p5160
I8
sS'chairman'
p5161
I20
sS'genetically'
p5162
I2
sS'brondby'
p5163
I3
sS'775'
p5164
I2
sS'kasongo'
p5165
I1
sS'878new'
p5166
I1
sS'ec4p'
p5167
I1
sS'93.3'
p5168
I1
sS'measures'
p5169
I3
sS'reach'
p5170
I6
sS'77'
p5171
I1
sS'76'
p5172
I1
sS'75'
p5173
I3
sS'shareholder'
p5174
I7
sS'71'
p5175
I2
sS'70'
p5176
I2
sS'dealers'
p5177
I13
sS'francs.traders'
p5178
I1
sS'forerunner'
p5179
I1
sS'2,800'
p5180
I1
sS'anderlecht'
p5181
I3
sS'institutions'
p5182
I7
sS'stones'
p5183
I9
sS'cdg'
p5184
I1
sS'rtl'
p5185
I3
sS'goldfields'
p5186
I1
sS'costing'
p5187
I2
sS'e19'
p5188
I1
sS'annually.asked'
p5189
I2
sS'widepread'
p5190
I1
sS'penalty'
p5191
I1
sS'bfr'
p5192
I28
sS'vendome'
p5193
I1
sS'bfx'
p5194
I3
sS'hit'
p5195
I15
sS'gains'
p5196
I3
sS'hiv'
p5197
I2
sS'production.vilvoorde'
p5198
I1
sS'5,000'
p5199
I4
sS'fastest'
p5200
I2
sS'pact.the'
p5201
I1
sS'prescribing'
p5202
I1
sS'sustainable'
p5203
I1
sS'relentless'
p5204
I1
sS'wrote'
p5205
I7
sS'pvs'
p5206
I2
sS'art'
p5207
I7
sS'dump'
p5208
I1
sS'achieved'
p5209
I4
sS'pvc'
p5210
I1
sS'2.8'
p5211
I1
sS'2.2'
p5212
I1
sS'2.0'
p5213
I3
sS'2.7'
p5214
I1
sS'2.6'
p5215
I2
sS'2.5'
p5216
I4
sS'2.4'
p5217
I2
sS'unions'
p5218
I27
sS'23.815'
p5219
I1
sS'various'
p5220
I1
sS'263.5'
p5221
I1
sS'downturn'
p5222
I2
sS'numerous'
p5223
I1
sS'corruption'
p5224
I3
sS'latin'
p5225
I4
sS'recently'
p5226
I8
sS'creating'
p5227
I1
sS'initially'
p5228
I3
sS'sold'
p5229
I7
sS'attention'
p5230
I2
sS'rate33.3'
p5231
I2
sS'succeed'
p5232
I2
sS'opposition'
p5233
I1
sS'gruelling'
p5234
I1
sS'bronze'
p5235
I1
sS'c'
p5236
I1
sS'2028'
p5237
I1
sS'context'
p5238
I2
sS'flies'
p5239
I2
sS'reasons'
p5240
I6
sS'brederode'
p5241
I1
sS'harbour'
p5242
I1
sS'village'
p5243
I1
sS'percent.dieusaert'
p5244
I2
sS'ps'
p5245
I8
sS'acquisitions.casteleyn'
p5246
I1
sS'political'
p5247
I6
sS'strategy'
p5248
I2
sS'0770'
p5249
I1
sS'103,849'
p5250
I1
sS'pl'
p5251
I2
sS'flight'
p5252
I2
sS'1950s'
p5253
I2
sS'lokeren'
p5254
I1
sS'brokers'
p5255
I1
sS'demand'
p5256
I8
sS'marche'
p5257
I2
sS'barricade'
p5258
I6
sS'20.6365/80'
p5259
I2
sS'19.4'
p5260
I4
sS'19.5'
p5261
I1
sS'percent.looking'
p5262
I1
sS'19.8'
p5263
I2
sS'19.9'
p5264
I2
sS'said.however'
p5265
I3
sS'disappointing'
p5266
I2
sS'rim'
p5267
I1
sS'lodged'
p5268
I1
sS'negotations'
p5269
I1
sS'agenda.in'
p5270
I1
sS'lengthy'
p5271
I1
sS'assuaged'
p5272
I1
sS'sowings'
p5273
I1
sS'widely'
p5274
I1
sS'9'
p5275
I4
sS'higher'
p5276
I9
sS'cement'
p5277
I3
sS'holidays'
p5278
I1
sS'belgium.cofinoga'
p5279
I1
sS'moving'
p5280
I3
sS'finnegan'
p5281
I2
sS'contractors'
p5282
I1
sS'bourgeois'
p5283
I1
sS'lower'
p5284
I13
sS'150.51note'
p5285
I1
sS'edge'
p5286
I1
sS'machinery'
p5287
I1
sS'employees.however'
p5288
I3
sS'polled'
p5289
I3
sS'competitive'
p5290
I15
sS'18,971'
p5291
I2
sS'questions'
p5292
I1
sS'continent'
p5293
I2
sS'profitable'
p5294
I11
sS'workers'
p5295
I89
sS'exhibition'
p5296
I9
sS'tabled'
p5297
I1
sS'2.17'
p5298
I1
sS'2.16'
p5299
I1
sS'associations'
p5300
I1
sS'ipma'
p5301
I1
sS'complaint'
p5302
I4
sS'francs.dexia'
p5303
I1
sS'676'
p5304
I1
sS'672'
p5305
I1
sS'kash'
p5306
I1
sS'moody'
p5307
I1
sS'heart'
p5308
I2
sS'billion.ims'
p5309
I1
sS'shaba'
p5310
I9
sS'essential'
p5311
I1
sS'3.6'
p5312
I2
sS'3.4'
p5313
I1
sS'3.2'
p5314
I1
sS'3.0'
p5315
I4
sS'dalou'
p5316
I1
sS'3.8'
p5317
I3
sS'bruxelleslambert'
p5318
I1
sS'innovation'
p5319
I1
sS'anne'
p5320
I1
sS'said.sioen'
p5321
I1
sS'euro.nm'
p5322
I5
sS'0.5842'
p5323
I1
sS'galeries'
p5324
I1
sS'cannons'
p5325
I1
sS'pipeline'
p5326
I1
sS'cautious'
p5327
I3
sS'range'
p5328
I7
sS'credible'
p5329
I2
sS'gatwick'
p5330
I3
sS'fall.arbed'
p5331
I1
sS'11.501'
p5332
I1
sS'question'
p5333
I6
sS'amidst'
p5334
I1
sS"we're"
p5335
I2
sS'sections'
p5336
I1
sS'mundane'
p5337
I1
sS'fabio'
p5338
I1
sS'plunge'
p5339
I2
sS'1,150'
p5340
I1
sS'cloth'
p5341
I1
sS'repeatedly'
p5342
I2
sS'delta'
p5343
I1
sS'junior'
p5344
I1
sS'deployed'
p5345
I1
sS'8,445'
p5346
I1
sS'consist'
p5347
I1
sS'thibault'
p5348
I1
sS'19,843'
p5349
I1
sS'barring'
p5350
I3
sS'called'
p5351
I26
sS'destocking'
p5352
I1
sS'associated'
p5353
I1
sS'148,169'
p5354
I1
sS'tuesday.scorer'
p5355
I1
sS'warning'
p5356
I3
sS'rally'
p5357
I2
sS'states.in'
p5358
I1
sS'tentative'
p5359
I1
sS'backs'
p5360
I1
sS'4.903'
p5361
I1
sS'nick'
p5362
I5
sS'income'
p5363
I4
sS'485,000'
p5364
I2
sS'users'
p5365
I1
sS'5.163'
p5366
I1
sS'problems'
p5367
I5
sS'helping'
p5368
I1
sS'meaning'
p5369
I3
sS'31.43'
p5370
I1
sS'allowing'
p5371
I2
sS'relaunch'
p5372
I1
sS'vice'
p5373
I2
sS'lafayette'
p5374
I1
sS'dinars'
p5375
I1
sS'issued'
p5376
I6
sS'resistance'
p5377
I1
sS'steve'
p5378
I1
sS'eds'
p5379
I1
sS'group.narmon'
p5380
I1
sS'adjustment'
p5381
I1
sS'contributions'
p5382
I2
sS'issues'
p5383
I8
sS'spector'
p5384
I3
sS'intensify.by'
p5385
I1
sS'stable'
p5386
I1
sS'include'
p5387
I6
sS'seized'
p5388
I1
sS'719'
p5389
I1
sS'tribunal'
p5390
I2
sS'ifsc'
p5391
I2
sS'tractabel'
p5392
I1
sS'dando'
p5393
I1
sS'cardoso'
p5394
I1
sS'artery'
p5395
I1
sS'ndola.belgian'
p5396
I1
sS'1063'
p5397
I1
sS'deals'
p5398
I4
sS'49.5'
p5399
I1
sS'session'
p5400
I3
sS'wavre'
p5401
I3
sS'relation'
p5402
I1
sS'noted'
p5403
I7
sS'concluded'
p5404
I5
sS'smaller'
p5405
I5
sS'lending.dexia'
p5406
I1
sS'gmbh'
p5407
I3
sS'growers'
p5408
I1
sS'makers'
p5409
I4
sS'hourly'
p5410
I2
sS'bearish'
p5411
I1
sS'19th'
p5412
I2
sS'capital'
p5413
I22
sS'chose'
p5414
I1
sS'degree'
p5415
I1
sS'ecsc'
p5416
I1
sS'added.the'
p5417
I1
sS'guarantor'
p5418
I1
sS'larger'
p5419
I2
sS'risks.britain'
p5420
I1
sS'leaving'
p5421
I1
sS'2,100'
p5422
I1
sS'zement'
p5423
I1
sS'stockholders'
p5424
I1
sS'apple'
p5425
I1
sS'deputy'
p5426
I2
sS'forbid'
p5427
I1
sS'subsidary'
p5428
I2
sS'improbable'
p5429
I1
sS'strict.none'
p5430
I1
sS'apply'
p5431
I6
sS'use'
p5432
I6
sS'feb'
p5433
I7
sS'consumption'
p5434
I1
sS'management'
p5435
I26
sS'movement.uniwear'
p5436
I2
sS'bitterly'
p5437
I1
sS'timetable'
p5438
I1
sS'subsidies'
p5439
I3
sS'mouscron'
p5440
I2
sS'clever'
p5441
I1
sS'cooperate'
p5442
I1
sS'connie'
p5443
I8
sS'sculptor'
p5444
I1
sS'women'
p5445
I2
sS'topic'
p5446
I2
sS'36.76'
p5447
I1
sS'strategically'
p5448
I1
sS'freedom'
p5449
I1
sS'wlodzimierz'
p5450
I1
sS'each.the'
p5451
I2
sS'proof'
p5452
I1
sS'0.8'
p5453
I1
sS'8,856'
p5454
I1
sS'0.2'
p5455
I2
sS'tax'
p5456
I9
sS'0.4'
p5457
I2
sS'0.7'
p5458
I3
sS'0.6'
p5459
I2
sS'hilton'
p5460
I2
sS'clab.br'
p5461
I2
sS'tab'
p5462
I2
sS'jobs.but'
p5463
I1
sS'sir'
p5464
I1
sS'united'
p5465
I18
sS'syndrome'
p5466
I1
sS'sit'
p5467
I1
sS'slovenian'
p5468
I1
sS'traders'
p5469
I11
sS'instead'
p5470
I4
sS'sabena'
p5471
I9
sS'panic'
p5472
I4
sS'parliamentary'
p5473
I4
sS'hurdles'
p5474
I1
sS'attend'
p5475
I3
sS'barricades'
p5476
I6
sS'purely'
p5477
I1
sS'sculptures'
p5478
I1
sS'light'
p5479
I4
sS'discussion'
p5480
I1
sS'133'
p5481
I1
sS'131'
p5482
I1
sS'130'
p5483
I2
sS'looks'
p5484
I2
sS'134'
p5485
I1
sS'contaminated'
p5486
I1
sS'electrafina'
p5487
I7
sS'sackings'
p5488
I2
sS'assurances'
p5489
I1
sS'tvi.rtl'
p5490
I1
sS'clusters'
p5491
I3
sS'holiday'
p5492
I1
sS'edging'
p5493
I3
sS'pending'
p5494
I1
sS'crash'
p5495
I1
sS'said.he'
p5496
I2
sS'material'
p5497
I5
sS'investor'
p5498
I1
sS'fled'
p5499
I3
sS'eased'
p5500
I1
sS'7,382'
p5501
I1
sS'bills'
p5502
I2
sS'privatisation'
p5503
I1
sS'related'
p5504
I1
sS'171-453-2700'
p5505
I1
sS'80'
p5506
I9
sS'84'
p5507
I1
sS'brusselsfrench'
p5508
I1
sS'category'
p5509
I1
sS'dassault'
p5510
I3
sS'tonnes.on'
p5511
I1
sS'sentiment'
p5512
I1
sS'year.asked'
p5513
I1
sS'integrated'
p5514
I1
sS'maintains'
p5515
I1
sS'reconsider.in'
p5516
I2
sS'cofinoga'
p5517
I1
sS'belgique'
p5518
I14
sS'york'
p5519
I5
sS'philip'
p5520
I2
sS'belgians'
p5521
I4
sS'6,851'
p5522
I1
sS'laurant'
p5523
I1
sS'dieusaert'
p5524
I7
sS'echo'
p5525
I1
sS'set'
p5526
I7
sS'days.after'
p5527
I1
sS'232.226'
p5528
I1
sS'destinations'
p5529
I2
sS"doesn't"
p5530
I7
sS'priority'
p5531
I1
sS'653'
p5532
I1
sS'shell'
p5533
I1
sS'doomed'
p5534
I4
sS'4.45'
p5535
I1
sS'july'
p5536
I26
sS'holland'
p5537
I1
sS'infectious'
p5538
I2
sS'patients'
p5539
I2
sS'1.4'
p5540
I1
sS'1.5'
p5541
I2
sS'1.6'
p5542
I1
sS'1.7'
p5543
I2
sS'1.3'
p5544
I1
sS'1.8'
p5545
I1
sS'18,548'
p5546
I1
sS'steepened'
p5547
I1
sS'linked'
p5548
I7
sS'catholic'
p5549
I1
sS'afraid'
p5550
I1
sS'agency'
p5551
I9
sS'anglo'
p5552
I1
sS'12-mo'
p5553
I2
sS'clash'
p5554
I3
sS'centre'
p5555
I10
sS'petrol'
p5556
I1
sS'firecrackers'
p5557
I5
sS'class'
p5558
I1
sS"l'echo"
p5559
I1
sS'looked'
p5560
I3
sS'xavier'
p5561
I1
sS'figures.the'
p5562
I1
sS'ritt'
p5563
I1
sS'9,772'
p5564
I1
sS'chances'
p5565
I1
sS'agreed'
p5566
I8
sS'added.attention'
p5567
I1
sS'planning'
p5568
I3
sS'fear'
p5569
I3
sS'agrees'
p5570
I1
sS'nearer'
p5571
I2
sS'tshikomba'
p5572
I1
sS'bblcomment'
p5573
I1
sS'operational'
p5574
I3
sS'bogged'
p5575
I2
sS'infotrade'
p5576
I1
sS'thousands'
p5577
I17
sS'topple'
p5578
I1
sS'watching'
p5579
I1
sS'3,777.48'
p5580
I1
sS'ones'
p5581
I1
sS'www.ukinternetshhow.com'
p5582
I1
sS'words'
p5583
I1
sS'chips'
p5584
I1
sS'suez'
p5585
I16
sS'brain'
p5586
I4
sS'queries'
p5587
I1
sS'3,964'
p5588
I2
sS'view'
p5589
I1
sS'available'
p5590
I6
sS'requirement'
p5591
I2
sS'acquired'
p5592
I3
sS'closer'
p5593
I2
sS'closes'
p5594
I4
sS'closed'
p5595
I22
sS'crude'
p5596
I1
sS'bundesbank'
p5597
I6
sS'frustrated'
p5598
I2
sS'bought'
p5599
I4
sS'publishers'
p5600
I1
sS'weighing'
p5601
I3
sS'ability'
p5602
I1
sS'243.1'
p5603
I1
sS'hutu'
p5604
I4
sS'21,800'
p5605
I1
sS'5.35'
p5606
I1
sS'job'
p5607
I6
sS'takeover'
p5608
I2
sS'declining'
p5609
I1
sS'amev'
p5610
I2
sS'310.354'
p5611
I1
sS'88920.sugar'
p5612
I1
sS'renault'
p5613
I159
sS'april'
p5614
I48
sS'fortis.the'
p5615
I1
sS'gobain'
p5616
I1
sS'4,983'
p5617
I7
sS'unclear'
p5618
I1
sS'wall'
p5619
I12
sS'packaging'
p5620
I4
sS'table'
p5621
I4
sS'withdrawn'
p5622
I1
sS'1996.about'
p5623
I1
sS'bbl'
p5624
I14
sS'734'
p5625
I2
sS'737'
p5626
I1
sS'ensuring'
p5627
I1
sS'21.19'
p5628
I1
sS'painter'
p5629
I2
sS'unlike'
p5630
I1
sS'irate'
p5631
I6
sS'helveg'
p5632
I1
sS'depreciation'
p5633
I2
sS'barely'
p5634
I1
sS'426dubai'
p5635
I1
sS'gothic'
p5636
I1
sS'brandished'
p5637
I3
sS'lauching'
p5638
I1
sS'cross'
p5639
I3
sS'member'
p5640
I8
sS'technology.under'
p5641
I1
sS'largest'
p5642
I9
sS'units'
p5643
I14
sS'privileged'
p5644
I1
sS'difficult'
p5645
I5
sS'automation'
p5646
I3
sS'issuance'
p5647
I1
sS'2,106.98'
p5648
I2
sS'1,360'
p5649
I1
sS'appropriated'
p5650
I1
sS'namur'
p5651
I7
sS'562.6'
p5652
I1
sS'derycke'
p5653
I1
sS'realised'
p5654
I2
sS'excessive'
p5655
I5
sS'heavily'
p5656
I2
sS'percent'
p5657
I258
sS'half'
p5658
I12
sS'obtain'
p5659
I1
sS'pingeot'
p5660
I2
sS'rapid'
p5661
I1
sS'point'
p5662
I6
sS'smith'
p5663
I3
sS'traded.the'
p5664
I1
sS'adoption'
p5665
I1
sS'unprecedented'
p5666
I1
sS'identical'
p5667
I1
sS'cupeurope'
p5668
I1
sS'branch'
p5669
I2
sS'provisions'
p5670
I4
sS'protesters'
p5671
I1
sS'1,584'
p5672
I1
sS'support.in'
p5673
I1
sS'know'
p5674
I1
sS'76.26'
p5675
I1
sS'press'
p5676
I6
sS'georges'
p5677
I4
sS'stahl'
p5678
I1
sS'james'
p5679
I1
sS'conclusion'
p5680
I1
sS'theragenics'
p5681
I2
sS'exceed'
p5682
I1
sS'tumble'
p5683
I1
sS'socialists'
p5684
I2
sS'growth'
p5685
I32
sS'export'
p5686
I1
sS'112'
p5687
I1
sS'flanders.there'
p5688
I1
sS'employment'
p5689
I6
sS'118'
p5690
I2
sS'lead'
p5691
I8
sS'eurocard'
p5692
I1
sS'8,700'
p5693
I3
sS'leader'
p5694
I4
sS'22.7'
p5695
I1
sS'poets'
p5696
I1
sS'francs.elsewhere'
p5697
I2
sS'27.8'
p5698
I2
sS'getting'
p5699
I3
sS'urged'
p5700
I5
sS'carrier'
p5701
I1
sS'6830'
p5702
I2
sS'creativity'
p5703
I1
sS'6838'
p5704
I1
sS'maize'
p5705
I7
sS'conference.ccb'
p5706
I1
sS'2.50'
p5707
I4
sS'van'
p5708
I20
sS'transfer'
p5709
I1
sS'lommel'
p5710
I1
sS'intention'
p5711
I8
sS'8.645'
p5712
I1
sS'dehaene'
p5713
I8
sS'29.2'
p5714
I2
sS'triggered'
p5715
I5
sS'funds'
p5716
I7
sS'emu.in'
p5717
I1
sS'volume'
p5718
I6
sS'drops'
p5719
I2
sS'amerbank.amerbank'
p5720
I1
sS'protesting'
p5721
I7
sS'favourites.mg'
p5722
I1
sS'record'
p5723
I1
sS'ruling'
p5724
I24
sS'1486'
p5725
I1
sS'terms.ims'
p5726
I1
sS'continental'
p5727
I1
sS'verbaet'
p5728
I2
sS'8,526dexia'
p5729
I1
sS'under-21'
p5730
I1
sS'book'
p5731
I1
sS'sick'
p5732
I1
sS'experts.some'
p5733
I2
sS'it.the'
p5734
I1
sS'1295'
p5735
I1
sS'bfrpct'
p5736
I3
sS'gas'
p5737
I3
sS'june'
p5738
I16
sS'6.16'
p5739
I1
sS'tonnes'
p5740
I70
sS'6.14'
p5741
I2
sS'4.25'
p5742
I3
sS'upwards'
p5743
I2
sS'ranks'
p5744
I3
sS'11,276'
p5745
I1
sS'volumes'
p5746
I8
sS'richardson'
p5747
I1
sS'mobutu'
p5748
I3
s.