(dp0
S'1,800'
p1
I2
sS'yellow'
p2
I1
sS'suzano'
p3
I2
sS'batons.the'
p4
I1
sS'increase'
p5
I45
sS'granting'
p6
I1
sS'electricity'
p7
I3
sS'regional'
p8
I14
sS'bringing'
p9
I5
sS'gains.several'
p10
I1
sS'productivity.the'
p11
I1
sS'wednesday'
p12
I70
sS'miller'
p13
I5
sS'pulse'
p14
I2
sS'270'
p15
I1
sS'271'
p16
I1
sS'second'
p17
I28
sS'49'
p18
I6
sS'279'
p19
I1
sS'revised'
p20
I4
sS'214.56'
p21
I1
sS'contributed'
p22
I1
sS'fingers'
p23
I1
sS'increasing'
p24
I4
sS'pressed'
p25
I1
sS'treatment.among'
p26
I1
sS'reported'
p27
I19
sS'china'
p28
I3
sS'auctioned'
p29
I6
sS'affiliated'
p30
I3
sS'vicepresident'
p31
I1
sS'reports'
p32
I4
sS'controversy'
p33
I1
sS'parreira'
p34
I2
sS'58,000'
p35
I1
sS'military'
p36
I22
sS'4.351'
p37
I1
sS'projection'
p38
I1
sS'negotiations.he'
p39
I1
sS'replace'
p40
I3
sS'brought'
p41
I12
sS'unit'
p42
I3
sS'spoke'
p43
I1
sS'monopolies.decliners'
p44
I1
sS'4.138'
p45
I1
sS'scoring.romario'
p46
I1
sS'music'
p47
I6
sS'distortions'
p48
I1
sS'strike'
p49
I86
sS'heralded'
p50
I1
sS'13.30'
p51
I1
sS'successful'
p52
I1
sS'benefiting'
p53
I3
sS'hurt'
p54
I3
sS'99'
p55
I1
sS'glass'
p56
I1
sS'export'
p57
I25
sS'5.14'
p58
I1
sS'90'
p59
I3
sS'embratel'
p60
I7
sS'hold'
p61
I16
sS'1.048'
p62
I1
sS'96'
p63
I1
sS'50.50'
p64
I2
sS'fifths'
p65
I7
sS'1999.cartier'
p66
I1
sS'pursue'
p67
I1
sS'rulings'
p68
I1
sS'korea.in'
p69
I1
sS'71-3/8'
p70
I1
sS'temperatures'
p71
I1
sS'revenues'
p72
I12
sS'example'
p73
I3
sS'household'
p74
I1
sS'escudos'
p75
I1
sS'currency'
p76
I12
sS'caution'
p77
I1
sS'want'
p78
I12
sS'51.3'
p79
I3
sS'said.both'
p80
I1
sS'hoc'
p81
I1
sS'travel'
p82
I5
sS'feature'
p83
I1
sS'hot'
p84
I2
sS'119.60'
p85
I1
sS'preferable'
p86
I1
sS'telma'
p87
I1
sS'shores'
p88
I1
sS'wrong'
p89
I1
sS'destined'
p90
I1
sS'italy'
p91
I7
sS'types'
p92
I1
sS'effective'
p93
I3
sS'wins'
p94
I1
sS'headquarters'
p95
I1
sS'baggage'
p96
I1
sS'wing'
p97
I5
sS'312-983-7294'
p98
I1
sS'senators'
p99
I6
sS'telecom'
p100
I21
sS'vary'
p101
I2
sS'foodstuff'
p102
I1
sS'changes.the'
p103
I1
sS'1220'
p104
I1
sS'roasters.of'
p105
I1
sS'easier'
p106
I2
sS'week.fecotrigo'
p107
I1
sS'fernndez'
p108
I3
sS'drabs'
p109
I1
sS'brasileira'
p110
I1
sS'aereos'
p111
I1
sS'interrupt'
p112
I2
sS'silver'
p113
I1
sS'structural'
p114
I1
sS'represents'
p115
I12
sS'16,80'
p116
I4
sS'folha'
p117
I9
sS'fercious'
p118
I1
sS'privatiations'
p119
I1
sS'manausfederal'
p120
I1
sS'financial'
p121
I29
sS'woes'
p122
I1
sS'series'
p123
I2
sS'27/03'
p124
I4
sS'euros.one'
p125
I1
sS'2,506'
p126
I1
sS'396'
p127
I1
sS'2,500'
p128
I1
sS'substantially'
p129
I2
sS'message'
p130
I1
sS'whip'
p131
I4
sS'encourage'
p132
I1
sS'changed.over'
p133
I1
sS'cigar'
p134
I1
sS'threatened'
p135
I3
sS'managerial'
p136
I1
sS'ian'
p137
I4
sS'corrects'
p138
I1
sS'estimate'
p139
I17
sS'flurry'
p140
I1
sS'ministries'
p141
I4
sS'shipped'
p142
I5
sS'united.the'
p143
I1
sS'unfilled'
p144
I1
sS'channels'
p145
I3
sS'kfa'
p146
I1
sS'millers'
p147
I7
sS'local/1050'
p148
I2
sS'170'
p149
I1
sS'service'
p150
I27
sS'vargas'
p151
I1
sS'yuraszeck'
p152
I2
sS'needed'
p153
I1
sS'euro'
p154
I6
sS'ranging'
p155
I6
sS'listen'
p156
I1
sS'collapse'
p157
I1
sS'sulphur'
p158
I1
sS'roadblock.the'
p159
I1
sS'showed'
p160
I30
sS'nations'
p161
I4
sS'project'
p162
I1
sS'feeling'
p163
I1
sS'acquisition'
p164
I5
sS'dozen'
p165
I1
sS'affairs'
p166
I4
sS'2.70'
p167
I2
sS'2.75'
p168
I2
sS'absorbed'
p169
I1
sS'doors'
p170
I2
sS'season'
p171
I5
sS'layoffs'
p172
I1
sS'greenback'
p173
I5
sS'shipments'
p174
I12
sS'committing'
p175
I1
sS'transactions'
p176
I2
sS'sugarcane'
p177
I1
sS'wells'
p178
I1
sS'swiss'
p179
I1
sS'tuesday.brittan'
p180
I1
sS'letter'
p181
I2
sS'organization'
p182
I2
sS'teck'
p183
I1
sS'revolt.brazilian'
p184
I1
sS'saying'
p185
I4
sS'20/15'
p186
I1
sS'meetings'
p187
I1
sS'45-percent'
p188
I1
sS'20/19'
p189
I2
sS'35,786'
p190
I1
sS'prix'
p191
I2
sS'participate'
p192
I6
sS'hungary'
p193
I1
sS'abreast'
p194
I1
sS'lessons'
p195
I1
sS'orleans'
p196
I3
sS'layout'
p197
I1
sS'maturation'
p198
I2
sS'28.6'
p199
I1
sS'rich'
p200
I1
sS'mend'
p201
I1
sS'time/1520'
p202
I1
sS'plate'
p203
I1
sS'4.00'
p204
I3
sS'foremost'
p205
I1
sS'pocket'
p206
I2
sS'relish'
p207
I1
sS'added.details'
p208
I1
sS'nicely'
p209
I1
sS'maciel'
p210
I1
sS'dipping'
p211
I1
sS'release'
p212
I2
sS'boarded'
p213
I2
sS'disaster'
p214
I1
sS'result'
p215
I17
sS'resigned'
p216
I3
sS'best'
p217
I5
sS'pressured'
p218
I1
sS'program.stevedores'
p219
I1
sS'141.91'
p220
I1
sS'651.8'
p221
I1
sS'pressures'
p222
I1
sS'perreira.other'
p223
I1
sS'said.trading'
p224
I1
sS'emater.emater'
p225
I1
sS'discipline'
p226
I1
sS'extend'
p227
I2
sS'votorantim'
p228
I8
sS'rolled'
p229
I3
sS'17.10'
p230
I1
sS'extent'
p231
I2
sS'debt'
p232
I23
sS'country'
p233
I25
sS'sparta'
p234
I3
sS'62.0'
p235
I2
sS'1,750'
p236
I2
sS'planned'
p237
I6
sS'argue'
p238
I4
sS'asked'
p239
I13
sS'soyproducts'
p240
I5
sS'bagsthe'
p241
I1
sS'aracruz'
p242
I1
sS'2-15/16'
p243
I1
sS'blending'
p244
I1
sS'256'
p245
I1
sS'week.communications'
p246
I1
sS'rangers'
p247
I1
sS'holdings'
p248
I10
sS'3.89'
p249
I1
sS'criticised'
p250
I1
sS'1,132'
p251
I2
sS'funds'
p252
I17
sS'lift'
p253
I1
sS'chile'
p254
I17
sS'child'
p255
I4
sS'worked'
p256
I2
sS'commerce'
p257
I6
sS'reais.jose'
p258
I1
sS'presidency'
p259
I7
sS'administrative'
p260
I10
sS'organisers'
p261
I1
sS'4,560'
p262
I2
sS'interupt'
p263
I1
sS'played'
p264
I4
sS'player'
p265
I4
sS'anticipating'
p266
I2
sS'trusted'
p267
I4
sS'hong'
p268
I1
sS'63,836'
p269
I1
sS'taped'
p270
I2
sS'128,660'
p271
I3
sS'things'
p272
I2
sS'cumulative'
p273
I4
sS'asprilla'
p274
I2
sS'split'
p275
I3
sS'big'
p276
I6
sS'rebound'
p277
I1
sS'european'
p278
I12
sS'fairly'
p279
I2
sS'0.615'
p280
I4
sS'hectares'
p281
I1
sS'ownership'
p282
I1
sS'4.352'
p283
I1
sS'7,662'
p284
I1
sS"i'm"
p285
I3
sS'859-1879'
p286
I4
sS'corporate'
p287
I1
sS'bellow'
p288
I1
sS'207.6'
p289
I1
sS'financially'
p290
I1
sS'sovereigns'
p291
I1
sS'previous'
p292
I19
sS'innocent'
p293
I5
sS'prison'
p294
I6
sS'east'
p295
I1
sS'irregularly.friday'
p296
I1
sS'municipal'
p297
I3
sS'menno'
p298
I1
sS'said.foreign'
p299
I2
sS'possible'
p300
I13
sS'said.so'
p301
I1
sS'possibly'
p302
I1
sS'kammtarra'
p303
I1
sS'telos'
p304
I1
sS'desire'
p305
I1
sS'390.1'
p306
I1
sS'sebastian'
p307
I1
sS'attorney'
p308
I1
sS'right'
p309
I6
sS'old'
p310
I11
sS'people'
p311
I25
sS'begin'
p312
I7
sS'consultants'
p313
I1
sS'ariston'
p314
I1
sS'kardamyla'
p315
I1
sS'communications'
p316
I28
sS'inhuman'
p317
I1
sS'foz'
p318
I1
sS'creative'
p319
I1
sS'years.celesc'
p320
I1
sS'summoned'
p321
I1
sS'24-hour'
p322
I6
sS'17,00safras'
p323
I1
sS'defensive'
p324
I1
sS'losing'
p325
I1
sS'brokerage'
p326
I3
sS'shaken'
p327
I1
sS'reais.power'
p328
I1
sS'dollars'
p329
I8
sS'citizens'
p330
I2
sS'o'
p331
I5
sS'interest.but'
p332
I2
sS'acos'
p333
I1
sS'slightly'
p334
I4
sS'2.219'
p335
I1
sS'raised'
p336
I9
sS'statements'
p337
I1
sS'results.he'
p338
I1
sS'drop.cbot'
p339
I1
sS'2.215'
p340
I1
sS'raises'
p341
I1
sS'soy'
p342
I5
sS'reducing'
p343
I3
sS'support'
p344
I10
sS'knowing'
p345
I1
sS'nova'
p346
I2
sS'170.6'
p347
I1
sS'resulted'
p348
I2
sS'alloys'
p349
I1
sS'offer'
p350
I12
sS'forming'
p351
I1
sS'understandable'
p352
I2
sS'verdi'
p353
I1
sS'40.8-kg'
p354
I2
sS'aza'
p355
I1
sS'inside'
p356
I2
sS'unanimous'
p357
I1
sS'lays'
p358
I1
sS'miyashiro.communications'
p359
I1
sS'150/110'
p360
I2
sS'passenger'
p361
I6
sS'152'
p362
I1
sS'liberal'
p363
I1
sS'tournament'
p364
I1
sS'minas'
p365
I12
sS'running.beating'
p366
I1
sS'1995.that'
p367
I2
sS'accounting'
p368
I4
sS'ericsson'
p369
I4
sS'dealer'
p370
I3
sS'negotiations'
p371
I6
sS'303,350'
p372
I1
sS'protested'
p373
I3
sS'973.442'
p374
I1
sS'17,00'
p375
I4
sS'eventual'
p376
I1
sS'floor'
p377
I9
sS'flood'
p378
I2
sS'republic'
p379
I4
sS'brings'
p380
I1
sS'intend'
p381
I1
sS'1999.the'
p382
I1
sS'intent'
p383
I2
sS'said.no'
p384
I1
sS'variable'
p385
I1
sS'shootout'
p386
I1
sS'time'
p387
I22
sS'push'
p388
I1
sS'hosues'
p389
I1
sS'cargo.the'
p390
I1
sS'bribes'
p391
I1
sS'said.aes'
p392
I1
sS'prolonging'
p393
I1
sS'97'
p394
I1
sS'prize.formal'
p395
I1
sS'circumstances'
p396
I1
sS'3,150'
p397
I1
sS'refinance'
p398
I2
sS'choice'
p399
I3
sS'servicing'
p400
I1
sS'player.he'
p401
I1
sS'locked'
p402
I1
sS'minute'
p403
I3
sS'1700'
p404
I1
sS'elenora'
p405
I1
sS'leave'
p406
I6
sS'defaults'
p407
I8
sS'team'
p408
I12
sS'speculation'
p409
I5
sS'prevent'
p410
I2
sS'insignificant'
p411
I1
sS'parties.as'
p412
I3
sS'120/100'
p413
I1
sS'sign'
p414
I5
sS'minutes.the'
p415
I1
sS'jurczak'
p416
I1
sS'exempts'
p417
I1
sS'cosipe'
p418
I12
sS'cosipa'
p419
I28
sS'current'
p420
I19
sS'falling'
p421
I2
sS'boost'
p422
I2
sS'totalling'
p423
I2
sS'romario.chile'
p424
I1
sS'secretary.santos'
p425
I1
sS'41.85'
p426
I1
sS'fimat'
p427
I1
sS'moliere'
p428
I2
sS'address'
p429
I1
sS'passengers'
p430
I5
sS"d'inde"
p431
I1
sS'financiero'
p432
I1
sS'12-month'
p433
I1
sS'rambo'
p434
I2
sS'varginha.overall'
p435
I1
sS'said.meanwhile'
p436
I1
sS'undergone'
p437
I1
sS'toppled'
p438
I1
sS'working'
p439
I5
sS'positive'
p440
I9
sS'angry'
p441
I1
sS'angra'
p442
I1
sS'opposed'
p443
I1
sS'prosecutor'
p444
I1
sS'28,725'
p445
I1
sS'3-1/8'
p446
I1
sS'inocencio'
p447
I1
sS'approving'
p448
I1
sS'valued'
p449
I2
sS'originally'
p450
I1
sS'overloaded'
p451
I1
sS'impasse'
p452
I3
sS'vega'
p453
I1
sS'believed'
p454
I7
sS'locks'
p455
I1
sS'allowed'
p456
I11
sS'evidently'
p457
I1
sS'winter'
p458
I2
sS'silos'
p459
I2
sS'divided'
p460
I2
sS'oswaldo'
p461
I1
sS'c&f'
p462
I2
sS'17,20note'
p463
I1
sS'improving'
p464
I6
sS'revealed'
p465
I1
sS'natural'
p466
I2
sS'sectors'
p467
I1
sS'upcoming'
p468
I10
sS'truck'
p469
I1
sS'sa'
p470
I19
sS'years'
p471
I33
sS'course'
p472
I4
sS'80.5'
p473
I2
sS'teresinha'
p474
I1
sS'side.in'
p475
I1
sS'tore'
p476
I1
sS'internationally'
p477
I1
sS'troubles'
p478
I1
sS'workforces'
p479
I1
sS'troubled'
p480
I4
sS'5.57'
p481
I1
sS'5.54'
p482
I1
sS'5.55'
p483
I1
sS'5.50'
p484
I2
sS'civilian'
p485
I4
sS'matches'
p486
I2
sS'regarding'
p487
I4
sS'5.58'
p488
I1
sS'5.59'
p489
I2
sS'records'
p490
I1
sS'temer'
p491
I3
sS'columbium.columbium'
p492
I1
sS'subscribers'
p493
I2
sS'arriving'
p494
I1
sS'maintaining'
p495
I10
sS'matched'
p496
I1
sS'firming'
p497
I1
sS'sidor'
p498
I1
sS'crushers'
p499
I2
sS'quarter'
p500
I20
sS'durval'
p501
I1
sS'crushing'
p502
I3
sS'entering'
p503
I2
sS'neighbourhood'
p504
I1
sS'797'
p505
I1
sS'container'
p506
I1
sS'bretthauer'
p507
I2
sS'17.00note'
p508
I1
sS'contained'
p509
I4
sS'bln'
p510
I1
sS'internet'
p511
I1
sS'suggesting'
p512
I2
sS'formula'
p513
I1
sS'curbs'
p514
I1
sS'prostitutes'
p515
I1
sS'million'
p516
I165
sS'possibility'
p517
I7
sS'quite'
p518
I3
sS'complicated'
p519
I1
sS'bumpy'
p520
I1
sS'remainder'
p521
I2
sS'training'
p522
I5
sS'brasil'
p523
I10
sS'modest'
p524
I1
sS'streetsauthorities'
p525
I1
sS'saving'
p526
I2
sS'spoken'
p527
I1
sS'clause'
p528
I3
sS'punishable'
p529
I2
sS'spanish'
p530
I1
sS'vote'
p531
I38
sS'open'
p532
I6
sS'city'
p533
I23
sS'santander'
p534
I2
sS'2002vbc'
p535
I1
sS'indicate'
p536
I1
sS'2'
p537
I8
sS'draft'
p538
I1
sS'winter.the'
p539
I1
sS'mtbe'
p540
I4
sS'state.previously'
p541
I1
sS'slashed'
p542
I2
sS'specialists'
p543
I1
sS'representing'
p544
I1
sS'day.stevedores'
p545
I1
sS'rival'
p546
I2
sS'future'
p547
I11
sS'russia'
p548
I2
sS'prospect'
p549
I4
sS'1430/1730'
p550
I1
sS'addressing'
p551
I1
sS'sao'
p552
I178
sS'san'
p553
I1
sS'payroll.s'
p554
I1
sS'turned'
p555
I2
sS'sad'
p556
I1
sS'say'
p557
I15
sS'15,80'
p558
I1
sS'uninterrupted'
p559
I1
sS'15,88'
p560
I1
sS'saw'
p561
I3
sS'sat'
p562
I1
sS'95,005'
p563
I1
sS'poland.in'
p564
I1
sS'valecom.he'
p565
I1
sS'note'
p566
I3
sS'intends'
p567
I2
sS'274.7'
p568
I1
sS'16.30rio'
p569
I1
sS'altered'
p570
I2
sS'said.santander'
p571
I1
sS'1,079'
p572
I1
sS'remarks'
p573
I2
sS'bolshoi'
p574
I1
sS'mortgage'
p575
I1
sS'average'
p576
I13
sS'drive'
p577
I2
sS'managing'
p578
I3
sS'426.9'
p579
I1
sS'30,000'
p580
I1
sS'liquidity'
p581
I3
sS'forecasters'
p582
I2
sS'laws'
p583
I3
sS'fifa'
p584
I1
sS'surplus'
p585
I15
sS'bright'
p586
I1
sS'steelmakers'
p587
I1
sS'aggressive'
p588
I3
sS'imagined'
p589
I1
sS'valeo'
p590
I3
sS'17,20'
p591
I1
sS'bradies'
p592
I1
sS'going'
p593
I16
sS'outrage'
p594
I2
sS'caroline'
p595
I23
sS'congressional'
p596
I5
sS'dispute'
p597
I9
sS'9,504'
p598
I1
sS'telerj'
p599
I5
sS'bovespa'
p600
I9
sS'companies.the'
p601
I1
sS'awaiting'
p602
I3
sS'prime'
p603
I1
sS'ildemar'
p604
I1
sS'worried'
p605
I1
sS'network'
p606
I2
sS'recife'
p607
I3
sS'02/04/97'
p608
I2
sS'raged'
p609
I1
sS'said.valeo'
p610
I1
sS'diver'
p611
I2
sS'ostensibly'
p612
I2
sS'jumped'
p613
I11
sS'representatives'
p614
I8
sS'superalloys'
p615
I1
sS'serfin'
p616
I1
sS'affecting'
p617
I2
sS'jobs'
p618
I1
sS'concentrate'
p619
I2
sS'cervejaria'
p620
I1
sS'undermine'
p621
I2
sS'concentrated'
p622
I5
sS'reported.officials'
p623
I1
sS's'
p624
I25
sS'concentrates'
p625
I1
sS"can't"
p626
I1
sS'anti'
p627
I2
sS'comeback'
p628
I1
sS'considers'
p629
I1
sS'boat'
p630
I1
sS'hehmeyer'
p631
I1
sS'gusmati'
p632
I1
sS'airlines'
p633
I2
sS'combined'
p634
I1
sS'659,335'
p635
I2
sS'wants'
p636
I5
sS'enable'
p637
I3
sS'thousand'
p638
I2
sS'formed'
p639
I1
sS'curbing'
p640
I1
sS'5651'
p641
I1
sS'said.planning'
p642
I1
sS'fliers'
p643
I1
sS'single'
p644
I5
sS'policies'
p645
I3
sS'newspaper'
p646
I14
sS'situation'
p647
I3
sS'ivo'
p648
I1
sS'dubious'
p649
I1
sS'13.9'
p650
I1
sS'technology'
p651
I2
sS'13.1'
p652
I1
sS'verified'
p653
I4
sS'threatens'
p654
I1
sS'denying'
p655
I1
sS'fatima'
p656
I16
sS'breakdown'
p657
I2
sS'singapore'
p658
I2
sS'boosted'
p659
I3
sS'borrowing.the'
p660
I1
sS'108.50'
p661
I1
sS'barber'
p662
I1
sS'intended'
p663
I1
sS'lading'
p664
I4
sS'60,001'
p665
I1
sS'costs'
p666
I8
sS'140.50'
p667
I1
sS'officials.senators'
p668
I1
sS'gdp'
p669
I5
sS'215'
p670
I1
sS'212'
p671
I7
sS'210'
p672
I2
sS'211'
p673
I1
sS'rest'
p674
I5
sS'schools'
p675
I3
sS'rubens'
p676
I1
sS'peru.however'
p677
I1
sS'weekly'
p678
I3
sS'union.the'
p679
I1
sS'generator'
p680
I2
sS'color'
p681
I2
sS'contesting'
p682
I1
sS'available'
p683
I12
sS'aspects'
p684
I1
sS'10.50'
p685
I2
sS'vacuum'
p686
I2
sS'world'
p687
I27
sS'alredy'
p688
I1
sS'meat'
p689
I3
sS'local/100'
p690
I2
sS'soledade'
p691
I1
sS'comgas'
p692
I1
sS'moinho'
p693
I2
sS'inter'
p694
I2
sS'grouping'
p695
I1
sS'bankruptcies'
p696
I1
sS'satisfactory'
p697
I1
sS'superintendent'
p698
I1
sS'diving'
p699
I1
sS'cristina'
p700
I16
sS'patrimonio'
p701
I1
sS'memories'
p702
I1
sS'exit'
p703
I1
sS'brazil.the'
p704
I2
sS'1995.the'
p705
I3
sS'unabated.back'
p706
I2
sS'54,500'
p707
I1
sS'power'
p708
I30
sS'1.027'
p709
I1
sS'percent.in'
p710
I1
sS'retains'
p711
I1
sS'thailand'
p712
I1
sS'reversing'
p713
I1
sS'executives'
p714
I3
sS'agencia'
p715
I2
sS'industry'
p716
I32
sS'favorite'
p717
I1
sS'barings'
p718
I4
sS'act'
p719
I1
sS'mean'
p720
I3
sS'wady'
p721
I1
sS'flawed'
p722
I1
sS'image'
p723
I1
sS'homeless'
p724
I1
sS'parties'
p725
I7
sS'accumulated'
p726
I9
sS'said.thursday'
p727
I1
sS'rossi'
p728
I1
sS'2.318'
p729
I1
sS'term.brazil'
p730
I2
sS'even/8'
p731
I1
sS'complete'
p732
I7
sS'507'
p733
I9
sS'elimination'
p734
I1
sS'buying'
p735
I7
sS'pull'
p736
I1
sS'october'
p737
I5
sS'monopoly'
p738
I1
sS'31.1'
p739
I1
sS'pulp'
p740
I4
sS'gone'
p741
I2
sS'ad'
p742
I1
sS'certain'
p743
I3
sS'al'
p744
I2
sS'watched'
p745
I1
sS'imports.padovani'
p746
I1
sS'guerreiro'
p747
I1
sS'u.s.last'
p748
I1
sS'congress'
p749
I31
sS'refunded'
p750
I1
sS'accounts'
p751
I2
sS'one.the'
p752
I2
sS'cpi'
p753
I7
sS'acsp'
p754
I2
sS'mass'
p755
I2
sS'traffickers.the'
p756
I2
sS'original'
p757
I4
sS'consider'
p758
I4
sS'caused'
p759
I6
sS'ferreira'
p760
I1
sS'said.analysts'
p761
I2
sS'minors'
p762
I1
sS'causes'
p763
I1
sS'tv'
p764
I1
sS'including'
p765
I10
sS'champions'
p766
I2
sS'said.fellow'
p767
I1
sS'drabs.both'
p768
I1
sS'case'
p769
I19
sS'returned'
p770
I1
sS'94.31'
p771
I1
sS'1,500'
p772
I2
sS'baton'
p773
I3
sS'soften'
p774
I1
sS'condition'
p775
I2
sS'8,560'
p776
I1
sS'17th'
p777
I1
sS'accompanying'
p778
I1
sS'laying'
p779
I3
sS'joined'
p780
I2
sS'large'
p781
I11
sS'sand'
p782
I2
sS'small'
p783
I7
sS'past'
p784
I8
sS'pass'
p785
I3
sS'25-year'
p786
I1
sS'17-5/8'
p787
I1
sS'investment'
p788
I29
sS'richard'
p789
I1
sS'193.6'
p790
I2
sS'gaceta'
p791
I2
sS'fipe'
p792
I9
sS'installations'
p793
I1
sS'hours'
p794
I10
sS'civilians'
p795
I11
sS'concluding'
p796
I1
sS'november'
p797
I12
sS'transformation'
p798
I1
sS'experience'
p799
I6
sS'7,324'
p800
I1
sS'prior'
p801
I5
sS'pick'
p802
I2
sS'action'
p803
I6
sS'department.goncz'
p804
I1
sS'followed'
p805
I2
sS'strolling'
p806
I3
sS'young'
p807
I2
sS'excellently'
p808
I1
sS'catarina'
p809
I3
sS'silva'
p810
I5
sS'850'
p811
I1
sS'malan.but'
p812
I1
sS'hospital.a'
p813
I1
sS'nuch'
p814
I1
sS'6'
p815
I11
sS'door'
p816
I1
sS'initiated'
p817
I1
sS'company'
p818
I76
sS'foundations'
p819
I2
sS'leary'
p820
I1
sS'keeping'
p821
I1
sS'jobim'
p822
I1
sS'installing'
p823
I1
sS'belgo'
p824
I5
sS'indicating'
p825
I1
sS'morgan'
p826
I9
sS'knocked'
p827
I2
sS'rodrigues'
p828
I2
sS'ponta'
p829
I8
sS'prompt'
p830
I1
sS'suggestions'
p831
I1
sS'states'
p832
I28
sS'sense'
p833
I3
sS'senso'
p834
I1
sS'1.769'
p835
I2
sS'huge'
p836
I2
sS'respective'
p837
I1
sS'imminent'
p838
I1
sS'dismissed'
p839
I1
sS'earnings'
p840
I15
sS'reyes'
p841
I1
sS'plant'
p842
I19
sS'seoul'
p843
I1
sS'mendes'
p844
I1
sS'roasters.some'
p845
I1
sS'register'
p846
I1
sS'incobrasa'
p847
I7
sS'fundamental'
p848
I1
sS'559.6'
p849
I1
sS'136.92'
p850
I1
sS'1300'
p851
I3
sS'4,018'
p852
I1
sS'installed'
p853
I1
sS'paper'
p854
I9
sS'495'
p855
I1
sS'11.3'
p856
I1
sS'rate.officials'
p857
I1
sS'termed'
p858
I1
sS'10,188'
p859
I5
sS'travelling'
p860
I1
sS'financing.the'
p861
I1
sS'kunsan'
p862
I1
sS'entire'
p863
I2
sS'centrais'
p864
I2
sS'misuse'
p865
I1
sS'bamerindus.flint'
p866
I1
sS'friday.stevedores'
p867
I1
sS'shocking'
p868
I1
sS'survived.on'
p869
I1
sS'investigators'
p870
I1
sS'reactions'
p871
I3
sS'reduce'
p872
I8
sS'carvalho'
p873
I3
sS'fewer'
p874
I1
sS'funcef'
p875
I2
sS'operation'
p876
I7
sS'really'
p877
I5
sS'try'
p878
I1
sS'16.31'
p879
I1
sS'16.30'
p880
I1
sS'blacks'
p881
I3
sS'research'
p882
I4
sS'left.in'
p883
I1
sS'ministerial'
p884
I1
sS'risen'
p885
I2
sS'sparked'
p886
I4
sS'qualify'
p887
I2
sS'10.75'
p888
I1
sS'rises'
p889
I1
sS'fit.kandir'
p890
I1
sS'producers'
p891
I6
sS'owners'
p892
I2
sS'percent.its'
p893
I1
sS'bookies'
p894
I1
sS'major'
p895
I7
sS'1.221'
p896
I1
sS'protectionist'
p897
I1
sS'6.00'
p898
I6
sS'1,316,866march'
p899
I1
sS'shantytowns'
p900
I4
sS'number'
p901
I13
sS'1,316,867march'
p902
I1
sS'heads'
p903
I2
sS'introduction'
p904
I3
sS'brittan'
p905
I5
sS'8,040'
p906
I1
sS'added.market'
p907
I1
sS'5.99'
p908
I1
sS'relationship'
p909
I2
sS'immediate'
p910
I4
sS'appreciation'
p911
I2
sS'300-real'
p912
I2
sS'1330/1630'
p913
I1
sS'30/25'
p914
I6
sS'rampant'
p915
I4
sS'113.40'
p916
I1
sS'structure.a'
p917
I1
sS'610,600'
p918
I1
sS'worked.california'
p919
I1
sS'mercantil'
p920
I9
sS'determined'
p921
I1
sS'0.98'
p922
I1
sS'derailing'
p923
I1
sS'0.95'
p924
I1
sS'doing.the'
p925
I1
sS'fights'
p926
I1
sS'sell'
p927
I17
sS'recognizing'
p928
I1
sS'internal'
p929
I2
sS'prices.crop'
p930
I1
sS'83.9'
p931
I1
sS'play'
p932
I6
sS'said.a'
p933
I1
sS'index'
p934
I17
sS'x212'
p935
I1
sS'raucous'
p936
I1
sS'91.7'
p937
I1
sS'plan'
p938
I15
sS'iguacu'
p939
I1
sS'cindam'
p940
I1
sS'cover'
p941
I4
sS'bulletin'
p942
I3
sS'gold'
p943
I6
sS'defended'
p944
I1
sS'nasdaq'
p945
I1
sS'session'
p946
I4
sS'defender'
p947
I3
sS'5.75'
p948
I2
sS'impact'
p949
I12
sS'access'
p950
I4
sS'189.2'
p951
I1
sS'stockholders'
p952
I3
sS'failed'
p953
I6
sS'unjustly'
p954
I2
sS'collor'
p955
I6
sS'equity'
p956
I1
sS'4,714'
p957
I1
sS'4,717'
p958
I1
sS'percent.cellular'
p959
I1
sS'downpour'
p960
I1
sS'banned'
p961
I1
sS'sunny'
p962
I1
sS'preparing'
p963
I1
sS'closely'
p964
I1
sS'reporters'
p965
I11
sS'said.race'
p966
I1
sS'16,00'
p967
I3
sS'said.louis'
p968
I1
sS'banking'
p969
I21
sS'said.according'
p970
I1
sS'271.5'
p971
I1
sS'river'
p972
I1
sS'adrs.traders'
p973
I2
sS'set'
p974
I25
sS'815,000'
p975
I1
sS'7.35'
p976
I1
sS'312'
p977
I1
sS'310'
p978
I1
sS'seb'
p979
I3
sS'sea'
p980
I4
sS'expire.the'
p981
I1
sS'sen'
p982
I1
sS'regulator'
p983
I4
sS'160.9'
p984
I1
sS'negotiator'
p985
I1
sS'movie'
p986
I2
sS'currently'
p987
I16
sS'rejecting'
p988
I3
sS'said.newspapers'
p989
I1
sS'6,530'
p990
I1
sS'389-1/2'
p991
I1
sS'cabrera'
p992
I1
sS'targeted'
p993
I1
sS'brewing'
p994
I1
sS'untouched'
p995
I1
sS'incident'
p996
I3
sS'dividend'
p997
I2
sS'prospects'
p998
I1
sS'improved'
p999
I3
sS'barely'
p1000
I2
sS'connection'
p1001
I7
sS'1.61'
p1002
I1
sS'poverty'
p1003
I1
sS'approve'
p1004
I4
sS'load'
p1005
I23
sS'belo'
p1006
I2
sS'acted'
p1007
I1
sS'leon'
p1008
I2
sS'adaptation'
p1009
I1
sS'church'
p1010
I2
sS'frosts'
p1011
I2
sS'publishing'
p1012
I1
sS'monthly'
p1013
I11
sS'escritorio'
p1014
I1
sS'hitting'
p1015
I4
sS'geoffrey'
p1016
I1
sS'lucrative'
p1017
I1
sS'firm'
p1018
I27
sS'raced'
p1019
I1
sS'champion'
p1020
I2
sS'325,000'
p1021
I1
sS'bamerindus.brazilian'
p1022
I1
sS'9,545'
p1023
I1
sS'limit.the'
p1024
I1
sS'fund'
p1025
I9
sS'representative'
p1026
I4
sS'48.00'
p1027
I2
sS'washington.an'
p1028
I1
sS'trio.chile'
p1029
I1
sS'muszkat'
p1030
I1
sS'resulting'
p1031
I1
sS'expanded'
p1032
I1
sS'711,200'
p1033
I1
sS'budget'
p1034
I6
sS'receive'
p1035
I5
sS'waldock'
p1036
I1
sS'36.00'
p1037
I3
sS'error'
p1038
I2
sS'cvrd.soledade'
p1039
I1
sS'pound'
p1040
I1
sS'hoping'
p1041
I1
sS'dotting'
p1042
I1
sS'116.04'
p1043
I2
sS'serpros'
p1044
I1
sS'barney'
p1045
I1
sS'ltds'
p1046
I1
sS'5.00'
p1047
I2
sS'shorter'
p1048
I1
sS'mendonca'
p1049
I2
sS'virtually'
p1050
I6
sS'ltda'
p1051
I1
sS'snail'
p1052
I3
sS'april.officials'
p1053
I1
sS'viewing'
p1054
I1
sS'levels'
p1055
I9
sS'55,698'
p1056
I1
sS'nickname'
p1057
I1
sS'recent'
p1058
I8
sS'aghia'
p1059
I3
sS'person'
p1060
I1
sS'regulating'
p1061
I2
sS'plagues'
p1062
I1
sS'prison.globo'
p1063
I1
sS'power.economists'
p1064
I1
sS'reap'
p1065
I1
sS'203.41'
p1066
I1
sS'7.50'
p1067
I2
sS'parents'
p1068
I1
sS'location'
p1069
I2
sS'76.9'
p1070
I1
sS'input'
p1071
I1
sS'surprised'
p1072
I2
sS'harvesting'
p1073
I2
sS'indonesian'
p1074
I3
sS'australia'
p1075
I1
sS'injection.the'
p1076
I1
sS'projects'
p1077
I1
sS'formal'
p1078
I2
sS'imposed'
p1079
I1
sS'd'
p1080
I63
sS'spine'
p1081
I1
sS'14-1'
p1082
I1
sS'consensus'
p1083
I1
sS'marques'
p1084
I3
sS'continue'
p1085
I20
sS'ivan'
p1086
I3
sS'alexandre'
p1087
I9
sS'senate'
p1088
I22
sS'denilson'
p1089
I1
sS'sorber'
p1090
I1
sS'17,50safras'
p1091
I1
sS'58.50'
p1092
I2
sS'shipment.van'
p1093
I1
sS'liceu'
p1094
I2
sS'novelty'
p1095
I1
sS'behave'
p1096
I1
sS'soybeans.road'
p1097
I2
sS'bb'
p1098
I5
sS'bc'
p1099
I6
sS'bn'
p1100
I1
sS'agreement'
p1101
I14
sS'telpe'
p1102
I1
sS'looming'
p1103
I1
sS'santa'
p1104
I5
sS'jornal'
p1105
I1
sS'relating'
p1106
I1
sS'degummed'
p1107
I3
sS'1,200'
p1108
I1
sS'1,206'
p1109
I1
sS'1,208'
p1110
I1
sS'libero'
p1111
I1
sS'deserves'
p1112
I3
sS'later.although'
p1113
I1
sS'mouth'
p1114
I1
sS'12,000'
p1115
I1
sS'clinton'
p1116
I1
sS'bags.the'
p1117
I2
sS'conceded'
p1118
I1
sS'awaited'
p1119
I5
sS'tonnes.cbmm'
p1120
I1
sS'criticisms'
p1121
I1
sS'paraguay.cardoso'
p1122
I1
sS'spending'
p1123
I12
sS'submit'
p1124
I3
sS'considerably'
p1125
I1
sS'152.47'
p1126
I2
sS'atop'
p1127
I1
sS'pacific'
p1128
I1
sS'line'
p1129
I5
sS'lind'
p1130
I1
sS'10.17'
p1131
I1
sS'posted'
p1132
I8
sS'maturity'
p1133
I2
sS'uk'
p1134
I2
sS'nationalist'
p1135
I1
sS'35.00'
p1136
I1
sS'furnas'
p1137
I3
sS'hospital.the'
p1138
I1
sS'preventing'
p1139
I3
sS'points'
p1140
I21
sS'coded'
p1141
I1
sS'138.20'
p1142
I1
sS'bulletin.a'
p1143
I1
sS'revision'
p1144
I2
sS'elements'
p1145
I1
sS'oblige'
p1146
I1
sS'regulator.bornhausen'
p1147
I1
sS'frei.the'
p1148
I1
sS'sides'
p1149
I1
sS'ago'
p1150
I4
sS'sale.now'
p1151
I1
sS'holes'
p1152
I1
sS'381,233.2'
p1153
I1
sS'came'
p1154
I3
sS'fresh'
p1155
I2
sS'having'
p1156
I5
sS'2.00march'
p1157
I1
sS'code'
p1158
I5
sS'358,610'
p1159
I1
sS'incorporate'
p1160
I1
sS'results'
p1161
I7
sS'diderich'
p1162
I22
sS'existing'
p1163
I7
sS'softer'
p1164
I1
sS'broader'
p1165
I1
sS'centers'
p1166
I1
sS'concerned'
p1167
I5
sS'seng'
p1168
I1
sS'send'
p1169
I1
sS'citing'
p1170
I1
sS'sent'
p1171
I9
sS'garden'
p1172
I1
sS'torture'
p1173
I8
sS'continues'
p1174
I3
sS'languished'
p1175
I2
sS'20/18'
p1176
I2
sS'continued'
p1177
I2
sS'minerals'
p1178
I3
sS'categories'
p1179
I3
sS'soluble'
p1180
I15
sS'transmission'
p1181
I1
sS'sector.brazil'
p1182
I1
sS"they've"
p1183
I1
sS'operations.there'
p1184
I1
sS'anxious'
p1185
I1
sS'race'
p1186
I8
sS'16.05'
p1187
I1
sS'33.50'
p1188
I2
sS'590'
p1189
I1
sS'riveros'
p1190
I1
sS'recruitment'
p1191
I1
sS'imply'
p1192
I1
sS'video'
p1193
I17
sS'capitalmetal'
p1194
I1
sS'victor'
p1195
I1
sS'5415'
p1196
I19
sS'region.in'
p1197
I1
sS'5417'
p1198
I23
sS'5410'
p1199
I2
sS'quarterforeign'
p1200
I1
sS'metalurgica'
p1201
I1
sS'5418'
p1202
I1
sS'expressed'
p1203
I2
sS'indian'
p1204
I1
sS'firms'
p1205
I5
sS'1400'
p1206
I2
sS'slabs'
p1207
I2
sS'led'
p1208
I10
sS'respectively'
p1209
I5
sS'let'
p1210
I1
sS'said.nucci'
p1211
I1
sS'said.cosipe'
p1212
I1
sS'consideration'
p1213
I1
sS'46-1/8'
p1214
I1
sS'great'
p1215
I3
sS'technical'
p1216
I2
sS'involved'
p1217
I9
sS'survey'
p1218
I9
sS'defeat'
p1219
I2
sS'opinion'
p1220
I3
sS'residents'
p1221
I1
sS'makes'
p1222
I2
sS'maker'
p1223
I3
sS'involves'
p1224
I1
sS'335'
p1225
I1
sS'331'
p1226
I1
sS'cascione'
p1227
I1
sS'confidence'
p1228
I2
sS'propose'
p1229
I2
sS'mendoza'
p1230
I1
sS'230,075'
p1231
I1
sS'illegal'
p1232
I4
sS'ministers'
p1233
I3
sS'guideline'
p1234
I1
sS'593.2'
p1235
I1
sS'doubt'
p1236
I1
sS'bonds'
p1237
I17
sS'local/2030'
p1238
I2
sS'midday'
p1239
I3
sS'touched'
p1240
I1
sS'isssue'
p1241
I1
sS'dealings'
p1242
I1
sS'federally'
p1243
I2
sS'labelled'
p1244
I1
sS'sharply'
p1245
I9
sS'payrolls'
p1246
I3
sS'challenge'
p1247
I2
sS'clients'
p1248
I2
sS'reserves'
p1249
I4
sS'1.45'
p1250
I1
sS'1.41'
p1251
I1
sS'1.40'
p1252
I3
sS'process'
p1253
I8
sS'slim'
p1254
I1
sS'high'
p1255
I16
sS'fitzcarraldo'
p1256
I2
sS'1,947'
p1257
I1
sS'delay'
p1258
I1
sS'5561-223-0358'
p1259
I1
sS'cartier'
p1260
I3
sS'yellowish'
p1261
I31
sS'blocks'
p1262
I2
sS'manaus'
p1263
I8
sS'halted'
p1264
I8
sS'demonstrating'
p1265
I1
sS'ties'
p1266
I2
sS'solidarity'
p1267
I1
sS'tomato'
p1268
I1
sS'manpower'
p1269
I1
sS'element'
p1270
I2
sS'commodities'
p1271
I5
sS'allow'
p1272
I8
sS'65,000'
p1273
I1
sS'producer'
p1274
I11
sS'outlook'
p1275
I1
sS'produced'
p1276
I8
sS'brahma'
p1277
I1
sS'businessmen.chilean'
p1278
I1
sS'perfect'
p1279
I1
sS'mitsui'
p1280
I5
sS'4.544'
p1281
I1
sS'chosen'
p1282
I2
sS'tender.shipment'
p1283
I1
sS'barrichello'
p1284
I1
sS'fortaleza'
p1285
I2
sS'autos.world'
p1286
I1
sS'outlined'
p1287
I1
sS'dock'
p1288
I5
sS'rotation'
p1289
I1
sS'transparent'
p1290
I1
sS'presidential'
p1291
I7
sS'doce'
p1292
I7
sS'decision.santos'
p1293
I1
sS'3.076'
p1294
I1
sS'union.under'
p1295
I1
sS'merge'
p1296
I1
sS'shortage'
p1297
I2
sS'3.it'
p1298
I1
sS'doing'
p1299
I1
sS'22.25'
p1300
I1
sS'society'
p1301
I1
sS'books'
p1302
I2
sS'agriculture'
p1303
I8
sS'goalkeeper'
p1304
I1
sS'kandir.kandir'
p1305
I1
sS'cesp'
p1306
I4
sS'mediated'
p1307
I1
sS'21.the'
p1308
I1
sS'argentina.the'
p1309
I1
sS'shut'
p1310
I3
sS'await'
p1311
I1
sS'regulatory'
p1312
I3
sS'182-day'
p1313
I2
sS'391.4'
p1314
I1
sS'banestado'
p1315
I1
sS'david'
p1316
I4
sS'length'
p1317
I1
sS'qualifying'
p1318
I1
sS'1997white'
p1319
I1
sS'stimulate'
p1320
I2
sS'459'
p1321
I1
sS'453'
p1322
I1
sS'owned'
p1323
I20
sS'owner'
p1324
I1
sS'buoyed'
p1325
I1
sS'deceptive'
p1326
I1
sS'start'
p1327
I14
sS'festival'
p1328
I3
sS'offset'
p1329
I2
sS'travelled'
p1330
I1
sS'interests'
p1331
I3
sS'vigorous'
p1332
I1
sS'sentiment.bellwether'
p1333
I1
sS'vouch'
p1334
I4
sS'elite'
p1335
I2
sS'steel'
p1336
I34
sS'brazil.garcia'
p1337
I1
sS'roberto'
p1338
I5
sS'reacted'
p1339
I2
sS'tortured'
p1340
I1
sS'appealing'
p1341
I1
sS'briefing'
p1342
I1
sS'400-tonne'
p1343
I1
sS'partnership'
p1344
I1
sS'tonight'
p1345
I1
sS'clearly'
p1346
I3
sS'viewed'
p1347
I1
sS'bebedouro'
p1348
I2
sS'prohibits'
p1349
I1
sS'documents'
p1350
I4
sS'16.70'
p1351
I1
sS'mechanism'
p1352
I1
sS'662.9'
p1353
I1
sS'korean'
p1354
I1
sS'accuracy'
p1355
I4
sS'worldwide'
p1356
I1
sS'110.20'
p1357
I1
sS'55-61-2230358'
p1358
I4
sS'1,480'
p1359
I1
sS'klabin'
p1360
I3
sS'bred'
p1361
I2
sS'stronger'
p1362
I1
sS'face'
p1363
I9
sS'lots'
p1364
I1
sS'wounded'
p1365
I1
sS'fact'
p1366
I4
sS'centralized'
p1367
I1
sS'bring'
p1368
I3
sS'valenciano'
p1369
I1
sS'economist'
p1370
I8
sS'principal'
p1371
I2
sS'reporters.chile'
p1372
I1
sS'said.under'
p1373
I4
sS'138.00'
p1374
I1
sS'planted'
p1375
I2
sS'tape'
p1376
I2
sS'ahlfeld'
p1377
I1
sS'mayors'
p1378
I3
sS'hope'
p1379
I6
sS'exchanged'
p1380
I1
sS'handle'
p1381
I1
sS'means'
p1382
I3
sS'impeachment'
p1383
I1
sS'exchanges'
p1384
I5
sS'aes'
p1385
I6
sS'comprising'
p1386
I2
sS'taxes'
p1387
I1
sS'1.145'
p1388
I1
sS'stuff'
p1389
I2
sS'said.ten'
p1390
I2
sS'settlements.at'
p1391
I1
sS'withstand'
p1392
I1
sS'temporarily'
p1393
I3
sS'catastrophic'
p1394
I1
sS'differentials'
p1395
I3
sS'freitas'
p1396
I2
sS'qty'
p1397
I3
sS'agricultural'
p1398
I8
sS'bidders'
p1399
I3
sS'packed'
p1400
I1
sS'staffing.the'
p1401
I1
sS'state.it'
p1402
I1
sS'nationwide'
p1403
I7
sS'nuclear'
p1404
I2
sS'217.39'
p1405
I1
sS'pasep'
p1406
I1
sS'disgruntled'
p1407
I1
sS'2.756'
p1408
I1
sS'explosive'
p1409
I1
sS'strides'
p1410
I1
sS'eletricas'
p1411
I2
sS'60.00'
p1412
I1
sS'restrictions'
p1413
I11
sS'periodthe'
p1414
I1
sS'invited'
p1415
I1
sS'drug'
p1416
I6
sS'union.an'
p1417
I1
sS'figures'
p1418
I31
sS'marta'
p1419
I1
sS'said.currently'
p1420
I2
sS'adjusted'
p1421
I4
sS'conclude'
p1422
I1
sS'62.00'
p1423
I1
sS'market.brazilian'
p1424
I1
sS'allocated'
p1425
I2
sS'winning'
p1426
I4
sS'8.3'
p1427
I3
sS'8.2'
p1428
I1
sS'midland'
p1429
I2
sS'8.6'
p1430
I1
sS'333.4'
p1431
I1
sS'umuarama'
p1432
I1
sS'hottest'
p1433
I1
sS'felix'
p1434
I1
sS'16,45'
p1435
I1
sS'moreira'
p1436
I1
sS'eduardo'
p1437
I3
sS'roasting'
p1438
I5
sS'atlanta'
p1439
I1
sS'spain'
p1440
I2
sS'tonne'
p1441
I12
sS'man.joanes'
p1442
I1
sS'cvm'
p1443
I2
sS'10,800'
p1444
I7
sS'luso'
p1445
I1
sS'5,130'
p1446
I1
sS'optimistic'
p1447
I1
sS'restrictionsmercosur'
p1448
I1
sS'newsroom'
p1449
I145
sS'juan'
p1450
I1
sS'profits.several'
p1451
I1
sS'paulo'
p1452
I185
sS'points.the'
p1453
I1
sS'4.but'
p1454
I1
sS'forecasts'
p1455
I3
sS'17/18'
p1456
I9
sS'17/10'
p1457
I1
sS'638,583'
p1458
I1
sS'discounted'
p1459
I1
sS'said.earlier'
p1460
I2
sS'indonesia'
p1461
I3
sS'officethe'
p1462
I1
sS'patterns'
p1463
I1
sS'355'
p1464
I1
sS'1.28'
p1465
I1
sS'investigation.human'
p1466
I1
sS'1.23'
p1467
I1
sS'1995.despite'
p1468
I1
sS'praising'
p1469
I1
sS'faxing'
p1470
I1
sS'1997/98'
p1471
I13
sS'paul'
p1472
I1
sS'generous'
p1473
I1
sS'regionais'
p1474
I1
sS'residential'
p1475
I3
sS'sector.in'
p1476
I1
sS'arrest'
p1477
I2
sS'3.991'
p1478
I1
sS'exempt'
p1479
I3
sS'reais.state'
p1480
I1
sS'285,420'
p1481
I1
sS'increased'
p1482
I10
sS'government'
p1483
I134
sS'1995/96'
p1484
I6
sS'killed.video'
p1485
I1
sS'cruz'
p1486
I2
sS'desk'
p1487
I7
sS'april-30'
p1488
I1
sS'aitken'
p1489
I2
sS'penalty.three'
p1490
I1
sS'amazonas'
p1491
I1
sS'hospital.governor'
p1492
I1
sS'strike.the'
p1493
I2
sS'amendment'
p1494
I17
sS'selling.roaster'
p1495
I2
sS'liquidation'
p1496
I1
sS'footage'
p1497
I10
sS'ballot'
p1498
I1
sS'transport'
p1499
I2
sS'avoid'
p1500
I3
sS'salaries'
p1501
I3
sS'does'
p1502
I8
sS'benefitted'
p1503
I1
sS'pressure'
p1504
I6
sS'117.60'
p1505
I1
sS'accompanied'
p1506
I2
sS'reporters.at'
p1507
I1
sS'loans'
p1508
I2
sS'stage'
p1509
I5
sS'gained'
p1510
I4
sS'iwai'
p1511
I1
sS'70.50'
p1512
I1
sS'64.00'
p1513
I1
sS'local/1630'
p1514
I1
sS'angeles'
p1515
I1
sS'union'
p1516
I39
sS'taffarel'
p1517
I1
sS'concession'
p1518
I1
sS'henrique'
p1519
I16
sS'life.in'
p1520
I1
sS'software'
p1521
I1
sS'alliance'
p1522
I4
sS'unattractive'
p1523
I1
sS'privatizing'
p1524
I2
sS'commitment'
p1525
I2
sS'luck'
p1526
I1
sS'banco'
p1527
I29
sS'rizzieri'
p1528
I2
sS'housing'
p1529
I1
sS'caviar'
p1530
I1
sS'9.8'
p1531
I2
sS'9.9'
p1532
I2
sS'annette'
p1533
I1
sS'venezuelan'
p1534
I1
sS'function'
p1535
I3
sS'building'
p1536
I2
sS'206.57'
p1537
I2
sS'206.50'
p1538
I1
sS'19,000'
p1539
I1
sS'construction'
p1540
I5
sS'candidacy'
p1541
I2
sS'valuation'
p1542
I2
sS'count'
p1543
I1
sS'congresswoman'
p1544
I1
sS'official'
p1545
I41
sS'placed'
p1546
I6
sS'intangible'
p1547
I2
sS'problem'
p1548
I5
sS'onwednesday'
p1549
I1
sS'contribute'
p1550
I1
sS'3.00march'
p1551
I2
sS'ing'
p1552
I5
sS'programmes'
p1553
I2
sS'nonetheless'
p1554
I1
sS'trials'
p1555
I1
sS'compares'
p1556
I1
sS'details'
p1557
I5
sS'sunshine'
p1558
I4
sS'monday'
p1559
I27
sS'chance'
p1560
I6
sS'telemig'
p1561
I2
sS'rule'
p1562
I6
sS'compete'
p1563
I5
sS'pension'
p1564
I23
sS'474'
p1565
I1
sS'169'
p1566
I1
sS'consolidated'
p1567
I3
sS'sale.of'
p1568
I1
sS'controversial'
p1569
I1
sS'9.53'
p1570
I1
sS'votes'
p1571
I6
sS'pedro'
p1572
I7
sS'voted'
p1573
I6
sS'worth'
p1574
I14
sS'presidency.an'
p1575
I1
sS'sellers'
p1576
I1
sS'wagons'
p1577
I6
sS'exporters'
p1578
I9
sS"we'll"
p1579
I2
sS'system.the'
p1580
I1
sS'roadblock'
p1581
I9
sS'9.70/ads'
p1582
I1
sS'290'
p1583
I2
sS'1,600'
p1584
I1
sS'phones'
p1585
I2
sS'follow'
p1586
I2
sS'rigorous'
p1587
I1
sS'established'
p1588
I3
sS'officially'
p1589
I1
sS'told'
p1590
I41
sS'simultaneously'
p1591
I1
sS'richest'
p1592
I1
sS'conglomerate'
p1593
I1
sS'protection'
p1594
I2
sS'azeredo'
p1595
I1
sS'watchers'
p1596
I1
sS'juarez'
p1597
I1
sS'0.38'
p1598
I1
sS'items'
p1599
I2
sS'employees'
p1600
I6
sS'browsing'
p1601
I1
sS'postponed'
p1602
I2
sS'thursday.a'
p1603
I1
sS'secure'
p1604
I1
sS'highly'
p1605
I5
sS'june.is'
p1606
I2
sS'bre'
p1607
I4
sS'total'
p1608
I42
sS'achieve'
p1609
I1
sS'seriously'
p1610
I1
sS'71.5'
p1611
I1
sS'aware'
p1612
I1
sS'soymeal.rail'
p1613
I3
sS'tariff'
p1614
I9
sS'debora'
p1615
I1
sS'stearns'
p1616
I3
sS'1990'
p1617
I2
sS'1992'
p1618
I8
sS'1995'
p1619
I16
sS'1994'
p1620
I3
sS'1997'
p1621
I31
sS'1996'
p1622
I41
sS'1999'
p1623
I4
sS'1998'
p1624
I14
sS'work'
p1625
I10
sS'ceval'
p1626
I7
sS'dubbed'
p1627
I2
sS'mechanic'
p1628
I2
sS'11-7/8'
p1629
I1
sS'92.63'
p1630
I1
sS'indicated'
p1631
I3
sS'2.83'
p1632
I6
sS'cited'
p1633
I1
sS'550'
p1634
I2
sS'ual'
p1635
I1
sS'22,000'
p1636
I2
sS'uae'
p1637
I1
sS'totaled'
p1638
I1
sS'100/70'
p1639
I6
sS'provide'
p1640
I2
sS'5452'
p1641
I1
sS'methanol'
p1642
I5
sS'interview'
p1643
I1
sS'month.dealers'
p1644
I1
sS'16,60'
p1645
I2
sS'earlier'
p1646
I16
sS'customs'
p1647
I5
sS'publicised'
p1648
I2
sS'law'
p1649
I26
sS'added.brazilian'
p1650
I1
sS'schneider'
p1651
I2
sS'order'
p1652
I3
sS'neto'
p1653
I1
sS'office'
p1654
I2
sS'defenders'
p1655
I1
sS'araxa'
p1656
I1
sS'6.7'
p1657
I1
sS'6.5'
p1658
I2
sS'6.0'
p1659
I1
sS'japan'
p1660
I6
sS'12.8'
p1661
I1
sS'mayor'
p1662
I5
sS'highlights'
p1663
I4
sS'christie'
p1664
I6
sS'production'
p1665
I23
sS'versus'
p1666
I2
sS'coffee'
p1667
I48
sS'affected'
p1668
I5
sS'conference.the'
p1669
I1
sS'leases'
p1670
I1
sS'break'
p1671
I2
sS'band'
p1672
I32
sS'sack'
p1673
I3
sS'dickson'
p1674
I2
sS'bank'
p1675
I111
sS'1.00'
p1676
I9
sS'1.03'
p1677
I3
sS'1.05'
p1678
I9
sS'1.04'
p1679
I4
sS'oxygen'
p1680
I2
sS'1.08'
p1681
I1
sS'classified'
p1682
I2
sS'classifies'
p1683
I1
sS'6.798'
p1684
I1
sS'carlos'
p1685
I7
sS'minute.the'
p1686
I1
sS'logu'
p1687
I9
sS'crimes'
p1688
I3
sS'officers.in'
p1689
I1
sS'unclosed'
p1690
I2
sS'vessels'
p1691
I34
sS'1996/97'
p1692
I20
sS'daniel'
p1693
I1
sS'megwatt'
p1694
I1
sS'mulled'
p1695
I1
sS'standard'
p1696
I5
sS'millionimports'
p1697
I5
sS'certified'
p1698
I2
sS'1994/95'
p1699
I2
sS'created'
p1700
I1
sS'brutalitynine'
p1701
I1
sS'subject.this'
p1702
I1
sS'20,560'
p1703
I1
sS'electronic'
p1704
I2
sS'rated'
p1705
I2
sS'castaneda'
p1706
I1
sS'peru.analysts'
p1707
I1
sS'months.indonesia'
p1708
I1
sS'eletros'
p1709
I1
sS'rates'
p1710
I26
sS'oil.previous'
p1711
I1
sS'inflate'
p1712
I1
sS'john'
p1713
I6
sS'40th'
p1714
I1
sS'dogs'
p1715
I2
sS'luncheon'
p1716
I1
sS'franqui'
p1717
I1
sS'rejected'
p1718
I1
sS'binned'
p1719
I1
sS'dollar.some'
p1720
I1
sS'wasted'
p1721
I1
sS'december'
p1722
I7
sS'target'
p1723
I6
sS'paper.he'
p1724
I1
sS'meteorology'
p1725
I2
sS'scenes'
p1726
I1
sS'hands.according'
p1727
I1
sS'iron'
p1728
I3
sS'carajas'
p1729
I2
sS'hacking'
p1730
I1
sS'minus'
p1731
I6
sS'reintegrate'
p1732
I1
sS'year.eletros'
p1733
I1
sS'174.5'
p1734
I3
sS'rewrite'
p1735
I3
sS'500,000'
p1736
I2
sS'accompany'
p1737
I1
sS'forced'
p1738
I4
sS'strength'
p1739
I2
sS'salvadoran'
p1740
I1
sS'rome'
p1741
I1
sS'acquire'
p1742
I5
sS'bndes'
p1743
I12
sS'275,915'
p1744
I1
sS'exercised'
p1745
I1
sS'extending'
p1746
I1
sS'involving'
p1747
I5
sS'germany'
p1748
I2
sS'cardosothe'
p1749
I1
sS'phase'
p1750
I1
sS'maktoum'
p1751
I1
sS'calculated'
p1752
I3
sS'investments'
p1753
I7
sS'accounted'
p1754
I3
sS'voting'
p1755
I27
sS'repudiation'
p1756
I1
sS'6962'
p1757
I1
sS'7.5'
p1758
I1
sS'vitastar'
p1759
I2
sS'53.00'
p1760
I2
sS'0750'
p1761
I3
sS'di'
p1762
I1
sS'dc'
p1763
I2
sS'preferred'
p1764
I27
sS'da'
p1765
I6
sS'25,000'
p1766
I1
sS'privatization.overseas'
p1767
I1
sS'covering'
p1768
I3
sS'1,328,644'
p1769
I1
sS'carrier'
p1770
I3
sS'secretary'
p1771
I10
sS'festival.jelden'
p1772
I1
sS'discussions'
p1773
I2
sS'170.of'
p1774
I1
sS'cofins'
p1775
I1
sS'away'
p1776
I5
sS'unable'
p1777
I1
sS'deputies'
p1778
I28
sS'10,800-reais'
p1779
I2
sS'accord'
p1780
I1
sS'terms'
p1781
I9
sS'1,919'
p1782
I1
sS'tortures'
p1783
I1
sS'5.922'
p1784
I1
sS'received'
p1785
I5
sS'1998.the'
p1786
I2
sS'candidate'
p1787
I3
sS'mercosul'
p1788
I1
sS'cob'
p1789
I3
sS'mercosur'
p1790
I26
sS'25,915'
p1791
I4
sS'59,172'
p1792
I1
sS'wider'
p1793
I3
sS'telecommunications'
p1794
I47
sS'139.58conillon'
p1795
I1
sS'143,500'
p1796
I1
sS'condemned'
p1797
I1
sS'selloff'
p1798
I2
sS'sachs'
p1799
I1
sS'1prices'
p1800
I1
sS'flexible'
p1801
I1
sS'dozens'
p1802
I2
sS'involved.he'
p1803
I1
sS'selic'
p1804
I1
sS'attacked'
p1805
I2
sS'concerning'
p1806
I1
sS'0.15'
p1807
I3
sS'seville'
p1808
I1
sS'0.19'
p1809
I1
sS'6.80'
p1810
I1
sS'publicly'
p1811
I3
sS'air'
p1812
I2
sS'aim'
p1813
I3
sS'applies'
p1814
I1
sS'launched'
p1815
I3
sS'losses'
p1816
I3
sS'tissue'
p1817
I1
sS'1-1/8'
p1818
I1
sS'1-1/4'
p1819
I1
sS'landerretche'
p1820
I1
sS'confirmed'
p1821
I8
sS'said.at'
p1822
I1
sS'said.as'
p1823
I1
sS'219.3'
p1824
I1
sS'plates'
p1825
I1
sS'independent'
p1826
I3
sS'nasir'
p1827
I1
sS'hang'
p1828
I1
sS'rain'
p1829
I7
sS'hand'
p1830
I3
sS'211.5'
p1831
I1
sS'soccer.ecuador'
p1832
I1
sS'blamed'
p1833
I3
sS'kept'
p1834
I2
sS'1979'
p1835
I1
sS'1600'
p1836
I2
sS'1973'
p1837
I1
sS'banks.a'
p1838
I3
sS'contact'
p1839
I1
sS'studying'
p1840
I5
sS'quoted'
p1841
I4
sS'thanks'
p1842
I1
sS'arpad'
p1843
I1
sS'8.10'
p1844
I1
sS'electronically'
p1845
I1
sS'jose'
p1846
I13
sS'5,500'
p1847
I2
sS'occupants'
p1848
I4
sS'spread'
p1849
I16
sS'board'
p1850
I7
sS'meteorologia'
p1851
I1
sS'csn.this'
p1852
I1
sS'caps'
p1853
I1
sS'arab'
p1854
I2
sS'boxes'
p1855
I10
sS'ministerscommunications'
p1856
I1
sS'5511'
p1857
I49
sS'year.oil'
p1858
I1
sS'cooler'
p1859
I1
sS'securities'
p1860
I6
sS'added.in'
p1861
I3
sS'night'
p1862
I7
sS'invaluable'
p1863
I1
sS'security'
p1864
I8
sS'eyeing'
p1865
I1
sS'born'
p1866
I2
sS'said.brazil'
p1867
I1
sS'traviata'
p1868
I1
sS'399,814.0'
p1869
I1
sS'unavoidable'
p1870
I1
sS'comments'
p1871
I4
sS'violinist'
p1872
I1
sS'asking'
p1873
I3
sS'denied'
p1874
I5
sS'beating'
p1875
I10
sS'participation'
p1876
I1
sS'dribs'
p1877
I2
sS'marketing'
p1878
I3
sS'pose'
p1879
I1
sS'restructuring'
p1880
I8
sS'plc'
p1881
I10
sS'post'
p1882
I7
sS'properties'
p1883
I1
sS'banked'
p1884
I1
sS'newspapers'
p1885
I11
sS'months'
p1886
I26
sS'banker'
p1887
I3
sS'jacques'
p1888
I1
sS'prisoners'
p1889
I9
sS'bound'
p1890
I1
sS'legislation'
p1891
I13
sS'sovereign'
p1892
I2
sS'140/110'
p1893
I5
sS'clinical'
p1894
I1
sS'way'
p1895
I14
sS'accords'
p1896
I1
sS'150,000'
p1897
I1
sS'6,170'
p1898
I1
sS'taken'
p1899
I10
sS'3,880'
p1900
I1
sS'mercado'
p1901
I5
sS'true'
p1902
I3
sS'santista'
p1903
I6
sS'millionfinancial'
p1904
I10
sS'45.50'
p1905
I2
sS'maximum'
p1906
I3
sS'link.in'
p1907
I1
sS'billion.roberto'
p1908
I1
sS'conference.ferro'
p1909
I1
sS'opportunistic'
p1910
I1
sS'evidence'
p1911
I2
sS'promised'
p1912
I1
sS'soybeans.stevedores'
p1913
I1
sS'stake'
p1914
I23
sS'interested'
p1915
I8
sS'holding'
p1916
I16
sS'appointment.this'
p1917
I1
sS'scored'
p1918
I3
sS'brothers'
p1919
I2
sS'celulose'
p1920
I1
sS'mulling'
p1921
I1
sS'mineira'
p1922
I7
sS'30.20'
p1923
I1
sS'establish'
p1924
I3
sS'troupe'
p1925
I1
sS'137.62conillon'
p1926
I2
sS'force.covas'
p1927
I1
sS'hands.acominas'
p1928
I1
sS'reception'
p1929
I1
sS'paced'
p1930
I2
sS'lampreia'
p1931
I3
sS'global'
p1932
I3
sS'said.supreme'
p1933
I1
sS'battle'
p1934
I2
sS'certainly'
p1935
I3
sS'6782501'
p1936
I1
sS'febraban'
p1937
I1
sS'division'
p1938
I3
sS'reported.the'
p1939
I1
sS'charles'
p1940
I1
sS'fob'
p1941
I11
sS'anonymous'
p1942
I1
sS'10-year'
p1943
I1
sS'aggressively'
p1944
I1
sS'presented'
p1945
I3
sS'gun'
p1946
I7
sS'112.75'
p1947
I1
sS'p'
p1948
I20
sS'governing'
p1949
I1
sS'upper'
p1950
I4
sS'cost'
p1951
I15
sS'maintained.the'
p1952
I1
sS'cargo'
p1953
I3
sS'brazil.among'
p1954
I1
sS'appear'
p1955
I3
sS'assistance'
p1956
I1
sS'shares'
p1957
I53
sS'shared'
p1958
I1
sS'appeal'
p1959
I2
sS'year.french'
p1960
I1
sS'188.7'
p1961
I1
sS'explosion'
p1962
I1
sS'eximbank'
p1963
I1
sS'change'
p1964
I8
sS'sending'
p1965
I1
sS'exemption'
p1966
I2
sS'59.6'
p1967
I2
sS'area.it'
p1968
I1
sS'trias'
p1969
I3
sS'trial'
p1970
I1
sS'270.3'
p1971
I2
sS'usually'
p1972
I1
sS'shootouts'
p1973
I1
sS'regardless'
p1974
I2
sS'extra'
p1975
I1
sS'elaborate.the'
p1976
I1
sS'bulloch'
p1977
I24
sS'uphill'
p1978
I1
sS'rarely'
p1979
I2
sS'market'
p1980
I95
sS'terminal'
p1981
I51
sS'prove'
p1982
I2
sS'entrance'
p1983
I2
sS'tonnes.cvrd'
p1984
I1
sS'club'
p1985
I5
sS'hesitated'
p1986
I1
sS'cvrd.a'
p1987
I1
sS'maceio'
p1988
I4
sS'car'
p1989
I14
sS'cap'
p1990
I1
sS'ibx'
p1991
I1
sS'labeled'
p1992
I1
sS'seguros'
p1993
I1
sS'reports.the'
p1994
I1
sS'totalled'
p1995
I7
sS'meant'
p1996
I1
sS'expanding'
p1997
I3
sS'subsidies'
p1998
I6
sS"didn't"
p1999
I1
sS'1,644'
p2000
I1
sS'heard'
p2001
I4
sS'purity'
p2002
I2
sS'fuentes'
p2003
I1
sS'clothing'
p2004
I1
sS'cardoso.cardoso'
p2005
I1
sS'redundancy'
p2006
I1
sS'bankrupt'
p2007
I1
sS'spreads'
p2008
I4
sS'gaping'
p2009
I1
sS'economy'
p2010
I8
sS'product'
p2011
I4
sS'use'
p2012
I4
sS'southern'
p2013
I3
sS'0.73'
p2014
I1
sS'osborne'
p2015
I1
sS'pave'
p2016
I1
sS'court'
p2017
I28
sS'indians.but'
p2018
I1
sS'lifting'
p2019
I2
sS'5.5'
p2020
I5
sS'futures'
p2021
I8
sS'value.should'
p2022
I1
sS'michel'
p2023
I3
sS'typical'
p2024
I1
sS'serving'
p2025
I3
sS'neighbourhoods'
p2026
I1
sS'colt'
p2027
I1
sS'consortium.bradesco'
p2028
I1
sS'nlcf'
p2029
I1
sS'report.incobrasa'
p2030
I1
sS'542.6'
p2031
I1
sS'managers'
p2032
I2
sS'cold'
p2033
I2
sS'1830'
p2034
I1
sS'facility'
p2035
I1
sS'window'
p2036
I1
sS'138,094'
p2037
I1
sS'dividends'
p2038
I1
sS'non'
p2039
I6
sS'halt'
p2040
I7
sS'100,000'
p2041
I2
sS'introduce'
p2042
I4
sS'55,000'
p2043
I9
sS'flint'
p2044
I2
sS'half'
p2045
I12
sS'barros'
p2046
I4
sS'discuss'
p2047
I15
sS'james'
p2048
I3
sS'drop'
p2049
I10
sS'unloaded'
p2050
I2
sS'fired'
p2051
I4
sS'challenged'
p2052
I1
sS'ed'
p2053
I1
sS'law.sao'
p2054
I1
sS'wrap'
p2055
I1
sS'1.135'
p2056
I1
sS'1.130'
p2057
I2
sS'year'
p2058
I102
sS'eu'
p2059
I8
sS'happen'
p2060
I7
sS'calling'
p2061
I1
sS'es'
p2062
I3
sS'shown'
p2063
I8
sS'opened'
p2064
I6
sS'bullish'
p2065
I1
sS'space'
p2066
I1
sS'irony'
p2067
I1
sS'looking'
p2068
I8
sS'shows'
p2069
I4
sS'56-day'
p2070
I3
sS'cars'
p2071
I5
sS'dateexports'
p2072
I2
sS'advantages'
p2073
I1
sS'tightening'
p2074
I2
sS'marine'
p2075
I2
sS'card'
p2076
I1
sS'care'
p2077
I1
sS'cavallaro'
p2078
I1
sS'88,000'
p2079
I1
sS'british'
p2080
I1
sS'outcry'
p2081
I1
sS'altitude'
p2082
I2
sS'striking'
p2083
I13
sS'municipality'
p2084
I1
sS'directly'
p2085
I1
sS'impossible'
p2086
I1
sS'ring'
p2087
I1
sS'drove'
p2088
I3
sS'tomorrow'
p2089
I12
sS'size'
p2090
I3
sS'sheet'
p2091
I2
sS'560,251'
p2092
I1
sS'caught'
p2093
I2
sS'bourse'
p2094
I6
sS'privatization.jose'
p2095
I1
sS'national'
p2096
I56
sS'showdown'
p2097
I2
sS'inmates'
p2098
I2
sS'passenger.activists'
p2099
I1
sS'eliminated'
p2100
I2
sS'interbank'
p2101
I4
sS'week.as'
p2102
I1
sS'television'
p2103
I18
sS'deluge'
p2104
I1
sS'3,450'
p2105
I1
sS'hsbc'
p2106
I50
sS'days.the'
p2107
I1
sS'week.an'
p2108
I1
sS'investors'
p2109
I8
sS'remained'
p2110
I6
sS'breakfast'
p2111
I1
sS'authority.the'
p2112
I1
sS'form'
p2113
I5
sS'equipment'
p2114
I2
sS'objective'
p2115
I2
sS'grande'
p2116
I18
sS'authorising'
p2117
I1
sS'santiago'
p2118
I3
sS'price'
p2119
I38
sS'alagoas'
p2120
I1
sS'america'
p2121
I17
sS'uninterrupted.a'
p2122
I1
sS'1,898'
p2123
I1
sS'said.they'
p2124
I1
sS'steady'
p2125
I3
sS'professional'
p2126
I1
sS'brainchild'
p2127
I1
sS'3.75'
p2128
I2
sS'german'
p2129
I3
sS'3.78'
p2130
I1
sS'discovered'
p2131
I1
sS'tonnage'
p2132
I1
sS'deal.in'
p2133
I1
sS'134.87'
p2134
I1
sS'134.82'
p2135
I1
sS'crashing'
p2136
I1
sS'upgrade'
p2137
I17
sS'bank.over'
p2138
I1
sS'proportion'
p2139
I1
sS'sierra'
p2140
I1
sS'optimism'
p2141
I1
sS'bamerindus'
p2142
I36
sS'stoppage'
p2143
I12
sS'truly'
p2144
I1
sS'revulsion'
p2145
I2
sS'emirates.sheikh'
p2146
I1
sS'16,100'
p2147
I1
sS'salomon'
p2148
I2
sS'concert'
p2149
I1
sS'bellwether'
p2150
I1
sS'21/17'
p2151
I4
sS'elected'
p2152
I3
sS'actively'
p2153
I1
sS'concern'
p2154
I2
sS'3'
p2155
I16
sS'import'
p2156
I25
sS'torturing'
p2157
I1
sS'notice'
p2158
I1
sS'70,196'
p2159
I1
sS'article'
p2160
I2
sS'trader.cvrd'
p2161
I1
sS'javier'
p2162
I1
sS'installation'
p2163
I3
sS'outflows'
p2164
I1
sS'enabling'
p2165
I1
sS'said.bndespar'
p2166
I1
sS'consortium.a'
p2167
I1
sS'comes'
p2168
I2
sS'nearby'
p2169
I1
sS'heron'
p2170
I1
sS'madness'
p2171
I1
sS'fiefdoms'
p2172
I1
sS"couldn't"
p2173
I1
sS'proved'
p2174
I1
sS'punishes'
p2175
I2
sS'year.he'
p2176
I1
sS'alves'
p2177
I1
sS'clarin'
p2178
I1
sS'informed'
p2179
I1
sS'wire.the'
p2180
I1
sS'offering.in'
p2181
I1
sS'external'
p2182
I1
sS'elvio'
p2183
I1
sS'suspected'
p2184
I1
sS'baying'
p2185
I1
sS'4-0'
p2186
I2
sS'4-1'
p2187
I3
sS'trick'
p2188
I2
sS'eib'
p2189
I1
sS"haven't"
p2190
I1
sS'metric'
p2191
I1
sS'ship'
p2192
I1
sS'worry'
p2193
I1
sS'metrostars'
p2194
I3
sS'media'
p2195
I2
sS'11.0'
p2196
I1
sS'11.2'
p2197
I1
sS'quagmire'
p2198
I1
sS'inquiry'
p2199
I3
sS'inchon'
p2200
I1
sS'document'
p2201
I2
sS'finish'
p2202
I4
sS'awarding'
p2203
I1
sS'complained'
p2204
I1
sS'charges'
p2205
I5
sS'constitutional'
p2206
I15
sS'ccr'
p2207
I1
sS'severe'
p2208
I1
sS'coordinate'
p2209
I1
sS'union.their'
p2210
I1
sS'charged'
p2211
I2
sS'livestock'
p2212
I1
sS'excel'
p2213
I2
sS'speed'
p2214
I3
sS'revaluation'
p2215
I1
sS'death'
p2216
I2
sS'staging'
p2217
I1
sS'thinking'
p2218
I2
sS'laranjeiras'
p2219
I1
sS'improvement'
p2220
I3
sS'treatment'
p2221
I3
sS'week.the'
p2222
I2
sS'halftime'
p2223
I1
sS'time.stevedores'
p2224
I1
sS'struck'
p2225
I3
sS'momentum'
p2226
I1
sS'real'
p2227
I27
sS'hover'
p2228
I1
sS'spectacular'
p2229
I1
sS'rules'
p2230
I26
sS'vasco'
p2231
I1
sS'early'
p2232
I19
sS'0.58'
p2233
I1
sS'using'
p2234
I4
sS'lady'
p2235
I2
sS'ruled'
p2236
I6
sS'litres'
p2237
I1
sS'326,188'
p2238
I4
sS'maluf'
p2239
I1
sS'annually'
p2240
I2
sS'benefit'
p2241
I6
sS't'
p2242
I3
sS'occasions'
p2243
I1
sS'output'
p2244
I5
sS'downward'
p2245
I1
sS'verbal'
p2246
I1
sS'exposed'
p2247
I2
sS'984,698'
p2248
I1
sS'airlines.the'
p2249
I1
sS'privatization'
p2250
I35
sS'272,449'
p2251
I1
sS'far.civil'
p2252
I1
sS'29.50'
p2253
I2
sS'conservative'
p2254
I5
sS'available.stocks'
p2255
I3
sS'deficit'
p2256
I27
sS'1,206.analysts'
p2257
I1
sS'wheat'
p2258
I23
sS'business'
p2259
I8
sS'equivalent'
p2260
I5
sS'villares'
p2261
I1
sS'raul'
p2262
I1
sS'comparison'
p2263
I2
sS'central'
p2264
I38
sS'journey'
p2265
I1
sS'greatly'
p2266
I1
sS'invested'
p2267
I1
sS'processor'
p2268
I4
sS'8.50'
p2269
I3
sS'27/03/97'
p2270
I2
sS'protests'
p2271
I2
sS'port.stevedores'
p2272
I1
sS'nb/20'
p2273
I1
sS'transportes'
p2274
I1
sS'involvement'
p2275
I3
sS'stabilisation'
p2276
I1
sS'operator'
p2277
I1
sS'ambrosio'
p2278
I1
sS'valecom'
p2279
I1
sS'supervising'
p2280
I1
sS'ibge'
p2281
I5
sS'prepare'
p2282
I2
sS'area'
p2283
I7
sS'removing'
p2284
I1
sS'percent.under'
p2285
I1
sS'credireal'
p2286
I1
sS'los'
p2287
I1
sS'low'
p2288
I15
sS'lot'
p2289
I9
sS'valencia'
p2290
I1
sS'billion'
p2291
I108
sS'121.35'
p2292
I1
sS'337.50'
p2293
I1
sS'delayed'
p2294
I5
sS'wednesday.the'
p2295
I1
sS'recouped'
p2296
I1
sS'trying'
p2297
I4
sS'proposal'
p2298
I10
sS'fraud'
p2299
I2
sS'5/6'
p2300
I3
sS'joint'
p2301
I7
sS'default'
p2302
I1
sS'appliance'
p2303
I6
sS'freddy'
p2304
I1
sS'miguel'
p2305
I2
sS'pockets.proposed'
p2306
I1
sS'600'
p2307
I3
sS'moved'
p2308
I2
sS'sales'
p2309
I29
sS'said.some'
p2310
I2
sS'rights.but'
p2311
I1
sS'51.00conillon'
p2312
I2
sS'hospitals'
p2313
I1
sS'unwelcome'
p2314
I2
sS'storage'
p2315
I1
sS'valia'
p2316
I1
sS'gambling'
p2317
I1
sS'forcing'
p2318
I1
sS'poor'
p2319
I9
sS'cooperationasean'
p2320
I1
sS'computerized'
p2321
I1
sS'peak'
p2322
I2
sS'coverage'
p2323
I2
sS'407,595.8'
p2324
I1
sS'pool'
p2325
I1
sS'fiscal'
p2326
I13
sS'roasters'
p2327
I4
sS'139.58'
p2328
I3
sS'bystander'
p2329
I1
sS'stockpile'
p2330
I1
sS'overseas'
p2331
I1
sS'privatization.the'
p2332
I2
sS'groundwork'
p2333
I1
sS'splitting'
p2334
I1
sS'month'
p2335
I53
sS'correa'
p2336
I3
sS'referring'
p2337
I1
sS'added.for'
p2338
I1
sS'cemig'
p2339
I4
sS'trader.telebras'
p2340
I1
sS'previdencia'
p2341
I4
sS'vera'
p2342
I2
sS'operators.volume'
p2343
I1
sS'decide'
p2344
I5
sS'broke.the'
p2345
I1
sS'bulhoes'
p2346
I2
sS'louis'
p2347
I3
sS'141.05'
p2348
I1
sS'brasilia'
p2349
I34
sS"i'll"
p2350
I1
sS'streets'
p2351
I1
sS'brasil.in'
p2352
I1
sS'voices.singers'
p2353
I1
sS'consumers'
p2354
I1
sS'investing'
p2355
I1
sS'percent.u.s'
p2356
I1
sS'5.065'
p2357
I1
sS'94.3'
p2358
I1
sS'certificates'
p2359
I4
sS'overrule'
p2360
I1
sS'191.3'
p2361
I1
sS'multinational'
p2362
I1
sS'friday'
p2363
I44
sS'ferocious'
p2364
I1
sS'loose'
p2365
I1
sS'75,000'
p2366
I2
sS'155,652'
p2367
I1
sS'301.11'
p2368
I1
sS'32-1/4.the'
p2369
I1
sS'strong'
p2370
I12
sS'ahead'
p2371
I12
sS'thursday'
p2372
I48
sS'minsk'
p2373
I1
sS'advertising'
p2374
I1
sS'trainer'
p2375
I1
sS'2616'
p2376
I1
sS'tendered'
p2377
I1
sS'tonnes.jasmin'
p2378
I1
sS'aimed'
p2379
I4
sS'trained'
p2380
I2
sS'takes'
p2381
I5
sS'contains'
p2382
I1
sS'generate'
p2383
I1
sS'glaxo'
p2384
I1
sS'injury'
p2385
I1
sS'lowering'
p2386
I1
sS'producing'
p2387
I1
sS'profit.icatu'
p2388
I1
sS'coalition'
p2389
I1
sS'consortia'
p2390
I5
sS'history'
p2391
I4
sS'said.franco'
p2392
I2
sS'rodrigo'
p2393
I2
sS'exclude'
p2394
I3
sS'americas'
p2395
I2
sS'firmly'
p2396
I1
sS'safe.the'
p2397
I2
sS'clarke'
p2398
I1
sS'controversially'
p2399
I1
sS'tried'
p2400
I3
sS'4.852'
p2401
I1
sS'dollar.in'
p2402
I4
sS'fc'
p2403
I1
sS'invasion'
p2404
I1
sS'fo'
p2405
I1
sS'preferential'
p2406
I2
sS'relocating'
p2407
I1
sS'4/2'
p2408
I1
sS'ferreira.ferreira'
p2409
I1
sS'overnight'
p2410
I4
sS'2.995'
p2411
I1
sS'4/5'
p2412
I3
sS'telephones'
p2413
I3
sS'banks'
p2414
I31
sS'race.two'
p2415
I1
sS'left.colombia'
p2416
I1
sS'help'
p2417
I5
sS'soon'
p2418
I5
sS'held'
p2419
I4
sS'committee'
p2420
I15
sS'committed'
p2421
I4
sS'5,010'
p2422
I1
sS'actually'
p2423
I1
sS'absence'
p2424
I2
sS'systems'
p2425
I6
sS'lira'
p2426
I2
sS'lire'
p2427
I1
sS'adrs'
p2428
I14
sS'evening'
p2429
I2
sS'food'
p2430
I5
sS'cistel'
p2431
I1
sS'reigning'
p2432
I1
sS'anticipated'
p2433
I8
sS'lengthening'
p2434
I1
sS'anticipates'
p2435
I2
sS'142.72'
p2436
I1
sS'fully'
p2437
I3
sS'stopped'
p2438
I16
sS'were.the'
p2439
I1
sS'heavy'
p2440
I10
sS'survey.that'
p2441
I1
sS'bickering'
p2442
I1
sS'236.9'
p2443
I1
sS'event'
p2444
I4
sS'marcio'
p2445
I2
sS'robert'
p2446
I1
sS'testify'
p2447
I3
sS'publish'
p2448
I1
sS'jolle'
p2449
I1
sS'dominated'
p2450
I2
sS'7'
p2451
I11
sS'issue'
p2452
I24
sS'dirt'
p2453
I2
sS'houses'
p2454
I2
sS'reason'
p2455
I5
sS'base'
p2456
I4
sS'89.60'
p2457
I3
sS'ask'
p2458
I2
sS'matthews'
p2459
I2
sS'earliest'
p2460
I1
sS'fund.vale'
p2461
I1
sS'launch'
p2462
I2
sS'round'
p2463
I1
sS'sheikh'
p2464
I2
sS'american'
p2465
I26
sS'expecting'
p2466
I7
sS'businessmen'
p2467
I2
sS'leading'
p2468
I7
sS'attracting'
p2469
I1
sS'd/5'
p2470
I5
sS'reflected'
p2471
I2
sS'1987/88'
p2472
I10
sS'purves'
p2473
I1
sS'multiplic'
p2474
I2
sS'market.germany'
p2475
I1
sS'station'
p2476
I4
sS'identity'
p2477
I4
sS'spouses.after'
p2478
I1
sS'nigeria'
p2479
I1
sS'scheme'
p2480
I1
sS'raws'
p2481
I1
sS'bowed'
p2482
I1
sS'selling'
p2483
I6
sS'basay'
p2484
I1
sS'1981/82'
p2485
I5
sS'malaga'
p2486
I3
sS'stf'
p2487
I5
sS'1986/87'
p2488
I6
sS'ministers.brazil'
p2489
I1
sS'153.45'
p2490
I1
sS'1.0582'
p2491
I1
sS'weapon'
p2492
I1
sS'sentenced'
p2493
I1
sS'deciding'
p2494
I1
sS'nucci'
p2495
I3
sS'reaffirmed'
p2496
I1
sS'juice'
p2497
I15
sS'sentences'
p2498
I3
sS'cheating.less'
p2499
I1
sS'ratings'
p2500
I2
sS'speculative'
p2501
I2
sS'scotland'
p2502
I1
sS'officers'
p2503
I36
sS'cargoes'
p2504
I4
sS'0.305'
p2505
I4
sS'machado'
p2506
I1
sS'command'
p2507
I1
sS'u.k'
p2508
I1
sS'liz'
p2509
I1
sS'aired'
p2510
I8
sS'54,000'
p2511
I4
sS'approves'
p2512
I1
sS'1982/83'
p2513
I5
sS'quota'
p2514
I2
sS'exempted'
p2515
I2
sS'hired'
p2516
I2
sS'experiences'
p2517
I2
sS'aires'
p2518
I2
sS'hothouse'
p2519
I1
sS'approved'
p2520
I21
sS'salary'
p2521
I4
sS'1983/84'
p2522
I4
sS'clear'
p2523
I8
sS'1997.o'
p2524
I1
sS'latest'
p2525
I5
sS'2.00'
p2526
I2
sS'464,464'
p2527
I1
sS'celebrities'
p2528
I1
sS'renegotiate'
p2529
I2
sS'leandro'
p2530
I1
sS'northern'
p2531
I5
sS'justice'
p2532
I4
sS'altiplano'
p2533
I1
sS'516,604'
p2534
I1
sS'flights'
p2535
I4
sS'surveyed'
p2536
I1
sS'criticising'
p2537
I1
sS'officials'
p2538
I49
sS'financing'
p2539
I20
sS'trees'
p2540
I2
sS'1.88'
p2541
I1
sS'1.82'
p2542
I1
sS'molten'
p2543
I1
sS'geld'
p2544
I3
sS'recommendations'
p2545
I1
sS'x'
p2546
I5
sS'anticipate'
p2547
I2
sS'arno'
p2548
I6
sS'kilos'
p2549
I2
sS'plausible'
p2550
I1
sS'culture'
p2551
I1
sS'close'
p2552
I24
sS'53,362'
p2553
I1
sS'agenda.the'
p2554
I1
sS'won'
p2555
I3
sS'probably'
p2556
I14
sS'conditions'
p2557
I10
sS'missing'
p2558
I1
sS'59.50'
p2559
I1
sS'league'
p2560
I2
sS'sensitive'
p2561
I1
sS'forgotten'
p2562
I1
sS'market.also'
p2563
I1
sS'headed'
p2564
I4
sS'battery'
p2565
I4
sS'said.bradesco'
p2566
I1
sS'vessel'
p2567
I6
sS'jairo'
p2568
I1
sS'289'
p2569
I2
sS'44.00'
p2570
I1
sS'described'
p2571
I2
sS'forseeable'
p2572
I1
sS'friday.they'
p2573
I2
sS'describes'
p2574
I1
sS'mutiny'
p2575
I2
sS'threaten'
p2576
I1
sS'wait'
p2577
I5
sS'jelden'
p2578
I4
sS'budgeted'
p2579
I2
sS'generating'
p2580
I3
sS'lived'
p2581
I3
sS'partly'
p2582
I1
sS'28,000'
p2583
I1
sS'bidding'
p2584
I3
sS'pact'
p2585
I2
sS'look'
p2586
I8
sS'canadian'
p2587
I3
sS'2.prices'
p2588
I1
sS'pace'
p2589
I2
sS'3.32'
p2590
I1
sS'guido'
p2591
I4
sS'said.growers'
p2592
I1
sS'ready'
p2593
I9
sS'fairer'
p2594
I1
sS'65.00'
p2595
I1
sS'parastatal'
p2596
I1
sS'grand'
p2597
I1
sS'conflict'
p2598
I2
sS'bom'
p2599
I1
sS'used'
p2600
I11
sS'uses'
p2601
I1
sS'cleaning'
p2602
I1
sS'250,537'
p2603
I1
sS'docked'
p2604
I14
sS'obviously'
p2605
I2
sS'clears'
p2606
I1
sS'tendered.seb'
p2607
I1
sS'roaster'
p2608
I1
sS'60-kg'
p2609
I26
sS'taiwan'
p2610
I2
sS'guaranteed'
p2611
I3
sS'questioned'
p2612
I2
sS'guarantees'
p2613
I3
sS'remaining'
p2614
I11
sS'march'
p2615
I69
sS'evaluate'
p2616
I2
sS'showing'
p2617
I2
sS'game'
p2618
I4
sS'gama'
p2619
I5
sS'damage'
p2620
I1
sS'bolsa'
p2621
I4
sS'soymeal.stocks'
p2622
I3
sS'popular'
p2623
I1
sS'saddled'
p2624
I1
sS'48.00conillon'
p2625
I1
sS'parade'
p2626
I1
sS'metres'
p2627
I2
sS'urgent'
p2628
I1
sS'economic'
p2629
I14
sS'delivered'
p2630
I1
sS'0.630note'
p2631
I4
sS'2,117'
p2632
I1
sS'soymeal.loading'
p2633
I1
sS'run'
p2634
I17
sS'processing'
p2635
I5
sS'stem'
p2636
I1
sS'step'
p2637
I8
sS'858.8'
p2638
I1
sS'stet'
p2639
I3
sS'at&t'
p2640
I3
sS'2/3'
p2641
I9
sS'abroad'
p2642
I2
sS'franco'
p2643
I14
sS'bourses'
p2644
I1
sS'pertence'
p2645
I1
sS'replacement'
p2646
I2
sS'silence'
p2647
I1
sS'disclosure'
p2648
I1
sS'dissatisfaction'
p2649
I1
sS'statistics'
p2650
I3
sS'privatised'
p2651
I3
sS'15.90'
p2652
I2
sS'consultation'
p2653
I1
sS'cabral'
p2654
I8
sS'1,332'
p2655
I1
sS'bazil'
p2656
I1
sS'registered'
p2657
I10
sS'frost'
p2658
I3
sS'reiterated'
p2659
I3
sS'checks.the'
p2660
I3
sS'injection'
p2661
I3
sS'getulio'
p2662
I1
sS'operations.portworker'
p2663
I1
sS'dealers'
p2664
I10
sS'unibanco'
p2665
I8
sS'stumbling'
p2666
I1
sS'nestle'
p2667
I1
sS'cautiously'
p2668
I1
sS'76,043'
p2669
I1
sS'embattled'
p2670
I1
sS'similar'
p2671
I7
sS'said.in'
p2672
I10
sS'ordered'
p2673
I2
sS'metals'
p2674
I2
sS'10/20'
p2675
I3
sS'said.it'
p2676
I1
sS'3.276'
p2677
I1
sS'nad'
p2678
I1
sS'amounts'
p2679
I2
sS'heyde'
p2680
I2
sS'application'
p2681
I2
sS'politicians'
p2682
I1
sS'electrical'
p2683
I4
sS'department'
p2684
I8
sS'draw'
p2685
I1
sS'calculating'
p2686
I1
sS'resign'
p2687
I1
sS'william'
p2688
I21
sS'reservation'
p2689
I1
sS'structure'
p2690
I4
sS'e'
p2691
I7
sS'required'
p2692
I1
sS'resolving'
p2693
I1
sS'409.7'
p2694
I1
sS'megawatt'
p2695
I1
sS'requires'
p2696
I7
sS'farms'
p2697
I1
sS'gases'
p2698
I1
sS'brasil.final'
p2699
I1
sS'nippon'
p2700
I3
sS'excluded'
p2701
I4
sS'friendly'
p2702
I4
sS'fly'
p2703
I1
sS'floodlights'
p2704
I1
sS'law.the'
p2705
I1
sS'wave'
p2706
I3
sS'cellular'
p2707
I19
sS'telling'
p2708
I1
sS'calls.volume'
p2709
I1
sS'days.chile'
p2710
I1
sS'positions'
p2711
I3
sS'michael'
p2712
I9
sS'watered'
p2713
I1
sS'ryan'
p2714
I1
sS'209.00group'
p2715
I2
sS'jardel'
p2716
I1
sS'assignments'
p2717
I1
sS'alvaro'
p2718
I2
sS'picked'
p2719
I2
sS'vignano'
p2720
I1
sS'plays'
p2721
I2
sS'volatile'
p2722
I1
sS'referees'
p2723
I1
sS'brunei'
p2724
I1
sS'filings'
p2725
I5
sS'commercial'
p2726
I18
sS'following'
p2727
I33
sS'focused'
p2728
I2
sS'asuncion'
p2729
I1
sS'redrawn'
p2730
I1
sS'vbc'
p2731
I1
sS'ajit'
p2732
I1
sS'trademarks.while'
p2733
I1
sS'1535'
p2734
I1
sS'products'
p2735
I9
sS'stabilization'
p2736
I4
sS'danger'
p2737
I1
sS'win'
p2738
I9
sS'fecotrigo'
p2739
I2
sS'quel'
p2740
I1
sS'austria'
p2741
I2
sS'4.72'
p2742
I1
sS'horticultural'
p2743
I1
sS'4.79'
p2744
I1
sS'remains'
p2745
I1
sS'lobbying'
p2746
I2
sS'subsidized'
p2747
I1
sS'vehicle'
p2748
I3
sS'historically'
p2749
I1
sS'150.90'
p2750
I4
sS'started'
p2751
I7
sS'benchmark'
p2752
I1
sS'1/8'
p2753
I2
sS'43.9'
p2754
I1
sS'24.90'
p2755
I1
sS'150'
p2756
I4
sS'corporates'
p2757
I2
sS'salas'
p2758
I3
sS'crossed'
p2759
I2
sS'servants'
p2760
I3
sS'meet'
p2761
I20
sS'control'
p2762
I9
sS'speciality'
p2763
I1
sS'links'
p2764
I2
sS'jobs.concern'
p2765
I1
sS'sought'
p2766
I2
sS'publicity'
p2767
I1
sS'stemmed'
p2768
I1
sS'1-2-3'
p2769
I1
sS'solidifying'
p2770
I1
sS'located'
p2771
I5
sS'abrapp'
p2772
I1
sS'212-859-1646'
p2773
I1
sS'thunderstorm'
p2774
I1
sS'ronald'
p2775
I2
sS'agenda'
p2776
I4
sS'favourites'
p2777
I1
sS'quotations'
p2778
I4
sS"won't"
p2779
I3
sS'facilitates'
p2780
I1
sS'4el'
p2781
I1
sS'internazionale.chile'
p2782
I1
sS'lithuania'
p2783
I1
sS'emphasised'
p2784
I1
sS'abreu'
p2785
I2
sS'hands'
p2786
I5
sS'documented'
p2787
I3
sS'senhor'
p2788
I1
sS'university'
p2789
I1
sS'registrations'
p2790
I3
sS'globo'
p2791
I22
sS'stock.trade'
p2792
I1
sS'margas'
p2793
I1
sS'700'
p2794
I3
sS'steadied'
p2795
I2
sS'measure'
p2796
I5
sS'margins'
p2797
I2
sS'special'
p2798
I3
sS'campaign.franco'
p2799
I1
sS'secretly'
p2800
I1
sS'epoque'
p2801
I1
sS'magalhaes'
p2802
I2
sS'offenders.nucci'
p2803
I1
sS'underpinned'
p2804
I1
sS'cause'
p2805
I3
sS'15.private'
p2806
I1
sS'humiliating'
p2807
I1
sS'undo'
p2808
I1
sS'completely'
p2809
I1
sS'singspiel'
p2810
I1
sS'resumed'
p2811
I3
sS'equipamentos'
p2812
I1
sS'florida'
p2813
I1
sS'times'
p2814
I3
sS'keen'
p2815
I1
sS'modernising'
p2816
I1
sS'timed'
p2817
I1
sS'said.following'
p2818
I1
sS'austin'
p2819
I1
sS'telephone.fernandes'
p2820
I1
sS'powerful'
p2821
I1
sS'date'
p2822
I6
sS'flows'
p2823
I7
sS'quality'
p2824
I4
sS'management'
p2825
I4
sS'data'
p2826
I12
sS'adopted'
p2827
I2
sS'perfectly'
p2828
I1
sS'2,132'
p2829
I1
sS'2-0'
p2830
I1
sS'2-1'
p2831
I2
sS'exactly'
p2832
I1
sS'chemicals'
p2833
I2
sS'insulza'
p2834
I2
sS'center.hiroshi'
p2835
I1
sS'setubal'
p2836
I4
sS'submitted'
p2837
I4
sS'staking'
p2838
I1
sS'states.franco'
p2839
I1
sS'providing'
p2840
I1
sS'bet'
p2841
I2
sS'lightly'
p2842
I1
sS'unchanged'
p2843
I4
sS'111.60'
p2844
I1
sS'goldberg'
p2845
I1
sS'need'
p2846
I9
sS'constrained'
p2847
I1
sS'border'
p2848
I4
sS'said.telerj'
p2849
I1
sS'mainstays'
p2850
I1
sS'insurer'
p2851
I1
sS'able'
p2852
I7
sS'bonfim'
p2853
I1
sS'battles'
p2854
I1
sS'arm'
p2855
I4
sS'declined'
p2856
I7
sS'singh'
p2857
I1
sS'562'
p2858
I1
sS'fuels'
p2859
I2
sS'mileage'
p2860
I1
sS'deceive'
p2861
I1
sS'jorge'
p2862
I2
sS'preparations'
p2863
I1
sS'132.04'
p2864
I3
sS'expired'
p2865
I1
sS'stereo'
p2866
I1
sS'costs.the'
p2867
I1
sS'lowered'
p2868
I1
sS'urs'
p2869
I1
sS'0700'
p2870
I16
sS'emerging'
p2871
I3
sS'pompously'
p2872
I1
sS'goias'
p2873
I1
sS'halting'
p2874
I1
sS'passo'
p2875
I4
sS'2,918,245'
p2876
I1
sS'partners'
p2877
I4
sS'forex'
p2878
I4
sS'based'
p2879
I12
sS'arrive.one'
p2880
I1
sS'varig'
p2881
I7
sS'winner'
p2882
I1
sS'hopeful'
p2883
I1
sS'1.0639'
p2884
I1
sS'attained'
p2885
I1
sS'1.0631'
p2886
I1
sS'293-meter'
p2887
I1
sS'1.0636'
p2888
I2
sS'boris'
p2889
I1
sS'overall'
p2890
I1
sS'agropecuaria'
p2891
I1
sS'120'
p2892
I3
sS'121'
p2893
I1
sS'122'
p2894
I1
sS'126'
p2895
I1
sS'trader.a'
p2896
I1
sS'buyer'
p2897
I11
sS'kong'
p2898
I1
sS'procedures'
p2899
I1
sS'shr'
p2900
I1
sS'trucks'
p2901
I13
sS'mohammed'
p2902
I2
sS'offifial'
p2903
I1
sS'felipe'
p2904
I1
sS'processed'
p2905
I1
sS'4.594'
p2906
I1
sS'boechat'
p2907
I1
sS'reais.federal'
p2908
I1
sS'34.8'
p2909
I1
sS'shake'
p2910
I1
sS'operates'
p2911
I1
sS'roque'
p2912
I1
sS'reinforce'
p2913
I1
sS'latin'
p2914
I20
sS'reinforcements'
p2915
I1
sS'harvested'
p2916
I2
sS'state'
p2917
I54
sS'fgv'
p2918
I3
sS'attention'
p2919
I2
sS'tebet'
p2920
I2
sS'morning.gazeta'
p2921
I2
sS'efficiency'
p2922
I1
sS'key'
p2923
I42
sS'police'
p2924
I98
sS'distribution'
p2925
I2
sS'strains'
p2926
I1
sS'expand'
p2927
I2
sS'behaviour'
p2928
I1
sS'jersey'
p2929
I1
sS'duro'
p2930
I9
sS'diplomats'
p2931
I1
sS'tuesday'
p2932
I20
sS'10,069'
p2933
I1
sS'said.february'
p2934
I1
sS'extortion.the'
p2935
I1
sS'addition'
p2936
I8
sS'deaths'
p2937
I2
sS'cent'
p2938
I3
sS'54,590'
p2939
I1
sS'controlled'
p2940
I2
sS'pinheiro'
p2941
I3
sS'shortfall'
p2942
I4
sS'17,00note'
p2943
I2
sS'sobragi'
p2944
I2
sS'understrength'
p2945
I1
sS'310.20'
p2946
I1
sS'resident'
p2947
I1
sS'surface'
p2948
I1
sS'simona'
p2949
I9
sS'1996.work'
p2950
I1
sS'4.50'
p2951
I1
sS'allow.loading'
p2952
I1
sS'march.bankruptcy'
p2953
I1
sS'began'
p2954
I10
sS'janeiro'
p2955
I63
sS'parts'
p2956
I1
sS'underground'
p2957
I1
sS'party'
p2958
I5
sS'absorb'
p2959
I1
sS'appearances'
p2960
I1
sS'effect'
p2961
I7
sS'compared'
p2962
I21
sS'may.until'
p2963
I2
sS'nation'
p2964
I6
sS'estado'
p2965
I2
sS'poultry'
p2966
I2
sS'aliprandi'
p2967
I3
sS'lunch'
p2968
I1
sS'variety'
p2969
I3
sS'46'
p2970
I4
sS'restore'
p2971
I1
sS'2230358'
p2972
I12
sS'increasingly'
p2973
I1
sS'local/1300'
p2974
I3
sS'sources'
p2975
I7
sS'7,000'
p2976
I1
sS'17.20'
p2977
I1
sS'killed'
p2978
I6
sS'imposes'
p2979
I1
sS'extends'
p2980
I1
sS'runners'
p2981
I1
sS'sonia'
p2982
I1
sS'definitive'
p2983
I3
sS'fate'
p2984
I1
sS'260'
p2985
I1
sS'burden'
p2986
I1
sS'incidents.the'
p2987
I1
sS'immediately'
p2988
I6
sS'269'
p2989
I1
sS'mills.but'
p2990
I1
sS'prominent'
p2991
I1
sS'loss'
p2992
I10
sS'necessary'
p2993
I3
sS'lost'
p2994
I3
sS'expansion.this'
p2995
I1
sS'fernando'
p2996
I20
sS'controllers'
p2997
I1
sS'payments'
p2998
I4
sS'lose'
p2999
I3
sS'consulting'
p3000
I1
sS'eurobond'
p3001
I3
sS'paranagua'
p3002
I42
sS'francisco'
p3003
I1
sS'home'
p3004
I18
sS'peter'
p3005
I1
sS'competitor'
p3006
I2
sS'broad'
p3007
I1
sS'objected'
p3008
I1
sS'117.89'
p3009
I4
sS'limitations'
p3010
I1
sS'reaching'
p3011
I2
sS'expansion'
p3012
I2
sS'17,000'
p3013
I1
sS'wednesday.francisco'
p3014
I1
sS'recognized'
p3015
I1
sS'friday.in'
p3016
I1
sS'vogue'
p3017
I1
sS'stakes'
p3018
I2
sS'equally'
p3019
I1
sS'previously'
p3020
I7
sS'cocoa'
p3021
I4
sS'5.25'
p3022
I1
sS'said.michael'
p3023
I1
sS'hostages.the'
p3024
I1
sS'pointless'
p3025
I1
sS'1.058'
p3026
I1
sS'utility'
p3027
I1
sS'accused'
p3028
I6
sS'additional'
p3029
I2
sS'noticed'
p3030
I1
sS'pctthe'
p3031
I1
sS'daniela'
p3032
I1
sS'recruited'
p3033
I1
sS'receipt'
p3034
I5
sS'north'
p3035
I2
sS'acominas.trade'
p3036
I1
sS'goals'
p3037
I4
sS'courts'
p3038
I1
sS'highest'
p3039
I4
sS'signed'
p3040
I11
sS'727'
p3041
I1
sS'converted'
p3042
I1
sS'limit'
p3043
I6
sS'721'
p3044
I1
sS'piece'
p3045
I1
sS'eu.this'
p3046
I1
sS'education'
p3047
I4
sS'mauro'
p3048
I2
sS'rumors'
p3049
I3
sS'sepulveda'
p3050
I1
sS'pacifico'
p3051
I1
sS'star'
p3052
I2
sS'stay'
p3053
I1
sS'mussri'
p3054
I1
sS'bcn'
p3055
I1
sS'ortega'
p3056
I1
sS'15-20'
p3057
I2
sS'determination'
p3058
I1
sS'simpson'
p3059
I4
sS'aided'
p3060
I1
sS'director.the'
p3061
I1
sS'protest'
p3062
I4
sS'units.the'
p3063
I2
sS'asian'
p3064
I3
sS'17.10safras'
p3065
I1
sS'aides'
p3066
I1
sS'consists'
p3067
I1
sS'telebras'
p3068
I66
sS'expatriates'
p3069
I1
sS'marcos'
p3070
I1
sS'pensions'
p3071
I13
sS'investigation'
p3072
I5
sS'said.there'
p3073
I2
sS'reforms'
p3074
I6
sS'affect'
p3075
I3
sS'9,175'
p3076
I1
sS'crops'
p3077
I3
sS'companies'
p3078
I21
sS'solution'
p3079
I7
sS'greenish'
p3080
I1
sS'157,635'
p3081
I1
sS'heading'
p3082
I4
sS'pyrochlore'
p3083
I1
sS'bimonthly'
p3084
I1
sS'force'
p3085
I13
sS'japanese'
p3086
I6
sS'likely'
p3087
I15
sS'governor'
p3088
I3
sS'cesar'
p3089
I2
sS'technology.caught'
p3090
I1
sS'panama'
p3091
I1
sS'orchestra'
p3092
I2
sS'asia'
p3093
I1
sS'spokesman'
p3094
I28
sS'150/120'
p3095
I10
sS'new'
p3096
I84
sS'net'
p3097
I21
sS'asis'
p3098
I1
sS'niche'
p3099
I1
sS'men'
p3100
I1
sS'680.7'
p3101
I1
sS'met'
p3102
I3
sS'match.the'
p3103
I1
sS'active'
p3104
I6
sS'100'
p3105
I12
sS'101'
p3106
I1
sS'104'
p3107
I1
sS'contraction'
p3108
I1
sS'dry'
p3109
I5
sS'28,180'
p3110
I1
sS'555,000'
p3111
I1
sS'added.central'
p3112
I1
sS'economics'
p3113
I1
sS'credit'
p3114
I22
sS'economico'
p3115
I3
sS'economica'
p3116
I3
sS'suitable'
p3117
I1
sS'reckoned'
p3118
I1
sS'campaign'
p3119
I4
sS'esteve'
p3120
I1
sS'bamerimdus'
p3121
I1
sS'guests'
p3122
I1
sS'soybean'
p3123
I24
sS'schilling'
p3124
I1
sS'landscape'
p3125
I2
sS'telp'
p3126
I1
sS'criminals'
p3127
I2
sS'1,045,341'
p3128
I1
sS'575.2'
p3129
I1
sS'cali'
p3130
I1
sS'calm'
p3131
I1
sS'survive'
p3132
I1
sS'type'
p3133
I50
sS'tell'
p3134
I1
sS'oscar'
p3135
I1
sS'expose'
p3136
I2
sS'rights'
p3137
I20
sS'2.61'
p3138
I1
sS'niobium'
p3139
I2
sS'70,450april'
p3140
I1
sS'54,200'
p3141
I1
sS'root'
p3142
I1
sS'bellman'
p3143
I1
sS'involve'
p3144
I1
sS'added.a'
p3145
I1
sS'issuers.with'
p3146
I1
sS'bolsas'
p3147
I2
sS'advancing'
p3148
I1
sS'1994.franco'
p3149
I1
sS'satu'
p3150
I1
sS'soros'
p3151
I2
sS'sixties'
p3152
I1
sS'bressan'
p3153
I1
sS'agency.joao'
p3154
I1
sS'minority'
p3155
I6
sS'replacing'
p3156
I1
sS'cpisenate'
p3157
I1
sS'alegre'
p3158
I1
sS'president'
p3159
I73
sS'purchase'
p3160
I6
sS'attempt'
p3161
I3
sS'caixa'
p3162
I2
sS'maintain'
p3163
I1
sS'operate'
p3164
I12
sS'quarter.the'
p3165
I1
sS'operations'
p3166
I31
sS'said.she'
p3167
I1
sS'48-hour'
p3168
I2
sS'tonne.meanwhile'
p3169
I1
sS'soyoil'
p3170
I6
sS'4.33'
p3171
I1
sS'4.34'
p3172
I1
sS'10.1'
p3173
I1
sS'10.5'
p3174
I1
sS'pharma'
p3175
I1
sS'10.7'
p3176
I1
sS'10.6'
p3177
I1
sS'personal'
p3178
I3
sS'better'
p3179
I5
sS'nissho'
p3180
I1
sS'weeks'
p3181
I7
sS'overcome'
p3182
I1
sS'combination'
p3183
I1
sS'weakness'
p3184
I2
sS'nightclubs'
p3185
I1
sS'depth.chile'
p3186
I1
sS'cathodes'
p3187
I1
sS'reuters.josino'
p3188
I1
sS'arrested'
p3189
I9
sS'mistrust'
p3190
I6
sS'victories'
p3191
I1
sS'went'
p3192
I7
sS'meal'
p3193
I5
sS'bond'
p3194
I19
sS'durability'
p3195
I1
sS'principles'
p3196
I1
sS'40-1'
p3197
I1
sS'aide'
p3198
I4
sS'taught'
p3199
I3
sS'trading'
p3200
I24
sS'clauses'
p3201
I1
sS'dawn'
p3202
I1
sS'mandated'
p3203
I1
sS'decree'
p3204
I3
sS'videotape'
p3205
I8
sS'surprise'
p3206
I5
sS'advancers'
p3207
I3
sS'venezuela'
p3208
I6
sS'turning'
p3209
I1
sS'resume'
p3210
I2
sS'11.00'
p3211
I4
sS'240'
p3212
I4
sS'243'
p3213
I1
sS'248'
p3214
I45
sS'3.91'
p3215
I1
sS'starts'
p3216
I3
sS'moving'
p3217
I2
sS'146.64'
p3218
I1
sS'economists'
p3219
I4
sS'grade'
p3220
I1
sS'brutality'
p3221
I2
sS'vitorio'
p3222
I1
sS'vitoria'
p3223
I8
sS'distance'
p3224
I7
sS'anxiety'
p3225
I1
sS'minsiter'
p3226
I1
sS'preparation'
p3227
I1
sS'matter'
p3228
I2
sS'6,128'
p3229
I1
sS'bidder'
p3230
I2
sS'hillsides.almost'
p3231
I1
sS'13.05'
p3232
I1
sS'mini'
p3233
I6
sS'sees'
p3234
I4
sS'steelmaker'
p3235
I8
sS'surplus.in'
p3236
I1
sS'extorting'
p3237
I5
sS'seen'
p3238
I15
sS'seek'
p3239
I3
sS'tells'
p3240
I1
sS'5.03'
p3241
I1
sS'15,86rio'
p3242
I1
sS'miyashiro'
p3243
I1
sS'machinery'
p3244
I1
sS'commentstelebras'
p3245
I1
sS'mario'
p3246
I7
sS'regular'
p3247
I2
sS'assets.analysts'
p3248
I1
sS'mitigate'
p3249
I1
sS'industry.meanwhile'
p3250
I2
sS'competitors'
p3251
I1
sS'definitely'
p3252
I1
sS'consumer'
p3253
I8
sS'beaten'
p3254
I2
sS'deputies.the'
p3255
I1
sS'probe'
p3256
I3
sS'ending'
p3257
I3
sS'implying'
p3258
I1
sS'attempts'
p3259
I1
sS'1,356,490'
p3260
I1
sS'parana'
p3261
I16
sS'judges'
p3262
I1
sS'northeast'
p3263
I1
sS'surged'
p3264
I5
sS'explain'
p3265
I3
sS'debts'
p3266
I2
sS'sugar'
p3267
I29
sS'carbono'
p3268
I1
sS'programs.united'
p3269
I1
sS'said.luiz'
p3270
I1
sS'monica'
p3271
I1
sS'exports'
p3272
I39
sS'aranha'
p3273
I1
sS'passarella'
p3274
I1
sS'stop'
p3275
I11
sS'coast'
p3276
I1
sS'said.british'
p3277
I1
sS'thoroughbreds'
p3278
I1
sS'schomberg'
p3279
I17
sS'nobre'
p3280
I3
sS'earn'
p3281
I3
sS'122,914'
p3282
I1
sS'bay'
p3283
I1
sS'bag'
p3284
I14
sS'bad'
p3285
I3
sS'ban'
p3286
I3
sS'said.u.s'
p3287
I1
sS'reference'
p3288
I1
sS'testing'
p3289
I1
sS'alterations'
p3290
I3
sS'decided'
p3291
I10
sS'25/17'
p3292
I1
sS'subject'
p3293
I2
sS'brazil'
p3294
I246
sS'00'
p3295
I1
sS'said'
p3296
I545
sS'scrap'
p3297
I2
sS'endesa'
p3298
I1
sS'protected'
p3299
I1
sS'seller.the'
p3300
I1
sS'currencies.although'
p3301
I1
sS'restricting'
p3302
I1
sS'motta'
p3303
I36
sS'385'
p3304
I1
sS'2,534'
p3305
I1
sS'picking'
p3306
I1
sS'suggested'
p3307
I2
sS'deregulation'
p3308
I1
sS'munoz'
p3309
I1
sS'uncertainty'
p3310
I1
sS'385,000'
p3311
I1
sS'contribution'
p3312
I1
sS'74.9'
p3313
I1
sS'appeared'
p3314
I1
sS'offerings'
p3315
I1
sS'said.on'
p3316
I1
sS'loaded'
p3317
I5
sS'said.of'
p3318
I1
sS'proceeded'
p3319
I1
sS'puts'
p3320
I1
sS'basis'
p3321
I16
sS'commission'
p3322
I4
sS'recognised'
p3323
I1
sS'tina'
p3324
I1
sS'basic'
p3325
I2
sS'entered'
p3326
I1
sS'groups.according'
p3327
I1
sS'mcm'
p3328
I1
sS'deeper'
p3329
I1
sS'prosperous'
p3330
I1
sS'quantities'
p3331
I2
sS'dismiss'
p3332
I5
sS'shattering'
p3333
I1
sS'massari.there'
p3334
I1
sS'personally'
p3335
I1
sS'exception'
p3336
I2
sS'plc.under'
p3337
I1
sS'economies'
p3338
I1
sS'51,865'
p3339
I1
sS'cpfl'
p3340
I1
sS'ventures'
p3341
I2
sS'near'
p3342
I5
sS'0.36'
p3343
I1
sS'balance'
p3344
I7
sS'launched.since'
p3345
I1
sS'16,539'
p3346
I1
sS'plasticos'
p3347
I1
sS'pessimistic'
p3348
I1
sS'seven'
p3349
I6
sS'cane'
p3350
I2
sS'said.another'
p3351
I2
sS'mexico'
p3352
I5
sS'ii'
p3353
I8
sS'80,000'
p3354
I2
sS'overstated'
p3355
I1
sS'belle'
p3356
I1
sS'make'
p3357
I15
sS'21,440'
p3358
I1
sS'industry.once'
p3359
I1
sS'speculating'
p3360
I1
sS'vegetable'
p3361
I3
sS'capacities'
p3362
I1
sS'entitled'
p3363
I1
sS'meets'
p3364
I1
sS'5511-2485412'
p3365
I2
sS'estadual'
p3366
I1
sS'governors'
p3367
I3
sS'5511-2485418'
p3368
I1
sS'guilders'
p3369
I2
sS'opportunity'
p3370
I5
sS'outputs'
p3371
I1
sS'remarks.the'
p3372
I1
sS'unconcerned'
p3373
I1
sS'practices'
p3374
I1
sS'claims'
p3375
I3
sS'800'
p3376
I2
sS'806'
p3377
I3
sS'left'
p3378
I11
sS'just'
p3379
I16
sS'5074151'
p3380
I28
sS'human'
p3381
I13
sS'buyers'
p3382
I5
sS'borges'
p3383
I3
sS'agile'
p3384
I1
sS'character'
p3385
I2
sS'potential'
p3386
I8
sS'justices'
p3387
I2
sS'amazonian'
p3388
I1
sS'11.85/ads'
p3389
I1
sS'20/03'
p3390
I4
sS'whichever'
p3391
I1
sS'assis'
p3392
I2
sS'bullet.on'
p3393
I1
sS'arrivals'
p3394
I3
sS'203.3'
p3395
I1
sS'1,414,415'
p3396
I1
sS'deal'
p3397
I25
sS'4.16'
p3398
I1
sS'dead'
p3399
I2
sS'investigations'
p3400
I1
sS'president.brazil'
p3401
I1
sS'knew'
p3402
I2
sS'bold'
p3403
I1
sS'statistician'
p3404
I1
sS'said.this'
p3405
I2
sS'sift'
p3406
I1
sS'process.the'
p3407
I1
sS'chilean'
p3408
I5
sS'afternoon'
p3409
I3
sS'analise'
p3410
I1
sS'automatically'
p3411
I1
sS'almeida'
p3412
I1
sS'amounted'
p3413
I11
sS'sergio'
p3414
I20
sS'1990s'
p3415
I1
sS'stoppages.santos'
p3416
I1
sS'enersis'
p3417
I1
sS'1,722'
p3418
I1
sS'bolivia'
p3419
I3
sS'1/16'
p3420
I1
sS'offering'
p3421
I7
sS'bourse.buy'
p3422
I1
sS'missima'
p3423
I2
sS'stevedores'
p3424
I76
sS'reais.brokers'
p3425
I1
sS'digusted'
p3426
I1
sS'223'
p3427
I4
sS'analyst'
p3428
I18
sS'said.globo'
p3429
I1
sS'understood'
p3430
I1
sS'prevents'
p3431
I1
sS'rashid'
p3432
I1
sS'216.92group'
p3433
I1
sS'geoghegan'
p3434
I2
sS'minute.earlier'
p3435
I1
sS'benchmarks'
p3436
I1
sS'classic'
p3437
I1
sS'sidestep'
p3438
I2
sS'covers'
p3439
I1
sS'sale'
p3440
I9
sS'marksman'
p3441
I1
sS'floating'
p3442
I4
sS'esteban'
p3443
I1
sS'graft'
p3444
I2
sS'bags.few'
p3445
I2
sS'bill.in'
p3446
I1
sS'generally'
p3447
I2
sS'warehouse'
p3448
I4
sS'609.6'
p3449
I1
sS'exporter'
p3450
I7
sS'dies'
p3451
I1
sS'felt'
p3452
I3
sS'fell'
p3453
I18
sS'exported'
p3454
I2
sS'authorities'
p3455
I5
sS'transfers'
p3456
I1
sS'weekend'
p3457
I6
sS'died'
p3458
I5
sS'jones'
p3459
I1
sS'155.62'
p3460
I1
sS'happening'
p3461
I1
sS'daily'
p3462
I7
sS'pellets'
p3463
I3
sS'profits'
p3464
I6
sS'overdue'
p3465
I2
sS'managed'
p3466
I1
sS'invent'
p3467
I1
sS'manager'
p3468
I6
sS'5.68'
p3469
I2
sS'skin'
p3470
I1
sS'abundant'
p3471
I1
sS'instance.the'
p3472
I1
sS'anticipation'
p3473
I1
sS'local/1700'
p3474
I2
sS'countdown'
p3475
I1
sS'0'
p3476
I11
sS'marks'
p3477
I3
sS'suffered'
p3478
I2
sS'adviser'
p3479
I2
sS'slash'
p3480
I1
sS'bm&f'
p3481
I4
sS'lynch'
p3482
I1
sS'wore'
p3483
I1
sS'did'
p3484
I18
sS'permits'
p3485
I1
sS'proposals'
p3486
I3
sS'dia'
p3487
I1
sS'travels'
p3488
I1
sS'item'
p3489
I1
sS'ogmos'
p3490
I1
sS'21-year'
p3491
I1
sS'said.loading'
p3492
I1
sS'859-1730'
p3493
I2
sS'11,892'
p3494
I1
sS'unexpected'
p3495
I2
sS'icatu.molica'
p3496
I1
sS'rappaport'
p3497
I3
sS'siderca'
p3498
I1
sS'livanov'
p3499
I1
sS'7.the'
p3500
I1
sS'suspect'
p3501
I5
sS'acpc'
p3502
I2
sS'international'
p3503
I23
sS'transportation'
p3504
I1
sS'transparency'
p3505
I1
sS'bradesco.the'
p3506
I1
sS'french'
p3507
I6
sS'car.activists'
p3508
I1
sS'box'
p3509
I1
sS'battling'
p3510
I1
sS'institute'
p3511
I8
sS'shift'
p3512
I1
sS'shares.whoever'
p3513
I1
sS'cargill'
p3514
I9
sS'bermudez.the'
p3515
I1
sS'previ'
p3516
I3
sS'month.foreign'
p3517
I1
sS'ailing'
p3518
I1
sS'percent.so'
p3519
I2
sS'wealth'
p3520
I2
sS'ariel'
p3521
I1
sS'visit'
p3522
I9
sS'france'
p3523
I1
sS'peru'
p3524
I3
sS'francs'
p3525
I7
sS'sharing'
p3526
I2
sS'downturn'
p3527
I1
sS'malan'
p3528
I2
sS'effort'
p3529
I2
sS'40-45'
p3530
I1
sS'capturing'
p3531
I1
sS'bushels'
p3532
I2
sS'9,138'
p3533
I1
sS'company.bre'
p3534
I1
sS'tokyo'
p3535
I1
sS'avoiding'
p3536
I2
sS'soul'
p3537
I1
sS'growing'
p3538
I10
sS'making'
p3539
I6
sS'arrive'
p3540
I4
sS'claim'
p3541
I3
sS'kenneth'
p3542
I1
sS'uruguay'
p3543
I7
sS'predict'
p3544
I2
sS'agent'
p3545
I3
sS'council'
p3546
I5
sS'breaking'
p3547
I2
sS'inflows'
p3548
I4
sS'recognised.the'
p3549
I1
sS'burgeoning'
p3550
I1
sS'contracts'
p3551
I14
sS'sunday'
p3552
I2
sS'144'
p3553
I2
sS'140'
p3554
I3
sS'141'
p3555
I1
sS'critics'
p3556
I1
sS'cbmm'
p3557
I2
sS'morning.rio'
p3558
I1
sS'helmut'
p3559
I1
sS'designed'
p3560
I1
sS'grow'
p3561
I3
sS'man'
p3562
I7
sS'classics'
p3563
I1
sS'17,10'
p3564
I2
sS'16,000'
p3565
I1
sS'borrowing'
p3566
I2
sS'vieira'
p3567
I1
sS'jail'
p3568
I3
sS'deposit'
p3569
I2
sS'telepar'
p3570
I3
sS'talk'
p3571
I5
sS'distributors'
p3572
I1
sS'seeing'
p3573
I5
sS'pointed'
p3574
I3
sS'stability'
p3575
I2
sS'cuts'
p3576
I3
sS'argued'
p3577
I1
sS'consolidating'
p3578
I1
sS'group'
p3579
I34
sS'undermined'
p3580
I1
sS'544.9'
p3581
I1
sS'joanes'
p3582
I1
sS'policy'
p3583
I3
sS'romina'
p3584
I19
sS'main'
p3585
I16
sS'finance'
p3586
I9
sS'views'
p3587
I1
sS'undisclosed'
p3588
I1
sS'sooner'
p3589
I1
sS'boats'
p3590
I1
sS'aspirations'
p3591
I1
sS'9705'
p3592
I1
sS'14.5'
p3593
I1
sS'14.7'
p3594
I2
sS'822'
p3595
I1
sS'176.8'
p3596
I1
sS's&p'
p3597
I8
sS'girl'
p3598
I2
sS'requesting'
p3599
I1
sS'reform.the'
p3600
I1
sS'canada'
p3601
I1
sS'emerges'
p3602
I2
sS'said.serasa'
p3603
I1
sS'124,565'
p3604
I1
sS'market.although'
p3605
I1
sS'valdes'
p3606
I1
sS'729.6'
p3607
I1
sS'prevsoybean'
p3608
I6
sS'paralysing'
p3609
I2
sS'ore'
p3610
I5
sS'advance'
p3611
I3
sS'ministry'
p3612
I39
sS'thing'
p3613
I2
sS'think'
p3614
I15
sS'frequent'
p3615
I1
sS'declared'
p3616
I1
sS'long'
p3617
I24
sS'suspended'
p3618
I19
sS'carry'
p3619
I5
sS'little'
p3620
I7
sS'company.a'
p3621
I2
sS'moisture'
p3622
I1
sS'participated'
p3623
I1
sS'speaking'
p3624
I2
sS"we're"
p3625
I6
sS'tommasi'
p3626
I2
sS'mining'
p3627
I16
sS'plan.an'
p3628
I1
sS'allegedly'
p3629
I20
sS'moscow'
p3630
I1
sS'continuous'
p3631
I1
sS'undoubtedly'
p3632
I1
sS'11'
p3633
I26
sS'10'
p3634
I27
sS'13'
p3635
I3
sS'12'
p3636
I13
sS'15'
p3637
I19
sS'14'
p3638
I5
sS'17'
p3639
I9
sS'16'
p3640
I6
sS'19'
p3641
I2
sS'18'
p3642
I2
sS'orgy'
p3643
I2
sS'venture'
p3644
I1
sS'riado'
p3645
I6
sS'conspiracy'
p3646
I2
sS'occupied'
p3647
I1
sS'81-member'
p3648
I1
sS'consortium'
p3649
I10
sS'shocked'
p3650
I2
sS'squad'
p3651
I1
sS'interior'
p3652
I2
sS'performance'
p3653
I3
sS'200'
p3654
I4
sS'203'
p3655
I1
sS'pain'
p3656
I1
sS'204'
p3657
I1
sS'theatre'
p3658
I4
sS'roster'
p3659
I1
sS'track'
p3660
I6
sS'friedman'
p3661
I1
sS'soonthe'
p3662
I1
sS'paid'
p3663
I4
sS'josino'
p3664
I5
sS'pair'
p3665
I1
sS'214.09'
p3666
I1
sS'proxies'
p3667
I1
sS'lerner'
p3668
I1
sS'offficials'
p3669
I1
sS'especially'
p3670
I8
sS'surprising'
p3671
I1
sS'fills'
p3672
I2
sS'licht'
p3673
I1
sS'reassurance'
p3674
I1
sS'rating'
p3675
I26
sS'shot'
p3676
I7
sS'arrears'
p3677
I1
sS'3,992'
p3678
I2
sS'approvedpresident'
p3679
I1
sS'impunity'
p3680
I1
sS'treasury'
p3681
I4
sS'enthusiasm'
p3682
I2
sS'hungarian'
p3683
I2
sS'hostage'
p3684
I1
sS'nearly'
p3685
I4
sS'denials'
p3686
I1
sS'ratzeburg'
p3687
I1
sS'yield'
p3688
I1
sS'morning'
p3689
I13
sS'929'
p3690
I4
sS'miles'
p3691
I1
sS'tallow'
p3692
I2
sS'communicated'
p3693
I1
sS'5.43'
p3694
I1
sS'innovative'
p3695
I1
sS'seat'
p3696
I3
sS'relative'
p3697
I1
sS'plan.at'
p3698
I1
sS'105,300'
p3699
I1
sS'seal'
p3700
I1
sS'seab'
p3701
I4
sS'crusher'
p3702
I1
sS'forecast'
p3703
I10
sS'statement.this'
p3704
I1
sS'31,500'
p3705
I1
sS'reading'
p3706
I3
sS'infrastructure'
p3707
I2
sS'transcar'
p3708
I2
sS'august'
p3709
I26
sS'plans.officials'
p3710
I1
sS'approvals'
p3711
I1
sS'jp'
p3712
I7
sS'killing'
p3713
I11
sS'ogmo'
p3714
I1
sS'fluctuations'
p3715
I1
sS'bedraggled'
p3716
I1
sS'tug'
p3717
I1
sS'dates'
p3718
I1
sS'trader'
p3719
I10
sS'percent.flemings'
p3720
I1
sS'according'
p3721
I18
sS'disappointment'
p3722
I1
sS'holders'
p3723
I8
sS'traded'
p3724
I6
sS'geography.the'
p3725
I1
sS'forecasting'
p3726
I1
sS'cancer'
p3727
I1
sS'50,000'
p3728
I7
sS'affected.santos'
p3729
I1
sS'maintained'
p3730
I4
sS'ladbrokes'
p3731
I1
sS'27,010'
p3732
I1
sS'custody'
p3733
I1
sS'considering'
p3734
I5
sS'unusual'
p3735
I1
sS'capable'
p3736
I1
sS'mark'
p3737
I1
sS'said.talk'
p3738
I1
sS'spending.although'
p3739
I1
sS'borders'
p3740
I1
sS'industria'
p3741
I2
sS'offered'
p3742
I5
sS'gripped'
p3743
I1
sS'dramatic'
p3744
I1
sS'apologised'
p3745
I1
sS'ongoing'
p3746
I2
sS'promising'
p3747
I1
sS'investigating'
p3748
I5
sS'margin'
p3749
I2
sS'setubal.opportunities'
p3750
I1
sS'middle'
p3751
I7
sS'sudden'
p3752
I1
sS'said.deputy'
p3753
I2
sS'everyday'
p3754
I1
sS'bags'
p3755
I45
sS'different'
p3756
I9
sS'doctor'
p3757
I1
sS'insofar'
p3758
I2
sS'paz'
p3759
I3
sS'horatio'
p3760
I2
sS'rains.at'
p3761
I1
sS'arguments'
p3762
I1
sS'oil'
p3763
I7
sS'21.dissatisfaction'
p3764
I1
sS'kubo'
p3765
I1
sS'running'
p3766
I6
sS'million.besides'
p3767
I1
sS'itself.the'
p3768
I1
sS'climbing'
p3769
I1
sS'15,90'
p3770
I4
sS'drain'
p3771
I1
sS'largely'
p3772
I1
sS'macro'
p3773
I1
sS'135/ads'
p3774
I1
sS'december.the'
p3775
I1
sS'230,000'
p3776
I1
sS'gangs'
p3777
I2
sS'money'
p3778
I12
sS'accusationsa'
p3779
I1
sS'telesp'
p3780
I17
sS'1-3/8'
p3781
I2
sS'cup.a'
p3782
I1
sS'nick'
p3783
I1
sS'1-3/4'
p3784
I1
sS'chilavert'
p3785
I1
sS'1,156,908'
p3786
I1
sS'thursday.seb'
p3787
I1
sS'3.25'
p3788
I1
sS'3,414'
p3789
I1
sS'local/1000'
p3790
I13
sS'secrecy'
p3791
I5
sS'cbot'
p3792
I2
sS'facing'
p3793
I1
sS'chamber'
p3794
I22
sS'212.20'
p3795
I4
sS'1exports'
p3796
I1
sS'images'
p3797
I5
sS'joao'
p3798
I2
sS'blnbrazil'
p3799
I1
sS'gross'
p3800
I2
sS'reportedly'
p3801
I2
sS'confirm'
p3802
I6
sS'critical'
p3803
I1
sS'moderate'
p3804
I4
sS'1,089,679.4'
p3805
I1
sS'broker'
p3806
I1
sS'said.hsbc'
p3807
I1
sS'manufacturer'
p3808
I2
sS'regulations'
p3809
I1
sS'violence'
p3810
I10
sS'generated'
p3811
I1
sS'airline'
p3812
I1
sS'mixed'
p3813
I2
sS'4.prices'
p3814
I1
sS'road'
p3815
I1
sS'quietly'
p3816
I1
sS'coupon'
p3817
I2
sS'120.98'
p3818
I1
sS'shantytown'
p3819
I3
sS'said.moreover'
p3820
I1
sS'workers.the'
p3821
I2
sS'1730'
p3822
I3
sS'decisive'
p3823
I2
sS'strikes'
p3824
I3
sS'sophisticated'
p3825
I1
sS'report.furnas'
p3826
I1
sS'1997.the'
p3827
I1
sS'ronaldo'
p3828
I6
sS'schettino.he'
p3829
I1
sS'deep'
p3830
I2
sS'general'
p3831
I12
sS"o'leary"
p3832
I1
sS'importing'
p3833
I2
sS'soyoil.loading'
p3834
I2
sS'allocating'
p3835
I2
sS'241,833'
p3836
I1
sS'film'
p3837
I4
sS'amendments'
p3838
I1
sS'strikers'
p3839
I2
sS'drivers'
p3840
I7
sS'field'
p3841
I2
sS'broking'
p3842
I1
sS'paraibuna'
p3843
I3
sS'privatized'
p3844
I6
sS'4,000'
p3845
I3
sS'obsessed'
p3846
I1
sS'students'
p3847
I2
sS'vertex'
p3848
I1
sS'agenda.franco'
p3849
I1
sS'important'
p3850
I7
sS'480'
p3851
I1
sS'remote'
p3852
I3
sS'assets'
p3853
I13
sS'unload'
p3854
I1
sS'millionapril'
p3855
I2
sS'kosmider'
p3856
I1
sS'markets.traders'
p3857
I1
sS'resembles'
p3858
I1
sS'nicaretta'
p3859
I19
sS'starting'
p3860
I1
sS'represent'
p3861
I2
sS'32.00'
p3862
I1
sS'432,940'
p3863
I1
sS'forbidden'
p3864
I1
sS'dollar'
p3865
I25
sS'zinc'
p3866
I3
sS'talks'
p3867
I12
sS'prison.nucci'
p3868
I1
sS'preserves'
p3869
I1
sS'24.35'
p3870
I1
sS'ultravertil'
p3871
I1
sS'alberto'
p3872
I3
sS'enjoying'
p3873
I1
sS'hideous'
p3874
I1
sS'premium'
p3875
I6
sS'sitting'
p3876
I1
sS'ramez'
p3877
I2
sS'excluded.brazil'
p3878
I1
sS'3,600'
p3879
I1
sS'fall'
p3880
I3
sS'participacoes'
p3881
I1
sS'difference'
p3882
I2
sS'cdpc'
p3883
I4
sS'exemptions'
p3884
I2
sS'portable'
p3885
I1
sS'238,647'
p3886
I1
sS'zero'
p3887
I1
sS'10.45'
p3888
I1
sS'lawyer'
p3889
I1
sS'13,100'
p3890
I2
sS'defence'
p3891
I1
sS'stood'
p3892
I4
sS'opted'
p3893
I1
sS'police.the'
p3894
I3
sS'univel'
p3895
I3
sS'public'
p3896
I45
sS'hotbed'
p3897
I1
sS'6.77'
p3898
I1
sS'component'
p3899
I1
sS'vale'
p3900
I7
sS'ranger'
p3901
I1
sS'operating'
p3902
I15
sS'1,357,320'
p3903
I1
sS'leveling'
p3904
I1
sS'privatization.other'
p3905
I1
sS'significantly'
p3906
I1
sS'airport'
p3907
I1
sS'published'
p3908
I8
sS'niobec'
p3909
I1
sS'narrow'
p3910
I2
sS'authorize'
p3911
I1
sS'bunge'
p3912
I2
sS'47,000'
p3913
I2
sS'africa'
p3914
I3
sS'562-699-5595'
p3915
I2
sS'armed'
p3916
I2
sS'suspensions'
p3917
I1
sS'shareholders'
p3918
I13
sS'113.53'
p3919
I1
sS'destination'
p3920
I2
sS'oyharcabal'
p3921
I1
sS'sheets.abreu'
p3922
I1
sS'achieving'
p3923
I1
sS'eletrica'
p3924
I1
sS'statement.the'
p3925
I2
sS'controlling'
p3926
I3
sS'itau'
p3927
I7
sS'varying'
p3928
I1
sS'hour'
p3929
I9
sS'recall'
p3930
I1
sS'der'
p3931
I2
sS'ulsan.they'
p3932
I1
sS'remain'
p3933
I8
sS'pressing'
p3934
I2
sS'abandon'
p3935
I1
sS'strategies'
p3936
I3
sS'member.argentine'
p3937
I1
sS'purchases'
p3938
I2
sS'share'
p3939
I9
sS'pensions.the'
p3940
I1
sS'minimum'
p3941
I12
sS'attain'
p3942
I1
sS'purchased'
p3943
I2
sS'traffickers'
p3944
I1
sS'sharp'
p3945
I6
sS'mtgb'
p3946
I9
sS'needs'
p3947
I3
sS'csn'
p3948
I4
sS'csl.sa'
p3949
I1
sS'quays'
p3950
I2
sS'month.in'
p3951
I1
sS'blood'
p3952
I1
sS'coming'
p3953
I7
sS'response'
p3954
I1
sS'bleak'
p3955
I1
sS'abics'
p3956
I2
sS'1996.even'
p3957
I1
sS'percent.the'
p3958
I5
sS'conglomerates'
p3959
I1
sS'960,319'
p3960
I1
sS'pay'
p3961
I23
sS'playing'
p3962
I2
sS'rounded'
p3963
I3
sS'points.mograbi'
p3964
I1
sS'cardoso'
p3965
I32
sS'appeals'
p3966
I1
sS'existence'
p3967
I1
sS'4221'
p3968
I2
sS'24'
p3969
I3
sS'25'
p3970
I8
sS'26'
p3971
I8
sS'27'
p3972
I5
sS'20'
p3973
I15
sS'21'
p3974
I6
sS'22'
p3975
I1
sS'23'
p3976
I1
sS'29'
p3977
I9
sS'pct'
p3978
I12
sS'late'
p3979
I12
sS'thursday.the'
p3980
I2
sS'offguard'
p3981
I1
sS'reuters'
p3982
I12
sS'good'
p3983
I20
sS'seeking'
p3984
I5
sS'others.paraguay'
p3985
I1
sS'2,590'
p3986
I1
sS'walls'
p3987
I1
sS'telebras.telebras'
p3988
I1
sS'complain'
p3989
I1
sS'association'
p3990
I19
sS'porto'
p3991
I1
sS'pregnant'
p3992
I1
sS'cvrd'
p3993
I44
sS'token'
p3994
I1
sS'ports'
p3995
I18
sS'house'
p3996
I18
sS'fish'
p3997
I1
sS'hard'
p3998
I2
sS'idea'
p3999
I7
sS'extended'
p4000
I1
sS'fist'
p4001
I1
sS'flavio'
p4002
I1
sS'stands'
p4003
I1
sS'perry'
p4004
I1
sS'projected'
p4005
I1
sS'acting'
p4006
I1
sS'requiao'
p4007
I1
sS'2.731'
p4008
I1
sS'assist'
p4009
I1
sS'lawrence'
p4010
I1
sS'difficulty'
p4011
I3
sS'terminals'
p4012
I11
sS'members'
p4013
I18
sS'backed'
p4014
I3
sS'beginning'
p4015
I8
sS'benefits'
p4016
I1
sS'17,50'
p4017
I1
sS'conducted'
p4018
I4
sS'operations.negotiations'
p4019
I1
sS'rainforest'
p4020
I1
sS'copper'
p4021
I3
sS'100-tonne'
p4022
I1
sS'7,330'
p4023
I1
sS'rerouted'
p4024
I1
sS'began.latest'
p4025
I1
sS'paper.grupo'
p4026
I1
sS'180'
p4027
I2
sS'181'
p4028
I1
sS'statement'
p4029
I10
sS'para'
p4030
I2
sS'favorable'
p4031
I2
sS'believe'
p4032
I4
sS'b'
p4033
I23
sS'cambior'
p4034
I1
sS'1997.shipments'
p4035
I1
sS'youth'
p4036
I1
sS'contrary'
p4037
I1
sS'supposed'
p4038
I1
sS'declare'
p4039
I1
sS'authorities.chile'
p4040
I1
sS'murder'
p4041
I8
sS'showers'
p4042
I1
sS'6,884'
p4043
I1
sS'orders'
p4044
I4
sS'built'
p4045
I1
sS'depending'
p4046
I1
sS'majority'
p4047
I8
sS'build'
p4048
I6
sS'anthems'
p4049
I1
sS'cameroon'
p4050
I1
sS'7,461.3'
p4051
I1
sS'ammunition.military'
p4052
I1
sS'said.with'
p4053
I1
sS'significant'
p4054
I2
sS'services'
p4055
I21
sS'outgoings'
p4056
I1
sS'engagements'
p4057
I1
sS'extremely'
p4058
I2
sS'1,245'
p4059
I1
sS'goodwill'
p4060
I2
sS'km'
p4061
I1
sS'mammoth'
p4062
I2
sS'weigh'
p4063
I2
sS'joining'
p4064
I2
sS'sector'
p4065
I49
sS'thomas'
p4066
I2
sS'particularly'
p4067
I1
sS'obligations'
p4068
I4
sS'115/ads'
p4069
I1
sS'relation'
p4070
I3
sS'fino'
p4071
I3
sS'headlines'
p4072
I1
sS'reais.in'
p4073
I1
sS'fungible'
p4074
I4
sS'depended'
p4075
I2
sS'nervous'
p4076
I2
sS'unhappy'
p4077
I1
sS'generators'
p4078
I1
sS'8'
p4079
I10
sS'toronto'
p4080
I1
sS'product.a'
p4081
I1
sS'973,306.9'
p4082
I1
sS'cheaper'
p4083
I1
sS'batter'
p4084
I1
sS'breast'
p4085
I1
sS'theft'
p4086
I1
sS'merchandise'
p4087
I1
sS'303,284'
p4088
I1
sS'retuer'
p4089
I1
sS'remove'
p4090
I4
sS'garcia'
p4091
I8
sS'common'
p4092
I10
sS'hike'
p4093
I8
sS'acominas'
p4094
I6
sS'900,000'
p4095
I2
sS'individual'
p4096
I2
sS'tender'
p4097
I8
sS'year.cardoso'
p4098
I1
sS'feared'
p4099
I6
sS'aapril'
p4100
I1
sS'multiparty'
p4101
I1
sS'powerhouse'
p4102
I1
sS'9,820'
p4103
I1
sS'strenghten'
p4104
I1
sS'complementary'
p4105
I1
sS'intimidated'
p4106
I1
sS'143.22'
p4107
I1
sS'0358'
p4108
I4
sS'annual'
p4109
I4
sS'foreign'
p4110
I49
sS'mistrusted'
p4111
I3
sS'newsdesk'
p4112
I1
sS'kandir'
p4113
I5
sS'upgraded'
p4114
I1
sS'announcement.belgo'
p4115
I1
sS'supply'
p4116
I11
sS'prosecuting'
p4117
I1
sS'9,237'
p4118
I1
sS'ensures'
p4119
I1
sS'5.640'
p4120
I1
sS'raise'
p4121
I6
sS'2-1/2.decliners'
p4122
I1
sS'rates.official'
p4123
I1
sS'create'
p4124
I1
sS'million.the'
p4125
I1
sS'goncz'
p4126
I4
sS'said.the'
p4127
I44
sS'meeting'
p4128
I21
sS'4'
p4129
I28
sS'1.219'
p4130
I1
sS'12.22'
p4131
I1
sS'gas'
p4132
I8
sS'gap'
p4133
I9
sS'understand'
p4134
I1
sS'revolvers'
p4135
I1
sS'prices'
p4136
I27
sS'grains'
p4137
I15
sS'percent.paraibuna'
p4138
I1
sS'solid'
p4139
I1
sS'elections'
p4140
I1
sS'denominations'
p4141
I1
sS'ivorian'
p4142
I1
sS'portugal'
p4143
I1
sS'30-cent'
p4144
I1
sS'cents'
p4145
I11
sS'analysts.telebras'
p4146
I1
sS'unaffected'
p4147
I1
sS'217.19'
p4148
I1
sS'maneuverability'
p4149
I1
sS'corridor'
p4150
I1
sS'relatively'
p4151
I1
sS'development'
p4152
I9
sS'currencies'
p4153
I7
sS'humber'
p4154
I3
sS'leopard'
p4155
I1
sS'yesterday'
p4156
I3
sS'9.30/ads'
p4157
I1
sS'moment'
p4158
I11
sS'purpose'
p4159
I1
sS'aggregate'
p4160
I1
sS'added.regarding'
p4161
I1
sS'spent'
p4162
I2
sS'y'
p4163
I2
sS'entry'
p4164
I2
sS'spend'
p4165
I7
sS'preference'
p4166
I1
sS'openly'
p4167
I1
sS'bahian'
p4168
I1
sS'alternative'
p4169
I1
sS'alignment'
p4170
I1
sS'wage'
p4171
I1
sS'cut'
p4172
I12
sS'cup'
p4173
I9
sS'egypt'
p4174
I1
sS'cue'
p4175
I1
sS'lfg.cbot'
p4176
I1
sS'deliberately'
p4177
I1
sS'cum'
p4178
I1
sS'easter'
p4179
I1
sS'unloading'
p4180
I23
sS'bin'
p4181
I1
sS'manage'
p4182
I1
sS'25-31'
p4183
I1
sS'bid'
p4184
I8
sS'arrestedthe'
p4185
I1
sS'redeem'
p4186
I1
sS'foreigners'
p4187
I1
sS'39.44'
p4188
I3
sS'bit'
p4189
I1
sS'follows'
p4190
I3
sS'addressed'
p4191
I1
sS'surging'
p4192
I1
sS'depositary'
p4193
I4
sS'obliged'
p4194
I1
sS'inching'
p4195
I1
sS'delegation'
p4196
I4
sS'pricing'
p4197
I2
sS'sale.total'
p4198
I1
sS'16,30'
p4199
I2
sS'scale'
p4200
I1
sS'decision'
p4201
I21
sS'5561'
p4202
I18
sS'energia'
p4203
I2
sS'eliminate'
p4204
I3
sS'commentator'
p4205
I2
sS'300'
p4206
I6
sS'continuing'
p4207
I5
sS'305'
p4208
I1
sS'307'
p4209
I1
sS'hostages'
p4210
I3
sS'previousparana'
p4211
I4
sS'goods'
p4212
I6
sS'usa'
p4213
I1
sS'outcome.a'
p4214
I1
sS'40-percent'
p4215
I1
sS'count.usda'
p4216
I1
sS'beans'
p4217
I6
sS'martinez'
p4218
I1
sS'712,926.3'
p4219
I1
sS'bankruptcy'
p4220
I2
sS'said.human'
p4221
I1
sS'batons'
p4222
I1
sS'pharmaceuticals'
p4223
I1
sS'1.50'
p4224
I3
sS'1.57'
p4225
I1
sS'forward'
p4226
I3
sS'1.59'
p4227
I2
sS'reais.banco'
p4228
I1
sS'fax'
p4229
I3
sS'hoped'
p4230
I7
sS'serie'
p4231
I1
sS'hopes'
p4232
I6
sS'subsidiary'
p4233
I6
sS'role'
p4234
I2
sS'said.one'
p4235
I2
sS'exploration'
p4236
I1
sS'jumbo'
p4237
I1
sS'hydro'
p4238
I1
sS'comment.in'
p4239
I1
sS'cafu'
p4240
I1
sS'plus.mauro'
p4241
I1
sS'61.00'
p4242
I1
sS'consulted'
p4243
I1
sS'curb'
p4244
I1
sS'omens'
p4245
I1
sS'114.10'
p4246
I1
sS'1998.many'
p4247
I1
sS'thinks'
p4248
I1
sS'produtos'
p4249
I1
sS'favourite'
p4250
I1
sS'stoppage.stevedores'
p4251
I1
sS'prepared'
p4252
I3
sS'2.310'
p4253
I1
sS'0.00group'
p4254
I3
sS'stoppages'
p4255
I3
sS'desert'
p4256
I1
sS'overlooking'
p4257
I1
sS'vehicles'
p4258
I1
sS'bankers'
p4259
I1
sS'donadoni'
p4260
I1
sS'2000'
p4261
I1
sS'2007'
p4262
I1
sS'moniz'
p4263
I1
sS'dogged'
p4264
I1
sS'15,000'
p4265
I2
sS'15,001'
p4266
I1
sS'3.080'
p4267
I1
sS'year.producers'
p4268
I1
sS'reductions'
p4269
I1
sS'helps'
p4270
I1
sS'quarterly'
p4271
I2
sS'fatal'
p4272
I3
sS'nervousness'
p4273
I2
sS'unbeaten'
p4274
I1
sS'putting'
p4275
I2
sS'severely'
p4276
I1
sS'diverging'
p4277
I1
sS'bndespar'
p4278
I5
sS'association.stevedores'
p4279
I1
sS'22/18'
p4280
I6
sS'said.known'
p4281
I1
sS'crop'
p4282
I25
sS'pittance'
p4283
I1
sS'1.026'
p4284
I2
sS'chicago'
p4285
I2
sS'giving'
p4286
I2
sS'harvests'
p4287
I2
sS'profat'
p4288
I3
sS'body'
p4289
I1
sS'mauricio'
p4290
I4
sS'exchange'
p4291
I37
sS'1330'
p4292
I1
sS'jointly'
p4293
I2
sS'luiz'
p4294
I5
sS'luis'
p4295
I4
sS'mograbi'
p4296
I1
sS'soymeal'
p4297
I30
sS'widening'
p4298
I1
sS'term.among'
p4299
I1
sS'38'
p4300
I1
sS'33'
p4301
I2
sS'32'
p4302
I4
sS'31'
p4303
I7
sS'30'
p4304
I18
sS'cerj'
p4305
I2
sS'36'
p4306
I1
sS'35'
p4307
I2
sS'34'
p4308
I1
sS'principally'
p4309
I5
sS'31.finance'
p4310
I1
sS'nahum'
p4311
I4
sS'presidents'
p4312
I4
sS'private'
p4313
I57
sS'decrease'
p4314
I2
sS'particpate'
p4315
I1
sS'scandal'
p4316
I5
sS'lima'
p4317
I1
sS'gateway'
p4318
I1
sS'hammered'
p4319
I1
sS'102,745'
p4320
I3
sS'oils'
p4321
I3
sS'fundacao'
p4322
I1
sS'bradesco'
p4323
I13
sS'iis'
p4324
I2
sS'tax'
p4325
I6
sS'trail'
p4326
I2
sS'2,250'
p4327
I1
sS'siderurgia'
p4328
I1
sS'harvest'
p4329
I12
sS'subscription'
p4330
I18
sS'gerais'
p4331
I12
sS'account'
p4332
I6
sS'f'
p4333
I2
sS'20-1'
p4334
I1
sS'gabriel'
p4335
I2
sS'brazil.s'
p4336
I1
sS'closing'
p4337
I5
sS'sunday.barrichello'
p4338
I1
sS'effectively'
p4339
I6
sS'15.46'
p4340
I1
sS'redenomination'
p4341
I1
sS'varied'
p4342
I1
sS'democracy'
p4343
I1
sS'holds'
p4344
I3
sS'regions'
p4345
I3
sS'8,920'
p4346
I1
sS'55.00'
p4347
I1
sS'future.in'
p4348
I1
sS'said.but'
p4349
I1
sS'stock'
p4350
I43
sS'profile'
p4351
I2
sS'august.jasmin'
p4352
I1
sS'waters'
p4353
I2
sS'factored'
p4354
I1
sS'romario'
p4355
I3
sS'inss'
p4356
I3
sS'chasing'
p4357
I1
sS'948'
p4358
I1
sS'helissio'
p4359
I1
sS'945'
p4360
I1
sS'lines'
p4361
I6
sS'940'
p4362
I1
sS'chief'
p4363
I7
sS'paulista'
p4364
I14
sS'16,360'
p4365
I1
sS'austrian'
p4366
I3
sS'80,141'
p4367
I1
sS'industries'
p4368
I4
sS'revived'
p4369
I1
sS'le'
p4370
I1
sS'lb'
p4371
I8
sS'la'
p4372
I5
sS'300,000'
p4373
I2
sS'lm'
p4374
I1
sS'tsb'
p4375
I2
sS'labor'
p4376
I5
sS'whites'
p4377
I1
sS'blatant'
p4378
I1
sS'revives'
p4379
I1
sS'377.4'
p4380
I1
sS'dunga'
p4381
I1
sS'377.1'
p4382
I1
sS'greater'
p4383
I2
sS'69.3'
p4384
I1
sS'spell'
p4385
I1
sS'cutting'
p4386
I3
sS'night.the'
p4387
I1
sS'day'
p4388
I40
sS'february'
p4389
I27
sS'warned'
p4390
I1
sS'identified'
p4391
I6
sS'berliner'
p4392
I2
sS'meal.trucks'
p4393
I1
sS'47,598'
p4394
I1
sS'1.095'
p4395
I1
sS'3,000'
p4396
I1
sS'causes.the'
p4397
I1
sS'day.the'
p4398
I2
sS'27,000'
p4399
I2
sS'3exports'
p4400
I1
sS'millionnote'
p4401
I4
sS'pitta'
p4402
I5
sS'gomez'
p4403
I2
sS'4,540'
p4404
I1
sS'announces'
p4405
I1
sS'36-1/4.decliners'
p4406
I1
sS'381.8'
p4407
I1
sS'announced'
p4408
I27
sS'franc'
p4409
I2
sS'released.the'
p4410
I1
sS'approached'
p4411
I2
sS'payroll'
p4412
I3
sS'12.30/ads'
p4413
I1
sS'afterward'
p4414
I1
sS'receipts'
p4415
I24
sS'4,720'
p4416
I1
sS'chiefs'
p4417
I2
sS'backwards'
p4418
I1
sS'allies'
p4419
I1
sS'1.630'
p4420
I1
sS'deprived'
p4421
I1
sS'hinting'
p4422
I1
sS'marcelo'
p4423
I4
sS'allied'
p4424
I5
sS'term.the'
p4425
I1
sS'barriers'
p4426
I2
sS'retail'
p4427
I10
sS'8-1'
p4428
I1
sS'south'
p4429
I17
sS'16,50'
p4430
I1
sS'2,000'
p4431
I2
sS'2,005'
p4432
I1
sS'strategic'
p4433
I1
sS'improvements'
p4434
I1
sS'reached'
p4435
I14
sS'bijou'
p4436
I1
sS'away.on'
p4437
I1
sS'5542'
p4438
I1
sS'unspecified'
p4439
I3
sS'hikestocks'
p4440
I1
sS'biochem'
p4441
I2
sS'completed'
p4442
I2
sS'brazilian'
p4443
I185
sS'hernan'
p4444
I1
sS'sporadically'
p4445
I2
sS'port.they'
p4446
I1
sS'petrobras'
p4447
I4
sS'textiles.carvalho'
p4448
I1
sS'asean'
p4449
I2
sS'sweden'
p4450
I1
sS'crimesao'
p4451
I1
sS'watch.congressional'
p4452
I1
sS'visited'
p4453
I2
sS'february.uruguay'
p4454
I1
sS'24-30'
p4455
I2
sS'local/1200'
p4456
I1
sS'comfortable'
p4457
I1
sS'tide'
p4458
I2
sS'8,260'
p4459
I1
sS'unlikely'
p4460
I4
sS'itamar'
p4461
I3
sS'apparently'
p4462
I1
sS'abelardo'
p4463
I2
sS'tomaso'
p4464
I1
sS'7,700'
p4465
I1
sS'mid'
p4466
I1
sS'incentive'
p4467
I1
sS'322'
p4468
I1
sS'oliveira'
p4469
I1
sS'320'
p4470
I1
sS'concerns'
p4471
I3
sS'1.30'
p4472
I1
sS'uruguaiana'
p4473
I1
sS'1.35'
p4474
I1
sS'1.36'
p4475
I1
sS'hazel'
p4476
I1
sS'representatives.they'
p4477
I1
sS'tapia'
p4478
I1
sS'preliminary'
p4479
I9
sS'prisoner'
p4480
I1
sS'payment'
p4481
I2
sS'rain.the'
p4482
I1
sS'sheba'
p4483
I1
sS'request'
p4484
I6
sS'1,000'
p4485
I3
sS'occasion'
p4486
I1
sS'eurobonds'
p4487
I5
sS'normally'
p4488
I10
sS'catalina'
p4489
I1
sS'abitrigo'
p4490
I7
sS'text'
p4491
I4
sS'supported'
p4492
I2
sS'officerstwo'
p4493
I1
sS'post.then'
p4494
I1
sS'portfolio'
p4495
I2
sS'staff'
p4496
I4
sS'port.antonio'
p4497
I1
sS'hydroelectric'
p4498
I1
sS'saci.garcia'
p4499
I1
sS'570'
p4500
I1
sS'114,463'
p4501
I1
sS'inferior'
p4502
I1
sS'pitfall'
p4503
I1
sS'beat'
p4504
I7
sS'369'
p4505
I1
sS'bags.april'
p4506
I1
sS'bear'
p4507
I3
sS'accrue'
p4508
I1
sS'bean'
p4509
I4
sS'drawn'
p4510
I3
sS'added.stevedores'
p4511
I2
sS'passions.bolivia'
p4512
I1
sS'areas'
p4513
I10
sS'teams'
p4514
I4
sS'pulses'
p4515
I1
sS'fixed'
p4516
I2
sS'54.00'
p4517
I4
sS'31,000'
p4518
I1
sS'grossa'
p4519
I8
sS'enhanced'
p4520
I1
sS'racket'
p4521
I2
sS'statement.because'
p4522
I1
sS'5-25'
p4523
I1
sS'reform'
p4524
I35
sS'fator'
p4525
I2
sS'difficulties'
p4526
I1
sS'progress'
p4527
I9
sS'colombian'
p4528
I1
sS'abuses'
p4529
I4
sS'instant'
p4530
I2
sS'taking'
p4531
I12
sS'equal'
p4532
I2
sS'attributed'
p4533
I2
sS'agree'
p4534
I1
sS'9/6'
p4535
I2
sS'highland'
p4536
I1
sS'comment'
p4537
I5
sS'caverni'
p4538
I9
sS'gulf.brazilian'
p4539
I1
sS'offering.telebras'
p4540
I1
sS'wednesday.presidency'
p4541
I1
sS'punished.the'
p4542
I1
sS'define'
p4543
I3
sS'juggler'
p4544
I1
sS'juninho'
p4545
I1
sS'rincon'
p4546
I1
sS'460'
p4547
I1
sS'finished'
p4548
I1
sS'festival.over'
p4549
I1
sS'multi'
p4550
I6
sS'stadium.inspired'
p4551
I1
sS'7-2'
p4552
I2
sS'2,090'
p4553
I1
sS'value'
p4554
I7
sS'2485418'
p4555
I3
sS'reais'
p4556
I126
sS'118.04'
p4557
I1
sS'2485412'
p4558
I18
sS'schneider.it'
p4559
I1
sS'overcapitalized'
p4560
I1
sS'helped'
p4561
I6
sS'claimed'
p4562
I1
sS'partner'
p4563
I3
sS'42.00'
p4564
I2
sS'productivity'
p4565
I4
sS'flour'
p4566
I2
sS'systems.sao'
p4567
I1
sS'injured'
p4568
I2
sS'tighten'
p4569
I1
sS'214.83'
p4570
I1
sS'massari'
p4571
I1
sS'padovani'
p4572
I2
sS'rules.brazil'
p4573
I1
sS'tighter'
p4574
I1
sS'40.00'
p4575
I2
sS'center'
p4576
I3
sS'16.60'
p4577
I1
sS'antonio'
p4578
I7
sS'thought'
p4579
I8
sS'position'
p4580
I4
sS'arising'
p4581
I2
sS'usual'
p4582
I2
sS'executive'
p4583
I5
sS'domestic'
p4584
I26
sS'suscription'
p4585
I1
sS'interim'
p4586
I2
sS'adr'
p4587
I5
sS'paulo.u.s'
p4588
I1
sS'gmt.the'
p4589
I1
sS'opportunities.bilateral'
p4590
I1
sS'match'
p4591
I2
sS'gmt'
p4592
I35
sS'resolved'
p4593
I4
sS'erivelto'
p4594
I1
sS'resolves'
p4595
I1
sS'dubai'
p4596
I4
sS'like'
p4597
I7
sS'success'
p4598
I1
sS'59,126'
p4599
I3
sS'italian'
p4600
I3
sS'paulina'
p4601
I1
sS'port.the'
p4602
I7
sS'authority'
p4603
I17
sS'recommendation'
p4604
I4
sS'happens'
p4605
I2
sS'highlighting'
p4606
I1
sS'process.at'
p4607
I1
sS'0.24'
p4608
I1
sS'0.26'
p4609
I1
sS'pisco'
p4610
I1
sS'0.21'
p4611
I1
sS'0.22'
p4612
I1
sS'shelter'
p4613
I1
sS'assuming'
p4614
I1
sS'slight'
p4615
I3
sS'panez'
p4616
I2
sS'host'
p4617
I2
sS'somar'
p4618
I1
sS'223-0358'
p4619
I1
sS'panel'
p4620
I3
sS'actual'
p4621
I2
sS'withdrew'
p4622
I1
sS'introduced'
p4623
I8
sS'localised'
p4624
I1
sS'chronic'
p4625
I1
sS'guard'
p4626
I1
sS'gazeta'
p4627
I7
sS'midfielder'
p4628
I4
sS'1986'
p4629
I1
sS'1985'
p4630
I1
sS'rushed'
p4631
I2
sS'stainless'
p4632
I2
sS'recently.the'
p4633
I1
sS'1988'
p4634
I2
sS'1989'
p4635
I4
sS'4.037'
p4636
I1
sS'705'
p4637
I1
sS'biggest'
p4638
I6
sS'gama.the'
p4639
I1
sS'ivory'
p4640
I1
sS'buy'
p4641
I30
sS'month.or'
p4642
I2
sS'tuesday.franco'
p4643
I1
sS'brand'
p4644
I1
sS'items.the'
p4645
I1
sS'febrabanroberto'
p4646
I1
sS'repeated'
p4647
I1
sS'756,400'
p4648
I1
sS'8.29'
p4649
I1
sS'partially'
p4650
I3
sS'8/7'
p4651
I1
sS'8/5'
p4652
I2
sS'wish'
p4653
I1
sS'friday.unions'
p4654
I1
sS'minutes'
p4655
I3
sS'pih'
p4656
I3
sS'supreme'
p4657
I7
sS'time.he'
p4658
I1
sS'pio'
p4659
I3
sS'exceeded'
p4660
I2
sS'5521'
p4661
I37
sS'periods'
p4662
I1
sS'sul.incobrasa'
p4663
I1
sS'paraguay'
p4664
I6
sS'collier'
p4665
I1
sS'pis'
p4666
I1
sS'pit'
p4667
I2
sS'48'
p4668
I7
sS'prates'
p4669
I1
sS'conillons'
p4670
I2
sS'44'
p4671
I3
sS'45'
p4672
I13
sS'42'
p4673
I1
sS'43'
p4674
I2
sS'40'
p4675
I6
sS'nelson'
p4676
I2
sS'triomphe'
p4677
I1
sS'269,000'
p4678
I1
sS'allow.santos'
p4679
I1
sS'5.guido'
p4680
I1
sS'hikes'
p4681
I1
sS'deal.private'
p4682
I1
sS'8th'
p4683
I1
sS'limited'
p4684
I5
sS'facilities'
p4685
I3
sS'evermore'
p4686
I1
sS'poorly'
p4687
I1
sS'1.14'
p4688
I3
sS'violate'
p4689
I1
sS'1.11'
p4690
I2
sS'paris'
p4691
I2
sS'today.caroline'
p4692
I1
sS'342'
p4693
I1
sS'348'
p4694
I1
sS'risk'
p4695
I17
sS'rise'
p4696
I25
sS'sold.nahum'
p4697
I1
sS'school'
p4698
I6
sS'system.financial'
p4699
I1
sS'venue'
p4700
I1
sS'barracks'
p4701
I2
sS'enjoy'
p4702
I1
sS'leaders'
p4703
I4
sS'estimates'
p4704
I12
sS'direct'
p4705
I5
sS'surrounding'
p4706
I1
sS'street'
p4707
I9
sS'parter'
p4708
I1
sS'estimated'
p4709
I6
sS'shining'
p4710
I1
sS'blue'
p4711
I1
sS'wellcome'
p4712
I1
sS'selected'
p4713
I4
sS'profitability'
p4714
I6
sS'supplied'
p4715
I6
sS'children'
p4716
I3
sS'conduct'
p4717
I9
sS'supplier'
p4718
I1
sS'seeks'
p4719
I1
sS'hundreds'
p4720
I4
sS'mentese'
p4721
I1
sS'said.goncz'
p4722
I1
sS'forum'
p4723
I1
sS'auction'
p4724
I34
sS'changed'
p4725
I4
sS'11,684'
p4726
I1
sS'analysts'
p4727
I27
sS'stipulated'
p4728
I1
sS'changes'
p4729
I8
sS'vandersteel'
p4730
I2
sS'issuers'
p4731
I1
sS'offs'
p4732
I1
sS'stray'
p4733
I2
sS'54.20'
p4734
I1
sS'microalloyed'
p4735
I2
sS'hospital'
p4736
I1
sS'tenders'
p4737
I1
sS'noting'
p4738
I4
sS'bbcs'
p4739
I1
sS'assessment'
p4740
I1
sS'garca'
p4741
I2
sS'phone'
p4742
I3
sS'tampa'
p4743
I1
sS'join'
p4744
I11
sS'mn'
p4745
I13
sS'carmen'
p4746
I1
sS'deputies.franco'
p4747
I1
sS'horizonte'
p4748
I2
sS'attract'
p4749
I1
sS'guarantee'
p4750
I2
sS'end'
p4751
I29
sS'accusations'
p4752
I1
sS'siderurgica'
p4753
I15
sS'widespread'
p4754
I3
sS'demanding'
p4755
I1
sS'parallel'
p4756
I15
sS'provisionally'
p4757
I1
sS'7/8'
p4758
I4
sS'amid'
p4759
I7
sS'4-1/4'
p4760
I1
sS'upside'
p4761
I2
sS'enter'
p4762
I1
sS'untold'
p4763
I1
sS'8.earlier'
p4764
I1
sS'expects'
p4765
I9
sS'london'
p4766
I4
sS'2,479'
p4767
I1
sS'expectations'
p4768
I5
sS'400'
p4769
I7
sS'whips'
p4770
I2
sS'millionsurplus'
p4771
I2
sS'iowa'
p4772
I1
sS'9.42'
p4773
I1
sS'prevented'
p4774
I1
sS'country.the'
p4775
I1
sS'16.46'
p4776
I1
sS'said.an'
p4777
I1
sS'tourism'
p4778
I1
sS'30-year'
p4779
I2
sS'bosnia'
p4780
I1
sS'affiliate'
p4781
I1
sS'victory'
p4782
I1
sS'fonte'
p4783
I1
sS'signing'
p4784
I1
sS'ghosts'
p4785
I1
sS'3.826'
p4786
I1
sS'saturday'
p4787
I9
sS'driving'
p4788
I2
sS'got'
p4789
I1
sS'frei'
p4790
I2
sS'perception'
p4791
I4
sS'associate'
p4792
I4
sS'free'
p4793
I5
sS'restrictions.chile'
p4794
I1
sS'counterparts'
p4795
I1
sS'boosting'
p4796
I2
sS'soymeal.note'
p4797
I1
sS'wanted'
p4798
I1
sS'days'
p4799
I18
sS'syndication'
p4800
I5
sS'industrial'
p4801
I4
sS'primary'
p4802
I10
sS'rank'
p4803
I1
sS'relations'
p4804
I1
sS'0.08'
p4805
I2
sS'toy'
p4806
I1
sS'performance.earlier'
p4807
I1
sS'0.03'
p4808
I2
sS'0.01'
p4809
I1
sS'0.06'
p4810
I1
sS'0.05'
p4811
I4
sS'confirming'
p4812
I1
sS'combats'
p4813
I1
sS'percentage'
p4814
I2
sS'toe'
p4815
I1
sS'urban'
p4816
I2
sS'ceiling'
p4817
I20
sS'reproted.furnas'
p4818
I1
sS'centered'
p4819
I1
sS'tool'
p4820
I5
sS'serve'
p4821
I1
sS'took'
p4822
I7
sS'negotiating'
p4823
I5
sS'clerot'
p4824
I1
sS'western'
p4825
I1
sS'118.9'
p4826
I1
sS'scenario'
p4827
I1
sS'final'
p4828
I10
sS'18.0'
p4829
I1
sS'talking'
p4830
I2
sS'regulate'
p4831
I1
sS'seminar'
p4832
I5
sS'370,272.3'
p4833
I1
sS'traditionally'
p4834
I1
sS'isolated'
p4835
I1
sS'thorough'
p4836
I1
sS'upholding'
p4837
I1
sS'92.54'
p4838
I1
sS'capitalization'
p4839
I1
sS'8.00'
p4840
I7
sS'plenty'
p4841
I1
sS'companhia'
p4842
I24
sS'metal'
p4843
I2
sS'orderly'
p4844
I1
sS'reflecting'
p4845
I1
sS'yann'
p4846
I1
sS'kotowice'
p4847
I3
sS'arousing'
p4848
I1
sS'contacted'
p4849
I1
sS'saga'
p4850
I1
sS'radio'
p4851
I2
sS'solutions'
p4852
I1
sS'bail'
p4853
I1
sS'punished.sao'
p4854
I1
sS'19,781'
p4855
I1
sS'minnesota'
p4856
I1
sS'commence'
p4857
I1
sS'approval.goldman'
p4858
I1
sS'disgust'
p4859
I1
sS'announce'
p4860
I8
sS'bornhausen'
p4861
I1
sS'wednesday.dealers'
p4862
I1
sS'watch'
p4863
I3
sS'muncipalities.the'
p4864
I1
sS'amazon'
p4865
I4
sS'hand.one'
p4866
I1
sS'borrower'
p4867
I1
sS'despite'
p4868
I4
sS'report'
p4869
I23
sS'countries'
p4870
I16
sS'hectare.cardoso'
p4871
I1
sS'twice'
p4872
I5
sS'mergers'
p4873
I1
sS'zamorano'
p4874
I2
sS'house.differences'
p4875
I1
sS'resigning'
p4876
I1
sS'corrupt'
p4877
I1
sS'capacity'
p4878
I4
sS'144.20'
p4879
I1
sS'repudiation.call'
p4880
I1
sS'hopefully'
p4881
I1
sS'approach'
p4882
I2
sS'360'
p4883
I1
sS'discovery'
p4884
I1
sS'reiterate'
p4885
I1
sS'adding'
p4886
I8
sS'said.stevedores'
p4887
I1
sS'news'
p4888
I24
sS'improve'
p4889
I5
sS'faced'
p4890
I3
sS'protect'
p4891
I2
sS'favourable'
p4892
I1
sS'participating'
p4893
I5
sS'players'
p4894
I7
sS'games'
p4895
I9
sS'faces'
p4896
I1
sS'standings'
p4897
I1
sS'revenue.of'
p4898
I1
sS'betting'
p4899
I1
sS'anyway.cesar'
p4900
I1
sS'bank.the'
p4901
I1
sS'stoppage.the'
p4902
I1
sS'conference'
p4903
I7
sS'warehouses'
p4904
I2
sS'73.02'
p4905
I1
sS'docked.in'
p4906
I1
sS'quickly'
p4907
I2
sS'confident'
p4908
I1
sS'belongs'
p4909
I1
sS'expected'
p4910
I89
sS'guilty.globo'
p4911
I1
sS'1996.bankruptcy'
p4912
I1
sS'containers'
p4913
I1
sS'drugs'
p4914
I2
sS'1.8'
p4915
I2
sS'115.70'
p4916
I1
sS'commission.asked'
p4917
I1
sS'heartland'
p4918
I1
sS'carryout'
p4919
I2
sS'n'
p4920
I2
sS'lesser'
p4921
I3
sS'erratically'
p4922
I1
sS'513-member'
p4923
I1
sS'ymos'
p4924
I1
sS'expenses'
p4925
I2
sS'brutal'
p4926
I1
sS'local/1600'
p4927
I1
sS'suggest'
p4928
I1
sS'advances'
p4929
I3
sS'leftist'
p4930
I1
sS'social'
p4931
I7
sS'greeted'
p4932
I1
sS'suburb'
p4933
I1
sS'acominas.belgo'
p4934
I1
sS'cycle'
p4935
I2
sS'climate'
p4936
I1
sS'shortly'
p4937
I1
sS'faustino'
p4938
I1
sS'paralysed'
p4939
I2
sS'ocean'
p4940
I2
sS'alimentos'
p4941
I4
sS'154,014'
p4942
I1
sS'seasonal'
p4943
I2
sS'breakdown.dollar'
p4944
I3
sS'proposed'
p4945
I11
sS'unemployment'
p4946
I4
sS'purchasing'
p4947
I2
sS'carandiru'
p4948
I2
sS'said.states'
p4949
I1
sS'groups.ten'
p4950
I1
sS'exempting'
p4951
I2
sS'respectively.the'
p4952
I1
sS'advanced'
p4953
I3
sS'gave'
p4954
I3
sS'herszkowicz'
p4955
I4
sS'bands'
p4956
I1
sS'judge'
p4957
I2
sS'rumor'
p4958
I1
sS'apart'
p4959
I2
sS'appearing'
p4960
I1
sS'58'
p4961
I1
sS'55'
p4962
I24
sS'54'
p4963
I4
sS'57'
p4964
I1
sS'56'
p4965
I1
sS'orlando'
p4966
I1
sS'50'
p4967
I13
sS'52'
p4968
I1
sS'specific'
p4969
I1
sS'officer'
p4970
I5
sS'182.5'
p4971
I1
sS'hunt'
p4972
I2
sS'51'
p4973
I3
sS'malaysia'
p4974
I1
sS'clubs'
p4975
I1
sS'meters'
p4976
I1
sS'election'
p4977
I5
sS'escape'
p4978
I2
sS'contests'
p4979
I1
sS'exhausts'
p4980
I1
sS'421'
p4981
I1
sS'core'
p4982
I1
sS'9.25'
p4983
I2
sS'dropped'
p4984
I10
sS'corn'
p4985
I2
sS'mlnbrazil'
p4986
I1
sS'discount'
p4987
I3
sS'stoppages.an'
p4988
I1
sS'corp'
p4989
I11
sS'permitted'
p4990
I1
sS'schulman'
p4991
I1
sS'plug'
p4992
I1
sS'attacks'
p4993
I1
sS'dinner'
p4994
I1
sS'plus'
p4995
I4
sS'efforts'
p4996
I2
sS'out.combined'
p4997
I1
sS'presence'
p4998
I5
sS'civil'
p4999
I22
sS'obtaining'
p5000
I3
sS'1,430'
p5001
I1
sS'307.60'
p5002
I1
sS'dreyfus'
p5003
I4
sS'nunez'
p5004
I1
sS'interview.he'
p5005
I1
sS'0.87'
p5006
I1
sS'head'
p5007
I14
sS'medium'
p5008
I4
sS'amateur'
p5009
I4
sS'wireless'
p5010
I1
sS'laurent'
p5011
I3
sS'june.rules'
p5012
I1
sS'1997.zinc'
p5013
I1
sS'transfers.debts'
p5014
I1
sS'bids'
p5015
I5
sS'ibope'
p5016
I3
sS'said.endesa'
p5017
I1
sS'penal'
p5018
I1
sS'trio'
p5019
I1
sS'9,410'
p5020
I1
sS'peres'
p5021
I1
sS'0.62'
p5022
I2
sS'sold.closing'
p5023
I1
sS'telecoms'
p5024
I4
sS'simulations'
p5025
I1
sS'trip'
p5026
I4
sS'gap.the'
p5027
I1
sS'nb'
p5028
I3
sS'setting'
p5029
I6
sS'papers'
p5030
I2
sS'152.17'
p5031
I1
sS'reconsider'
p5032
I2
sS'rapeseed'
p5033
I1
sS'meeting.the'
p5034
I1
sS'longer'
p5035
I1
sS'bullet'
p5036
I2
sS'78,871'
p5037
I1
sS'paralyzed.of'
p5038
I1
sS'said.civil'
p5039
I1
sS'60.50'
p5040
I1
sS'coach'
p5041
I4
sS'brokerages'
p5042
I1
sS'particular'
p5043
I1
sS'alternatives'
p5044
I2
sS'focus'
p5045
I2
sS'clarification'
p5046
I1
sS'modiano'
p5047
I1
sS'environment'
p5048
I1
sS'charge'
p5049
I9
sS'quash'
p5050
I2
sS'18/15'
p5051
I1
sS'18/16'
p5052
I1
sS'federation'
p5053
I20
sS'advantage'
p5054
I7
sS'boxes.the'
p5055
I1
sS'8.65'
p5056
I1
sS'denounced'
p5057
I1
sS'205.77'
p5058
I1
sS'level'
p5059
I27
sS'posts'
p5060
I1
sS'way.the'
p5061
I1
sS'408-8787'
p5062
I1
sS'quick'
p5063
I1
sS'55.4'
p5064
I1
sS'55.5'
p5065
I1
sS'fundsa'
p5066
I1
sS'says'
p5067
I1
sS'tougher'
p5068
I3
sS'trend'
p5069
I3
sS'roadshow'
p5070
I1
sS'injunction'
p5071
I3
sS'mid-1996'
p5072
I1
sS'inland'
p5073
I3
sS'port'
p5074
I100
sS'constitution'
p5075
I4
sS'contracted'
p5076
I2
sS'barros.the'
p5077
I1
sS'goes'
p5078
I2
sS'reply'
p5079
I1
sS'soybeans.he'
p5080
I1
sS'water'
p5081
I1
sS'filmed'
p5082
I4
sS'groups'
p5083
I10
sS'6-1'
p5084
I2
sS'healthy'
p5085
I1
sS'rethink'
p5086
I1
sS'guilty'
p5087
I2
sS'services.in'
p5088
I1
sS'hilon'
p5089
I3
sS'said.telebras'
p5090
I2
sS'soybeans'
p5091
I55
sS'morale'
p5092
I1
sS'144.00'
p5093
I1
sS'paralyzed'
p5094
I3
sS'hukoto'
p5095
I1
sS'scam'
p5096
I4
sS'crisis'
p5097
I1
sS'handles'
p5098
I1
sS'criteria'
p5099
I1
sS'australian'
p5100
I1
sS'prev'
p5101
I11
sS'today'
p5102
I42
sS'timesnational'
p5103
I1
sS'200.1'
p5104
I1
sS'garantia'
p5105
I1
sS'rioa'
p5106
I1
sS'cases'
p5107
I3
sS'tribunal'
p5108
I6
sS'ceee'
p5109
I2
sS'thousands'
p5110
I1
sS'producers.currently'
p5111
I1
sS'numbers'
p5112
I4
sS'figure'
p5113
I9
sS'isstill'
p5114
I1
sS'performed'
p5115
I1
sS'available.loading'
p5116
I1
sS'qualifiers'
p5117
I1
sS'andrade'
p5118
I1
sS'swedish'
p5119
I2
sS'mismanagement'
p5120
I1
sS'1'
p5121
I8
sS'357'
p5122
I1
sS'fourth'
p5123
I3
sS'ensure'
p5124
I2
sS'subsidiaries'
p5125
I6
sS'information'
p5126
I6
sS'importsunder'
p5127
I1
sS'motorists'
p5128
I1
sS'16,80safras'
p5129
I1
sS'available.aes'
p5130
I1
sS'suplus'
p5131
I1
sS'eighth'
p5132
I2
sS'branches'
p5133
I5
sS'drained'
p5134
I1
sS'summoning'
p5135
I2
sS'vanadium'
p5136
I1
sS'115.10'
p5137
I2
sS'1998.motta'
p5138
I1
sS'inform'
p5139
I1
sS'branched'
p5140
I1
sS'hilltop'
p5141
I2
sS'undervalued'
p5142
I1
sS'mainly'
p5143
I3
sS'128'
p5144
I1
sS'15,88rio'
p5145
I1
sS'rebalancing'
p5146
I4
sS'ebitda'
p5147
I1
sS'28/25'
p5148
I2
sS'organisation'
p5149
I2
sS'platform'
p5150
I2
sS'offers'
p5151
I1
sS'may.but'
p5152
I2
sS'happened'
p5153
I1
sS'banerj'
p5154
I1
sS'processes'
p5155
I1
sS'baremboim'
p5156
I1
sS'qualified'
p5157
I5
sS'term'
p5158
I14
sS'molybdenum'
p5159
I2
sS'stabilize'
p5160
I1
sS'opera'
p5161
I11
sS'realistic'
p5162
I1
sS'stjepov'
p5163
I2
sS'schroder'
p5164
I1
sS'weighted'
p5165
I1
sS'populated'
p5166
I1
sS'benito'
p5167
I4
sS'begun'
p5168
I1
sS'distributor'
p5169
I1
sS'plans'
p5170
I19
sS'florida.the'
p5171
I1
sS'profit'
p5172
I7
sS'privatizations'
p5173
I5
sS'celso'
p5174
I2
sS'factory'
p5175
I1
sS'attended'
p5176
I2
sS'months.even'
p5177
I1
sS'queries'
p5178
I1
sS'flyer'
p5179
I1
sS'saturday.the'
p5180
I1
sS'flare'
p5181
I1
sS'impose'
p5182
I1
sS'turn'
p5183
I4
sS'place'
p5184
I11
sS'14,616.7'
p5185
I1
sS'245,494'
p5186
I1
sS'1000'
p5187
I3
sS'origin'
p5188
I5
sS'merrill'
p5189
I1
sS'revenue'
p5190
I9
sS'terminal.road'
p5191
I1
sS'george'
p5192
I2
sS'given'
p5193
I7
sS'necessarily'
p5194
I1
sS'2.949'
p5195
I1
sS'plastic'
p5196
I1
sS'panel.if'
p5197
I2
sS'white'
p5198
I8
sS'gives'
p5199
I1
sS'55-11-2485418'
p5200
I4
sS'copa'
p5201
I1
sS'16.80'
p5202
I1
sS'releases'
p5203
I1
sS'9.00'
p5204
I1
sS'28.8'
p5205
I1
sS'released'
p5206
I8
sS'huw'
p5207
I1
sS'holder'
p5208
I1
sS'said.financial'
p5209
I1
sS'population'
p5210
I2
sS'wide'
p5211
I1
sS'nathan'
p5212
I2
sS'spokeswoman'
p5213
I33
sS'r'
p5214
I20
sS'year.it'
p5215
I1
sS'cards'
p5216
I2
sS'pre'
p5217
I2
sS'prostitution'
p5218
I5
sS'dryness'
p5219
I1
sS'marathon'
p5220
I1
sS'conversion'
p5221
I1
sS'gustavo'
p5222
I1
sS'ideas'
p5223
I2
sS'malta'
p5224
I1
sS'estimated.cbmm'
p5225
I1
sS'31-year'
p5226
I2
sS'storm.the'
p5227
I1
sS'sure'
p5228
I2
sS'holders.like'
p5229
I1
sS'falls'
p5230
I1
sS'cleared'
p5231
I1
sS'underperformance'
p5232
I1
sS'considered'
p5233
I10
sS'later'
p5234
I24
sS'10.85'
p5235
I1
sS'senior'
p5236
I4
sS'perch'
p5237
I1
sS'16,46rio'
p5238
I1
sS'allegations'
p5239
I2
sS'brix'
p5240
I1
sS'mexican'
p5241
I1
sS'0.44'
p5242
I2
sS'0.40'
p5243
I2
sS'119,547'
p5244
I1
sS'132.90'
p5245
I2
sS'gulf'
p5246
I3
sS'said.american'
p5247
I1
sS'crime'
p5248
I6
sS'1,677'
p5249
I1
sS'wetting'
p5250
I1
sS'expectation'
p5251
I1
sS'recently.that'
p5252
I1
sS'trade'
p5253
I65
sS'closure'
p5254
I1
sS'reveal'
p5255
I1
sS'caemi'
p5256
I4
sS'outperform'
p5257
I1
sS'embassy'
p5258
I1
sS'predicted'
p5259
I4
sS'discussing'
p5260
I3
sS'closures'
p5261
I1
sS'connections'
p5262
I1
sS'debt.federally'
p5263
I1
sS'32,723'
p5264
I1
sS'slashing'
p5265
I1
sS'31/03/97'
p5266
I4
sS'stanley'
p5267
I2
sS'ambrosio.of'
p5268
I1
sS'federal'
p5269
I20
sS'review'
p5270
I1
sS'definite'
p5271
I1
sS'weapons'
p5272
I2
sS'outside'
p5273
I3
sS'flemensfirth'
p5274
I1
sS'saying.most'
p5275
I1
sS'cantered'
p5276
I1
sS'arrival'
p5277
I1
sS'off.analysts'
p5278
I1
sS'8.41'
p5279
I1
sS'queueing'
p5280
I1
sS'flow'
p5281
I4
sS'cities'
p5282
I7
sS'come'
p5283
I12
sS'acquiring'
p5284
I2
sS'dario'
p5285
I1
sS'region'
p5286
I10
sS'contract'
p5287
I14
sS'prompted'
p5288
I2
sS'senator'
p5289
I3
sS'forecaster'
p5290
I2
sS'debts.a'
p5291
I1
sS'period'
p5292
I35
sS'60'
p5293
I9
sS'61'
p5294
I4
sS'pole'
p5295
I1
sS'werner'
p5296
I1
sS'colon'
p5297
I1
sS'65'
p5298
I4
sS'66'
p5299
I1
sS'approval'
p5300
I5
sS'poll'
p5301
I11
sS'auctions.now'
p5302
I2
sS'swift'
p5303
I1
sS'undervalued.the'
p5304
I1
sS'abiove'
p5305
I1
sS'subscriber'
p5306
I1
sS'suspended.third'
p5307
I1
sS'zagallo'
p5308
I1
sS'helicopter'
p5309
I1
sS'hardly'
p5310
I1
sS'503'
p5311
I1
sS'500'
p5312
I5
sS'robbed'
p5313
I1
sS'blessing'
p5314
I1
sS'andrew'
p5315
I1
sS'minister'
p5316
I44
sS'tonnes.in'
p5317
I1
sS'spirit'
p5318
I1
sS'paying'
p5319
I3
sS'0.60'
p5320
I1
sS'covas'
p5321
I6
sS'cash'
p5322
I7
sS'leal.brazil'
p5323
I1
sS'gilberto'
p5324
I1
sS'78.93'
p5325
I1
sS'0.66'
p5326
I1
sS'coupled'
p5327
I1
sS'telephone'
p5328
I20
sS'telephony'
p5329
I2
sS'granted'
p5330
I3
sS'7.00'
p5331
I1
sS'locking'
p5332
I1
sS'check'
p5333
I4
sS'buys'
p5334
I1
sS'week'
p5335
I41
sS'driver'
p5336
I2
sS'director'
p5337
I9
sS'macroeconomic'
p5338
I1
sS'changing'
p5339
I3
sS'amarch'
p5340
I1
sS'aldair'
p5341
I1
sS'4151'
p5342
I9
sS'1,080'
p5343
I2
sS'portworkers'
p5344
I7
sS'melodramatic'
p5345
I1
sS'relief'
p5346
I3
sS'components'
p5347
I2
sS'bodies'
p5348
I2
sS'spokeswoman.paranagua'
p5349
I1
sS'unconstitutional'
p5350
I1
sS'734.1'
p5351
I1
sS'kill'
p5352
I1
sS'guernigou'
p5353
I1
sS'blow'
p5354
I1
sS'announcement'
p5355
I5
sS'liters'
p5356
I1
sS'rose'
p5357
I36
sS'bloc'
p5358
I4
sS'scheduled'
p5359
I28
sS'mandella'
p5360
I1
sS'easily'
p5361
I1
sS'1978/79'
p5362
I1
sS'inflation'
p5363
I13
sS'schedules'
p5364
I2
sS'accepted'
p5365
I5
sS'wednesday.scorers'
p5366
I1
sS'standstill'
p5367
I1
sS'kennedy'
p5368
I1
sS'patrick'
p5369
I1
sS'recalls'
p5370
I1
sS'pereira'
p5371
I2
sS'reduced'
p5372
I7
sS'1994/95.singapore'
p5373
I1
sS'areas.according'
p5374
I1
sS'competition'
p5375
I13
sS'monday.the'
p5376
I1
sS'intact'
p5377
I1
sS'provided'
p5378
I3
sS'available.note'
p5379
I1
sS'65.7'
p5380
I1
sS'legal'
p5381
I3
sS'provides'
p5382
I4
sS'45,000'
p5383
I1
sS'freed'
p5384
I1
sS'calmed'
p5385
I1
sS'eletrobras'
p5386
I4
sS'discussed'
p5387
I2
sS'stand'
p5388
I1
sS'quarter.mcm'
p5389
I1
sS'tariffs'
p5390
I14
sS'festival.the'
p5391
I1
sS'instruments'
p5392
I1
sS'rising'
p5393
I2
sS'speculated'
p5394
I1
sS'assets.douglas'
p5395
I1
sS'alleged'
p5396
I4
sS'strict'
p5397
I1
sS'energy'
p5398
I4
sS'vicente'
p5399
I1
sS'municipalities'
p5400
I6
sS'750'
p5401
I1
sS'beecham'
p5402
I1
sS'regard'
p5403
I3
sS'cabinet'
p5404
I3
sS'promote'
p5405
I1
sS'faster'
p5406
I1
sS'internationals'
p5407
I1
sS'production.fundamentals'
p5408
I1
sS'preside'
p5409
I1
sS'strongly'
p5410
I1
sS'totaling'
p5411
I1
sS'248-5414'
p5412
I7
sS'rvs'
p5413
I1
sS'britain'
p5414
I4
sS'books.last'
p5415
I1
sS'corresponding'
p5416
I1
sS'4.5'
p5417
I3
sS'4.8'
p5418
I1
sS'insurance'
p5419
I1
sS'rubber'
p5420
I1
sS'narrowing'
p5421
I1
sS'molica'
p5422
I1
sS'5'
p5423
I14
sS'dismayed'
p5424
I1
sS'requested'
p5425
I1
sS'separate'
p5426
I4
sS'includes'
p5427
I3
sS'lovers'
p5428
I1
sS'bullets'
p5429
I1
sS'included'
p5430
I9
sS'grupo'
p5431
I3
sS'stocks'
p5432
I22
sS'finals'
p5433
I1
sS'booked'
p5434
I1
sS'calls'
p5435
I9
sS'invest'
p5436
I12
sS'odds'
p5437
I1
sS'barcelona'
p5438
I1
sS'directors'
p5439
I4
sS'lack'
p5440
I5
sS'manoel'
p5441
I2
sS'milliondeficit'
p5442
I1
sS'abic'
p5443
I3
sS'decisions'
p5444
I1
sS'1996.in'
p5445
I1
sS'reais.the'
p5446
I3
sS'participants'
p5447
I2
sS'opportunities'
p5448
I3
sS'program'
p5449
I11
sS'lawmakers'
p5450
I13
sS'activities'
p5451
I2
sS'belonging'
p5452
I1
sS'far'
p5453
I11
sS'28.private'
p5454
I1
sS'worst'
p5455
I5
sS'treating'
p5456
I2
sS'unfireable'
p5457
I3
sS'prolonged'
p5458
I1
sS'1,470'
p5459
I1
sS'programme'
p5460
I3
sS'tel'
p5461
I1
sS'rate'
p5462
I44
sS'functioning'
p5463
I1
sS'imported'
p5464
I5
sS'sun'
p5465
I5
sS'sul'
p5466
I13
sS'version'
p5467
I3
sS'sus'
p5468
I1
sS'instilling'
p5469
I1
sS'1,694'
p5470
I2
sS'racing'
p5471
I1
sS'tags'
p5472
I1
sS'inmet'
p5473
I2
sS'reuters.analysts'
p5474
I1
sS'103-3/4'
p5475
I1
sS'said.other'
p5476
I2
sS'regions.earlier'
p5477
I1
sS'allows'
p5478
I18
sS'options'
p5479
I1
sS'0.315'
p5480
I4
sS'appliances'
p5481
I1
sS'1907'
p5482
I1
sS'proceed'
p5483
I1
sS'denominated'
p5484
I2
sS'1.0570'
p5485
I3
sS'1.0577'
p5486
I2
sS'goldenberg'
p5487
I1
sS'markets'
p5488
I8
sS'horses'
p5489
I1
sS'flat'
p5490
I1
sS'definition'
p5491
I1
sS'operators'
p5492
I6
sS'flag'
p5493
I1
sS'known'
p5494
I5
sS'establishing'
p5495
I1
sS'privatizating'
p5496
I1
sS'salvador'
p5497
I2
sS'policemen'
p5498
I2
sS'86.09'
p5499
I1
sS'ijui'
p5500
I4
sS'renato'
p5501
I1
sS'1996.the'
p5502
I2
sS'arise'
p5503
I1
sS'242.6'
p5504
I1
sS'5.0'
p5505
I3
sS'5.2'
p5506
I1
sS'5.4'
p5507
I1
sS'chaco'
p5508
I1
sS'5.7'
p5509
I2
sS'plus.the'
p5510
I1
sS'58th'
p5511
I1
sS'stemming'
p5512
I1
sS'buenos'
p5513
I2
sS'speeding'
p5514
I1
sS'reflect'
p5515
I1
sS'135total'
p5516
I1
sS'short'
p5517
I10
sS'cooperatives'
p5518
I2
sS'specifying'
p5519
I1
sS'turnover'
p5520
I5
sS'bondware.two'
p5521
I1
sS'schillings'
p5522
I1
sS'september'
p5523
I4
sS'goncalves'
p5524
I1
sS'mission'
p5525
I1
sS'outraged'
p5526
I1
sS'220.8'
p5527
I1
sS'wilmer'
p5528
I1
sS'inquiries'
p5529
I1
sS'disagreed'
p5530
I1
sS'style'
p5531
I1
sS'ricardo'
p5532
I1
sS'130.812'
p5533
I1
sS'106-7/8'
p5534
I1
sS'argentina'
p5535
I26
sS'soccer'
p5536
I2
sS'argentine'
p5537
I5
sS'return'
p5538
I6
sS'titanium.in'
p5539
I1
sS'videotaped'
p5540
I3
sS'framework'
p5541
I5
sS'bigger'
p5542
I2
sS'instructions'
p5543
I1
sS'said.folha'
p5544
I1
sS'midcrop'
p5545
I1
sS'local/1800'
p5546
I2
sS'antenor'
p5547
I2
sS'difficult'
p5548
I4
sS'generation'
p5549
I2
sS'colder'
p5550
I1
sS'local/2130'
p5551
I1
sS'40,000'
p5552
I2
sS'expect'
p5553
I5
sS'45.00'
p5554
I1
sS'hartley'
p5555
I1
sS'alcohol'
p5556
I14
sS'penambuco'
p5557
I1
sS'health'
p5558
I4
sS'shipment'
p5559
I18
sS'1-0'
p5560
I2
sS'3.00'
p5561
I6
sS'3.06'
p5562
I5
sS'4541'
p5563
I1
sS'paranapanema'
p5564
I1
sS'said.sao'
p5565
I1
sS'threat'
p5566
I2
sS'consequence'
p5567
I1
sS'sergipe'
p5568
I1
sS'said.senators'
p5569
I1
sS'drivers.after'
p5570
I1
sS'bushel'
p5571
I6
sS'feed'
p5572
I1
sS'said.spokesman'
p5573
I1
sS'usda'
p5574
I5
sS'revive'
p5575
I1
sS'sympathy'
p5576
I1
sS'colombia'
p5577
I4
sS'fees'
p5578
I1
sS'slower'
p5579
I1
sS'11.99'
p5580
I1
sS'story'
p5581
I2
sS'automobile'
p5582
I2
sS'financed'
p5583
I1
sS'regulation'
p5584
I1
sS'passed'
p5585
I5
sS'finances'
p5586
I2
sS'ecuador'
p5587
I4
sS'option'
p5588
I1
sS'treasurer'
p5589
I2
sS'transaction'
p5590
I3
sS'kind'
p5591
I3
sS'dany'
p5592
I1
sS'aims'
p5593
I1
sS'pioneiros'
p5594
I2
sS'risks'
p5595
I1
sS'cut.civil'
p5596
I1
sS'said.port'
p5597
I1
sS'liabilities'
p5598
I2
sS'imports'
p5599
I24
sS'tither'
p5600
I4
sS'nights'
p5601
I3
sS'secretariat'
p5602
I2
sS'middlemen'
p5603
I1
sS'chairman'
p5604
I3
sS'finding'
p5605
I4
sS'4.158'
p5606
I1
sS'added'
p5607
I28
sS'643,600'
p5608
I1
sS'electric'
p5609
I2
sS'intervened'
p5610
I2
sS'goldman'
p5611
I5
sS'measures'
p5612
I13
sS'reach'
p5613
I7
sS'react'
p5614
I1
sS'75'
p5615
I1
sS'74'
p5616
I3
sS'shareholder'
p5617
I2
sS'70'
p5618
I2
sS'measured'
p5619
I2
sS'soared'
p5620
I5
sS'78'
p5621
I1
sS'282,776'
p5622
I1
sS'mineral'
p5623
I6
sS'windows'
p5624
I1
sS'paving'
p5625
I1
sS'traditional'
p5626
I2
sS'notch'
p5627
I2
sS'institutions'
p5628
I6
sS'lying'
p5629
I2
sS'bertone'
p5630
I2
sS'safras'
p5631
I1
sS'costing'
p5632
I1
sS'penalty'
p5633
I4
sS'session.other'
p5634
I1
sS'iea'
p5635
I3
sS'iee'
p5636
I2
sS'shepherd'
p5637
I1
sS'hit'
p5638
I13
sS'gains'
p5639
I3
sS'prevsoymeal'
p5640
I3
sS'assumed'
p5641
I3
sS'11-4'
p5642
I2
sS'5,000'
p5643
I3
sS'5,009'
p5644
I1
sS'smithkline'
p5645
I1
sS'investigate'
p5646
I2
sS'activity'
p5647
I2
sS'wrote'
p5648
I1
sS'bars'
p5649
I1
sS'achieved'
p5650
I1
sS'coinbra'
p5651
I1
sS'2.8'
p5652
I1
sS'41.00'
p5653
I2
sS'2.0'
p5654
I1
sS'2.7'
p5655
I4
sS'2.6'
p5656
I2
sS'2.5'
p5657
I2
sS'2.4'
p5658
I1
sS'142.60'
p5659
I1
sS'threats'
p5660
I1
sS'sum.menno'
p5661
I1
sS'down.of'
p5662
I1
sS'friday.internal'
p5663
I1
sS'unions'
p5664
I16
sS'consecutive'
p5665
I4
sS'jasmin'
p5666
I2
sS'corruption'
p5667
I5
sS'korea'
p5668
I2
sS'recently'
p5669
I7
sS'sold'
p5670
I30
sS'sole'
p5671
I1
sS'importers'
p5672
I6
sS'opposition'
p5673
I9
sS'franchise'
p5674
I1
sS'6,088'
p5675
I1
sS'license'
p5676
I1
sS'bandit'
p5677
I1
sS'1,459'
p5678
I1
sS'finds'
p5679
I2
sS'year.under'
p5680
I1
sS'reasons'
p5681
I5
sS'department.the'
p5682
I1
sS'pr'
p5683
I5
sS'decline'
p5684
I2
sS'congress.a'
p5685
I1
sS'political'
p5686
I18
sS'strategy'
p5687
I4
sS'319.2'
p5688
I1
sS'reduction'
p5689
I4
sS'pm'
p5690
I1
sS'referee'
p5691
I1
sS'algeria'
p5692
I1
sS'brokers'
p5693
I12
sS'demand'
p5694
I8
sS'plants'
p5695
I5
sS'praxair'
p5696
I1
sS'negotiations.however'
p5697
I1
sS'frozen'
p5698
I5
sS'wertheim'
p5699
I1
sS'evaluated'
p5700
I1
sS'9,302'
p5701
I1
sS'behavior'
p5702
I1
sS'fernandes'
p5703
I6
sS'19.9'
p5704
I1
sS'said.however'
p5705
I2
sS'rio'
p5706
I88
sS'rim'
p5707
I1
sS'needs.brazil'
p5708
I1
sS'santos'
p5709
I47
sS'confirms'
p5710
I3
sS'shirt'
p5711
I1
sS'said.belgo'
p5712
I1
sS'1,276,455'
p5713
I1
sS'widely'
p5714
I2
sS'1.0594'
p5715
I1
sS'advise'
p5716
I1
sS'1.0590'
p5717
I1
sS'higher'
p5718
I25
sS'892'
p5719
I1
sS'arrives'
p5720
I1
sS'engender.but'
p5721
I1
sS'898'
p5722
I2
sS'33-1'
p5723
I1
sS'negotiate'
p5724
I3
sS'cement'
p5725
I2
sS'holidays'
p5726
I1
sS'telephone.but'
p5727
I1
sS'impede'
p5728
I1
sS'lower'
p5729
I28
sS'suplicy'
p5730
I1
sS'lepetane'
p5731
I2
sS'39-1/4'
p5732
I1
sS'265'
p5733
I1
sS'firm.commodity'
p5734
I1
sS'competitive'
p5735
I3
sS'intervals'
p5736
I1
sS'questions'
p5737
I2
sS'continent'
p5738
I3
sS'profitable'
p5739
I1
sS'loading'
p5740
I72
sS'hectare'
p5741
I1
sS'227,240'
p5742
I1
sS'rights.as'
p5743
I1
sS'workers'
p5744
I36
sS'300,273'
p5745
I4
sS'stops.rains'
p5746
I1
sS'finder'
p5747
I1
sS'2.10'
p5748
I1
sS'53,362-tonne'
p5749
I1
sS'complains'
p5750
I1
sS'catalao'
p5751
I1
sS'moody'
p5752
I3
sS'bill.the'
p5753
I1
sS'10,055'
p5754
I1
sS'redenominated'
p5755
I1
sS'separately'
p5756
I2
sS'collect'
p5757
I1
sS'breeder'
p5758
I1
sS'essential'
p5759
I2
sS'hinted'
p5760
I2
sS'arrived'
p5761
I15
sS'3.6'
p5762
I1
sS'3.7'
p5763
I1
sS'3.4'
p5764
I1
sS'3.5'
p5765
I1
sS'3.2'
p5766
I1
sS'3.3'
p5767
I1
sS'3.0'
p5768
I1
sS'3.1'
p5769
I5
sS'3.8'
p5770
I1
sS'3.9'
p5771
I1
sS'gradually'
p5772
I2
sS'constitutionality'
p5773
I5
sS'9,940'
p5774
I1
sS'seller'
p5775
I7
sS'tends'
p5776
I1
sS'anna'
p5777
I2
sS'refused'
p5778
I1
sS'4.64'
p5779
I1
sS'0900'
p5780
I1
sS'2,330'
p5781
I1
sS'intense'
p5782
I1
sS'pipeline'
p5783
I1
sS'cautious'
p5784
I1
sS'firing'
p5785
I5
sS'range'
p5786
I2
sS'gamma'
p5787
I1
sS'joelle'
p5788
I21
sS'24.80'
p5789
I1
sS'fluctuate'
p5790
I1
sS'geld.the'
p5791
I1
sS'question'
p5792
I3
sS'fast'
p5793
I3
sS'tenders.the'
p5794
I1
sS'analyze'
p5795
I1
sS'oilseeds'
p5796
I1
sS'mistreatment'
p5797
I2
sS'repeatedly'
p5798
I6
sS'filed'
p5799
I2
sS'30.celesc'
p5800
I1
sS'junior'
p5801
I1
sS'raising'
p5802
I2
sS'barring'
p5803
I1
sS'carmakers'
p5804
I1
sS'highlight'
p5805
I1
sS'called'
p5806
I21
sS'meeting.reforms'
p5807
I1
sS'commissioner'
p5808
I3
sS'bankable'
p5809
I1
sS'coordinator'
p5810
I1
sS'warning'
p5811
I2
sS'rally'
p5812
I1
sS'28,548'
p5813
I1
sS'time.rio'
p5814
I1
sS'rains'
p5815
I4
sS'rossini'
p5816
I1
sS'3.21'
p5817
I1
sS'democratically'
p5818
I1
sS'moca'
p5819
I3
sS'3.24'
p5820
I1
sS'income'
p5821
I7
sS'cascavel'
p5822
I4
sS'users'
p5823
I2
sS'problems'
p5824
I17
sS'comercio'
p5825
I1
sS'helping'
p5826
I1
sS'meaning'
p5827
I1
sS'allowing'
p5828
I7
sS'cremer'
p5829
I1
sS'fertilizer'
p5830
I1
sS'america.the'
p5831
I1
sS'vice'
p5832
I9
sS'3,900'
p5833
I1
sS'estabilished'
p5834
I1
sS'analyst.hsbc'
p5835
I1
sS'issued'
p5836
I15
sS'resistance'
p5837
I2
sS'leal'
p5838
I5
sS'adjustment'
p5839
I2
sS'12,712.8'
p5840
I1
sS'issues'
p5841
I13
sS'issuer'
p5842
I1
sS'13,600'
p5843
I1
sS'shanghai'
p5844
I1
sS'guaranteed.the'
p5845
I1
sS'stable'
p5846
I1
sS'include'
p5847
I11
sS'confirmation'
p5848
I1
sS'seized'
p5849
I1
sS'lloyds'
p5850
I2
sS'amaral'
p5851
I4
sS'agua'
p5852
I1
sS'710'
p5853
I1
sS'22,136'
p5854
I1
sS'18.55'
p5855
I1
sS'notes'
p5856
I1
sS'deals'
p5857
I3
sS'polling'
p5858
I3
sS'noted'
p5859
I4
sS'concluded'
p5860
I1
sS'smaller'
p5861
I4
sS'claudio'
p5862
I1
sS'reunion'
p5863
I1
sS'busang'
p5864
I1
sS'growers'
p5865
I5
sS'makers'
p5866
I1
sS'reclassification'
p5867
I1
sS'concessions'
p5868
I13
sS'waiting'
p5869
I11
sS'capital'
p5870
I16
sS'londrina'
p5871
I6
sS'degree'
p5872
I1
sS'secure.human'
p5873
I1
sS'slated'
p5874
I3
sS'explore'
p5875
I1
sS'added.the'
p5876
I5
sS'cavalaro'
p5877
I1
sS'larger'
p5878
I3
sS'metre'
p5879
I1
sS'shell.flint'
p5880
I1
sS'leaving'
p5881
I1
sS'suggests'
p5882
I1
sS'stop.he'
p5883
I1
sS'10,641.7'
p5884
I1
sS'domesticprices'
p5885
I1
sS'deputy'
p5886
I10
sS'duct'
p5887
I1
sS'side.teams'
p5888
I1
sS'herzog'
p5889
I2
sS'serpro'
p5890
I1
sS'motor'
p5891
I1
sS'apply'
p5892
I2
sS'fef'
p5893
I7
sS'fed'
p5894
I1
sS'fee'
p5895
I1
sS'consumption'
p5896
I8
sS'fel'
p5897
I1
sS'266.7'
p5898
I1
sS'constitutionally'
p5899
I1
sS'timing'
p5900
I2
sS'brazilians'
p5901
I1
sS'musician'
p5902
I1
sS'said.preliminary'
p5903
I3
sS'proof'
p5904
I2
sS'0.8'
p5905
I2
sS'tap'
p5906
I1
sS'120-day'
p5907
I1
sS'0.2'
p5908
I1
sS'0.5'
p5909
I1
sS'0.7'
p5910
I2
sS'0.6'
p5911
I2
sS'urged'
p5912
I1
sS'tam'
p5913
I1
sS'1700/2000'
p5914
I1
sS'sir'
p5915
I3
sS'united'
p5916
I15
sS'tamper'
p5917
I1
sS'inaugural'
p5918
I1
sS'traders'
p5919
I16
sS'privatize'
p5920
I3
sS'0715'
p5921
I1
sS'parliamentary'
p5922
I4
sS'express'
p5923
I1
sS'attend'
p5924
I1
sS'needs.any'
p5925
I1
sS'216.92'
p5926
I2
sS'abuse'
p5927
I3
sS'mineracao'
p5928
I2
sS'miyashiro.the'
p5929
I1
sS'2exports'
p5930
I1
sS'286,919'
p5931
I1
sS'sector.motta'
p5932
I1
sS'majorities'
p5933
I4
sS'telefonos'
p5934
I2
sS'martins'
p5935
I5
sS'light'
p5936
I2
sS'interrupted'
p5937
I1
sS'manganese'
p5938
I1
sS'subisidiary'
p5939
I1
sS'1.0605'
p5940
I1
sS'camargo'
p5941
I3
sS'133'
p5942
I4
sS'131'
p5943
I1
sS'hungary.baremboim'
p5944
I1
sS'137'
p5945
I5
sS'looks'
p5946
I1
sS'135'
p5947
I3
sS'raw'
p5948
I5
sS'369.2'
p5949
I1
sS'thuggery'
p5950
I1
sS'banknote'
p5951
I3
sS'ships'
p5952
I5
sS'permanent'
p5953
I1
sS'orange'
p5954
I20
sS'covered'
p5955
I2
sS'pending'
p5956
I2
sS'876,142.1'
p5957
I1
sS'citrus'
p5958
I5
sS'said.he'
p5959
I3
sS'oranges'
p5960
I1
sS'souza'
p5961
I1
sS'banksmembers'
p5962
I1
sS'investor'
p5963
I2
sS'successor'
p5964
I1
sS'articles'
p5965
I2
sS'eased'
p5966
I2
sS'23,391'
p5967
I1
sS'everardo'
p5968
I1
sS'bills'
p5969
I4
sS'privatisation'
p5970
I5
sS'related'
p5971
I3
sS'whitish'
p5972
I2
sS'89'
p5973
I1
sS'lobbied'
p5974
I1
sS'doubled'
p5975
I2
sS'83'
p5976
I3
sS'80'
p5977
I3
sS'85'
p5978
I1
sS'giant'
p5979
I11
sS'sentiment'
p5980
I2
sS'chaos'
p5981
I1
sS'exporting'
p5982
I2
sS'71.50'
p5983
I1
sS'disclose'
p5984
I1
sS'maintains'
p5985
I1
sS'heartbreaker'
p5986
I1
sS'york'
p5987
I11
sS'chadler'
p5988
I1
sS'repairing'
p5989
I1
sS'minsterial'
p5990
I1
sS'25/20'
p5991
I2
sS'illicit'
p5992
I1
sS'produce'
p5993
I2
sS'adrian'
p5994
I2
sS'endemic'
p5995
I1
sS'destinations'
p5996
I1
sS"doesn't"
p5997
I3
sS'publication'
p5998
I1
sS'priority'
p5999
I2
sS'1500'
p6000
I1
sS'activists'
p6001
I2
sS'1995.motta'
p6002
I1
sS'shelf'
p6003
I1
sS'213,737'
p6004
I1
sS'regards'
p6005
I1
sS'4.45'
p6006
I1
sS'july'
p6007
I36
sS'20-year'
p6008
I1
sS'institution'
p6009
I4
sS'liquid'
p6010
I8
sS'priority.the'
p6011
I1
sS'riches'
p6012
I1
sS'port.unions'
p6013
I1
sS'limiting'
p6014
I1
sS'else.frequent'
p6015
I1
sS'1.4'
p6016
I1
sS'1.5'
p6017
I5
sS'1.6'
p6018
I1
sS'1.7'
p6019
I1
sS'1.0'
p6020
I7
sS'1.1'
p6021
I1
sS'1.2'
p6022
I6
sS'fapes'
p6023
I1
sS'1.9'
p6024
I2
sS'bizet'
p6025
I1
sS'15/20'
p6026
I1
sS'linked'
p6027
I2
sS'angle'
p6028
I1
sS'agency'
p6029
I9
sS'anglo'
p6030
I6
sS'200-250'
p6031
I1
sS'rozental'
p6032
I2
sS'clash'
p6033
I1
sS'167,612'
p6034
I1
sS'siphon'
p6035
I2
sS'petros'
p6036
I2
sS'class'
p6037
I3
sS'moravek'
p6038
I1
sS'17.50'
p6039
I1
sS'said.motta'
p6040
I2
sS'codesp'
p6041
I2
sS'agreed'
p6042
I6
sS'97.8'
p6043
I1
sS'planning'
p6044
I7
sS'reggiana'
p6045
I1
sS'fear'
p6046
I8
sS'debate'
p6047
I2
sS'97.5'
p6048
I1
sS'680-seat'
p6049
I1
sS'unanimously'
p6050
I3
sS'operational'
p6051
I6
sS'terminal.union'
p6052
I2
sS'local'
p6053
I35
sS'prosecute'
p6054
I1
sS'topple'
p6055
I1
sS'words'
p6056
I1
sS'chips'
p6057
I1
sS'ended'
p6058
I13
sS'spokewoman'
p6059
I1
sS'services.but'
p6060
I1
sS'jaime'
p6061
I1
sS'waterfalls'
p6062
I1
sS'europe'
p6063
I4
sS'acquired'
p6064
I2
sS'abecitrus'
p6065
I2
sS'closer'
p6066
I2
sS'closes'
p6067
I1
sS'arguably'
p6068
I1
sS'monstrous'
p6069
I1
sS'favor'
p6070
I9
sS'closed'
p6071
I17
sS'growers.the'
p6072
I2
sS'crude'
p6073
I3
sS'stories'
p6074
I4
sS'bought'
p6075
I15
sS'weighing'
p6076
I1
sS'opening'
p6077
I5
sS'millionnet'
p6078
I2
sS'job'
p6079
I2
sS'takeover'
p6080
I9
sS'huta'
p6081
I3
sS'38,171'
p6082
I1
sS'88920.sugar'
p6083
I1
sS'goal'
p6084
I6
sS'years.motta'
p6085
I1
sS'april'
p6086
I107
sS'grain'
p6087
I10
sS'auctions'
p6088
I2
sS'grounds'
p6089
I1
sS'wall'
p6090
I11
sS'packaging'
p6091
I1
sS'respect'
p6092
I2
sS'withdrawn'
p6093
I1
sS'buffs'
p6094
I1
sS'bbb'
p6095
I5
sS'mike'
p6096
I1
sS'commodity'
p6097
I3
sS'sufficient'
p6098
I3
sS'scrutiny'
p6099
I1
sS'5,040'
p6100
I1
sS'present'
p6101
I4
sS'esperanca'
p6102
I2
sS'unlike'
p6103
I1
sS'mutiny.cavalaro'
p6104
I1
sS'26.50'
p6105
I1
sS'wild'
p6106
I1
sS'2,124'
p6107
I1
sS'320.5'
p6108
I1
sS'3,364'
p6109
I1
sS'privileges'
p6110
I1
sS'cross'
p6111
I6
sS'dispute.telebras'
p6112
I1
sS'member'
p6113
I8
sS'largest'
p6114
I22
sS'units'
p6115
I5
sS'gets'
p6116
I1
sS'hammering'
p6117
I1
sS'coached'
p6118
I1
sS'issuance'
p6119
I2
sS'scaling'
p6120
I1
sS'fighting'
p6121
I2
sS'tuesday.the'
p6122
I2
sS'heavily'
p6123
I3
sS'obtain'
p6124
I1
sS'point'
p6125
I6
sS'smith'
p6126
I1
sS'attractive'
p6127
I5
sS'loan'
p6128
I1
sS'know'
p6129
I9
sS'press'
p6130
I2
sS'10/15'
p6131
I2
sS'flemings'
p6132
I5
sS'1.0620'
p6133
I3
sS'miami'
p6134
I3
sS'month.lawmakers'
p6135
I1
sS'773,600'
p6136
I1
sS'adilson'
p6137
I1
sS'hosts'
p6138
I1
sS'january'
p6139
I15
sS'exceed'
p6140
I1
sS'92.29'
p6141
I2
sS'smoothly'
p6142
I1
sS'1-kg'
p6143
I4
sS'platforms'
p6144
I1
sS'growth'
p6145
I10
sS'111'
p6146
I2
sS'113'
p6147
I1
sS'employment'
p6148
I1
sS'upcycle'
p6149
I1
sS'lead'
p6150
I11
sS'sandpit'
p6151
I2
sS'metais'
p6152
I1
sS'mined'
p6153
I1
sS'leader'
p6154
I6
sS'consultores'
p6155
I1
sS'serasa'
p6156
I1
sS'paste'
p6157
I1
sS'rare'
p6158
I1
sS'extension'
p6159
I1
sS'shipping'
p6160
I5
sS'groups.a'
p6161
I1
sS'ruling.a'
p6162
I1
sS'weather'
p6163
I11
sS'registration'
p6164
I1
sS'yankee'
p6165
I3
sS'2.50'
p6166
I2
sS'van'
p6167
I1
sS'val'
p6168
I1
sS'suburbs'
p6169
I1
sS'transfer'
p6170
I2
sS'gmt.a'
p6171
I1
sS'continental'
p6172
I1
sS'intention'
p6173
I1
sS'gaceta.the'
p6174
I1
sS'companies.1'
p6175
I1
sS'upwards'
p6176
I1
sS'triggered'
p6177
I7
sS'by.after'
p6178
I1
sS'tinged'
p6179
I1
sS'volume'
p6180
I11
sS'fundo'
p6181
I4
sS'automated'
p6182
I2
sS"l'arc"
p6183
I1
sS'aired.the'
p6184
I2
sS'teaming'
p6185
I1
sS'squeeze'
p6186
I2
sS'1996.according'
p6187
I1
sS'protesting'
p6188
I2
sS'record'
p6189
I9
sS'ruling'
p6190
I32
sS'31.abitrigo'
p6191
I1
sS'271,334'
p6192
I1
sS'team.the'
p6193
I1
sS'block'
p6194
I6
sS'intimidating'
p6195
I2
sS'percent'
p6196
I246
sS'boom'
p6197
I1
sS'branch'
p6198
I5
sS'illegally'
p6199
I1
sS'june'
p6200
I16
sS'priced'
p6201
I2
sS'29.2'
p6202
I1
sS'extort'
p6203
I1
sS'ranks'
p6204
I1
sS'columbium'
p6205
I8
sS'volumes'
p6206
I1
sS'tonnes'
p6207
I146
s.