(dp0
S'thomson.with'
p1
I1
sS'onthursday'
p2
I1
sS'185.72'
p3
I1
sS'2-an'
p4
I1
sS'localized'
p5
I1
sS'looking'
p6
I8
sS'granting'
p7
I1
sS'electricity'
p8
I2
sS'196,000'
p9
I1
sS'03/15/97'
p10
I3
sS'sputter'
p11
I1
sS'germany.may'
p12
I1
sS'propane'
p13
I2
sS'saskatchewan'
p14
I10
sS'regional'
p15
I2
sS'45.5'
p16
I1
sS'16-2.martinez'
p17
I1
sS'said.xcan'
p18
I1
sS'industries.commercial'
p19
I1
sS'internally'
p20
I1
sS'17.33'
p21
I1
sS'wednesday'
p22
I79
sS'17.34'
p23
I1
sS'solid'
p24
I7
sS'48'
p25
I4
sS'subindex'
p26
I2
sS'reliable'
p27
I3
sS'charter'
p28
I2
sS'miller'
p29
I1
sS'feasibility'
p30
I2
sS'1.735govt'
p31
I1
sS'second'
p32
I23
sS'273'
p33
I1
sS'growtapr'
p34
I2
sS'278'
p35
I2
sS'pricing.at'
p36
I1
sS'errors'
p37
I1
sS'revised'
p38
I2
sS'whaling'
p39
I10
sS'thunder'
p40
I10
sS'135.93'
p41
I1
sS'contributed'
p42
I2
sS'zirnhelt'
p43
I1
sS'bonuses'
p44
I1
sS'hull'
p45
I1
sS'increasing'
p46
I7
sS'specialist'
p47
I1
sS'widger'
p48
I1
sS'05/09employment'
p49
I1
sS'error'
p50
I3
sS'107.41'
p51
I1
sS'reported'
p52
I19
sS'china'
p53
I21
sS'31.80'
p54
I1
sS'said.methanol'
p55
I1
sS'k'
p56
I26
sS'climbed'
p57
I9
sS'reports'
p58
I11
sS'controversy'
p59
I9
sS'pressures.in'
p60
I2
sS'military'
p61
I3
sS"i'm"
p62
I7
sS'spotty'
p63
I1
sS'criticism'
p64
I4
sS'golden'
p65
I2
sS'agoeast'
p66
I1
sS'replace'
p67
I5
sS'brought'
p68
I7
sS'golder'
p69
I1
sS'unit'
p70
I20
sS'marketers'
p71
I1
sS'foods'
p72
I2
sS'prospector'
p73
I18
sS'backing'
p74
I1
sS'telegraph'
p75
I1
sS'strike'
p76
I4
sS'heralded'
p77
I3
sS'voyageur'
p78
I3
sS'mired'
p79
I3
sS'populations'
p80
I2
sS'successful'
p81
I4
sS'benefiting'
p82
I1
sS'hurt'
p83
I11
sS'meteorologist'
p84
I3
sS'98'
p85
I6
sS'population.u.n'
p86
I1
sS'tying'
p87
I3
sS'91'
p88
I6
sS'90'
p89
I9
sS'93'
p90
I1
sS'hold'
p91
I18
sS'95'
p92
I4
sS'94'
p93
I6
sS'97'
p94
I19
sS'96'
p95
I4
sS'intake'
p96
I5
sS'locked'
p97
I2
sS'124.00'
p98
I2
sS'pursue'
p99
I2
sS'advancq1'
p100
I1
sS'temperatures'
p101
I3
sS'105.40'
p102
I1
sS'buyback.methanex'
p103
I1
sS'revenues'
p104
I8
sS'0.3manitoba'
p105
I1
sS'household'
p106
I4
sS'currency'
p107
I46
sS'06/02gdp'
p108
I2
sS'want'
p109
I12
sS'51.0'
p110
I1
sS'provincial'
p111
I2
sS'travel'
p112
I6
sS'accuracy.the'
p113
I4
sS'damage'
p114
I6
sS'cutback'
p115
I1
sS'473.63'
p116
I1
sS'hot'
p117
I7
sS'nisobutane'
p118
I1
sS'77.7'
p119
I1
sS'4,240'
p120
I1
sS'utilise'
p121
I1
sS'shares.bema'
p122
I1
sS'modest'
p123
I1
sS'fire.alcan'
p124
I1
sS'sentencing'
p125
I1
sS'vehiclmar'
p126
I1
sS'effective'
p127
I8
sS'finalim'
p128
I1
sS'romped'
p129
I1
sS'headquarters'
p130
I2
sS'democratic'
p131
I1
sS'wind'
p132
I2
sS'hashimoto'
p133
I1
sS'restriction'
p134
I1
sS'ormar'
p135
I2
sS'feedback'
p136
I1
sS'telecom'
p137
I5
sS'1.92/1.98'
p138
I1
sS'sunseed'
p139
I1
sS'benefited'
p140
I2
sS'fir'
p141
I5
sS'fit'
p142
I1
sS'seattle.in'
p143
I1
sS'offloaded'
p144
I1
sS'stevens'
p145
I1
sS'auditors'
p146
I1
sS'pritchard'
p147
I2
sS'aec.the'
p148
I1
sS'diffusapr'
p149
I2
sS'486/486'
p150
I1
sS'lambert'
p151
I2
sS'slate'
p152
I1
sS'months.to'
p153
I1
sS'effects'
p154
I2
sS'14.46'
p155
I1
sS'silver'
p156
I9
sS'coast.the'
p157
I1
sS'1,349'
p158
I1
sS'420.50'
p159
I1
sS'debut'
p160
I3
sS'nextcompos'
p161
I2
sS'component'
p162
I1
sS'financial'
p163
I26
sS'613-951'
p164
I1
sS'commons'
p165
I1
sS'contracting'
p166
I1
sS'29-31.the'
p167
I1
sS'2,857'
p168
I1
sS'3,770'
p169
I1
sS'laboratory'
p170
I2
sS'5.79march'
p171
I1
sS'9,109'
p172
I1
sS'parks.alberta'
p173
I1
sS'encourage'
p174
I1
sS'comprehensive'
p175
I1
sS'rl'
p176
I2
sS'millions'
p177
I3
sS'elected.this'
p178
I1
sS'misperception'
p179
I2
sS'dunnery'
p180
I1
sS'foundation'
p181
I1
sS'abbott'
p182
I2
sS'assured'
p183
I2
sS'surveys'
p184
I5
sS'ian'
p185
I1
sS'corrects'
p186
I2
sS'estimate'
p187
I7
sS'phillies.nomo'
p188
I1
sS'universally'
p189
I1
sS'3.959'
p190
I1
sS'pettitte'
p191
I1
sS'enormous'
p192
I2
sS'bates'
p193
I2
sS'flurry'
p194
I2
sS'356.10'
p195
I1
sS'1.90ftse100'
p196
I1
sS'speedy'
p197
I2
sS'game.meares'
p198
I1
sS'year.stronger'
p199
I1
sS'nigel'
p200
I1
sS'carryover'
p201
I1
sS'unfilled'
p202
I3
sS'wash'
p203
I3
sS'chevron'
p204
I2
sS'178'
p205
I1
sS'177'
p206
I2
sS'millers'
p207
I3
sS'dupuis'
p208
I3
sS'22.58-point'
p209
I1
sS'reporters.sudjana'
p210
I1
sS'171'
p211
I13
sS'skydome.carlos'
p212
I1
sS'basketball'
p213
I1
sS'service'
p214
I29
sS'lawsuits'
p215
I10
sS'fleming.he'
p216
I2
sS'3.45canadian'
p217
I1
sS'gilbert'
p218
I25
sS'euro'
p219
I1
sS'ranging'
p220
I2
sS'legates'
p221
I1
sS'collapse'
p222
I8
sS'geneva'
p223
I1
sS'sarah.edmonds@reuters.com'
p224
I1
sS'fibrous'
p225
I1
sS'system.there'
p226
I1
sS'64.47'
p227
I1
sS'celsius.average'
p228
I1
sS'rectified'
p229
I2
sS'sulphur'
p230
I21
sS'showed'
p231
I20
sS'months.positive'
p232
I1
sS'7,156'
p233
I1
sS'nations'
p234
I2
sS'project'
p235
I42
sS'feeling'
p236
I1
sS'quoted'
p237
I15
sS'acquisition'
p238
I4
sS'groaning'
p239
I1
sS'willingness'
p240
I3
sS'runner'
p241
I1
sS'boston'
p242
I20
sS'dozen'
p243
I1
sS'affairs'
p244
I4
sS'releases'
p245
I4
sS'2.70'
p246
I2
sS'bleachers'
p247
I1
sS'pittsburgh'
p248
I11
sS'causing'
p249
I4
sS'layoffs'
p250
I1
sS'services.however'
p251
I1
sS'greenback'
p252
I1
sS'shipments'
p253
I11
sS'transactions'
p254
I1
sS'wells'
p255
I11
sS'swiss'
p256
I1
sS'mouth'
p257
I1
sS'letter'
p258
I2
sS'retaining'
p259
I1
sS'100.0'
p260
I1
sS'5.876'
p261
I1
sS'grove'
p262
I1
sS'power.both'
p263
I1
sS'professor'
p264
I3
sS'camp'
p265
I1
sS'150.00'
p266
I2
sS'injury.number'
p267
I1
sS'said.martinair'
p268
I1
sS'lpg'
p269
I2
sS'43.52'
p270
I1
sS'85.25'
p271
I1
sS'came'
p272
I3
sS'treasuries'
p273
I3
sS'prim'
p274
I1
sS'reactor'
p275
I1
sS'meetings'
p276
I1
sS'participate'
p277
I2
sS'cheaply'
p278
I1
sS'2.157all'
p279
I1
sS'6.767'
p280
I1
sS'orleans'
p281
I1
sS'busy'
p282
I1
sS'694'
p283
I2
sS'headline'
p284
I1
sS'cousins'
p285
I1
sS'503.44'
p286
I1
sS'bush'
p287
I4
sS'touched'
p288
I1
sS'rich'
p289
I3
sS'186/58'
p290
I1
sS'72.774'
p291
I1
sS'export.this'
p292
I1
sS'reversal'
p293
I1
sS'bridge'
p294
I1
sS'tips'
p295
I1
sS'volatility'
p296
I3
sS'jaguar'
p297
I1
sS'nicely'
p298
I1
sS'none.mondesi'
p299
I1
sS'40,590,000.rbc'
p300
I1
sS'patch'
p301
I1
sS'canadanoon'
p302
I1
sS'release'
p303
I22
sS'42.00/43.00'
p304
I1
sS'plagued'
p305
I3
sS'respond'
p306
I1
sS'mandatory'
p307
I1
sS'fair'
p308
I6
sS'company.the'
p309
I1
sS'job'
p310
I17
sS'peripheral'
p311
I1
sS'1,287'
p312
I1
sS'135.00shell'
p313
I2
sS'pads'
p314
I1
sS'result'
p315
I8
sS'possible.many'
p316
I2
sS'hammer'
p317
I2
sS'best'
p318
I6
sS'inspection.jaguar'
p319
I1
sS'bruncor'
p320
I1
sS'lots'
p321
I7
sS'25.12/barrel'
p322
I1
sS'schedulecleveland'
p323
I2
sS'rings'
p324
I1
sS'droves'
p325
I2
sS'exchange.bre'
p326
I7
sS'pressures'
p327
I1
sS'r'
p328
I1
sS'said.trading'
p329
I1
sS'globally.but'
p330
I1
sS'ira'
p331
I2
sS'schachter'
p332
I2
sS'ordsmar'
p333
I1
sS'preserve'
p334
I2
sS'extend'
p335
I2
sS'nature'
p336
I1
sS'extent'
p337
I2
sS'butane'
p338
I2
sS'32.55'
p339
I1
sS'debt'
p340
I12
sS'32.52'
p341
I1
sS'patented'
p342
I1
sS'country'
p343
I12
sS'heating'
p344
I3
sS'demanded'
p345
I1
sS'1,750'
p346
I1
sS'planned'
p347
I10
sS'15opportunities'
p348
I1
sS'asked'
p349
I7
sS'11.18'
p350
I2
sS'active'
p351
I7
sS'258'
p352
I7
sS'259'
p353
I5
sS'253'
p354
I3
sS'250'
p355
I5
sS'257'
p356
I5
sS'254'
p357
I1
sS'255'
p358
I1
sS'3.83'
p359
I1
sS'5-3.with'
p360
I1
sS'fra'
p361
I32
sS'3.85'
p362
I4
sS'holdings'
p363
I4
sS'fri'
p364
I77
sS'value.a'
p365
I2
sS'frn'
p366
I1
sS'extraction'
p367
I2
sS'it.chicago'
p368
I1
sS'stadium'
p369
I1
sS'26.25'
p370
I1
sS'hodgsonthe'
p371
I1
sS'26.23'
p372
I5
sS'life'
p373
I7
sS'eastern'
p374
I12
sS'mclellan'
p375
I1
sS'irving'
p376
I6
sS'dave'
p377
I3
sS'lift'
p378
I4
sS'chile'
p379
I5
sS'doubts'
p380
I7
sS'worked'
p381
I3
sS'chill'
p382
I1
sS'commerce'
p383
I2
sS'clamping'
p384
I1
sS'system.the'
p385
I3
sS'castro'
p386
I1
sS'31,493aug'
p387
I1
sS'employ'
p388
I4
sS'airmen'
p389
I1
sS'flooding'
p390
I4
sS'elaborate'
p391
I1
sS'played'
p392
I14
sS'yjun'
p393
I3
sS'ttmc.a'
p394
I1
sS'timna'
p395
I1
sS'samples.the'
p396
I1
sS'1.3866/71'
p397
I1
sS'player'
p398
I4
sS'anticipating'
p399
I1
sS'levied'
p400
I1
sS'74-88'
p401
I1
sS'hong'
p402
I21
sS'severity'
p403
I2
sS'things'
p404
I2
sS'cumulative'
p405
I2
sS'authority.the'
p406
I1
sS"i'd"
p407
I1
sS'damages'
p408
I3
sS'rebound'
p409
I2
sS'european'
p410
I2
sS'fairly'
p411
I3
sS'10yr'
p412
I2
sS'160'
p413
I4
sS'josef'
p414
I1
sS'ownership'
p415
I5
sS'04/10/97'
p416
I1
sS'tung'
p417
I2
sS'5.77'
p418
I1
sS'105.23'
p419
I1
sS'0815/1215'
p420
I1
sS'30/44'
p421
I1
sS'echoed'
p422
I1
sS'859-1879'
p423
I1
sS'corporate'
p424
I9
sS'jardine'
p425
I1
sS'organisations.statistics'
p426
I1
sS'distribute'
p427
I1
sS'fantastic'
p428
I2
sS'beset'
p429
I1
sS'0.1wages'
p430
I1
sS'99.18716'
p431
I1
sS'previous'
p432
I10
sS'alum'
p433
I2
sS'remedial'
p434
I1
sS'campaign'
p435
I2
sS'ease'
p436
I2
sS'inc.on'
p437
I1
sS'prison'
p438
I2
sS'east'
p439
I15
sS'intermediation'
p440
I1
sS'survival'
p441
I1
sS'posed'
p442
I1
sS'possible'
p443
I1
sS'firmer'
p444
I3
sS'possibly'
p445
I3
sS'birth'
p446
I2
sS'unique'
p447
I1
sS'desire'
p448
I1
sS'indexnesbitt'
p449
I1
sS'bobby'
p450
I3
sS'pavement'
p451
I1
sS'steps'
p452
I4
sS'groundwater'
p453
I1
sS'mcgwire'
p454
I1
sS'attorney'
p455
I4
sS'right'
p456
I25
sS'old'
p457
I19
sS'soybean'
p458
I5
sS'crowd'
p459
I4
sS'people'
p460
I22
sS'teppo'
p461
I1
sS'santiago'
p462
I3
sS'consultants'
p463
I5
sS'001531'
p464
I1
sS'harassment'
p465
I1
sS'8520'
p466
I1
sS'khobar.sayegh'
p467
I1
sS'fruz'
p468
I1
sS'186,000'
p469
I1
sS'continue'
p470
I14
sS'fob'
p471
I1
sS'indication'
p472
I3
sS'24-mar'
p473
I3
sS'14.60'
p474
I1
sS'annan'
p475
I1
sS'lefty'
p476
I2
sS'24-hour'
p477
I1
sS'6,000'
p478
I1
sS'defensive'
p479
I1
sS'losing'
p480
I1
sS'brokerage'
p481
I8
sS'312-408'
p482
I1
sS'manufacturing'
p483
I4
sS'shaken'
p484
I3
sS'filipino'
p485
I1
sS'wong.the'
p486
I1
sS'dollars'
p487
I14
sS'15-percent'
p488
I2
sS'o'
p489
I3
sS'annualized'
p490
I4
sS'slightly'
p491
I8
sS'1.3925-30'
p492
I1
sS'raised'
p493
I10
sS'statements'
p494
I4
sS'facility'
p495
I2
sS'1.625'
p496
I2
sS'donolo'
p497
I1
sS'raises'
p498
I2
sS'soy'
p499
I1
sS'sox'
p500
I11
sS'defendants'
p501
I2
sS'wittmann'
p502
I1
sS'2,523'
p503
I1
sS'support'
p504
I15
sS'nova'
p505
I8
sS'raped'
p506
I1
sS'joseph'
p507
I1
sS'authorized'
p508
I1
sS'resulted'
p509
I3
sS'8.00/cubic'
p510
I1
sS'overhang'
p511
I1
sS'happy'
p512
I2
sS'hurler'
p513
I2
sS'trade.july'
p514
I1
sS'offer'
p515
I15
sS'60,900'
p516
I4
sS'tigers'
p517
I1
sS'380-mile'
p518
I2
sS'understandable'
p519
I1
sS'3.60finance'
p520
I1
sS'safeguard'
p521
I2
sS'121'
p522
I1
sS'inside'
p523
I2
sS'474th'
p524
I1
sS'schiphol'
p525
I1
sS'friday.huisman'
p526
I1
sS'project.several'
p527
I1
sS'pall'
p528
I1
sS'150'
p529
I6
sS'153'
p530
I1
sS'5yr'
p531
I2
sS'proved'
p532
I2
sS'154'
p533
I1
sS'implications'
p534
I1
sS'2.66/2.72'
p535
I1
sS'proven'
p536
I2
sS'2718.68'
p537
I1
sS'exist'
p538
I1
sS'accounting'
p539
I1
sS'elbow.none'
p540
I1
sS'floor'
p541
I9
sS'briefing.columbia'
p542
I1
sS'flood'
p543
I10
sS'role'
p544
I6
sS'smell'
p545
I1
sS'dornbusch'
p546
I2
sS'models'
p547
I2
sS'intent'
p548
I1
sS'said.no'
p549
I1
sS'professional'
p550
I2
sS'dioxins.a'
p551
I1
sS'vhcl'
p552
I2
sS'99'
p553
I3
sS'duplication'
p554
I1
sS'portsnote'
p555
I2
sS'5.13'
p556
I1
sS'ottawa'
p557
I38
sS'time'
p558
I77
sS'push'
p559
I2
sS'lower.the'
p560
I2
sS'overturned'
p561
I1
sS'cincinnati'
p562
I6
sS'chain'
p563
I4
sS'6.841'
p564
I1
sS'osc'
p565
I16
sS'osb'
p566
I2
sS'borneo.the'
p567
I2
sS'hole'
p568
I3
sS'92'
p569
I1
sS'8863'
p570
I1
sS'1.15call'
p571
I1
sS'grappled'
p572
I2
sS'circumstances'
p573
I2
sS'814'
p574
I1
sS'veh'
p575
I1
sS'817'
p576
I1
sS'factorfeb'
p577
I1
sS'30-yr'
p578
I2
sS'consolidation'
p579
I2
sS'choice'
p580
I3
sS'3mth'
p581
I2
sS'priceavg'
p582
I1
sS'minute'
p583
I3
sS'moure'
p584
I1
sS'leave'
p585
I5
sS'solved'
p586
I1
sS'team'
p587
I25
sS'inscribed'
p588
I1
sS'11-3/4'
p589
I1
sS'speculation'
p590
I9
sS'unaware'
p591
I1
sS'prevent'
p592
I2
sS'findings'
p593
I7
sS'insignificant'
p594
I12
sS'gasoline'
p595
I2
sS'sign'
p596
I1
sS'generalisations'
p597
I1
sS'0.09'
p598
I1
sS'patient'
p599
I1
sS'ryutaro'
p600
I1
sS'antwerp'
p601
I1
sS'celebrated'
p602
I1
sS'melt'
p603
I3
sS'current'
p604
I15
sS'species.most'
p605
I1
sS'falling'
p606
I4
sS'crashing'
p607
I2
sS'boost'
p608
I7
sS'understanding'
p609
I3
sS'linseed'
p610
I1
sS'dwindling'
p611
I1
sS'423.60'
p612
I1
sS'passengers'
p613
I3
sS'gulf'
p614
I3
sS'03/22/97'
p615
I3
sS'funded'
p616
I1
sS'chemical'
p617
I1
sS'way.frank'
p618
I1
sS'151,400'
p619
I1
sS'confidentiality'
p620
I1
sS'coinciding'
p621
I1
sS'sky'
p622
I1
sS'said.meanwhile'
p623
I2
sS'undergone'
p624
I2
sS'working'
p625
I12
sS'positive'
p626
I6
sS'angry'
p627
I1
sS'1/2x'
p628
I1
sS'saying.sixty'
p629
I1
sS'opposed'
p630
I1
sS'calgary'
p631
I52
sS'scope'
p632
I1
sS'44.92'
p633
I1
sS'alastair'
p634
I1
sS'afford'
p635
I1
sS'officials.a'
p636
I1
sS'apparent'
p637
I2
sS'titlefriday'
p638
I1
sS'1,200'
p639
I1
sS'validity'
p640
I4
sS'thompson'
p641
I1
sS'visual'
p642
I7
sS'1.3889'
p643
I1
sS'1.3882'
p644
I1
sS'1.3883'
p645
I3
sS'1.3880'
p646
I1
sS'easiest'
p647
I1
sS'behalf'
p648
I4
sS'pctscotia'
p649
I2
sS'valued'
p650
I4
sS'1989.the'
p651
I1
sS'imfmar'
p652
I1
sS'believes'
p653
I1
sS'values'
p654
I8
sS'following'
p655
I16
sS'reviewing'
p656
I1
sS'542-7706'
p657
I1
sS'hideo'
p658
I1
sS'incremental'
p659
I1
sS'238'
p660
I8
sS'239'
p661
I2
sS'allowed'
p662
I15
sS'234'
p663
I7
sS'235'
p664
I1
sS'236'
p665
I3
sS'237'
p666
I4
sS'stole'
p667
I1
sS'231'
p668
I2
sS'232'
p669
I4
sS'233'
p670
I3
sS'winter'
p671
I7
sS'coyotes'
p672
I3
sS'04/22merch'
p673
I2
sS'hydrologist'
p674
I1
sS'vancouver'
p675
I28
sS'orginal'
p676
I3
sS'26.07'
p677
I6
sS'undertook'
p678
I2
sS'431.30'
p679
I1
sS'sunter'
p680
I1
sS'canseco'
p681
I1
sS'spot'
p682
I10
sS'applications'
p683
I3
sS'07/03/97'
p684
I1
sS'15,700'
p685
I1
sS'lots.july'
p686
I1
sS'date'
p687
I36
sS'acceptances'
p688
I1
sS'revealed'
p689
I14
sS'stress'
p690
I1
sS'natural'
p691
I34
sS'correlate'
p692
I5
sS'consequently'
p693
I1
sS'yielding'
p694
I2
sS'su'
p695
I1
sS'st'
p696
I24
sS'11.34'
p697
I1
sS'truck'
p698
I2
sS'sa'
p699
I20
sS'pulled'
p700
I6
sS'problems.when'
p701
I1
sS'6.41'
p702
I1
sS'reaffirms'
p703
I1
sS'unacceptable'
p704
I1
sS'yellowkniferesources'
p705
I1
sS'kong'
p706
I22
sS'course'
p707
I5
sS'revisit'
p708
I1
sS'tendency'
p709
I1
sS'tillinghast'
p710
I3
sS'13.76'
p711
I1
sS'internationally'
p712
I2
sS'951-3562'
p713
I1
sS'settlementsfeb'
p714
I1
sS'jim'
p715
I3
sS'troubles'
p716
I2
sS'525,290'
p717
I1
sS'hashish'
p718
I1
sS'suspension'
p719
I1
sS'2.06/2.11note'
p720
I2
sS'troubled'
p721
I9
sS'petition'
p722
I3
sS'dbrs'
p723
I4
sS'5.50'
p724
I1
sS'civilian'
p725
I1
sS'nation'
p726
I1
sS'drilling'
p727
I45
sS'1.000'
p728
I11
sS'maintaining'
p729
I4
sS'matched'
p730
I1
sS'95.95417'
p731
I1
sS'24.8'
p732
I1
sS'24.9'
p733
I5
sS'crushers'
p734
I1
sS'times.hampton'
p735
I1
sS'quarter'
p736
I17
sS'teams.ripken'
p737
I1
sS'square'
p738
I4
sS'ordersmar'
p739
I1
sS'uncollaborated'
p740
I1
sS'crushing'
p741
I4
sS'breakthrough'
p742
I1
sS'18,810'
p743
I1
sS'entering'
p744
I3
sS'sexually'
p745
I2
sS'million.kraft'
p746
I1
sS'container'
p747
I11
sS'791'
p748
I1
sS'property.john'
p749
I1
sS'226'
p750
I2
sS'blm'
p751
I3
sS'replacing'
p752
I1
sS'seriously'
p753
I2
sS'investigation'
p754
I13
sS'37.00/37.50'
p755
I1
sS'suggesting'
p756
I1
sS'cdlr/m3'
p757
I10
sS'flurries'
p758
I1
sS'dodgers'
p759
I2
sS'prostitutes'
p760
I1
sS'siege'
p761
I1
sS'1130'
p762
I4
sS'incentives'
p763
I2
sS'governing'
p764
I4
sS'quite'
p765
I4
sS'unnamed'
p766
I1
sS'remainder'
p767
I2
sS'collapsing'
p768
I1
sS'9.5/11.4'
p769
I1
sS'routed'
p770
I1
sS'kathleen'
p771
I1
sS'massive'
p772
I13
sS'reveals'
p773
I1
sS'reopen'
p774
I1
sS'vote'
p775
I4
sS'open'
p776
I19
sS'ont'
p777
I4
sS'city'
p778
I19
sS'bite'
p779
I1
sS'ordersfeb'
p780
I1
sS'borders.east'
p781
I1
sS'indicate'
p782
I4
sS'2'
p783
I57
sS'structures'
p784
I1
sS'williams'
p785
I2
sS'150.1'
p786
I1
sS'slashed'
p787
I3
sS'fooled'
p788
I1
sS'2,720'
p789
I1
sS'shortly.stone'
p790
I1
sS'elected'
p791
I2
sS'rival'
p792
I6
sS"o'connor"
p793
I1
sS'future'
p794
I7
sS'wins'
p795
I2
sS'russia'
p796
I2
sS'prospect'
p797
I2
sS'voters'
p798
I1
sS'san'
p799
I25
sS'round.defeat'
p800
I1
sS'greyhound'
p801
I14
sS'locations'
p802
I1
sS'sylvain'
p803
I1
sS'say'
p804
I18
sS'buried'
p805
I1
sS'allen'
p806
I1
sS'saw'
p807
I12
sS'wells.husky'
p808
I1
sS'translate'
p809
I1
sS'peacekeeping'
p810
I1
sS'note'
p811
I5
sS'intends'
p812
I2
sS'power.westcoast'
p813
I1
sS'firstenergy'
p814
I1
sS'coincide'
p815
I2
sS'towers'
p816
I3
sS'est/1530'
p817
I11
sS'94.14'
p818
I1
sS'est/1532'
p819
I1
sS'knew'
p820
I2
sS'145.00shell'
p821
I1
sS'backlogs'
p822
I1
sS'685'
p823
I1
sS'3.918'
p824
I1
sS'shutdown.the'
p825
I1
sS'pages'
p826
I1
sS'archi'
p827
I1
sS'introduced'
p828
I1
sS'average'
p829
I19
sS'phil'
p830
I3
sS'sale'
p831
I17
sS'managing'
p832
I2
sS'jitters'
p833
I3
sS'messier'
p834
I1
sS'jittery'
p835
I1
sS'link'
p836
I4
sS'hestitant'
p837
I1
sS'liquidity'
p838
I2
sS'laws'
p839
I2
sS'implicationsmikio'
p840
I1
sS'walking'
p841
I2
sS'senators'
p842
I3
sS'merit'
p843
I3
sS'storage.canadian'
p844
I1
sS'jagr'
p845
I2
sS'bright'
p846
I1
sS'winnipeg.last'
p847
I1
sS'interview.twelve'
p848
I1
sS'slot'
p849
I3
sS'slow'
p850
I5
sS'mendelsohn'
p851
I1
sS'linerboard'
p852
I2
sS'3.878'
p853
I1
sS'going'
p854
I21
sS'mesa.1996'
p855
I1
sS'2762.81'
p856
I1
sS'congressional'
p857
I1
sS'dispute'
p858
I2
sS'shipments.in'
p859
I1
sS'assistant'
p860
I2
sS'awaiting'
p861
I1
sS'ytd'
p862
I2
sS'prime'
p863
I9
sS'resource'
p864
I8
sS'roger'
p865
I3
sS'305/tonne'
p866
I1
sS'6.96'
p867
I1
sS'surgery'
p868
I1
sS'upswing.1996'
p869
I1
sS'836'
p870
I1
sS'8.40'
p871
I1
sS'jumped'
p872
I2
sS'representatives'
p873
I1
sS'rayrock'
p874
I1
sS'bureau'
p875
I102
sS'sable'
p876
I3
sS'namibian'
p877
I2
sS'6,237.09'
p878
I1
sS'jobs'
p879
I20
sS'dome'
p880
I2
sS'concentrate'
p881
I1
sS'concentrated'
p882
I1
sS'manu'
p883
I4
sS'residence'
p884
I2
sS'22.54'
p885
I1
sS's'
p886
I47
sS'4.698'
p887
I1
sS'discovery.bema'
p888
I1
sS'tadoussac'
p889
I1
sS"can't"
p890
I7
sS'shanahan'
p891
I2
sS'adjudication'
p892
I1
sS'0.596government'
p893
I1
sS'jays.ray'
p894
I1
sS'anti'
p895
I7
sS'03/28/97'
p896
I3
sS'considers'
p897
I1
sS'seeding'
p898
I3
sS'846.5'
p899
I1
sS'west'
p900
I22
sS'airlines'
p901
I1
sS'breath'
p902
I1
sS'combined'
p903
I2
sS'prelapr'
p904
I2
sS'wants'
p905
I2
sS'99-62'
p906
I1
sS'algowest'
p907
I1
sS'1.204'
p908
I1
sS'thousand'
p909
I1
sS'laney'
p910
I1
sS'curbing'
p911
I1
sS'1995.however'
p912
I1
sS'18.swp'
p913
I1
sS'geothermal'
p914
I2
sS'tightened'
p915
I3
sS'spillover'
p916
I1
sS'leiter'
p917
I2
sS'consultant'
p918
I6
sS'fourth.burba'
p919
I1
sS'polls'
p920
I1
sS'straighten'
p921
I1
sS'roddenberry'
p922
I1
sS'policies'
p923
I1
sS'newspaper'
p924
I5
sS'situation'
p925
I3
sS'aluminium'
p926
I2
sS'metropolitain'
p927
I1
sS'wholesaler'
p928
I1
sS'osgood'
p929
I1
sS'twists'
p930
I2
sS'engaged'
p931
I1
sS'ctry'
p932
I3
sS'marriage.coomaraswamy'
p933
I1
sS'13.6'
p934
I1
sS'13.7'
p935
I1
sS'spooked'
p936
I2
sS'13.5'
p937
I1
sS'technology'
p938
I14
sS'13.3'
p939
I1
sS'enabling'
p940
I1
sS'expenditures'
p941
I2
sS'verified'
p942
I4
sS'threatens'
p943
I2
sS'mont'
p944
I2
sS'surveillance'
p945
I4
sS'damon'
p946
I2
sS'03/21/96'
p947
I1
sS'feedstocks'
p948
I1
sS'comex'
p949
I2
sS'breakdown'
p950
I1
sS'edged'
p951
I3
sS'boosted'
p952
I3
sS'reverts'
p953
I2
sS'allocation'
p954
I1
sS'harris'
p955
I1
sS'lawton'
p956
I1
sS'oceans'
p957
I1
sS'128,800'
p958
I2
sS'27.81'
p959
I1
sS'60,000'
p960
I2
sS'vacant'
p961
I3
sS'35-year'
p962
I2
sS'costs'
p963
I9
sS'140.50'
p964
I1
sS'dimension'
p965
I1
sS'216'
p966
I6
sS'summer'
p967
I4
sS'214'
p968
I1
sS'gds'
p969
I5
sS'212'
p970
I4
sS'213'
p971
I3
sS'210'
p972
I1
sS'currency.canada'
p973
I1
sS'rest'
p974
I5
sS'219'
p975
I4
sS'sherritt'
p976
I1
sS'capitalization.methanex'
p977
I1
sS'weekly'
p978
I12
sS'2,975'
p979
I1
sS'4248.10'
p980
I1
sS'geological'
p981
I2
sS'briefing.the'
p982
I1
sS'skies'
p983
I2
sS'rumour'
p984
I1
sS'wagonlit'
p985
I1
sS'sums'
p986
I2
sS'downtrend'
p987
I1
sS'traffic'
p988
I4
sS'world'
p989
I27
sS'11.50'
p990
I1
sS'11.56'
p991
I1
sS'assists'
p992
I1
sS'offenders'
p993
I1
sS'blnfor'
p994
I1
sS'5017'
p995
I2
sS'replays'
p996
I1
sS'supplementary'
p997
I1
sS'here.last'
p998
I1
sS'35.48'
p999
I1
sS"there'll"
p1000
I1
sS'noon'
p1001
I2
sS'tobago'
p1002
I2
sS'moslem'
p1003
I2
sS'helms'
p1004
I1
sS'graeme'
p1005
I1
sS'exit'
p1006
I3
sS'107.25'
p1007
I1
sS'power'
p1008
I22
sS'1.45/1.49export'
p1009
I1
sS'securities.on'
p1010
I1
sS'ratios'
p1011
I1
sS'palffy'
p1012
I3
sS'debt.the'
p1013
I1
sS'stone'
p1014
I11
sS'ace'
p1015
I6
sS'package'
p1016
I1
sS'industry'
p1017
I28
sS'exchanges.bre'
p1018
I1
sS'asensio'
p1019
I5
sS'mean'
p1020
I2
sS'moonshot'
p1021
I2
sS'decreased'
p1022
I2
sS'burning'
p1023
I1
sS'groups.five'
p1024
I1
sS'marlins'
p1025
I2
sS'lively'
p1026
I1
sS'parties'
p1027
I5
sS'well.chretien'
p1028
I1
sS'flat/0.4'
p1029
I1
sS'152.00/cubic'
p1030
I1
sS'pricmar'
p1031
I1
sS'philadelphia'
p1032
I10
sS'cardinals.the'
p1033
I1
sS'lavalin'
p1034
I20
sS'sealed'
p1035
I1
sS'series'
p1036
I7
sS'hem'
p1037
I2
sS'ago'
p1038
I22
sS'boat.backhoes'
p1039
I1
sS'complete'
p1040
I6
sS'antiquated'
p1041
I3
sS'technologies'
p1042
I3
sS'botts'
p1043
I2
sS'buying'
p1044
I12
sS'pctbank'
p1045
I2
sS"they're"
p1046
I1
sS'rush'
p1047
I2
sS'october'
p1048
I8
sS'722'
p1049
I1
sS'indeq1'
p1050
I1
sS'agree'
p1051
I2
sS'aa'
p1052
I3
sS'gone'
p1053
I3
sS'cnbc'
p1054
I1
sS'yashin'
p1055
I2
sS'statement.canada'
p1056
I1
sS'ag'
p1057
I2
sS'certain'
p1058
I4
sS'ak'
p1059
I1
sS'al'
p1060
I8
sS'fed.pressure'
p1061
I1
sS'substantially'
p1062
I2
sS'aga'
p1063
I1
sS'walks'
p1064
I3
sS'softened.coast'
p1065
I1
sS'watched'
p1066
I5
sS'downturn'
p1067
I1
sS'moniker'
p1068
I1
sS'homes.volunteers'
p1069
I1
sS'bremen'
p1070
I5
sS'1110'
p1071
I1
sS'summit'
p1072
I1
sS'981,270'
p1073
I1
sS'meares'
p1074
I2
sS'congress'
p1075
I1
sS'slant'
p1076
I1
sS'35,000'
p1077
I1
sS'6m'
p1078
I2
sS'protection.canada'
p1079
I1
sS'terry'
p1080
I3
sS'cpi'
p1081
I14
sS'14-hit'
p1082
I1
sS'reuters.heavy'
p1083
I1
sS'mass'
p1084
I1
sS'nelson'
p1085
I1
sS'cpr'
p1086
I9
sS'original'
p1087
I4
sS'7.14'
p1088
I1
sS'crash.trading'
p1089
I1
sS'7.13'
p1090
I1
sS'blackhawks.mariusz'
p1091
I1
sS'caused'
p1092
I11
sS'mnr'
p1093
I4
sS'denoms'
p1094
I4
sS'code'
p1095
I4
sS'fairness'
p1096
I1
sS'reuters.the'
p1097
I1
sS'improperly'
p1098
I1
sS'careful'
p1099
I1
sS'hunting'
p1100
I2
sS'tv'
p1101
I2
sS'tu'
p1102
I28
sS'alvarez'
p1103
I1
sS'th'
p1104
I8
sS'midwest'
p1105
I4
sS'request.traditionally'
p1106
I1
sS'5849.14'
p1107
I3
sS'returnee'
p1108
I1
sS'returned'
p1109
I1
sS'mpps'
p1110
I1
sS'1,500'
p1111
I3
sS'oimar'
p1112
I1
sS'labor'
p1113
I27
sS'soften'
p1114
I1
sS'showings'
p1115
I1
sS'condition'
p1116
I1
sS'moines'
p1117
I1
sS'cable'
p1118
I1
sS'strategist'
p1119
I1
sS'casselton'
p1120
I1
sS'people.china'
p1121
I1
sS'large'
p1122
I13
sS'sand'
p1123
I1
sS'adjust'
p1124
I1
sS'harry'
p1125
I1
sS'small'
p1126
I12
sS'beijing.speaking'
p1127
I1
sS'uexpectedly'
p1128
I1
sS'sank'
p1129
I4
sS'abbreviated'
p1130
I5
sS'hicp'
p1131
I2
sS'198'
p1132
I3
sS'195'
p1133
I2
sS'194'
p1134
I6
sS'fleming.toronto'
p1135
I1
sS'godin'
p1136
I2
sS'191'
p1137
I1
sS'190'
p1138
I5
sS'193'
p1139
I4
sS'192'
p1140
I1
sS'past'
p1141
I20
sS'investment'
p1142
I14
sS'3.287'
p1143
I1
sS'richard'
p1144
I3
sS'clock'
p1145
I1
sS'section'
p1146
I5
sS'prevailed'
p1147
I1
sS'scientists'
p1148
I1
sS'showed.the'
p1149
I1
sS'method'
p1150
I2
sS'contrast'
p1151
I1
sS'hash'
p1152
I1
sS'timberlands'
p1153
I1
sS'hours'
p1154
I10
sS'graves'
p1155
I1
sS'november'
p1156
I13
sS'said.weekend'
p1157
I1
sS'ripken'
p1158
I2
sS'times.aec'
p1159
I1
sS'midlandapril'
p1160
I1
sS'brutal'
p1161
I2
sS'titlewednesday'
p1162
I2
sS'prior'
p1163
I7
sS'nsaapr'
p1164
I7
sS'pick'
p1165
I2
sS'action'
p1166
I15
sS'960,000'
p1167
I1
sS'vic'
p1168
I1
sS'followed'
p1169
I11
sS'dollar.ultimately'
p1170
I1
sS'abdel'
p1171
I2
sS'2940.68'
p1172
I1
sS'attendance'
p1173
I1
sS'petroleum'
p1174
I8
sS'859'
p1175
I1
sS'mort'
p1176
I2
sS'commerce.foreign'
p1177
I1
sS'pitching'
p1178
I5
sS'6'
p1179
I28
sS'nomar'
p1180
I1
sS'substances'
p1181
I1
sS'company'
p1182
I159
sS'127.00/cubic'
p1183
I1
sS'tested'
p1184
I1
sS'fassero'
p1185
I2
sS'discrepancy'
p1186
I2
sS'keeping'
p1187
I2
sS'85.40'
p1188
I1
sS'843,000'
p1189
I1
sS'resources'
p1190
I23
sS'morgan'
p1191
I8
sS'starts'
p1192
I18
sS'prompt'
p1193
I4
sS'stated'
p1194
I9
sS'rodriguez'
p1195
I3
sS'suggestions'
p1196
I2
sS'accept'
p1197
I5
sS'states'
p1198
I24
sS'02.apr.02'
p1199
I2
sS'gallon'
p1200
I2
sS'1602.0'
p1201
I1
sS'huge'
p1202
I12
sS'equities'
p1203
I1
sS'shipped'
p1204
I5
sS'dismissed'
p1205
I3
sS'acres.oat'
p1206
I1
sS'earnings'
p1207
I18
sS'dismisses'
p1208
I1
sS'plant'
p1209
I11
sS'deported.mary'
p1210
I1
sS'intended'
p1211
I6
sS'privatized'
p1212
I2
sS'perrin'
p1213
I1
sS'completifeb'
p1214
I1
sS'cromer'
p1215
I15
sS'develop'
p1216
I10
sS'pleaded'
p1217
I5
sS'5.71march'
p1218
I1
sS'04/07indicator'
p1219
I1
sS'acquisitions'
p1220
I3
sS'leroy'
p1221
I1
sS'broadcasting'
p1222
I1
sS'millions.report'
p1223
I1
sS'million.dia'
p1224
I1
sS'toens'
p1225
I2
sS'79.13'
p1226
I2
sS'1300'
p1227
I2
sS'celsius.seeding'
p1228
I2
sS'ita'
p1229
I15
sS'paper'
p1230
I15
sS'scott'
p1231
I3
sS'499'
p1232
I1
sS'signs'
p1233
I6
sS'voters.chretien'
p1234
I1
sS'smiling'
p1235
I1
sS'rapidly'
p1236
I1
sS'inflation.if'
p1237
I1
sS'hockeyleague'
p1238
I7
sS'xiaoping'
p1239
I2
sS'grade'
p1240
I7
sS'tightenings'
p1241
I1
sS'1.3847'
p1242
I1
sS'1.3842'
p1243
I1
sS'1.3840'
p1244
I1
sS'1.3841'
p1245
I1
sS'sucked'
p1246
I2
sS'reassured'
p1247
I1
sS'1,268'
p1248
I1
sS'24.40'
p1249
I1
sS'reassures'
p1250
I1
sS'flaxseed'
p1251
I1
sS'investigators'
p1252
I1
sS'27.66'
p1253
I1
sS'reactions'
p1254
I1
sS'england'
p1255
I1
sS'reduce'
p1256
I6
sS"they've"
p1257
I6
sS'goal.in'
p1258
I1
sS'fewer'
p1259
I1
sS'resouces'
p1260
I1
sS'operation'
p1261
I1
sS'really'
p1262
I6
sS'repressive'
p1263
I1
sS'missed'
p1264
I1
sS'week.saskatchewan'
p1265
I1
sS'research'
p1266
I15
sS'dapr'
p1267
I2
sS'ministerial'
p1268
I1
sS'21.044'
p1269
I1
sS'belief'
p1270
I1
sS'risen'
p1271
I4
sS'92,000'
p1272
I1
sS'stemmed'
p1273
I1
sS'0.7220'
p1274
I1
sS'kelly.the'
p1275
I1
sS'0.7225'
p1276
I1
sS'midwest.the'
p1277
I1
sS'kings'
p1278
I2
sS'remaining.lemieux'
p1279
I1
sS'enrgapr'
p1280
I1
sS'director'
p1281
I17
sS'owners'
p1282
I1
sS'retained'
p1283
I2
sS'cfia'
p1284
I1
sS'adam'
p1285
I1
sS'w'
p1286
I26
sS'imrl'
p1287
I6
sS'2,370'
p1288
I1
sS'corrugated'
p1289
I1
sS'reversing'
p1290
I3
sS'paper.the'
p1291
I1
sS'3/32'
p1292
I1
sS'forwards'
p1293
I2
sS'12.30'
p1294
I1
sS'12.32'
p1295
I1
sS'12.35'
p1296
I1
sS'number'
p1297
I18
sS'radhika'
p1298
I1
sS'guess'
p1299
I2
sS'needed'
p1300
I12
sS'threatening'
p1301
I2
sS'nomo'
p1302
I1
sS'calculations'
p1303
I6
sS'aa2'
p1304
I3
sS'listed'
p1305
I10
sS'relationship'
p1306
I5
sS'1.591'
p1307
I1
sS'immediate'
p1308
I4
sS'5.95'
p1309
I1
sS'appreciation'
p1310
I1
sS'focusing'
p1311
I6
sS'28.14'
p1312
I2
sS'iranian'
p1313
I1
sS'dikes'
p1314
I1
sS'defends'
p1315
I1
sS'patchwork'
p1316
I1
sS'determined'
p1317
I6
sS'marriage'
p1318
I2
sS'38.0952'
p1319
I1
sS'0.94'
p1320
I1
sS'0.90'
p1321
I2
sS'early.may'
p1322
I1
sS'nikolai'
p1323
I1
sS'targets'
p1324
I4
sS'defect'
p1325
I1
sS'tse.womg'
p1326
I1
sS'services.simpkins'
p1327
I1
sS'polygram'
p1328
I1
sS'built.maritimes'
p1329
I1
sS'sell'
p1330
I17
sS'tough'
p1331
I4
sS'self'
p1332
I1
sS'jeopardize'
p1333
I1
sS'walk'
p1334
I1
sS'internal'
p1335
I1
sS'interconnection'
p1336
I1
sS'fossas'
p1337
I2
sS'22,648'
p1338
I1
sS'play'
p1339
I10
sS'83.3'
p1340
I1
sS'mondesi'
p1341
I1
sS'plan'
p1342
I6
sS'sudjana'
p1343
I6
sS'899.4'
p1344
I1
sS'understands'
p1345
I1
sS'24.the'
p1346
I1
sS'cover'
p1347
I2
sS'barred'
p1348
I1
sS'aeco'
p1349
I8
sS'life.report'
p1350
I1
sS'barrel'
p1351
I4
sS'aecl'
p1352
I2
sS'dragged'
p1353
I2
sS'reuters.a'
p1354
I1
sS'markets.canada'
p1355
I1
sS'golf'
p1356
I1
sS'gold'
p1357
I181
sS'frontburner'
p1358
I1
sS'gold.the'
p1359
I5
sS'ugg'
p1360
I9
sS'midwestern'
p1361
I1
sS'nasdaq'
p1362
I22
sS'session'
p1363
I17
sS'win.the'
p1364
I1
sS'rusedski'
p1365
I1
sS'overwhelmed'
p1366
I8
sS'impact'
p1367
I3
sS'indicator'
p1368
I9
sS'indust'
p1369
I12
sS'failed'
p1370
I7
sS'equity'
p1371
I22
sS'sunny'
p1372
I2
sS'30.725'
p1373
I1
sS'problem.the'
p1374
I1
sS'3-for-3'
p1375
I1
sS'closely'
p1376
I4
sS'reporters'
p1377
I9
sS'sunni'
p1378
I1
sS'olerud'
p1379
I1
sS'crs'
p1380
I3
sS'ordeapr'
p1381
I1
sS'richards'
p1382
I1
sS'banking'
p1383
I5
sS'surrendering'
p1384
I1
sS'cra'
p1385
I1
sS'1993.canada'
p1386
I1
sS'river'
p1387
I28
sS'prospectus'
p1388
I4
sS'emar'
p1389
I1
sS'philadelphiaatlanta'
p1390
I1
sS'7.34'
p1391
I2
sS'sep'
p1392
I4
sS'opl'
p1393
I1
sS'312'
p1394
I5
sS'7.38'
p1395
I1
sS'activists'
p1396
I2
sS'startup'
p1397
I1
sS'byron'
p1398
I2
sS'51,288.feed'
p1399
I1
sS'justification'
p1400
I1
sS'migration'
p1401
I7
sS'sea'
p1402
I2
sS'celsius.manitoba'
p1403
I1
sS'regulator'
p1404
I9
sS'muted'
p1405
I2
sS'216,620'
p1406
I1
sS'currently'
p1407
I21
sS'pickup'
p1408
I1
sS'thursday.canada'
p1409
I1
sS'available'
p1410
I18
sS'1,038'
p1411
I1
sS'incident'
p1412
I3
sS'158.00/cubic'
p1413
I1
sS'dividend'
p1414
I1
sS'legislature'
p1415
I4
sS'prospects'
p1416
I1
sS'patched'
p1417
I1
sS'improved'
p1418
I3
sS'19.96'
p1419
I2
sS'tremblay'
p1420
I1
sS'appapr'
p1421
I1
sS'patti'
p1422
I1
sS'1.67'
p1423
I1
sS'thinking'
p1424
I1
sS'1.65'
p1425
I1
sS'1.60'
p1426
I1
sS'extracting'
p1427
I1
sS'approve'
p1428
I2
sS'wednesday.clemens'
p1429
I1
sS'1.68'
p1430
I1
sS'load'
p1431
I6
sS'underperforming'
p1432
I1
sS'majesty'
p1433
I2
sS'bell'
p1434
I6
sS'lineup.1996'
p1435
I1
sS'acted'
p1436
I2
sS'northeastern'
p1437
I2
sS'leon'
p1438
I1
sS'agents'
p1439
I1
sS'said.figures'
p1440
I1
sS'west.curtis'
p1441
I1
sS'monthly'
p1442
I10
sS'acceptance'
p1443
I1
sS'far.he'
p1444
I1
sS'instalment'
p1445
I1
sS'hitting'
p1446
I2
sS'contained'
p1447
I16
sS'widening'
p1448
I6
sS'dukeman'
p1449
I1
sS'basis.a'
p1450
I1
sS'firm'
p1451
I44
sS'repayments'
p1452
I1
sS'champion'
p1453
I3
sS'fund'
p1454
I12
sS'representative'
p1455
I3
sS'insiders'
p1456
I2
sS'towns'
p1457
I2
sS'inclement'
p1458
I1
sS'handling'
p1459
I2
sS'uncertain'
p1460
I2
sS'straight'
p1461
I5
sS'mln'
p1462
I82
sS'budget'
p1463
I4
sS'receive'
p1464
I3
sS'pressed'
p1465
I1
sS'evaluating'
p1466
I1
sS'192.50'
p1467
I1
sS'robin'
p1468
I1
sS'kingdom'
p1469
I1
sS'pound'
p1470
I2
sS'hoping'
p1471
I3
sS'hentgen'
p1472
I3
sS'paperboard'
p1473
I2
sS'von'
p1474
I1
sS'binding'
p1475
I1
sS'6.829'
p1476
I1
sS'99.19060'
p1477
I1
sS'5.04'
p1478
I1
sS'71.93'
p1479
I2
sS'71.94'
p1480
I2
sS'algoma'
p1481
I1
sS'october.many'
p1482
I1
sS'spectacular'
p1483
I4
sS'kelowna'
p1484
I1
sS'seek'
p1485
I4
sS'875'
p1486
I1
sS'actuaries'
p1487
I1
sS'4.529'
p1488
I1
sS'read'
p1489
I1
sS'virtually'
p1490
I3
sS'survey'
p1491
I26
sS'growtmar'
p1492
I1
sS'alert'
p1493
I2
sS'26,000'
p1494
I7
sS'levels'
p1495
I19
sS'necessity'
p1496
I1
sS'54.75'
p1497
I1
sS'recent'
p1498
I24
sS'early'
p1499
I40
sS'transwest'
p1500
I1
sS'megastrol'
p1501
I1
sS'alleging'
p1502
I2
sS'picks'
p1503
I1
sS'person'
p1504
I2
sS'boat'
p1505
I1
sS'grower'
p1506
I1
sS'kelly'
p1507
I2
sS'clearance'
p1508
I3
sS'change.diplomatic'
p1509
I1
sS'recoverable'
p1510
I1
sS'lester'
p1511
I1
sS'5.93note'
p1512
I1
sS'nagy.in'
p1513
I1
sS'0.50'
p1514
I7
sS'1.784'
p1515
I1
sS'19,000.statscan'
p1516
I1
sS'assaying'
p1517
I12
sS'deflt'
p1518
I3
sS'28,398'
p1519
I1
sS'04/04employment'
p1520
I1
sS'conclusions'
p1521
I3
sS'0.55'
p1522
I3
sS'admission'
p1523
I3
sS'4.00/cubic'
p1524
I1
sS'advertisements'
p1525
I1
sS'signals'
p1526
I1
sS'rangers'
p1527
I13
sS'provincially'
p1528
I1
sS'parents'
p1529
I1
sS'pst'
p1530
I1
sS'input'
p1531
I4
sS'smoltz'
p1532
I1
sS'surprised'
p1533
I3
sS'indonesian'
p1534
I17
sS'australia'
p1535
I4
sS'victims'
p1536
I1
sS'emergency'
p1537
I1
sS'couple'
p1538
I3
sS'wives'
p1539
I1
sS'suffering'
p1540
I1
sS'quest'
p1541
I1
sS'hayat'
p1542
I3
sS'aerospace'
p1543
I2
sS'buyout'
p1544
I2
sS'swamping'
p1545
I1
sS'insurance.a'
p1546
I1
sS'projects'
p1547
I10
sS'formal'
p1548
I6
sS'sorting'
p1549
I1
sS'imposed'
p1550
I1
sS'hardisty'
p1551
I18
sS'1,498.0'
p1552
I1
sS'communications'
p1553
I7
sS'individuals'
p1554
I1
sS'yields'
p1555
I2
sS'factors.the'
p1556
I1
sS'alexandre'
p1557
I1
sS'storoage'
p1558
I1
sS'privately'
p1559
I1
sS'methods'
p1560
I6
sS'spring'
p1561
I17
sS'unfazed'
p1562
I1
sS'mighty'
p1563
I1
sS'glavine'
p1564
I1
sS'sight'
p1565
I2
sS'39.75'
p1566
I1
sS'53.65'
p1567
I1
sS'assisted'
p1568
I4
sS'brokenhead'
p1569
I1
sS'4.80'
p1570
I1
sS'bb'
p1571
I3
sS'bc'
p1572
I11
sS'word'
p1573
I2
sS'1.3862'
p1574
I1
sS'agreement'
p1575
I24
sS'mlnufb'
p1576
I3
sS'bp'
p1577
I2
sS'respite'
p1578
I1
sS'output'
p1579
I15
sS'caron'
p1580
I1
sS'major'
p1581
I34
sS'daimler'
p1582
I1
sS'wildlife'
p1583
I2
sS'140.80'
p1584
I1
sS'est/1743'
p1585
I3
sS'call.by'
p1586
I1
sS'24.64'
p1587
I5
sS'repair'
p1588
I2
sS'clinton'
p1589
I4
sS'colorado'
p1590
I16
sS'awaited'
p1591
I1
sS'9.95'
p1592
I1
sS'primarily'
p1593
I1
sS'0.7143'
p1594
I1
sS'shares.minutes'
p1595
I1
sS'uncertainties'
p1596
I1
sS'poaching'
p1597
I1
sS'pyle'
p1598
I1
sS'spending'
p1599
I3
sS'bargaining'
p1600
I3
sS'specifically'
p1601
I1
sS'unloads.thunder'
p1602
I1
sS'suit'
p1603
I8
sS'spar'
p1604
I3
sS'opens'
p1605
I1
sS'considerably'
p1606
I1
sS'atlantis'
p1607
I5
sS'inches'
p1608
I7
sS'week.another'
p1609
I1
sS'atlantic'
p1610
I11
sS'competition'
p1611
I2
sS'0.7203'
p1612
I1
sS'line'
p1613
I14
sS'0.7200'
p1614
I1
sS'0.7206'
p1615
I1
sS'posted'
p1616
I3
sS'5.988'
p1617
I1
sS'maturity'
p1618
I5
sS'uk'
p1619
I89
sS'apiece'
p1620
I1
sS'ue'
p1621
I1
sS'167.00/cubic'
p1622
I1
sS'storing'
p1623
I1
sS'boomers'
p1624
I1
sS'overland'
p1625
I1
sS'3/16'
p1626
I1
sS'chan'
p1627
I6
sS'globally'
p1628
I1
sS'jeffrey.hodgson@reuters.com'
p1629
I7
sS'35.02'
p1630
I1
sS'weekly.toronto'
p1631
I1
sS'codes'
p1632
I1
sS'smallest.critics'
p1633
I2
sS'950'
p1634
I1
sS'uranium'
p1635
I2
sS'invalid'
p1636
I4
sS'definitely'
p1637
I1
sS'kalirai'
p1638
I2
sS'freighter'
p1639
I1
sS'principle'
p1640
I1
sS'elements'
p1641
I1
sS'regina'
p1642
I1
sS'436.50'
p1643
I1
sS'kaiser'
p1644
I8
sS'meals'
p1645
I1
sS'tarnished.canada'
p1646
I1
sS'tailored'
p1647
I1
sS'land'
p1648
I6
sS'5,826.56'
p1649
I1
sS'said.bre'
p1650
I7
sS'walked'
p1651
I7
sS'crease'
p1652
I1
sS'carrying'
p1653
I4
sS'walker'
p1654
I3
sS'fresh'
p1655
I2
sS'agt'
p1656
I1
sS'having'
p1657
I3
sS'hampton'
p1658
I1
sS'said.analysts'
p1659
I1
sS'partial'
p1660
I1
sS'saying'
p1661
I13
sS'results'
p1662
I39
sS'5828.88dji'
p1663
I1
sS'existing'
p1664
I9
sS'softer'
p1665
I2
sS'37,000'
p1666
I1
sS'859-1631'
p1667
I1
sS'broader'
p1668
I2
sS'bomb'
p1669
I1
sS'churned'
p1670
I1
sS'concerned'
p1671
I2
sS'young'
p1672
I16
sS'send'
p1673
I2
sS'citing'
p1674
I1
sS'bills.the'
p1675
I2
sS'sent'
p1676
I7
sS'canada.canada'
p1677
I1
sS'alexei'
p1678
I1
sS'6/10'
p1679
I2
sS'bury'
p1680
I1
sS'alcan'
p1681
I4
sS'continues'
p1682
I2
sS'reopened'
p1683
I6
sS'upshall'
p1684
I1
sS'continued'
p1685
I30
sS'minerals'
p1686
I73
sS'categories'
p1687
I1
sS'northwestern'
p1688
I1
sS'magic'
p1689
I1
sS'transmission'
p1690
I4
sS'experiencing'
p1691
I3
sS'trd'
p1692
I3
sS'underlayments'
p1693
I1
sS'try'
p1694
I4
sS'trite'
p1695
I1
sS'bcf.the'
p1696
I1
sS'massachusetts'
p1697
I1
sS'pledge'
p1698
I2
sS'insolvent'
p1699
I1
sS'04/17merch'
p1700
I4
sS'licensed'
p1701
I1
sS'stock.bre'
p1702
I2
sS'recruitment'
p1703
I1
sS'video'
p1704
I8
sS'licenses'
p1705
I1
sS'accounts.the'
p1706
I1
sS'173.00/cubic'
p1707
I1
sS'index'
p1708
I26
sS'tkachuk'
p1709
I1
sS'lehman'
p1710
I5
sS'expressed'
p1711
I3
sS'richmond'
p1712
I2
sS'consistently'
p1713
I1
sS'twins'
p1714
I7
sS'flowing'
p1715
I2
sS'citic'
p1716
I1
sS'firms'
p1717
I13
sS'1400'
p1718
I1
sS'b767'
p1719
I1
sS'slabs'
p1720
I1
sS'led'
p1721
I14
sS'lee'
p1722
I3
sS'resisting'
p1723
I1
sS'play.the'
p1724
I1
sS'licence'
p1725
I1
sS'consideration'
p1726
I1
sS'great'
p1727
I8
sS'3m-libor'
p1728
I1
sS'cts'
p1729
I1
sS'technical'
p1730
I31
sS'involved'
p1731
I9
sS'3.516'
p1732
I1
sS'innings.in'
p1733
I2
sS'resulting'
p1734
I1
sS'opinion'
p1735
I8
sS'makes'
p1736
I8
sS'attack.1996'
p1737
I1
sS'involves'
p1738
I2
sS'164.00/cubic'
p1739
I2
sS'1.the'
p1740
I1
sS'339'
p1741
I1
sS'5900.40'
p1742
I1
sS'7.50'
p1743
I1
sS'mariners'
p1744
I5
sS'ninth'
p1745
I11
sS'standing'
p1746
I2
sS'confidence'
p1747
I10
sS'650.3'
p1748
I1
sS'recalling'
p1749
I1
sS'illegal'
p1750
I2
sS'ministers'
p1751
I6
sS'bonds'
p1752
I22
sS'midday'
p1753
I4
sS'685.17'
p1754
I1
sS'41.8'
p1755
I1
sS'occurred'
p1756
I1
sS'dealings'
p1757
I1
sS'tonawanda'
p1758
I1
sS'4-for-5'
p1759
I1
sS'sharply'
p1760
I8
sS'baby'
p1761
I3
sS'payrolls'
p1762
I7
sS'mlneb'
p1763
I3
sS'customer'
p1764
I1
sS'animals'
p1765
I3
sS'challenge'
p1766
I3
sS'clients'
p1767
I2
sS'insists'
p1768
I2
sS'grissom'
p1769
I1
sS'canada.terms'
p1770
I1
sS'emerson'
p1771
I1
sS'simplicio'
p1772
I2
sS'1.48'
p1773
I1
sS'drill'
p1774
I5
sS'361'
p1775
I1
sS'1.40'
p1776
I3
sS'1.43'
p1777
I1
sS'1.42'
p1778
I2
sS'slid'
p1779
I1
sS'weaker'
p1780
I18
sS'process'
p1781
I20
sS'lock'
p1782
I1
sS'benz'
p1783
I1
sS'11/32'
p1784
I1
sS'high'
p1785
I43
sS'nears'
p1786
I1
sS'ninth.at'
p1787
I1
sS'weaken'
p1788
I2
sS'utahdenver'
p1789
I1
sS'reuter'
p1790
I2
sS'6611.05'
p1791
I1
sS'delay'
p1792
I4
sS'brothers.gregory'
p1793
I1
sS'1,013'
p1794
I1
sS'animal'
p1795
I3
sS'est/1552'
p1796
I1
sS'est/1550'
p1797
I1
sS'est/1554'
p1798
I4
sS'fuhr'
p1799
I1
sS'countries.the'
p1800
I1
sS'tied'
p1801
I8
sS'halted'
p1802
I30
sS'investments.to'
p1803
I1
sS'34/44'
p1804
I1
sS'04/09'
p1805
I3
sS'fits'
p1806
I1
sS'reggie'
p1807
I2
sS'37.17'
p1808
I1
sS'toronto.but'
p1809
I2
sS'boeing'
p1810
I1
sS'22nd'
p1811
I1
sS'support.following'
p1812
I1
sS'commodities'
p1813
I2
sS'allow'
p1814
I5
sS'counted'
p1815
I1
sS'indexapr'
p1816
I1
sS'499.91'
p1817
I1
sS'houston'
p1818
I13
sS'producer'
p1819
I17
sS'produces'
p1820
I4
sS'produced'
p1821
I8
sS'it.scientists'
p1822
I1
sS'command.before'
p1823
I1
sS'12,800'
p1824
I1
sS'perfect'
p1825
I1
sS'134.00'
p1826
I3
sS'30the'
p1827
I1
sS'meantime'
p1828
I2
sS'2010'
p1829
I1
sS'designs'
p1830
I1
sS'x.bre'
p1831
I4
sS'antara'
p1832
I3
sS'said.earlier'
p1833
I1
sS'tradingin'
p1834
I1
sS'1.415'
p1835
I2
sS'4-3.through'
p1836
I1
sS'realize'
p1837
I1
sS'841-89-36'
p1838
I1
sS'undertaking'
p1839
I1
sS'2.50.bre'
p1840
I2
sS'42,822'
p1841
I1
sS'himself.director'
p1842
I1
sS'tuesday.canada'
p1843
I1
sS'truth'
p1844
I3
sS'70,000'
p1845
I3
sS'accompanied'
p1846
I2
sS'mets'
p1847
I2
sS'doing'
p1848
I1
sS'habitually'
p1849
I1
sS'kananaskis'
p1850
I1
sS'methanex'
p1851
I18
sS'frequency'
p1852
I1
sS'selzler'
p1853
I1
sS'subsea'
p1854
I1
sS'agriculture'
p1855
I16
sS'strathcona.the'
p1856
I1
sS'limousines'
p1857
I1
sS'rigging'
p1858
I2
sS'189,617'
p1859
I1
sS'theoretically'
p1860
I1
sS'ascertained.sudjana'
p1861
I1
sS'waters'
p1862
I1
sS'1.5can'
p1863
I1
sS'regulators'
p1864
I6
sS'regulatory'
p1865
I10
sS'steering'
p1866
I2
sS'dubbed'
p1867
I1
sS'david'
p1868
I26
sS'stoppage'
p1869
I1
sS'davis'
p1870
I6
sS'hussein'
p1871
I2
sS'1.3883/88'
p1872
I2
sS'anita'
p1873
I1
sS'458'
p1874
I1
sS'38.52'
p1875
I1
sS'450'
p1876
I1
sS'acreage'
p1877
I4
sS'owned'
p1878
I28
sS'hitch.compounding'
p1879
I1
sS'ties'
p1880
I1
sS'owner'
p1881
I6
sS'leasing'
p1882
I1
sS'buoyed'
p1883
I2
sS'legislative'
p1884
I1
sS'7.martinair'
p1885
I1
sS'los'
p1886
I17
sS'39.50'
p1887
I1
sS'reporters.he'
p1888
I1
sS'1.0-3.0'
p1889
I1
sS'evacuated'
p1890
I4
sS'interests'
p1891
I2
sS'enforcement'
p1892
I2
sS'dallascolorado'
p1893
I1
sS'depressing'
p1894
I1
sS'vouch'
p1895
I4
sS'case.in'
p1896
I1
sS'steel'
p1897
I7
sS'1,222'
p1898
I1
sS'18037.30'
p1899
I1
sS'decided'
p1900
I4
sS'briefing'
p1901
I1
sS'reserve.in'
p1902
I1
sS'04/22manufac'
p1903
I2
sS'27.29'
p1904
I1
sS'false'
p1905
I1
sS'khabibulin'
p1906
I2
sS'partnership'
p1907
I5
sS'blockbuster'
p1908
I1
sS'cecil'
p1909
I1
sS'documents'
p1910
I1
sS'124.00/cubic'
p1911
I1
sS'mills'
p1912
I9
sS'pcts'
p1913
I2
sS'68,700'
p1914
I1
sS'worldwide'
p1915
I1
sS'36.84'
p1916
I1
sS'10.30'
p1917
I2
sS'pitches'
p1918
I2
sS'48th'
p1919
I1
sS'37.25'
p1920
I1
sS'stronger'
p1921
I12
sS'face'
p1922
I4
sS"you'll"
p1923
I1
sS'fact'
p1924
I5
sS'55.19'
p1925
I1
sS'noire'
p1926
I1
sS'09'
p1927
I7
sS'find.but'
p1928
I1
sS'nationwide.its'
p1929
I1
sS'vacancy'
p1930
I7
sS'bring'
p1931
I3
sS'lloyd'
p1932
I5
sS'mountains.the'
p1933
I1
sS'rough'
p1934
I1
sS'economist'
p1935
I14
sS'thursday.prices'
p1936
I1
sS'decade'
p1937
I1
sS'principal'
p1938
I2
sS'tapr'
p1939
I2
sS'jay'
p1940
I1
sS'earlier.the'
p1941
I1
sS'5840.29dji'
p1942
I1
sS'jan'
p1943
I38
sS'jam'
p1944
I1
sS'32-transponder'
p1945
I2
sS'31.the'
p1946
I1
sS'hope'
p1947
I5
sS'meant'
p1948
I1
sS'handle'
p1949
I4
sS'listened'
p1950
I1
sS'means'
p1951
I4
sS'fraud'
p1952
I1
sS'exchanges'
p1953
I17
sS'17.apr.97'
p1954
I1
sS'h'
p1955
I4
sS'reid'
p1956
I2
sS'aec'
p1957
I4
sS'stuff'
p1958
I3
sS'updatedr'
p1959
I1
sS'gbp'
p1960
I2
sS'rein'
p1961
I1
sS'strengthened'
p1962
I5
sS'temporarily'
p1963
I2
sS'btr'
p1964
I3
sS'andover'
p1965
I1
sS'travis'
p1966
I1
sS'155.00/cubic'
p1967
I1
sS'agricultural'
p1968
I3
sS'1993.some'
p1969
I1
sS'133.00petro-canada'
p1970
I2
sS'nuclear'
p1971
I3
sS'74-year'
p1972
I1
sS'email'
p1973
I2
sS'ends'
p1974
I1
sS'1.3850resistance'
p1975
I2
sS'scotiamcleod'
p1976
I6
sS'brocke'
p1977
I1
sS'comment.de'
p1978
I1
sS'refuting'
p1979
I1
sS'lawsuit'
p1980
I12
sS'marty'
p1981
I2
sS'04/17curr'
p1982
I2
sS'144.00suncor'
p1983
I2
sS'deficits'
p1984
I1
sS'drug'
p1985
I4
sS'darryl'
p1986
I1
sS'synergies'
p1987
I1
sS'383'
p1988
I1
sS'figures'
p1989
I11
sS'summer.catherine'
p1990
I2
sS'cj'
p1991
I1
sS'adjusted'
p1992
I3
sS'cm'
p1993
I4
sS'conclude'
p1994
I1
sS'cc'
p1995
I2
sS'gwyn'
p1996
I1
sS'leon.organizer'
p1997
I1
sS'snowfall'
p1998
I1
sS'cd'
p1999
I2
sS'cy'
p2000
I5
sS'137.00bow'
p2001
I3
sS'16.gordon'
p2002
I1
sS'allocated'
p2003
I2
sS'oakland'
p2004
I7
sS'8.0'
p2005
I2
sS'8.3'
p2006
I1
sS'rate.a'
p2007
I1
sS'8.5'
p2008
I5
sS'8.4'
p2009
I2
sS'midland'
p2010
I2
sS'8.6'
p2011
I1
sS'8.8'
p2012
I2
sS'tradedtoronto'
p2013
I1
sS'quotas'
p2014
I2
sS'willing'
p2015
I7
sS'3-mo'
p2016
I6
sS'diavik'
p2017
I3
sS'waste'
p2018
I1
sS'thursday.shares'
p2019
I1
sS'valuations'
p2020
I1
sS'slumping'
p2021
I1
sS'eduardo'
p2022
I1
sS'sales'
p2023
I44
sS'ninth.bobby'
p2024
I1
sS'atlanta'
p2025
I11
sS'pctlehman'
p2026
I1
sS'grenfell.traders'
p2027
I1
sS'freeport'
p2028
I28
sS'155.00shell'
p2029
I2
sS'preval'
p2030
I3
sS'rbi'
p2031
I10
sS'yukihiko'
p2032
I1
sS'rbc'
p2033
I5
sS'va'
p2034
I5
sS'site'
p2035
I13
sS'vs'
p2036
I6
sS'optimistic'
p2037
I2
sS'19.7'
p2038
I1
sS'sits'
p2039
I2
sS'situ'
p2040
I1
sS'lankan'
p2041
I1
sS'tupac'
p2042
I1
sS'newsroom'
p2043
I15
sS'20.19/barrelmidale'
p2044
I1
sS'juan'
p2045
I2
sS'1996.doug'
p2046
I1
sS'serving'
p2047
I1
sS'terrorism'
p2048
I1
sS'paula'
p2049
I1
sS'53-109'
p2050
I1
sS'ball'
p2051
I2
sS'columbia'
p2052
I21
sS'onerous'
p2053
I1
sS'forecasts'
p2054
I2
sS'padres'
p2055
I2
sS'boding'
p2056
I1
sS'heather'
p2057
I2
sS'expand'
p2058
I5
sS'audit'
p2059
I21
sS'protecting'
p2060
I1
sS'indonesia'
p2061
I35
sS'southeastern'
p2062
I2
sS'357'
p2063
I1
sS'356'
p2064
I1
sS'355'
p2065
I2
sS'1.28'
p2066
I1
sS'7500'
p2067
I1
sS'350'
p2068
I4
sS'1.20'
p2069
I2
sS'drawing'
p2070
I2
sS'7.78'
p2071
I9
sS'newest'
p2072
I1
sS'february.the'
p2073
I4
sS'inc.mci'
p2074
I1
sS'hose.the'
p2075
I1
sS'geller'
p2076
I2
sS'16,748'
p2077
I1
sS'rooms'
p2078
I1
sS'2000.twenty'
p2079
I1
sS'1997/98'
p2080
I3
sS'paul'
p2081
I12
sS'assn'
p2082
I2
sS'rotation'
p2083
I2
sS'wed'
p2084
I65
sS'residential'
p2085
I2
sS'arrest'
p2086
I5
sS'nextgdp'
p2087
I2
sS'wet'
p2088
I2
sS'increased'
p2089
I12
sS'government'
p2090
I49
sS'checking'
p2091
I2
sS'chancellor'
p2092
I1
sS'increases'
p2093
I4
sS'zimbabwe'
p2094
I2
sS'desk'
p2095
I7
sS'whopping'
p2096
I2
sS'23.05/barrel'
p2097
I1
sS'144,100'
p2098
I1
sS'strike.the'
p2099
I1
sS'gaining'
p2100
I1
sS'indications'
p2101
I5
sS'liquidation'
p2102
I1
sS'habitat'
p2103
I2
sS'actuarial'
p2104
I1
sS'foreseeable'
p2105
I1
sS'exchange.on'
p2106
I1
sS'vse'
p2107
I2
sS'recognition'
p2108
I1
sS'montreal.with'
p2109
I1
sS'avoid'
p2110
I3
sS'salaries'
p2111
I2
sS'does'
p2112
I16
sS'edmontonpropane'
p2113
I1
sS'slower'
p2114
I2
sS'mine.dupuis'
p2115
I1
sS'schedule'
p2116
I3
sS'pressure'
p2117
I21
sS'30.700canada'
p2118
I1
sS'includes'
p2119
I9
sS'loans'
p2120
I5
sS'stage'
p2121
I3
sS'gained'
p2122
I6
sS'schedulest'
p2123
I1
sS'25.7'
p2124
I5
sS'debentures'
p2125
I7
sS'angeles'
p2126
I15
sS'union'
p2127
I9
sS'insufficient'
p2128
I2
sS'revise'
p2129
I1
sS'executives'
p2130
I3
sS'alliance'
p2131
I9
sS'rectify'
p2132
I1
sS'commitment'
p2133
I1
sS'roads'
p2134
I2
sS'150.00bow'
p2135
I2
sS'housing'
p2136
I22
sS'9.8'
p2137
I1
sS'grades.two'
p2138
I1
sS'9.4'
p2139
I2
sS'9.5'
p2140
I1
sS'9.6'
p2141
I4
sS'9.7'
p2142
I17
sS'9.0'
p2143
I3
sS'9.1'
p2144
I1
sS'9.3'
p2145
I10
sS'mcmoran'
p2146
I21
sS'montrealapril'
p2147
I1
sS'delivery'
p2148
I4
sS'expos.in'
p2149
I1
sS'lowered'
p2150
I4
sS'84.1'
p2151
I2
sS'valuation'
p2152
I3
sS'entered'
p2153
I1
sS'bilateral'
p2154
I2
sS'tossed'
p2155
I1
sS'marquis'
p2156
I1
sS'placer'
p2157
I2
sS'official'
p2158
I23
sS'smooth'
p2159
I1
sS'placed'
p2160
I2
sS'jeoff'
p2161
I1
sS'distribution'
p2162
I3
sS'matter.the'
p2163
I1
sS'bearing'
p2164
I1
sS'inv'
p2165
I1
sS'contribute'
p2166
I1
sS'slowing'
p2167
I2
sS'ind'
p2168
I5
sS'ing'
p2169
I2
sS'planting'
p2170
I1
sS'57,215'
p2171
I1
sS'compared'
p2172
I10
sS'variety'
p2173
I2
sS'trials'
p2174
I1
sS'forests'
p2175
I10
sS'lately'
p2176
I2
sS'details'
p2177
I12
sS'28.apr.97'
p2178
I1
sS'2-1/2'
p2179
I1
sS'francisco'
p2180
I7
sS'monday'
p2181
I29
sS'worker'
p2182
I1
sS'dismantle'
p2183
I1
sS'weather.rapid'
p2184
I1
sS'20.45'
p2185
I1
sS'chance'
p2186
I4
sS'25.02'
p2187
I1
sS'overseas'
p2188
I1
sS'15.125'
p2189
I1
sS'driveshaft'
p2190
I1
sS'800-mile'
p2191
I1
sS'eos'
p2192
I1
sS'470'
p2193
I3
sS'compete'
p2194
I2
sS'pension'
p2195
I2
sS'7.370'
p2196
I1
sS'searched'
p2197
I1
sS'rural'
p2198
I4
sS'inning'
p2199
I17
sS'consolidated'
p2200
I3
sS'saves'
p2201
I2
sS'0.7189'
p2202
I4
sS'16.55'
p2203
I1
sS'28-year'
p2204
I1
sS'0830'
p2205
I83
sS'controversial'
p2206
I8
sS'0.7181'
p2207
I2
sS'integrity'
p2208
I2
sS'0.7185'
p2209
I1
sS'consolidates'
p2210
I1
sS'seasonallyadjusted'
p2211
I1
sS'demand.the'
p2212
I1
sS'prelq1'
p2213
I1
sS'situation.the'
p2214
I2
sS"shi'ites"
p2215
I1
sS'edward'
p2216
I1
sS'voted'
p2217
I1
sS'kalimantan'
p2218
I7
sS'cincinnatiny'
p2219
I1
sS'worth'
p2220
I14
sS'geology'
p2221
I1
sS'perishable'
p2222
I1
sS'exception'
p2223
I1
sS'sellers'
p2224
I2
sS'3.839'
p2225
I1
sS'shares.trading'
p2226
I1
sS'blanked'
p2227
I2
sS'exporters'
p2228
I1
sS'postpone'
p2229
I1
sS'tickets'
p2230
I3
sS"we'll"
p2231
I7
sS'investigator'
p2232
I2
sS'pinch'
p2233
I4
sS'announced'
p2234
I20
sS'298'
p2235
I1
sS'299'
p2236
I1
sS'indices'
p2237
I1
sS'cms'
p2238
I6
sS'20991939'
p2239
I1
sS'1,606'
p2240
I1
sS'dwindled'
p2241
I1
sS'1,603'
p2242
I1
sS'shut'
p2243
I9
sS'chee'
p2244
I1
sS'rigorous'
p2245
I1
sS'sls'
p2246
I8
sS'established'
p2247
I7
sS'pts'
p2248
I16
sS'rockies'
p2249
I3
sS'spring.the'
p2250
I1
sS'petro'
p2251
I11
sS'isles'
p2252
I1
sS'monty'
p2253
I2
sS'told'
p2254
I53
sS'crunch'
p2255
I1
sS'richest'
p2256
I5
sS'conglomerate'
p2257
I1
sS'protection'
p2258
I4
sS'marchment'
p2259
I1
sS'1992.watson'
p2260
I1
sS'studs'
p2261
I2
sS'daughter'
p2262
I1
sS'fluctuated'
p2263
I1
sS'items'
p2264
I3
sS'employees'
p2265
I15
sS'0.31'
p2266
I1
sS'0.30'
p2267
I2
sS'comanagers'
p2268
I1
sS'09/25/97'
p2269
I1
sS'53,500'
p2270
I1
sS'stressed'
p2271
I1
sS'postponed'
p2272
I3
sS'factormar'
p2273
I1
sS'infield'
p2274
I2
sS'highly'
p2275
I2
sS'thrust'
p2276
I1
sS'opportunities'
p2277
I7
sS'bre'
p2278
I295
sS'total'
p2279
I25
sS'sarah'
p2280
I2
sS'indians'
p2281
I2
sS'details.some'
p2282
I1
sS'negative'
p2283
I8
sS'indiana'
p2284
I3
sS'tolerated'
p2285
I1
sS'71.7'
p2286
I1
sS'award'
p2287
I1
sS'87.10'
p2288
I1
sS'kohl'
p2289
I1
sS'blocking'
p2290
I2
sS'1/2-inch'
p2291
I1
sS'1991'
p2292
I2
sS'1990'
p2293
I1
sS'1993'
p2294
I2
sS'1992'
p2295
I2
sS'1995'
p2296
I22
sS'1994'
p2297
I7
sS'1997'
p2298
I20
sS'1996'
p2299
I49
sS'1999'
p2300
I7
sS'1998'
p2301
I4
sS'work'
p2302
I13
sS'247.88'
p2303
I1
sS'era'
p2304
I1
sS'reston'
p2305
I1
sS'2.84'
p2306
I3
sS'indicated'
p2307
I2
sS'554'
p2308
I2
sS'cited'
p2309
I4
sS'said.strathcona'
p2310
I1
sS'india'
p2311
I1
sS'fax'
p2312
I5
sS'indic'
p2313
I2
sS'impair'
p2314
I1
sS'walsh'
p2315
I23
sS'unavail'
p2316
I2
sS'22,000'
p2317
I1
sS'cites'
p2318
I1
sS'totaled'
p2319
I1
sS'7,167.5'
p2320
I1
sS'recovery'
p2321
I3
sS'carriers'
p2322
I1
sS'provide'
p2323
I18
sS'nuts'
p2324
I1
sS'methanol'
p2325
I7
sS'rookie'
p2326
I2
sS'interview'
p2327
I10
sS'disappoint'
p2328
I1
sS'offshore'
p2329
I3
sS'7,824'
p2330
I1
sS'fever'
p2331
I1
sS'103.03'
p2332
I1
sS'earlier'
p2333
I24
sS'damaged'
p2334
I1
sS'customs'
p2335
I2
sS'strategists'
p2336
I1
sS'law'
p2337
I12
sS'zaire'
p2338
I1
sS'legitimate.willson'
p2339
I1
sS'8-7'
p2340
I1
sS'5.58march'
p2341
I1
sS'wall.the'
p2342
I1
sS'green'
p2343
I2
sS'remand'
p2344
I1
sS'84.99'
p2345
I1
sS'scheduleny'
p2346
I1
sS'order'
p2347
I24
sS'minded'
p2348
I1
sS'x.it'
p2349
I1
sS'office'
p2350
I8
sS'zen'
p2351
I1
sS'satisfied'
p2352
I1
sS'12.3'
p2353
I1
sS'12.2'
p2354
I1
sS'6.5'
p2355
I1
sS'6.4'
p2356
I4
sS'6.3'
p2357
I4
sS'6.2'
p2358
I6
sS'12.5'
p2359
I1
sS'12.4'
p2360
I1
sS'japan'
p2361
I9
sS'massachusetts.the'
p2362
I1
sS'12.8'
p2363
I3
sS'6.9'
p2364
I2
sS'bombing'
p2365
I3
sS'2.2753-63'
p2366
I1
sS'50,000'
p2367
I1
sS'denver'
p2368
I3
sS'clearances'
p2369
I3
sS'production'
p2370
I17
sS'understated'
p2371
I1
sS'potentially'
p2372
I1
sS'split'
p2373
I2
sS'versus'
p2374
I5
sS'norcen'
p2375
I1
sS'affected'
p2376
I2
sS'roubles'
p2377
I1
sS'break'
p2378
I2
sS'band'
p2379
I1
sS'penetration'
p2380
I1
sS'bank'
p2381
I131
sS'bread'
p2382
I1
sS'1.00'
p2383
I1
sS'1.03'
p2384
I1
sS'1.05'
p2385
I1
sS'rocky'
p2386
I2
sS'pulp.the'
p2387
I1
sS'1.06'
p2388
I1
sS'tampering'
p2389
I6
sS'reasonably'
p2390
I3
sS'l'
p2391
I26
sS'6.795'
p2392
I1
sS'378'
p2393
I1
sS'80-82'
p2394
I2
sS'reasonable'
p2395
I1
sS'7.97'
p2396
I1
sS'carlos'
p2397
I1
sS'lifted'
p2398
I3
sS'sample.the'
p2399
I1
sS'dumping'
p2400
I1
sS'nigerian'
p2401
I2
sS'18,700'
p2402
I3
sS'enrgmar'
p2403
I1
sS'network'
p2404
I10
sS'0.7042'
p2405
I1
sS'maduro'
p2406
I1
sS'vessels'
p2407
I3
sS'tanners'
p2408
I1
sS'1996/97'
p2409
I8
sS'safety'
p2410
I3
sS'weighted'
p2411
I1
sS'29,132march'
p2412
I1
sS'sliding'
p2413
I2
sS'hogan'
p2414
I2
sS'commerical'
p2415
I1
sS'135.00/cubic'
p2416
I1
sS'standard'
p2417
I6
sS'campaigns'
p2418
I2
sS'disputes'
p2419
I1
sS'nta'
p2420
I1
sS'becker'
p2421
I1
sS'certified'
p2422
I2
sS'baseman'
p2423
I2
sS'created'
p2424
I5
sS'refugee'
p2425
I1
sS'73.70'
p2426
I1
sS'oppose'
p2427
I1
sS'plummets'
p2428
I1
sS'158,900'
p2429
I2
sS'meshed'
p2430
I1
sS'said.privately'
p2431
I3
sS'discovery.shares'
p2432
I2
sS'cnbc.the'
p2433
I2
sS'tel'
p2434
I3
sS'electronic'
p2435
I2
sS'rated'
p2436
I4
sS'hedging'
p2437
I1
sS'approximately'
p2438
I4
sS'3.313'
p2439
I1
sS'165.00/cubic'
p2440
I1
sS'rates'
p2441
I89
sS"int'l"
p2442
I2
sS'dogs'
p2443
I1
sS'damaging'
p2444
I1
sS'diversified'
p2445
I1
sS'albert'
p2446
I4
sS'rejected'
p2447
I7
sS'nearing'
p2448
I1
sS'cereal'
p2449
I2
sS'toronto'
p2450
I201
sS'target'
p2451
I10
sS'99.18937'
p2452
I1
sS'hike'
p2453
I39
sS'said.toronto'
p2454
I1
sS'merch'
p2455
I6
sS'scotiabank'
p2456
I1
sS'historical'
p2457
I1
sS'minus'
p2458
I1
sS'huntingdon'
p2459
I2
sS'500,000'
p2460
I1
sS'manner'
p2461
I1
sS'forced'
p2462
I18
sS'strength'
p2463
I7
sS'calgaryanaheim'
p2464
I1
sS'laden'
p2465
I1
sS'practices'
p2466
I2
sS'forces'
p2467
I1
sS'pitch.ugueth'
p2468
I1
sS'10,810'
p2469
I1
sS'7.40'
p2470
I1
sS'solidified'
p2471
I2
sS'exercised'
p2472
I1
sS'involving'
p2473
I1
sS'germany'
p2474
I1
sS'phase'
p2475
I1
sS'assessed'
p2476
I2
sS'autopsy'
p2477
I8
sS'brien'
p2478
I1
sS'calculated'
p2479
I3
sS'samples.while'
p2480
I2
sS'voting'
p2481
I6
sS'reserve'
p2482
I19
sS'dredged'
p2483
I1
sS'statement.sudjana'
p2484
I1
sS'fleming'
p2485
I13
sS'7.0'
p2486
I5
sS'7.1'
p2487
I2
sS'7.6'
p2488
I1
sS'7.7'
p2489
I3
sS'7.4'
p2490
I1
sS'7.5'
p2491
I2
sS'7.8'
p2492
I2
sS'7.9'
p2493
I1
sS'zairian'
p2494
I1
sS'implementation'
p2495
I1
sS'232.55'
p2496
I2
sS'yen'
p2497
I6
sS'yushkevich'
p2498
I1
sS'geologist'
p2499
I7
sS'aninat'
p2500
I1
sS'adequate'
p2501
I1
sS'coomaraswamy'
p2502
I2
sS'indepth'
p2503
I1
sS'99.981'
p2504
I1
sS'cardinals'
p2505
I1
sS'yielded'
p2506
I11
sS'25,000'
p2507
I2
sS'watson'
p2508
I5
sS'4.836'
p2509
I1
sS'dr'
p2510
I1
sS'ds'
p2511
I3
sS'2,196'
p2512
I2
sS'wakatshuki'
p2513
I2
sS'runs'
p2514
I18
sS'pearson'
p2515
I4
sS'covering'
p2516
I2
sS'416'
p2517
I59
sS'steal'
p2518
I1
sS'steam'
p2519
I1
sS'secretary'
p2520
I3
sS'turmoil'
p2521
I1
sS'2,229'
p2522
I1
sS'observed'
p2523
I2
sS'projections'
p2524
I3
sS'0855'
p2525
I9
sS'discussions'
p2526
I1
sS'sketches'
p2527
I1
sS'particles.he'
p2528
I1
sS'techniques'
p2529
I1
sS'bunting'
p2530
I1
sS'system.panic'
p2531
I1
sS'pavol'
p2532
I1
sS'away'
p2533
I8
sS'ensures'
p2534
I1
sS'sites'
p2535
I2
sS'unable'
p2536
I4
sS'cooperation'
p2537
I2
sS'drawn'
p2538
I3
sS'resume.the'
p2539
I1
sS'wg'
p2540
I12
sS'accord'
p2541
I3
sS'terms'
p2542
I6
sS'wl'
p2543
I2
sS'wk'
p2544
I2
sS'appier.eric'
p2545
I1
sS'wi'
p2546
I6
sS'complacency.report'
p2547
I1
sS'convertible'
p2548
I3
sS'6380.69'
p2549
I1
sS'electing'
p2550
I1
sS'c23'
p2551
I2
sS'1998.the'
p2552
I1
sS'c25'
p2553
I1
sS'ill'
p2554
I1
sS'policy.that'
p2555
I1
sS'nusamba'
p2556
I3
sS'brad'
p2557
I2
sS'strengthened.fir'
p2558
I1
sS'requests'
p2559
I6
sS'negotiation'
p2560
I1
sS'tone'
p2561
I1
sS'25,910'
p2562
I1
sS'sync'
p2563
I2
sS'tons'
p2564
I1
sS'wider'
p2565
I3
sS'wides'
p2566
I1
sS'frenetic'
p2567
I2
sS'jays'
p2568
I6
sS'telecommunications'
p2569
I2
sS'speak'
p2570
I1
sS'of14'
p2571
I1
sS'engines'
p2572
I4
sS'sachs'
p2573
I1
sS'tragedy'
p2574
I1
sS'1.46/1.51'
p2575
I1
sS'dozens'
p2576
I1
sS'31,860change'
p2577
I1
sS'concerning'
p2578
I1
sS'0.15'
p2579
I3
sS'69/70'
p2580
I1
sS'hoist'
p2581
I1
sS'0.10'
p2582
I5
sS'0.13'
p2583
I1
sS'0.12'
p2584
I2
sS'0.19'
p2585
I2
sS'0.18'
p2586
I2
sS'5826.60'
p2587
I1
sS'applied'
p2588
I3
sS'6.85'
p2589
I1
sS'publicly'
p2590
I4
sS'6.87'
p2591
I1
sS'6.88'
p2592
I1
sS'gignac'
p2593
I1
sS'5.11jan'
p2594
I1
sS'air'
p2595
I22
sS'aim'
p2596
I2
sS'voluminous'
p2597
I1
sS'1.4200'
p2598
I1
sS'property'
p2599
I40
sS'davenport'
p2600
I1
sS'launched'
p2601
I5
sS'cons'
p2602
I1
sS'quarter.all'
p2603
I1
sS'separatist'
p2604
I1
sS'tissue'
p2605
I6
sS'brake'
p2606
I3
sS'cone'
p2607
I4
sS'conf'
p2608
I2
sS'percent.but'
p2609
I1
sS'inc.as'
p2610
I1
sS'1-1/4'
p2611
I1
sS'andrea.hopkins@reuters.com'
p2612
I1
sS'1-1/2'
p2613
I3
sS'brilliantly'
p2614
I1
sS'confirmed'
p2615
I12
sS'said.at'
p2616
I2
sS'said.as'
p2617
I1
sS'perform'
p2618
I1
sS'21-week'
p2619
I1
sS'plated'
p2620
I1
sS'clearly'
p2621
I6
sS'saskatchewan.the'
p2622
I1
sS'sheltered'
p2623
I1
sS'avoids'
p2624
I1
sS'wheel'
p2625
I2
sS'independent'
p2626
I24
sS'hani'
p2627
I1
sS'rail'
p2628
I7
sS'rain'
p2629
I17
sS'hand'
p2630
I1
sS'mountainous'
p2631
I2
sS'blamed'
p2632
I2
sS'prescribed'
p2633
I1
sS'kept'
p2634
I4
sS'1978'
p2635
I1
sS'thu'
p2636
I80
sS'dallas'
p2637
I10
sS'warburg'
p2638
I1
sS'client'
p2639
I1
sS'75.11'
p2640
I1
sS'4,000-5,000'
p2641
I1
sS'thd'
p2642
I2
sS'stringent'
p2643
I4
sS'4.9west'
p2644
I1
sS'testing.worldwide'
p2645
I1
sS'edmonton'
p2646
I23
sS'antoniohouston'
p2647
I1
sS'govt'
p2648
I2
sS'375/365'
p2649
I1
sS'megestrol'
p2650
I1
sS'8.11'
p2651
I1
sS'jose'
p2652
I11
sS'hills'
p2653
I5
sS'josh'
p2654
I1
sS'reuniting'
p2655
I1
sS'spread'
p2656
I24
sS'transformed'
p2657
I1
sS'board'
p2658
I22
sS'04/04cpi'
p2659
I1
sS'viking'
p2660
I3
sS'2,300-km'
p2661
I1
sS'capt'
p2662
I1
sS'caps'
p2663
I8
sS'boxes'
p2664
I1
sS'006306'
p2665
I1
sS'1.32'
p2666
I2
sS'disadvantage'
p2667
I1
sS'cooler'
p2668
I2
sS'grizzly'
p2669
I7
sS'mit'
p2670
I2
sS'securities'
p2671
I35
sS'henman'
p2672
I1
sS'night'
p2673
I4
sS'security'
p2674
I6
sS'2thursday'
p2675
I1
sS'dimitri'
p2676
I1
sS'613-951-9448'
p2677
I1
sS'denies'
p2678
I2
sS'phenomenal'
p2679
I3
sS'comments'
p2680
I3
sS'scoffield'
p2681
I2
sS'asking'
p2682
I1
sS'denied'
p2683
I10
sS'cerro'
p2684
I2
sS'beating'
p2685
I2
sS'participation'
p2686
I2
sS'marketing'
p2687
I3
sS'plg'
p2688
I3
sS'restructuring'
p2689
I5
sS'plc'
p2690
I3
sS'129.3'
p2691
I1
sS'graduated'
p2692
I2
sS'post'
p2693
I7
sS'properties'
p2694
I2
sS'rallying'
p2695
I1
sS'newspapers'
p2696
I4
sS'months'
p2697
I14
sS'accepts'
p2698
I1
sS'101.62'
p2699
I1
sS'considerations'
p2700
I1
sS'inning.jeff'
p2701
I1
sS'preliminary'
p2702
I7
sS'profession'
p2703
I1
sS'bound'
p2704
I1
sS'balances'
p2705
I3
sS'293.15'
p2706
I1
sS'capped'
p2707
I3
sS'formidable'
p2708
I1
sS'21.4'
p2709
I2
sS'21.1'
p2710
I2
sS'legislation'
p2711
I1
sS'fight'
p2712
I2
sS'clinical'
p2713
I1
sS'way'
p2714
I23
sS'threshhold'
p2715
I1
sS'5.05jan'
p2716
I1
sS'150,000'
p2717
I2
sS'27.393'
p2718
I1
sS'lowest'
p2719
I15
sS'griffey'
p2720
I3
sS'2.106'
p2721
I1
sS'ferley'
p2722
I1
sS'diligence'
p2723
I14
sS'mysterious'
p2724
I1
sS'elderly'
p2725
I1
sS'bmtc'
p2726
I1
sS'absent'
p2727
I1
sS'injury'
p2728
I2
sS'braves'
p2729
I1
sS'louischicago'
p2730
I1
sS'158.00koch'
p2731
I3
sS'1997.but'
p2732
I1
sS'crystal'
p2733
I1
sS'conservatives'
p2734
I3
sS'3.54'
p2735
I1
sS'3.55'
p2736
I1
sS'promises'
p2737
I2
sS'3.57'
p2738
I1
sS'3.50'
p2739
I2
sS'gretzky'
p2740
I1
sS'1.3840/50'
p2741
I1
sS'evidence'
p2742
I4
sS'manure'
p2743
I1
sS'hackett'
p2744
I1
sS'expertise'
p2745
I2
sS'promised'
p2746
I7
sS'1997season'
p2747
I1
sS'physical'
p2748
I1
sS'weakened'
p2749
I10
sS'month.on'
p2750
I1
sS'stake'
p2751
I11
sS'topped'
p2752
I3
sS'interested'
p2753
I1
sS'holding'
p2754
I3
sS'test'
p2755
I16
sS'artificially'
p2756
I2
sS'scored'
p2757
I15
sS'brothers'
p2758
I4
sS'1.475'
p2759
I1
sS'trade.in'
p2760
I1
sS'langan'
p2761
I1
sS'sheathing'
p2762
I1
sS'22.39'
p2763
I2
sS'fireballing'
p2764
I1
sS'jubinville'
p2765
I4
sS'mullins'
p2766
I1
sS'tracked'
p2767
I1
sS'plaintiffs.attorneys'
p2768
I1
sS'613-951-4740'
p2769
I1
sS'business.sportmart'
p2770
I1
sS'70.95'
p2771
I8
sS'states.gignac'
p2772
I1
sS'reception'
p2773
I1
sS'69.90'
p2774
I1
sS'precedent'
p2775
I3
sS'concept'
p2776
I1
sS'consul'
p2777
I1
sS'global'
p2778
I5
sS'switches'
p2779
I1
sS'titletuesday'
p2780
I1
sS'dth'
p2781
I3
sS'battle'
p2782
I4
sS'roanoke'
p2783
I1
sS'certainly'
p2784
I5
sS'zone'
p2785
I1
sS'producing'
p2786
I6
sS'sentence.the'
p2787
I1
sS'nfield'
p2788
I1
sS'southwest'
p2789
I2
sS'brown'
p2790
I1
sS'reported.the'
p2791
I1
sS'50.85'
p2792
I2
sS'enermar'
p2793
I1
sS'liability'
p2794
I1
sS'10-year'
p2795
I3
sS'blast'
p2796
I2
sS'est/1800'
p2797
I2
sS'presented'
p2798
I4
sS'51.27'
p2799
I1
sS'turns'
p2800
I1
sS'51.23'
p2801
I3
sS'defacto'
p2802
I1
sS'30yr'
p2803
I2
sS'p'
p2804
I5
sS'3-month'
p2805
I2
sS'strikeouts'
p2806
I2
sS'regained'
p2807
I2
sS'discover'
p2808
I1
sS'64,987'
p2809
I1
sS'cost'
p2810
I20
sS'42,405'
p2811
I1
sS'23.49'
p2812
I2
sS'dbs'
p2813
I5
sS'idemitsu'
p2814
I1
sS'indeapr'
p2815
I2
sS'cargo'
p2816
I14
sS'48,905'
p2817
I1
sS'list.in'
p2818
I1
sS'assistance'
p2819
I1
sS'prvs'
p2820
I1
sS'shares'
p2821
I136
sS'13-walk'
p2822
I1
sS'setter'
p2823
I1
sS'330.4'
p2824
I1
sS'18,000'
p2825
I5
sS'methods.however'
p2826
I1
sS'2.375.the'
p2827
I1
sS'appears'
p2828
I6
sS'change'
p2829
I17
sS'incoming'
p2830
I1
sS'ot'
p2831
I4
sS'611th'
p2832
I1
sS'lakers'
p2833
I4
sS'trial'
p2834
I6
sS'614.2'
p2835
I1
sS'usually'
p2836
I5
sS'750.0'
p2837
I1
sS'433'
p2838
I1
sS'montreal'
p2839
I44
sS'431'
p2840
I2
sS'retired'
p2841
I3
sS'hiking'
p2842
I1
sS'extra'
p2843
I2
sS'lending'
p2844
I3
sS'marked'
p2845
I1
sS'customised'
p2846
I1
sS'nepalese'
p2847
I1
sS'marker'
p2848
I5
sS'rarely'
p2849
I1
sS'mobil'
p2850
I2
sS'market'
p2851
I121
sS'16.94'
p2852
I1
sS'terminal'
p2853
I14
sS'235-6745'
p2854
I14
sS'prove'
p2855
I7
sS'crisis.canada'
p2856
I1
sS'prompting'
p2857
I2
sS'24,195'
p2858
I1
sS'provs'
p2859
I3
sS'live'
p2860
I4
sS'tape'
p2861
I1
sS'angels'
p2862
I1
sS'anastrozole'
p2863
I1
sS'entrance'
p2864
I2
sS'chilean'
p2865
I3
sS'club'
p2866
I3
sS'carat.the'
p2867
I1
sS'system.bre'
p2868
I3
sS'purchases.methanex'
p2869
I1
sS'3-3/8'
p2870
I1
sS'courtnall'
p2871
I1
sS'organizations'
p2872
I2
sS'99.167'
p2873
I1
sS'pushed'
p2874
I1
sS'cas'
p2875
I1
sS'car'
p2876
I3
sS'officer.royal'
p2877
I1
sS'mayors'
p2878
I4
sS'incidents'
p2879
I2
sS'cal'
p2880
I3
sS'totalled'
p2881
I5
sS'trans'
p2882
I4
sS'cad'
p2883
I8
sS'heart'
p2884
I1
sS'dedicated'
p2885
I1
sS'december'
p2886
I12
sS'chip'
p2887
I1
sS"didn't"
p2888
I1
sS'heard'
p2889
I3
sS'fortunes'
p2890
I1
sS'posing'
p2891
I1
sS'occur'
p2892
I3
sS'cost.a'
p2893
I1
sS'spreads'
p2894
I3
sS'fob.toens'
p2895
I1
sS'economy'
p2896
I21
sS'chores'
p2897
I1
sS'product'
p2898
I6
sS'added.barley'
p2899
I1
sS'porthmeor'
p2900
I1
sS'dampened'
p2901
I4
sS'sacrifice'
p2902
I2
sS'southern'
p2903
I4
sS'0.73'
p2904
I1
sS'0.70'
p2905
I3
sS'0.75'
p2906
I2
sS'court'
p2907
I14
sS'lifting'
p2908
I1
sS'goal'
p2909
I20
sS'century.a'
p2910
I1
sS'remember'
p2911
I1
sS'futures'
p2912
I12
sS'12.90'
p2913
I1
sS'84.07'
p2914
I1
sS'crept'
p2915
I1
sS'473.39note'
p2916
I1
sS'tagged'
p2917
I2
sS'earningsfeb'
p2918
I1
sS'pipe'
p2919
I6
sS'consulting'
p2920
I12
sS'ended'
p2921
I30
sS'6.929'
p2922
I1
sS'ratified'
p2923
I1
sS'statistical'
p2924
I2
sS'cold'
p2925
I4
sS'balikpapan'
p2926
I2
sS'commisson'
p2927
I2
sS'26,200'
p2928
I2
sS'1,611.5'
p2929
I1
sS'enns'
p2930
I3
sS'winnipeg'
p2931
I10
sS'gilkey'
p2932
I1
sS'norway'
p2933
I4
sS'non'
p2934
I12
sS'friday.economists'
p2935
I1
sS'halt'
p2936
I12
sS'schedulecolorado'
p2937
I1
sS'transmissions'
p2938
I2
sS'half'
p2939
I10
sS'ritchie'
p2940
I2
sS'nov'
p2941
I10
sS'berrill'
p2942
I1
sS'provision'
p2943
I1
sS'hall'
p2944
I1
sS'commercials.july'
p2945
I1
sS'servant'
p2946
I1
sS'january'
p2947
I7
sS'drop'
p2948
I16
sS'wong'
p2949
I4
sS'unloaded'
p2950
I1
sS'significantly'
p2951
I5
sS'marad'
p2952
I3
sS'eb'
p2953
I4
sS'challenges'
p2954
I2
sS'1.134'
p2955
I1
sS'baffin'
p2956
I3
sS'ex'
p2957
I35
sS'year'
p2958
I104
sS'eu'
p2959
I3
sS'teams'
p2960
I9
sS'monitors'
p2961
I1
sS'8.75'
p2962
I1
sS'vying'
p2963
I1
sS'shown'
p2964
I2
sS'opened'
p2965
I12
sS'space'
p2966
I10
sS'pctmarch'
p2967
I1
sS'limited.other'
p2968
I1
sS'increase'
p2969
I14
sS'st.lawrence'
p2970
I3
sS'opener'
p2971
I2
sS'fargo'
p2972
I2
sS'mbs'
p2973
I3
sS'viable'
p2974
I2
sS'cars'
p2975
I10
sS'advantages'
p2976
I2
sS'rebel'
p2977
I1
sS'repurchase'
p2978
I3
sS'marine'
p2979
I4
sS'inevitable'
p2980
I1
sS'care'
p2981
I3
sS'reflect'
p2982
I2
sS'fixed'
p2983
I6
sS'transition'
p2984
I1
sS'british'
p2985
I23
sS'honest'
p2986
I1
sS'costs.ernst'
p2987
I1
sS'511'
p2988
I1
sS'510'
p2989
I1
sS'domed'
p2990
I1
sS'514'
p2991
I2
sS'tonne.a'
p2992
I1
sS'flying'
p2993
I2
sS'1221'
p2994
I1
sS'striking'
p2995
I5
sS'629'
p2996
I1
sS'comprised'
p2997
I1
sS'directly'
p2998
I5
sS'impossible'
p2999
I4
sS'message'
p3000
I1
sS'drove'
p3001
I5
sS'tomorrow'
p3002
I5
sS'size'
p3003
I15
sS'sheet'
p3004
I8
sS'silent'
p3005
I1
sS'crossings'
p3006
I1
sS'bourse'
p3007
I4
sS'nutrition'
p3008
I1
sS'courier'
p3009
I1
sS'act.the'
p3010
I2
sS'thursday.tse'
p3011
I1
sS'jane'
p3012
I8
sS'flowers'
p3013
I1
sS'television'
p3014
I9
sS'101.42'
p3015
I1
sS'accordance'
p3016
I1
sS'maddux'
p3017
I3
sS'04/25raw'
p3018
I2
sS'apples'
p3019
I1
sS'retracing'
p3020
I1
sS'fruits'
p3021
I1
sS'139.70'
p3022
I1
sS'contentious'
p3023
I1
sS'investors'
p3024
I54
sS'remained'
p3025
I11
sS'1.3867prev'
p3026
I1
sS'craig'
p3027
I1
sS'correction'
p3028
I1
sS'premier'
p3029
I3
sS'remarksrob'
p3030
I1
sS'4/7'
p3031
I1
sS'recover'
p3032
I1
sS'windsor'
p3033
I3
sS'5note'
p3034
I1
sS'form'
p3035
I3
sS'accelerating.two'
p3036
I1
sS'lumps'
p3037
I1
sS'veteran'
p3038
I4
sS'04/21new'
p3039
I2
sS'4168'
p3040
I1
sS'equipment'
p3041
I4
sS'wce'
p3042
I9
sS'objective'
p3043
I2
sS'bombing.the'
p3044
I1
sS'begin'
p3045
I13
sS'101.606'
p3046
I1
sS'attractiveness'
p3047
I1
sS'price'
p3048
I43
sS'banks'
p3049
I19
sS'america'
p3050
I8
sS'rentals'
p3051
I1
sS'said.they'
p3052
I1
sS'10welcoming'
p3053
I1
sS'warrant.but'
p3054
I1
sS'reform'
p3055
I5
sS'steady'
p3056
I12
sS'find.soon'
p3057
I1
sS'saga.a'
p3058
I2
sS'cracks'
p3059
I1
sS'3.70'
p3060
I1
sS'3.76'
p3061
I1
sS'german'
p3062
I8
sS'3.78'
p3063
I2
sS'trade.note'
p3064
I1
sS'discovered'
p3065
I10
sS'tonnage'
p3066
I2
sS'139.00petro-canada'
p3067
I2
sS'fifth'
p3068
I7
sS'ground'
p3069
I6
sS'ratio'
p3070
I8
sS'title'
p3071
I2
sS'ramar'
p3072
I1
sS'222'
p3073
I10
sS'sierra'
p3074
I2
sS'daal'
p3075
I1
sS'fort'
p3076
I1
sS'statement.bre'
p3077
I2
sS'truly'
p3078
I1
sS'354.80'
p3079
I1
sS'losers'
p3080
I1
sS'property.the'
p3081
I2
sS'news.fleming'
p3082
I1
sS'billion.transcanada'
p3083
I1
sS'capital.dia'
p3084
I1
sS'salomon'
p3085
I1
sS'concert'
p3086
I3
sS'roubles.dukat'
p3087
I1
sS'keynote'
p3088
I1
sS'made.earlier'
p3089
I1
sS'actively'
p3090
I1
sS'pretext'
p3091
I1
sS'concern'
p3092
I4
sS'leaning'
p3093
I1
sS'period.it'
p3094
I1
sS'3'
p3095
I58
sS'8,030.japan'
p3096
I1
sS'import'
p3097
I9
sS'84.9'
p3098
I1
sS'thorniest'
p3099
I1
sS'hurts'
p3100
I2
sS'analyzed'
p3101
I1
sS'comeback'
p3102
I3
sS'penguins'
p3103
I3
sS'xcan'
p3104
I5
sS'12.166'
p3105
I1
sS'941-8100'
p3106
I50
sS'resided'
p3107
I1
sS'941-8102'
p3108
I1
sS'941-8104'
p3109
I1
sS'941-8105'
p3110
I7
sS'wheels'
p3111
I1
sS'comes'
p3112
I6
sS'nearby'
p3113
I2
sS'borneo.he'
p3114
I1
sS'tonne'
p3115
I18
sS'strengthening'
p3116
I1
sS'perpetrators'
p3117
I2
sS'oliver'
p3118
I3
sS'549.3'
p3119
I1
sS'unfilld'
p3120
I2
sS'punished'
p3121
I1
sS'158'
p3122
I2
sS'1032'
p3123
I1
sS'1030'
p3124
I11
sS'systems'
p3125
I15
sS'92,549,753'
p3126
I1
sS'hodgson'
p3127
I7
sS'4-0'
p3128
I1
sS'4-1'
p3129
I1
sS'4-2'
p3130
I3
sS'4-3'
p3131
I1
sS'developing'
p3132
I3
sS'687.0'
p3133
I1
sS'polymer'
p3134
I1
sS'orientation'
p3135
I1
sS'4087'
p3136
I1
sS'metric'
p3137
I1
sS'commander'
p3138
I1
sS'canceled'
p3139
I1
sS'bevil'
p3140
I1
sS'floating'
p3141
I1
sS'16.9east-west'
p3142
I1
sS'11.8'
p3143
I2
sS'media'
p3144
I3
sS'11.7'
p3145
I8
sS'11.1'
p3146
I1
sS'11.2'
p3147
I3
sS'11.3'
p3148
I1
sS'reserves.the'
p3149
I1
sS'ceo'
p3150
I6
sS'usaapril'
p3151
I1
sS'inquiry'
p3152
I1
sS'lite'
p3153
I1
sS'document'
p3154
I5
sS'finish'
p3155
I2
sS'arctic'
p3156
I1
sS'validate'
p3157
I1
sS'difficulties.bre'
p3158
I1
sS'detroit.in'
p3159
I1
sS'charges'
p3160
I2
sS'c65'
p3161
I2
sS'severe'
p3162
I3
sS'coordinate'
p3163
I1
sS'laboratories'
p3164
I5
sS'charged'
p3165
I3
sS'livestock'
p3166
I1
sS'tossing'
p3167
I1
sS'362.0'
p3168
I1
sS'valuable'
p3169
I1
sS'foot'
p3170
I2
sS'compromising'
p3171
I1
sS'slugger'
p3172
I3
sS'ounces'
p3173
I24
sS'touch'
p3174
I6
sS'speed'
p3175
I7
sS'revaluation'
p3176
I1
sS'death'
p3177
I3
sS'138.80'
p3178
I1
sS'cl'
p3179
I1
sS'improvement'
p3180
I5
sS'1,404'
p3181
I1
sS'573'
p3182
I1
sS'ketchen'
p3183
I11
sS'1,400'
p3184
I2
sS'treatment'
p3185
I2
sS'week.the'
p3186
I2
sS'republic'
p3187
I1
sS'struck'
p3188
I4
sS'235.78'
p3189
I1
sS'momentum'
p3190
I1
sS'real'
p3191
I21
sS'ponderosa'
p3192
I1
sS'find.fleming'
p3193
I1
sS'rules'
p3194
I7
sS'offence'
p3195
I2
sS'stung'
p3196
I1
sS'revamp'
p3197
I1
sS'0.59'
p3198
I1
sS'165.00suncor'
p3199
I2
sS'using'
p3200
I5
sS'execution'
p3201
I1
sS'reap'
p3202
I1
sS'amt'
p3203
I6
sS'rear'
p3204
I2
sS'ruled'
p3205
I3
sS'heightened'
p3206
I2
sS'pounds'
p3207
I5
sS'9574.89'
p3208
I1
sS'suppliers'
p3209
I2
sS'conducts'
p3210
I1
sS'annually'
p3211
I1
sS'maker'
p3212
I2
sS't'
p3213
I35
sS'occasions'
p3214
I1
sS'kulm'
p3215
I1
sS'downward'
p3216
I1
sS'613-235-6745'
p3217
I5
sS'verbal'
p3218
I2
sS'busang.north'
p3219
I2
sS'girardi'
p3220
I1
sS'airside'
p3221
I1
sS'cp'
p3222
I10
sS'4.205'
p3223
I1
sS'04/01/97'
p3224
I10
sS'recorded'
p3225
I3
sS'conservative'
p3226
I4
sS'0.043'
p3227
I1
sS'deficit'
p3228
I2
sS'braking'
p3229
I2
sS'wheat'
p3230
I38
sS'03/26/97'
p3231
I4
sS'business'
p3232
I26
sS'1.77/1.82'
p3233
I1
sS'sixth'
p3234
I4
sS'equivalent'
p3235
I6
sS'8.2'
p3236
I2
sS'raul'
p3237
I1
sS'gold.bre'
p3238
I2
sS'francis'
p3239
I1
sS'433.20'
p3240
I1
sS'outsider'
p3241
I1
sS'central'
p3242
I27
sS'paints'
p3243
I1
sS'sri'
p3244
I1
sS'powered'
p3245
I2
sS'trailer'
p3246
I1
sS'curtailments'
p3247
I2
sS'blnpct'
p3248
I3
sS'exported'
p3249
I3
sS'8.50'
p3250
I1
sS'outlook'
p3251
I3
sS'protests'
p3252
I1
sS'spot.in'
p3253
I1
sS'30wrap-up'
p3254
I1
sS'miceli'
p3255
I1
sS'centurytoyoo'
p3256
I1
sS'previously.the'
p3257
I1
sS'canada.saudi'
p3258
I1
sS'operator'
p3259
I7
sS'shrinking'
p3260
I1
sS'intervention'
p3261
I5
sS'log'
p3262
I2
sS'area'
p3263
I13
sS'qualifying'
p3264
I1
sS'86.74'
p3265
I1
sS'start'
p3266
I12
sS'cats'
p3267
I12
sS'low'
p3268
I32
sS'lot'
p3269
I5
sS'jones'
p3270
I7
sS'22-week'
p3271
I1
sS'8.307'
p3272
I1
sS'pitcher'
p3273
I1
sS'delayed'
p3274
I7
sS'deflatoq1'
p3275
I2
sS'wednesday.the'
p3276
I5
sS'pitched'
p3277
I1
sS'trying'
p3278
I2
sS'hire'
p3279
I1
sS'84.31'
p3280
I1
sS'circulation'
p3281
I2
sS'5/4'
p3282
I1
sS'aneurysm'
p3283
I1
sS'batista'
p3284
I1
sS'279.21'
p3285
I1
sS'606'
p3286
I1
sS'600'
p3287
I4
sS'vancouver.at'
p3288
I1
sS'arabian'
p3289
I1
sS'moved'
p3290
I10
sS'1200'
p3291
I16
sS'57x'
p3292
I2
sS'midweek'
p3293
I2
sS'orderbook'
p3294
I1
sS'trickled'
p3295
I1
sS'moves'
p3296
I1
sS'innings'
p3297
I14
sS'credibility'
p3298
I2
sS'rates.analysts'
p3299
I1
sS'storage'
p3300
I18
sS'algoville'
p3301
I1
sS'1.2098'
p3302
I1
sS'forcing'
p3303
I4
sS'poor'
p3304
I4
sS'9609.91'
p3305
I1
sS'peas'
p3306
I3
sS'peak'
p3307
I4
sS'coverage'
p3308
I4
sS'corp.spot'
p3309
I1
sS'tendencies'
p3310
I1
sS'pool'
p3311
I7
sS'building'
p3312
I11
sS'million.details'
p3313
I1
sS'3-5'
p3314
I1
sS'3-3'
p3315
I1
sS'3-2'
p3316
I1
sS'3-0'
p3317
I2
sS'139.58'
p3318
I1
sS'cordero'
p3319
I1
sS'cores'
p3320
I2
sS'signalling'
p3321
I1
sS'angels.anaheim'
p3322
I1
sS'31.00/32.50'
p3323
I1
sS'before.the'
p3324
I2
sS'lopped'
p3325
I10
sS'month'
p3326
I36
sS'deadline'
p3327
I1
sS'viability'
p3328
I6
sS'customary'
p3329
I1
sS'religious'
p3330
I1
sS'191.10'
p3331
I1
sS'45south'
p3332
I1
sS'6.485'
p3333
I1
sS'pledged'
p3334
I1
sS'0930'
p3335
I5
sS'drillings'
p3336
I1
sS'danielle'
p3337
I1
sS'pricesmar'
p3338
I1
sS'open.in'
p3339
I1
sS'dominated'
p3340
I5
sS'comercial'
p3341
I1
sS'mph'
p3342
I1
sS'vera'
p3343
I1
sS"won't"
p3344
I2
sS'decide'
p3345
I1
sS'second.in'
p3346
I1
sS'louis'
p3347
I16
sS'mild'
p3348
I1
sS'transcanada'
p3349
I10
sS'manager.1996'
p3350
I1
sS'0.35'
p3351
I4
sS'locomotive'
p3352
I1
sS'3.18'
p3353
I2
sS'3.19'
p3354
I2
sS'7-0'
p3355
I1
sS'fence'
p3356
I2
sS'3.10'
p3357
I2
sS'3.11'
p3358
I2
sS'3.12'
p3359
I1
sS'3.13'
p3360
I2
sS'3.14'
p3361
I2
sS'3.15'
p3362
I8
sS'3.16'
p3363
I3
sS'3.17'
p3364
I1
sS'fiber'
p3365
I1
sS'greenspan'
p3366
I2
sS'value'
p3367
I31
sS'26.23/barrel'
p3368
I1
sS'chair'
p3369
I2
sS'expections'
p3370
I1
sS'consumers'
p3371
I2
sS'investing'
p3372
I1
sS'30,110'
p3373
I1
sS'learned'
p3374
I1
sS'3.01'
p3375
I1
sS'deborah'
p3376
I1
sS'64.80'
p3377
I1
sS'friday'
p3378
I55
sS'inc.columbia'
p3379
I2
sS'answers'
p3380
I3
sS'anticipation'
p3381
I1
sS'11.80'
p3382
I1
sS'11.83'
p3383
I1
sS'excess'
p3384
I7
sS'movemement'
p3385
I1
sS'strong'
p3386
I36
sS'ahead'
p3387
I16
sS'losses'
p3388
I8
sS'nesbitt'
p3389
I4
sS'samar'
p3390
I2
sS'13.80'
p3391
I1
sS'family'
p3392
I1
sS'13.84'
p3393
I1
sS'panamanian'
p3394
I1
sS'requiring'
p3395
I1
sS'thatcher'
p3396
I1
sS'glitch'
p3397
I1
sS'lagos'
p3398
I1
sS'analyzing'
p3399
I2
sS'30emu'
p3400
I1
sS'trained'
p3401
I2
sS'1.75/1.80'
p3402
I1
sS'takes'
p3403
I6
sS'contains'
p3404
I6
sS'said.china'
p3405
I1
sS'taken'
p3406
I6
sS'brunswick'
p3407
I5
sS'authorization'
p3408
I1
sS'turbo'
p3409
I1
sS'northeast.the'
p3410
I2
sS'garza'
p3411
I2
sS'broke'
p3412
I7
sS'underwriter'
p3413
I1
sS'cardinals.rondell'
p3414
I1
sS'mounted'
p3415
I1
sS'linder'
p3416
I2
sS'4.99jan'
p3417
I1
sS'helped'
p3418
I6
sS'said.telesat'
p3419
I3
sS'33/59'
p3420
I1
sS'shares.analysts'
p3421
I4
sS'2yr'
p3422
I2
sS'history'
p3423
I2
sS'pushes'
p3424
I1
sS'period.1996'
p3425
I1
sS'negligence'
p3426
I1
sS'association.despite'
p3427
I1
sS'claimed'
p3428
I3
sS'06/02industrial'
p3429
I2
sS'1,000-2,000'
p3430
I1
sS'species'
p3431
I2
sS'1050'
p3432
I1
sS'1052'
p3433
I1
sS'1054'
p3434
I4
sS'processors'
p3435
I1
sS'busse'
p3436
I1
sS'greenpeace'
p3437
I4
sS'florida.chicago'
p3438
I1
sS'stayed'
p3439
I1
sS'conserve'
p3440
I1
sS'hampered'
p3441
I3
sS'said.namco'
p3442
I1
sS'fr'
p3443
I62
sS'tried'
p3444
I1
sS'rudi'
p3445
I2
sS'derived'
p3446
I3
sS'ff'
p3447
I3
sS'99.19'
p3448
I1
sS'rudy'
p3449
I2
sS'4/3'
p3450
I2
sS'4/0'
p3451
I1
sS'overnight'
p3452
I9
sS'4/4'
p3453
I1
sS'4/5'
p3454
I1
sS'3.415'
p3455
I1
sS'wreaking'
p3456
I3
sS'carbohydrates'
p3457
I3
sS'help'
p3458
I24
sS'soon'
p3459
I11
sS'held'
p3460
I17
sS'thermal'
p3461
I4
sS'bullpen'
p3462
I1
sS'committee'
p3463
I6
sS'committed'
p3464
I5
sS'hell'
p3465
I1
sS'comment.the'
p3466
I1
sS'environmentally'
p3467
I1
sS'88.93-03'
p3468
I1
sS'fined'
p3469
I1
sS'actually'
p3470
I1
sS'absence'
p3471
I1
sS'disclosed'
p3472
I2
sS'differed'
p3473
I1
sS'founders'
p3474
I2
sS'match'
p3475
I11
sS'fines'
p3476
I2
sS'pleads'
p3477
I1
sS'53.85.royal'
p3478
I1
sS'food'
p3479
I19
sS'anticipated'
p3480
I8
sS"you've"
p3481
I3
sS'sweeping'
p3482
I1
sS'yr'
p3483
I13
sS'develops'
p3484
I1
sS'bryan'
p3485
I1
sS'stopper'
p3486
I1
sS'trailed'
p3487
I1
sS'fully'
p3488
I5
sS'intervene'
p3489
I2
sS'ounces.the'
p3490
I1
sS'capability'
p3491
I1
sS'purch'
p3492
I1
sS'minutes.tkachuk'
p3493
I1
sS'stopped'
p3494
I24
sS"isn't"
p3495
I4
sS'heavy'
p3496
I26
sS'10-inning'
p3497
I1
sS'raapr'
p3498
I1
sS'31.preval'
p3499
I1
sS'todd'
p3500
I3
sS'talisman'
p3501
I1
sS'event'
p3502
I3
sS'45how'
p3503
I1
sS'robert'
p3504
I1
sS'surrounded'
p3505
I1
sS'douglas'
p3506
I2
sS'stake.west'
p3507
I1
sS'sustain'
p3508
I1
sS'7'
p3509
I24
sS'market.columbia'
p3510
I1
sS'2.2908-18'
p3511
I1
sS'issue'
p3512
I14
sS'est/1610'
p3513
I1
sS'samarinda.bre'
p3514
I1
sS'favored'
p3515
I1
sS'misstatement'
p3516
I1
sS'asc'
p3517
I3
sS'houses'
p3518
I3
sS'reason'
p3519
I5
sS'base'
p3520
I15
sS'ase'
p3521
I2
sS'ask'
p3522
I1
sS'bash'
p3523
I1
sS'revolutionary'
p3524
I1
sS'friday.kilborn'
p3525
I2
sS'802.00'
p3526
I1
sS'launch'
p3527
I10
sS'provmar'
p3528
I2
sS'4.228'
p3529
I1
sS'over.the'
p3530
I1
sS'americas'
p3531
I1
sS'benji'
p3532
I1
sS'0745'
p3533
I30
sS'expecting'
p3534
I1
sS'syria'
p3535
I1
sS"it'll"
p3536
I3
sS'tumble.the'
p3537
I1
sS'wisbeen'
p3538
I1
sS'simply'
p3539
I2
sS'schubert'
p3540
I1
sS'reflected'
p3541
I5
sS'liquefied'
p3542
I2
sS'13,000'
p3543
I1
sS'talked'
p3544
I1
sS'04/16manuf'
p3545
I4
sS'guard'
p3546
I2
sS'4.220'
p3547
I2
sS'miss'
p3548
I3
sS'maple'
p3549
I1
sS'horse'
p3550
I1
sS'pricefeb'
p3551
I1
sS'ostracize'
p3552
I1
sS'4.226'
p3553
I1
sS'deanna'
p3554
I1
sS'oilwell'
p3555
I1
sS'canbra'
p3556
I1
sS'horst'
p3557
I3
sS'fielder'
p3558
I2
sS'lots.may'
p3559
I3
sS'nigeria'
p3560
I2
sS'scheme'
p3561
I1
sS'selling'
p3562
I29
sS'billion.strathcona'
p3563
I2
sS'143,120'
p3564
I1
sS'jordan'
p3565
I1
sS'reroll'
p3566
I4
sS'surprising'
p3567
I1
sS'2808.29'
p3568
I1
sS'financing'
p3569
I10
sS'grew'
p3570
I1
sS'stl'
p3571
I6
sS'miseries'
p3572
I1
sS'loaded.mark'
p3573
I1
sS'autumn'
p3574
I2
sS'greg'
p3575
I4
sS'lpic'
p3576
I2
sS'sentenced'
p3577
I1
sS'charlotte'
p3578
I4
sS'heaviest'
p3579
I1
sS'3.626'
p3580
I1
sS'substantial'
p3581
I6
sS'public.kilborn'
p3582
I3
sS'cumbersome'
p3583
I1
sS'antonio'
p3584
I2
sS'vulnerable'
p3585
I1
sS'option'
p3586
I5
sS'ratings'
p3587
I5
sS'mill.chesapeake'
p3588
I1
sS"annl'd"
p3589
I2
sS'speculative'
p3590
I3
sS'8418939'
p3591
I1
sS'1.29'
p3592
I2
sS'cargoes'
p3593
I1
sS'labour'
p3594
I5
sS'604.4'
p3595
I1
sS'1.43/1.47export'
p3596
I1
sS'belbin'
p3597
I1
sS'experienced'
p3598
I3
sS'4,482'
p3599
I1
sS'quota'
p3600
I1
sS'hired'
p3601
I11
sS'mack'
p3602
I1
sS'approved'
p3603
I3
sS'mach'
p3604
I2
sS'salary'
p3605
I1
sS'5-4'
p3606
I4
sS'5-1'
p3607
I2
sS'5-0'
p3608
I1
sS'5-3'
p3609
I2
sS'5-2'
p3610
I2
sS'mobile'
p3611
I1
sS'soviet'
p3612
I1
sS'clear'
p3613
I10
sS'popularity'
p3614
I1
sS'indonesia.the'
p3615
I3
sS'unreasonable'
p3616
I1
sS'1.25'
p3617
I1
sS'clean'
p3618
I1
sS'velocity'
p3619
I1
sS'usual'
p3620
I1
sS'blend'
p3621
I10
sS'tenet'
p3622
I1
sS'restructure'
p3623
I1
sS'completion'
p3624
I6
sS'northern'
p3625
I13
sS'164.70'
p3626
I1
sS'preparing'
p3627
I2
sS'randy'
p3628
I1
sS'pretty'
p3629
I2
sS'executive'
p3630
I30
sS'ordemar'
p3631
I1
sS'grocery'
p3632
I2
sS'thursday.canadian'
p3633
I1
sS'big.no'
p3634
I1
sS'competing'
p3635
I8
sS'suspect.1996'
p3636
I1
sS'3/8'
p3637
I2
sS'1.82'
p3638
I2
sS'intensify'
p3639
I1
sS'3.5403/26/97'
p3640
I1
sS'chimney'
p3641
I3
sS'molten'
p3642
I1
sS'catcher'
p3643
I2
sS'168.00'
p3644
I3
sS'ords'
p3645
I3
sS'expedia'
p3646
I1
sS'underlying'
p3647
I2
sS'x'
p3648
I394
sS'throwing'
p3649
I2
sS'dakota'
p3650
I8
sS'plummeted'
p3651
I1
sS'cdlr'
p3652
I10
sS'portrait'
p3653
I1
sS'locals'
p3654
I2
sS'probable'
p3655
I1
sS'americadr'
p3656
I1
sS'21.638'
p3657
I1
sS'won'
p3658
I7
sS'1.3925'
p3659
I4
sS'1.3926'
p3660
I3
sS'probably'
p3661
I11
sS'conditions'
p3662
I16
sS'ranked'
p3663
I1
sS'league'
p3664
I15
sS'innings.bonilla'
p3665
I1
sS"wouldn't"
p3666
I5
sS'sensitive'
p3667
I1
sS'buzz'
p3668
I1
sS'24.17/barrelbow'
p3669
I1
sS'3.394'
p3670
I1
sS'batters'
p3671
I3
sS'3.391'
p3672
I1
sS'1,143'
p3673
I1
sS'000s'
p3674
I5
sS'vessel'
p3675
I9
sS'grenfell'
p3676
I1
sS'25.gregory'
p3677
I1
sS'mission'
p3678
I5
sS'27-store'
p3679
I1
sS'firm.tse'
p3680
I1
sS'described'
p3681
I2
sS'napr'
p3682
I1
sS'teus'
p3683
I1
sS'maintenance'
p3684
I2
sS'46,195'
p3685
I1
sS'threaten'
p3686
I3
sS'napm'
p3687
I2
sS'territory'
p3688
I5
sS'sanders'
p3689
I6
sS'generating'
p3690
I1
sS'partly'
p3691
I1
sS'0001'
p3692
I1
sS'exempt'
p3693
I1
sS'anthony'
p3694
I1
sS'recalled'
p3695
I1
sS'bidding'
p3696
I1
sS'pact'
p3697
I2
sS'look'
p3698
I9
sS'adj'
p3699
I6
sS'fapr'
p3700
I1
sS'governor'
p3701
I8
sS'pace'
p3702
I10
sS'3.34'
p3703
I3
sS'3.32'
p3704
I1
sS'3.33'
p3705
I2
sS'3.30'
p3706
I3
sS'3.31'
p3707
I1
sS'3.38'
p3708
I2
sS'costly'
p3709
I2
sS'jpn'
p3710
I53
sS'2,703.3'
p3711
I1
sS'geologists'
p3712
I2
sS'jpy'
p3713
I2
sS'petrochemical'
p3714
I1
sS'darrell'
p3715
I1
sS'texas.1996'
p3716
I1
sS'loosened'
p3717
I1
sS'ready'
p3718
I4
sS'concentration'
p3719
I1
sS'week.tse'
p3720
I1
sS'grant'
p3721
I1
sS'03/31/97'
p3722
I2
sS'used'
p3723
I13
sS'temporary'
p3724
I2
sS'fiscal'
p3725
I7
sS'blair'
p3726
I1
sS'felix'
p3727
I1
sS'000'
p3728
I11
sS'uses'
p3729
I1
sS'cleaning'
p3730
I1
sS'date.the'
p3731
I1
sS'inital'
p3732
I1
sS'faceoff'
p3733
I1
sS'innings.john'
p3734
I1
sS'3548'
p3735
I25
sS'obviously'
p3736
I3
sS'grossly'
p3737
I1
sS'yankees'
p3738
I9
sS'ambassador'
p3739
I3
sS'shortage.the'
p3740
I1
sS'4-3.derek'
p3741
I1
sS'settlements'
p3742
I2
sS'pcolbourneapril'
p3743
I1
sS'767'
p3744
I1
sS'technicians'
p3745
I3
sS'reviewed'
p3746
I2
sS'taiwan'
p3747
I1
sS'retirement'
p3748
I1
sS'wind/3rvrsapril'
p3749
I1
sS'497.81'
p3750
I1
sS'guaranteed'
p3751
I2
sS'exercising'
p3752
I1
sS'depressedby'
p3753
I1
sS'questioned'
p3754
I2
sS'guarantees'
p3755
I2
sS'remaining'
p3756
I6
sS'rahim'
p3757
I2
sS'march'
p3758
I68
sS'wednesday.officials'
p3759
I1
sS'evaluate'
p3760
I2
sS'showing'
p3761
I7
sS'1.48/1.53'
p3762
I1
sS'game'
p3763
I19
sS'dollar.speculation'
p3764
I1
sS'contracts.open'
p3765
I3
sS'wings'
p3766
I2
sS'tinkered'
p3767
I1
sS'overriding'
p3768
I4
sS'xk8s'
p3769
I2
sS'signal'
p3770
I2
sS'holes'
p3771
I4
sS'actives'
p3772
I1
sS'3.479'
p3773
I1
sS'translated'
p3774
I2
sS'perked'
p3775
I1
sS'brakes'
p3776
I1
sS'creation'
p3777
I9
sS'pierre'
p3778
I3
sS'metres'
p3779
I3
sS'mine.it'
p3780
I1
sS'economic'
p3781
I28
sS'erupts'
p3782
I1
sS'fanfare'
p3783
I1
sS'electric'
p3784
I2
sS'delivered'
p3785
I5
sS'unchanged.the'
p3786
I2
sS'50-mile'
p3787
I1
sS'said.dbrs'
p3788
I1
sS'minimal'
p3789
I3
sS'04/02/97'
p3790
I24
sS'everybody'
p3791
I1
sS'berated'
p3792
I1
sS'run'
p3793
I40
sS'information.the'
p3794
I1
sS'cga'
p3795
I1
sS'fomc'
p3796
I1
sS'processing'
p3797
I2
sS'lakes'
p3798
I8
sS'offered.after'
p3799
I1
sS'04/02/98'
p3800
I2
sS'huisman'
p3801
I3
sS'step'
p3802
I4
sS'berthed'
p3803
I2
sS'2/1'
p3804
I2
sS'2/3'
p3805
I1
sS'abroad'
p3806
I1
sS'faith'
p3807
I2
sS'1.37/1.41'
p3808
I1
sS'allotment'
p3809
I1
sS'73'
p3810
I1
sS'replacement'
p3811
I1
sS'silence'
p3812
I3
sS'ida'
p3813
I5
sS'seeing'
p3814
I3
sS'70'
p3815
I10
sS'82.7'
p3816
I2
sS'reuters.he'
p3817
I3
sS'amerada'
p3818
I1
sS'quarter.other'
p3819
I1
sS'behaving'
p3820
I1
sS'statistics'
p3821
I26
sS'placing'
p3822
I1
sS'besieged'
p3823
I1
sS'saguenay'
p3824
I2
sS'dukat'
p3825
I2
sS'consultation'
p3826
I1
sS'3.23180'
p3827
I1
sS'79'
p3828
I7
sS'whalers'
p3829
I1
sS'intervenes'
p3830
I1
sS'disallowed'
p3831
I1
sS'manufacture'
p3832
I1
sS'5-5'
p3833
I2
sS'branchline'
p3834
I1
sS'duly'
p3835
I1
sS'collapsed'
p3836
I11
sS'0-8'
p3837
I1
sS'30-29.5'
p3838
I1
sS'properly'
p3839
I1
sS'reed'
p3840
I1
sS'likely.hunting'
p3841
I1
sS'russian'
p3842
I1
sS'injection'
p3843
I2
sS'89.41'
p3844
I1
sS'dealers'
p3845
I2
sS'population.environmental'
p3846
I1
sS'loopholes'
p3847
I1
sS'5826.56'
p3848
I1
sS'changebeef'
p3849
I2
sS'2350'
p3850
I11
sS'similar'
p3851
I7
sS'prvapr'
p3852
I1
sS'trade.bre'
p3853
I1
sS'said.in'
p3854
I2
sS'inch'
p3855
I1
sS'ordered'
p3856
I1
sS'adults'
p3857
I1
sS'said.if'
p3858
I1
sS'metals'
p3859
I2
sS'rupert'
p3860
I1
sS'said.it'
p3861
I2
sS'prices.almost'
p3862
I2
sS'3.273'
p3863
I1
sS'3.272'
p3864
I1
sS'2130'
p3865
I3
sS'amounts'
p3866
I16
sS'3.278'
p3867
I3
sS'fears'
p3868
I3
sS'rewriting'
p3869
I1
sS'application'
p3870
I7
sS'politicians'
p3871
I1
sS'transport'
p3872
I2
sS'department'
p3873
I13
sS'prev2'
p3874
I8
sS'arithmetic'
p3875
I1
sS'1.375'
p3876
I2
sS'draw'
p3877
I2
sS'kansas'
p3878
I11
sS'william'
p3879
I3
sS'drag'
p3880
I1
sS'reservation'
p3881
I1
sS'40financial'
p3882
I1
sS'structure'
p3883
I1
sS'independently'
p3884
I1
sS'coincided'
p3885
I1
sS'e'
p3886
I9
sS'2.00'
p3887
I1
sS'outing'
p3888
I1
sS'required'
p3889
I9
sS'1.3888'
p3890
I1
sS'bleached'
p3891
I1
sS'heath'
p3892
I3
sS'perishables'
p3893
I1
sS'depth'
p3894
I5
sS'svy'
p3895
I1
sS'requires'
p3896
I5
sS'leveraged'
p3897
I1
sS'china.final'
p3898
I1
sS'martinair'
p3899
I3
sS'merced'
p3900
I2
sS'eckert'
p3901
I1
sS'gf'
p3902
I16
sS'gb'
p3903
I10
sS'ga'
p3904
I16
sS'3.648'
p3905
I1
sS'blntoronto'
p3906
I1
sS'arabia.hani'
p3907
I1
sS'canwest.on'
p3908
I1
sS'suits'
p3909
I12
sS'03/23/96'
p3910
I3
sS'japanresearch'
p3911
I1
sS'schwert'
p3912
I1
sS'138.00/cubic'
p3913
I1
sS'wave'
p3914
I1
sS'wavy'
p3915
I1
sS'cellular'
p3916
I1
sS'telling'
p3917
I1
sS'acres'
p3918
I10
sS'944,800'
p3919
I1
sS'28k/45k'
p3920
I1
sS'positions'
p3921
I3
sS'michael'
p3922
I8
sS'ryan'
p3923
I1
sS'145.00petro-canada'
p3924
I1
sS'2.20'
p3925
I1
sS'inspection'
p3926
I2
sS'2.25'
p3927
I1
sS'1,700.may'
p3928
I1
sS'jump'
p3929
I1
sS'hose'
p3930
I1
sS'picked'
p3931
I3
sS'field.roberto'
p3932
I1
sS'marketed'
p3933
I1
sS'bergman'
p3934
I1
sS'experiment'
p3935
I1
sS'volatile'
p3936
I9
sS'collins'
p3937
I1
sS'rtz'
p3938
I1
sS'marketer'
p3939
I1
sS'exchange.thiessen'
p3940
I1
sS'04/08housing'
p3941
I2
sS'commercial'
p3942
I20
sS'believed'
p3943
I7
sS'focused'
p3944
I2
sS'parameters'
p3945
I1
sS'million.trade'
p3946
I1
sS'153.00suncor'
p3947
I1
sS'storage.it'
p3948
I1
sS'641'
p3949
I2
sS'5.38feb'
p3950
I1
sS'1243'
p3951
I3
sS'4,600'
p3952
I1
sS'products'
p3953
I13
sS"weren't"
p3954
I3
sS'228/312'
p3955
I1
sS'gene'
p3956
I3
sS'meeting.any'
p3957
I1
sS'mlntotal'
p3958
I3
sS'examining'
p3959
I2
sS'191.50'
p3960
I1
sS'stabilization'
p3961
I2
sS'clark'
p3962
I2
sS'danger'
p3963
I1
sS'37.40f'
p3964
I1
sS'win'
p3965
I9
sS'manage'
p3966
I1
sS'apprehensive'
p3967
I1
sS'evacuations'
p3968
I1
sS'addressed'
p3969
I1
sS'wit'
p3970
I2
sS'cloud'
p3971
I2
sS'57.36'
p3972
I1
sS'remains'
p3973
I3
sS'note.the'
p3974
I1
sS'flights'
p3975
I2
sS'1.3909'
p3976
I1
sS'facility.the'
p3977
I1
sS'vehicle'
p3978
I3
sS'1.3902'
p3979
I4
sS'1.3900'
p3980
I3
sS'reflects'
p3981
I1
sS'hydro'
p3982
I6
sS'bureaucracy'
p3983
I1
sS'optimizing'
p3984
I1
sS'1/4'
p3985
I1
sS'1/3'
p3986
I1
sS'1/2'
p3987
I25
sS'started'
p3988
I10
sS'initial'
p3989
I8
sS'benchmark'
p3990
I6
sS'1/8'
p3991
I1
sS'3.49bank'
p3992
I1
sS'actual'
p3993
I4
sS'appointed'
p3994
I4
sS'starter'
p3995
I6
sS'justin'
p3996
I1
sS"o'leary"
p3997
I2
sS'indemar'
p3998
I1
sS'pulp.chesapeake'
p3999
I1
sS'wednesday.bre'
p4000
I3
sS'archer'
p4001
I1
sS'crossed'
p4002
I1
sS'meet'
p4003
I4
sS'drops'
p4004
I1
sS'control'
p4005
I6
sS'beijing'
p4006
I4
sS'kenny'
p4007
I2
sS'coincident'
p4008
I2
sS'links'
p4009
I2
sS'costs.but'
p4010
I1
sS'sought'
p4011
I3
sS'27,610march'
p4012
I1
sS'305.07'
p4013
I1
sS'years.the'
p4014
I1
sS'354.50'
p4015
I1
sS'committee.the'
p4016
I2
sS'230'
p4017
I2
sS'campers'
p4018
I1
sS'tigers.the'
p4019
I1
sS'located'
p4020
I4
sS'125/315'
p4021
I1
sS'155'
p4022
I1
sS'fare'
p4023
I1
sS'06/02'
p4024
I2
sS'farm'
p4025
I7
sS'much.the'
p4026
I1
sS'acetate.megestrol'
p4027
I1
sS'engineering'
p4028
I12
sS'135.40'
p4029
I1
sS'said.economists'
p4030
I1
sS'attorneys.at'
p4031
I1
sS'american'
p4032
I22
sS'software'
p4033
I1
sS'timmar'
p4034
I1
sS'seven.andres'
p4035
I1
sS'95.99367'
p4036
I1
sS'including'
p4037
I19
sS'20.03/barrel'
p4038
I1
sS'31.57'
p4039
I1
sS'helicopters'
p4040
I1
sS'lofton'
p4041
I2
sS'2.098'
p4042
I1
sS'board.last'
p4043
I1
sS'99.180'
p4044
I1
sS'auto'
p4045
I3
sS'20welcoming'
p4046
I1
sS'hands'
p4047
I13
sS'kilometres'
p4048
I1
sS"o'bryan"
p4049
I1
sS'university'
p4050
I2
sS'foiling'
p4051
I1
sS'slide'
p4052
I1
sS'mode'
p4053
I1
sS'crossing'
p4054
I2
sS'transgenic'
p4055
I3
sS'upward'
p4056
I2
sS'seniors'
p4057
I1
sS'female'
p4058
I2
sS'weakened.the'
p4059
I1
sS'globe'
p4060
I4
sS'700'
p4061
I5
sS'constitute'
p4062
I2
sS'investigative'
p4063
I1
sS'sands'
p4064
I2
sS'measure'
p4065
I2
sS'margins'
p4066
I1
sS'countries.one'
p4067
I1
sS'special'
p4068
I5
sS'mat'
p4069
I2
sS'rangers.the'
p4070
I1
sS'entertainment'
p4071
I2
sS'investigate'
p4072
I1
sS'15.alberta'
p4073
I1
sS'activist'
p4074
I2
sS'airport.the'
p4075
I1
sS'cause'
p4076
I4
sS'3.186'
p4077
I2
sS'wednesday.unionized'
p4078
I1
sS'attending'
p4079
I1
sS'advisor'
p4080
I1
sS'20,000'
p4081
I1
sS'princess'
p4082
I2
sS'resumed'
p4083
I18
sS'farmland'
p4084
I1
sS'project.cp'
p4085
I1
sS'route'
p4086
I2
sS'florida'
p4087
I15
sS'times'
p4088
I17
sS'stride'
p4089
I1
sS'creditworthiness'
p4090
I1
sS'remarksbarry'
p4091
I2
sS'timed'
p4092
I1
sS'canada.but'
p4093
I1
sS'prospective'
p4094
I1
sS'pcbs'
p4095
I1
sS'seasonably'
p4096
I1
sS'jerseycalgary'
p4097
I1
sS'powerful'
p4098
I1
sS'98.262'
p4099
I1
sS'improving'
p4100
I3
sS'added.mnr'
p4101
I1
sS'1989'
p4102
I4
sS'quality'
p4103
I5
sS'saying.because'
p4104
I1
sS'bears'
p4105
I8
sS'contains.one'
p4106
I1
sS'durable'
p4107
I3
sS'attach'
p4108
I1
sS'attack'
p4109
I3
sS'perfectly'
p4110
I1
sS'final'
p4111
I19
sS'laws.bre'
p4112
I1
sS'2-0'
p4113
I2
sS'2-1'
p4114
I1
sS'2-4'
p4115
I1
sS'nilsson'
p4116
I1
sS'mariano'
p4117
I1
sS'rangerswashington'
p4118
I1
sS'lists'
p4119
I1
sS'chemicals'
p4120
I1
sS'0830/1230'
p4121
I3
sS'18.110'
p4122
I1
sS"that'll"
p4123
I1
sS'reunification'
p4124
I1
sS'sectors'
p4125
I1
sS'submitted'
p4126
I2
sS'shares.the'
p4127
I3
sS'anaheim'
p4128
I16
sS'2.8'
p4129
I2
sS'providing'
p4130
I4
sS'thwarted'
p4131
I1
sS'gold.frantic'
p4132
I1
sS'unchanged'
p4133
I4
sS'mediators'
p4134
I1
sS'pemberton'
p4135
I2
sS'harasssed'
p4136
I1
sS'close'
p4137
I38
sS'need'
p4138
I16
sS'manitoba'
p4139
I18
sS'constrained'
p4140
I1
sS'border'
p4141
I12
sS'basis.the'
p4142
I1
sS'able'
p4143
I6
sS'battles'
p4144
I1
sS'arm'
p4145
I1
sS'issuing'
p4146
I1
sS'declined'
p4147
I9
sS'3.14prime'
p4148
I1
sS'singh'
p4149
I1
sS'simpkins'
p4150
I2
sS'fuels'
p4151
I4
sS'expires'
p4152
I1
sS'30,072'
p4153
I1
sS'0/0'
p4154
I11
sS'3,741'
p4155
I1
sS'intentions'
p4156
I1
sS'connected'
p4157
I1
sS'19,000'
p4158
I1
sS'may.that'
p4159
I1
sS'feet.annual'
p4160
I1
sS'84.8'
p4161
I2
sS'scrambled'
p4162
I1
sS'construction'
p4163
I3
sS'0700'
p4164
I4
sS'parker'
p4165
I1
sS'466.31'
p4166
I1
sS'emptive'
p4167
I2
sS'oncology'
p4168
I1
sS'soldiers'
p4169
I1
sS'early.the'
p4170
I1
sS'53'
p4171
I2
sS'partners'
p4172
I9
sS'forex'
p4173
I3
sS'based'
p4174
I70
sS'earned'
p4175
I2
sS'winner'
p4176
I6
sS'rash'
p4177
I1
sS'bases'
p4178
I8
sS'fuel'
p4179
I4
sS'employed'
p4180
I2
sS'9,376'
p4181
I1
sS'mortality'
p4182
I1
sS'04/07'
p4183
I1
sS'statscan'
p4184
I5
sS'overall'
p4185
I6
sS'maritime'
p4186
I2
sS'120'
p4187
I1
sS'joint'
p4188
I11
sS'153.00'
p4189
I2
sS'125'
p4190
I1
sS'127'
p4191
I1
sS'margin.steve'
p4192
I1
sS'years'
p4193
I31
sS'shr'
p4194
I9
sS'0milwaukee'
p4195
I1
sS'gras'
p4196
I25
sS'navarro'
p4197
I1
sS'felipe'
p4198
I1
sS'processed'
p4199
I1
sS'contain'
p4200
I7
sS'grams'
p4201
I2
sS'cognos'
p4202
I1
sS'accuses'
p4203
I1
sS'computed'
p4204
I1
sS'sayegh'
p4205
I9
sS'problem'
p4206
I20
sS'99.0candlr'
p4207
I1
sS'pitch'
p4208
I4
sS'terrain'
p4209
I2
sS'freeze'
p4210
I1
sS'officials'
p4211
I36
sS'49-40-41903275'
p4212
I1
sS'migration.at'
p4213
I1
sS'exchanges.the'
p4214
I1
sS'smog'
p4215
I2
sS'lux'
p4216
I2
sS'conroy'
p4217
I1
sS'state'
p4218
I7
sS'tens'
p4219
I1
sS'7,819,824'
p4220
I1
sS'1.1988-98'
p4221
I1
sS'ken'
p4222
I1
sS'castoff'
p4223
I1
sS'importance'
p4224
I2
sS'0.7ontario'
p4225
I1
sS'efficiency'
p4226
I1
sS'key'
p4227
I27
sS'approval'
p4228
I7
sS'nominations'
p4229
I2
sS'2.40'
p4230
I2
sS'2.41'
p4231
I1
sS'hits'
p4232
I17
sS'limits'
p4233
I3
sS'career'
p4234
I2
sS'minutes'
p4235
I35
sS'trove'
p4236
I1
sS'5kansas'
p4237
I1
sS'prev04/07'
p4238
I1
sS'appmar'
p4239
I1
sS'jersey'
p4240
I8
sS'tuesday'
p4241
I95
sS'107.55'
p4242
I1
sS'franchise'
p4243
I1
sS'alberta.alberta'
p4244
I1
sS'maximize'
p4245
I1
sS'7658'
p4246
I3
sS'7659'
p4247
I1
sS'industrials'
p4248
I3
sS'addition'
p4249
I2
sS'yogen'
p4250
I1
sS'cent'
p4251
I3
sS'frenetically'
p4252
I3
sS'liberals'
p4253
I9
sS'treat'
p4254
I2
sS'bricker'
p4255
I1
sS'hernandez'
p4256
I1
sS'said.because'
p4257
I1
sS'said.that'
p4258
I1
sS'guerrillas'
p4259
I1
sS'expenditure'
p4260
I2
sS'dissemination'
p4261
I1
sS'hamburg'
p4262
I3
sS'x-philadelphia43'
p4263
I4
sS'nationalbasketball'
p4264
I3
sS'owns'
p4265
I4
sS'cornering'
p4266
I1
sS'2,303'
p4267
I1
sS'350.00'
p4268
I1
sS'surface'
p4269
I1
sS'nafta'
p4270
I1
sS'27.50/barrel'
p4271
I1
sS'examined'
p4272
I1
sS'voters.their'
p4273
I1
sS'orbital'
p4274
I4
sS'began'
p4275
I11
sS'22.79'
p4276
I2
sS'said.weather'
p4277
I1
sS'parts'
p4278
I4
sS'294/418'
p4279
I1
sS'northwest'
p4280
I10
sS'underground'
p4281
I1
sS'party'
p4282
I5
sS'district.aside'
p4283
I3
sS'steady.canada'
p4284
I2
sS'tapped'
p4285
I1
sS'514-985-2434'
p4286
I4
sS'fcast'
p4287
I1
sS'unconventional'
p4288
I1
sS'1-0'
p4289
I3
sS'canadians'
p4290
I9
sS'effect'
p4291
I4
sS'817-62-67'
p4292
I1
sS'interview.bre'
p4293
I1
sS'reuters.transborder'
p4294
I1
sS'floodwaters'
p4295
I1
sS'fierce'
p4296
I1
sS'frequently'
p4297
I1
sS'indigenous'
p4298
I2
sS'pull'
p4299
I1
sS'poultry'
p4300
I1
sS'transaction'
p4301
I1
sS'reflection'
p4302
I1
sS'nonetheless'
p4303
I1
sS'finds'
p4304
I1
sS'64.5'
p4305
I1
sS'64.6'
p4306
I1
sS'corporation'
p4307
I1
sS'mineralization'
p4308
I2
sS'restore'
p4309
I3
sS'increasingly'
p4310
I7
sS'accurate'
p4311
I3
sS'0.7/1.6'
p4312
I1
sS'sources'
p4313
I11
sS'mistakes'
p4314
I1
sS'virtual'
p4315
I1
sS'dfeb'
p4316
I1
sS'hess'
p4317
I1
sS'time.but'
p4318
I1
sS'7,000'
p4319
I1
sS'density'
p4320
I3
sS'182cows'
p4321
I1
sS'jeff'
p4322
I8
sS'17.25'
p4323
I1
sS'deposits'
p4324
I6
sS'extends'
p4325
I1
sS'subordinated'
p4326
I4
sS'0.5'
p4327
I16
sS'warrant'
p4328
I4
sS'alphastar'
p4329
I2
sS'railcar'
p4330
I3
sS'fate'
p4331
I1
sS'14.4'
p4332
I1
sS'devised'
p4333
I1
sS'utah'
p4334
I2
sS'14.7'
p4335
I2
sS'propelled'
p4336
I1
sS'263'
p4337
I3
sS'262'
p4338
I1
sS'261'
p4339
I1
sS'260'
p4340
I4
sS'burden'
p4341
I1
sS'264'
p4342
I7
sS'immediately'
p4343
I3
sS'269'
p4344
I1
sS'crusher'
p4345
I1
sS'cantel'
p4346
I3
sS'corporations.canada'
p4347
I1
sS'loss'
p4348
I16
sS'necessary'
p4349
I2
sS'lost'
p4350
I21
sS'estimated.indonesia'
p4351
I1
sS'prefeasibility'
p4352
I1
sS'martin'
p4353
I10
sS'soybeansapril'
p4354
I1
sS'3.546'
p4355
I1
sS'page'
p4356
I1
sS'backlog'
p4357
I4
sS'shed'
p4358
I3
sS'grizzlies'
p4359
I1
sS'said.com'
p4360
I1
sS'985'
p4361
I1
sS'cleveland'
p4362
I9
sS'home'
p4363
I33
sS'peter'
p4364
I1
sS'rising.but'
p4365
I1
sS'broad'
p4366
I1
sS'months.according'
p4367
I1
sS'sponsoring'
p4368
I1
sS'wendy'
p4369
I1
sS'4.036treasury'
p4370
I1
sS"shi'ite"
p4371
I1
sS'said.commission'
p4372
I1
sS'inaccurate'
p4373
I1
sS'headslaughter'
p4374
I1
sS'journal'
p4375
I1
sS'monetary'
p4376
I11
sS'expansion'
p4377
I3
sS'canamera'
p4378
I2
sS'55,417'
p4379
I1
sS'offset'
p4380
I4
sS'carat'
p4381
I2
sS'a-418'
p4382
I3
sS'friday.in'
p4383
I1
sS'23.5'
p4384
I1
sS'wisconsin.in'
p4385
I1
sS'dominion'
p4386
I9
sS'way.marks'
p4387
I1
sS'23.9'
p4388
I1
sS'23.8'
p4389
I1
sS'previously'
p4390
I7
sS'washington'
p4391
I19
sS'5.27'
p4392
I1
sS'gtaa'
p4393
I2
sS'5.20'
p4394
I1
sS'5.29'
p4395
I1
sS'utility'
p4396
I3
sS'1.15'
p4397
I2
sS'additional'
p4398
I6
sS'act.bre'
p4399
I1
sS'daniels'
p4400
I1
sS'imperial'
p4401
I4
sS'613-951-4090'
p4402
I1
sS'peacekeepers'
p4403
I2
sS'north'
p4404
I38
sS'2-3/8'
p4405
I1
sS'44,000'
p4406
I1
sS'hi'
p4407
I15
sS'gain'
p4408
I12
sS'courts'
p4409
I1
sS'hm'
p4410
I7
sS'sprinkling'
p4411
I1
sS'highest'
p4412
I4
sS'signed'
p4413
I11
sS'dhahran'
p4414
I1
sS'converted'
p4415
I2
sS'stories'
p4416
I4
sS'168.00light'
p4417
I2
sS'piece'
p4418
I1
sS'marketplace'
p4419
I4
sS'facilites'
p4420
I1
sS'punishes'
p4421
I1
sS'penny'
p4422
I2
sS'offer.in'
p4423
I1
sS'rule'
p4424
I2
sS'erie'
p4425
I2
sS'eric'
p4426
I2
sS'month.the'
p4427
I2
sS'diego'
p4428
I6
sS'rumors'
p4429
I6
sS'contest'
p4430
I1
sS'approval.the'
p4431
I1
sS'offensive'
p4432
I1
sS'torrid'
p4433
I1
sS'476'
p4434
I1
sS'gonzalez'
p4435
I4
sS'1.35-1.38'
p4436
I1
sS'star'
p4437
I5
sS'475'
p4438
I1
sS'january.the'
p4439
I3
sS'stay'
p4440
I8
sS'stan'
p4441
I3
sS'prejudicing'
p4442
I1
sS'curbed'
p4443
I1
sS'spence'
p4444
I3
sS'appoint'
p4445
I1
sS'accidents'
p4446
I1
sS'brewers.ken'
p4447
I1
sS'bce'
p4448
I6
sS'bcf'
p4449
I4
sS'portion'
p4450
I2
sS'spndg'
p4451
I1
sS'diagnosis'
p4452
I1
sS'28,000'
p4453
I1
sS'simpson'
p4454
I1
sS'aided'
p4455
I1
sS'release.the'
p4456
I1
sS'go.1996'
p4457
I1
sS'21.46/barrel'
p4458
I1
sS'month.security'
p4459
I1
sS'protest'
p4460
I2
sS'asian'
p4461
I3
sS'consists'
p4462
I1
sS'battleground'
p4463
I1
sS'18,600'
p4464
I1
sS'29944482'
p4465
I1
sS'total.trade'
p4466
I1
sS'aug'
p4467
I2
sS'segments'
p4468
I1
sS'swan'
p4469
I5
sS'pensions'
p4470
I1
sS'bln'
p4471
I79
sS'6.566'
p4472
I1
sS'said.there'
p4473
I1
sS'updates'
p4474
I1
sS'reforms'
p4475
I1
sS'affect'
p4476
I3
sS'vast'
p4477
I2
sS'6,886.6'
p4478
I1
sS'2mth'
p4479
I2
sS'2,208'
p4480
I1
sS'crops'
p4481
I4
sS'companies'
p4482
I37
sS'solution'
p4483
I4
sS'unrelated'
p4484
I1
sS'enhance'
p4485
I1
sS'heading'
p4486
I1
sS'force'
p4487
I20
sS'japanese'
p4488
I4
sS'likely'
p4489
I11
sS'subordinate'
p4490
I3
sS'treatment.layoffs'
p4491
I1
sS'3.37'
p4492
I2
sS'neg'
p4493
I3
sS'asia'
p4494
I4
sS'spokesman'
p4495
I19
sS'new'
p4496
I137
sS'net'
p4497
I21
sS'19.09'
p4498
I1
sS'1997.completion'
p4499
I1
sS'reviving'
p4500
I1
sS'million'
p4501
I206
sS'seventh'
p4502
I2
sS'men'
p4503
I3
sS'drew'
p4504
I1
sS'met'
p4505
I11
sS'108'
p4506
I1
sS'109'
p4507
I1
sS'possibility'
p4508
I8
sS'102'
p4509
I1
sS'103'
p4510
I2
sS'100'
p4511
I14
sS'101'
p4512
I4
sS'106'
p4513
I1
sS'104'
p4514
I1
sS'105'
p4515
I2
sS'dry'
p4516
I6
sS'jams'
p4517
I1
sS'yields.analysts'
p4518
I1
sS'economics'
p4519
I2
sS'golds'
p4520
I1
sS'credit'
p4521
I11
sS'omar'
p4522
I1
sS'permit'
p4523
I2
sS'japan.he'
p4524
I1
sS'eyebrows'
p4525
I1
sS'cats.toronto'
p4526
I1
sS'reduced.but'
p4527
I2
sS'season.griffey'
p4528
I1
sS'county'
p4529
I2
sS'leaguebaseball'
p4530
I4
sS'premar'
p4531
I1
sS'site.the'
p4532
I1
sS'circumvent'
p4533
I1
sS'tuesday.participants'
p4534
I1
sS'arms'
p4535
I1
sS'castlegar'
p4536
I1
sS'seaway.the'
p4537
I1
sS'type'
p4538
I7
sS'tell'
p4539
I1
sS'323.91'
p4540
I1
sS'posting'
p4541
I1
sS'wary'
p4542
I1
sS'composite'
p4543
I6
sS'netback'
p4544
I2
sS'1.3843prev'
p4545
I1
sS'warm'
p4546
I1
sS'frenzy'
p4547
I3
sS'pnoc'
p4548
I5
sS'ward'
p4549
I1
sS'requirements.but'
p4550
I2
sS'hoax'
p4551
I1
sS'room'
p4552
I5
sS'377.89'
p4553
I1
sS'rights'
p4554
I11
sS'testing.the'
p4555
I1
sS'newfoundland'
p4556
I2
sS'defer'
p4557
I1
sS'usdacanadian'
p4558
I1
sS'2x10'
p4559
I1
sS'10,000'
p4560
I5
sS'1.2010'
p4561
I1
sS'trade.the'
p4562
I1
sS'autonomy'
p4563
I4
sS'hedges.japan'
p4564
I1
sS'answer'
p4565
I7
sS'construc'
p4566
I1
sS'dollar.dealers'
p4567
I1
sS'gordon'
p4568
I5
sS'770.1'
p4569
I1
sS'commencing'
p4570
I8
sS'unmined'
p4571
I1
sS'minority'
p4572
I3
sS'undergoing'
p4573
I3
sS'believers'
p4574
I4
sS'lepage'
p4575
I2
sS'president'
p4576
I48
sS'deutsche'
p4577
I4
sS'purchase'
p4578
I8
sS'attempt'
p4579
I1
sS'05/08wage'
p4580
I2
sS'companies.dominion'
p4581
I1
sS'million.husky'
p4582
I1
sS'services.a'
p4583
I1
sS'maintain'
p4584
I4
sS'1993.the'
p4585
I1
sS'said.pipeline'
p4586
I1
sS'operate'
p4587
I3
sS'681'
p4588
I2
sS'operations'
p4589
I8
sS'foresaw'
p4590
I1
sS'said.she'
p4591
I1
sS'banged'
p4592
I1
sS'96m1'
p4593
I1
sS'4.35'
p4594
I1
sS'4.34'
p4595
I1
sS'scoring'
p4596
I2
sS'blues.the'
p4597
I1
sS'10.3'
p4598
I1
sS'10.2'
p4599
I1
sS'22.58'
p4600
I1
sS'pharma'
p4601
I1
sS'10.7'
p4602
I1
sS'10.6'
p4603
I2
sS'personal'
p4604
I3
sS'better'
p4605
I14
sS'durum'
p4606
I3
sS'5.59feb'
p4607
I1
sS'persist'
p4608
I1
sS'weeks'
p4609
I28
sS'cred'
p4610
I2
sS'offence.1996'
p4611
I1
sS'combination'
p4612
I1
sS'weakness'
p4613
I11
sS'unemployed'
p4614
I2
sS'cmhc'
p4615
I4
sS'sovereignty.beijing'
p4616
I1
sS'sectors.the'
p4617
I1
sS'dollars.the'
p4618
I1
sS'june.but'
p4619
I1
sS'meat'
p4620
I5
sS'98.28102'
p4621
I1
sS'arrested'
p4622
I3
sS'ventilation'
p4623
I1
sS'leaned'
p4624
I1
sS'went'
p4625
I12
sS'meal'
p4626
I4
sS'bond'
p4627
I25
sS'aide'
p4628
I1
sS'trading'
p4629
I217
sS'doug'
p4630
I6
sS'lawyers'
p4631
I8
sS'dawn'
p4632
I1
sS'contend'
p4633
I1
sS'7,027'
p4634
I1
sS'crucial'
p4635
I3
sS'content'
p4636
I3
sS'80.3-79.3'
p4637
I1
sS'167.71'
p4638
I1
sS'i&m'
p4639
I2
sS'sluggish'
p4640
I2
sS'turning'
p4641
I3
sS'resume'
p4642
I17
sS'11.05'
p4643
I1
sS'296'
p4644
I1
sS'246'
p4645
I1
sS'241'
p4646
I4
sS'240'
p4647
I2
sS'248'
p4648
I1
sS'3.95'
p4649
I1
sS'iss'
p4650
I4
sS'292'
p4651
I2
sS'victims.but'
p4652
I1
sS'1,120'
p4653
I1
sS'arrived'
p4654
I3
sS'loud'
p4655
I1
sS'bertuzzi'
p4656
I1
sS'stewart'
p4657
I2
sS'enjoy'
p4658
I1
sS'31.96'
p4659
I1
sS'107.59'
p4660
I1
sS'economists'
p4661
I11
sS'said.hong'
p4662
I1
sS'87.81'
p4663
I1
sS'reassure'
p4664
I1
sS'10,862.western'
p4665
I1
sS'monopoly.the'
p4666
I1
sS'downside'
p4667
I2
sS'agri'
p4668
I2
sS'distrapr'
p4669
I1
sS'said.contacted'
p4670
I1
sS'stumpage'
p4671
I2
sS'inflow'
p4672
I1
sS'yakima'
p4673
I1
sS'villages'
p4674
I1
sS'requisite'
p4675
I1
sS'boarding'
p4676
I1
sS'distance'
p4677
I1
sS'anxiety'
p4678
I1
sS'1x12'
p4679
I1
sS'database'
p4680
I2
sS'preparation'
p4681
I6
sS'matter'
p4682
I2
sS'enables'
p4683
I1
sS'cwb.twenty'
p4684
I1
sS'mini'
p4685
I4
sS'sees'
p4686
I2
sS'steelmaker'
p4687
I1
sS'palace'
p4688
I1
sS'mind'
p4689
I4
sS'mining'
p4690
I49
sS'seed'
p4691
I3
sS'392.19'
p4692
I1
sS'seen'
p4693
I13
sS'1.078'
p4694
I1
sS'suncor'
p4695
I7
sS'5.02'
p4696
I6
sS'105.59'
p4697
I1
sS'49th'
p4698
I1
sS'14,000'
p4699
I2
sS'feet.export'
p4700
I1
sS'mario'
p4701
I1
sS'regular'
p4702
I2
sS'markets.the'
p4703
I1
sS'zealand'
p4704
I2
sS'don'
p4705
I1
sS'pointe'
p4706
I1
sS'medical'
p4707
I1
sS'm'
p4708
I12
sS'competitors'
p4709
I4
sS'points'
p4710
I48
sS'unadjusted'
p4711
I2
sS'weakest'
p4712
I2
sS'consumer'
p4713
I39
sS'dow'
p4714
I4
sS'kristen'
p4715
I2
sS'1145'
p4716
I3
sS'withstand'
p4717
I1
sS'probe'
p4718
I7
sS'ending'
p4719
I7
sS'attempts'
p4720
I1
sS'chartered'
p4721
I1
sS'sown'
p4722
I1
sS'stepping'
p4723
I1
sS'specialists'
p4724
I1
sS'thirds'
p4725
I2
sS'judges'
p4726
I1
sS'northeast'
p4727
I17
sS'days.manitoba'
p4728
I1
sS'permitsmar'
p4729
I1
sS'debts'
p4730
I1
sS'jailed'
p4731
I1
sS'exports'
p4732
I19
sS'761'
p4733
I1
sS'compounded'
p4734
I1
sS'stop'
p4735
I7
sS'coast'
p4736
I2
sS'pingree'
p4737
I1
sS'christopher'
p4738
I1
sS'competitive'
p4739
I3
sS'1627'
p4740
I1
sS'quarters'
p4741
I1
sS'carmichael'
p4742
I4
sS'earn'
p4743
I3
sS'bar'
p4744
I1
sS'1.2102-12'
p4745
I1
sS'fields'
p4746
I3
sS'bay'
p4747
I19
sS'bad'
p4748
I3
sS'architecture'
p4749
I3
sS'ban'
p4750
I3
sS'6.093'
p4751
I1
sS'bal'
p4752
I7
sS'counters'
p4753
I1
sS'table.canada'
p4754
I1
sS'flagged'
p4755
I1
sS'headed'
p4756
I1
sS'30,300'
p4757
I1
sS'imitate'
p4758
I1
sS'testing'
p4759
I8
sS'remarkseugne'
p4760
I1
sS'interruptions'
p4761
I1
sS'montreal.the'
p4762
I1
sS'subject'
p4763
I11
sS'brazil'
p4764
I1
sS'03'
p4765
I1
sS'00'
p4766
I4
sS'said'
p4767
I634
sS'fastballs'
p4768
I1
sS'inappropriate'
p4769
I1
sS'said.average'
p4770
I1
sS'1996.martin'
p4771
I1
sS'sail'
p4772
I1
sS'saapr'
p4773
I1
sS'chili'
p4774
I1
sS'vows'
p4775
I1
sS'restricting'
p4776
I1
sS'buford'
p4777
I2
sS'boise'
p4778
I1
sS'380'
p4779
I1
sS'tripled'
p4780
I2
sS'picking'
p4781
I2
sS'suggested'
p4782
I3
sS'maneuvers'
p4783
I1
sS'0.0725'
p4784
I1
sS'extradition.the'
p4785
I1
sS'und'
p4786
I3
sS'sulphurmedium'
p4787
I5
sS'wong.computer'
p4788
I2
sS'pricesapr'
p4789
I2
sS'ernst'
p4790
I4
sS'appeared'
p4791
I11
sS'cemetery'
p4792
I1
sS'offerings'
p4793
I2
sS'107,123'
p4794
I1
sS'drilled'
p4795
I5
sS'loaded'
p4796
I5
sS'said.of'
p4797
I1
sS'a.south'
p4798
I1
sS'puts'
p4799
I1
sS'basis'
p4800
I32
sS'patrolling'
p4801
I1
sS'tiny'
p4802
I6
sS'commission'
p4803
I17
sS'19.26'
p4804
I1
sS'tino'
p4805
I1
sS'basin'
p4806
I1
sS'threw'
p4807
I2
sS'mcn'
p4808
I2
sS'underwon'
p4809
I3
sS'deeper'
p4810
I1
sS'mci'
p4811
I2
sS'turned'
p4812
I15
sS'scoring.bryan'
p4813
I1
sS'168'
p4814
I4
sS'169'
p4815
I1
sS'personally'
p4816
I1
sS'aviation'
p4817
I1
sS'brokerages.last'
p4818
I1
sS'162'
p4819
I2
sS'wednesday.juden'
p4820
I1
sS'sheridan'
p4821
I2
sS'104,298'
p4822
I1
sS'century.investors'
p4823
I1
sS'ugly'
p4824
I2
sS'near'
p4825
I8
sS'melted'
p4826
I1
sS'wetteland'
p4827
I3
sS'balance'
p4828
I8
sS'study'
p4829
I23
sS'seven'
p4830
I16
sS'429.99'
p4831
I1
sS'166.00koch'
p4832
I2
sS'mexico'
p4833
I4
sS'carlson'
p4834
I1
sS'explanation'
p4835
I1
sS'complaint'
p4836
I4
sS'30311986'
p4837
I1
sS'reservesapr'
p4838
I1
sS'seattle'
p4839
I8
sS'grown'
p4840
I1
sS'overstated'
p4841
I9
sS'428.59'
p4842
I1
sS'belle'
p4843
I4
sS'make'
p4844
I26
sS'6221'
p4845
I1
sS'roland'
p4846
I1
sS'belly'
p4847
I3
sS'2,658.9'
p4848
I1
sS'liberal'
p4849
I4
sS'sidelines'
p4850
I2
sS'czerkawksi'
p4851
I1
sS'entitled'
p4852
I3
sS'meets'
p4853
I3
sS'october.this'
p4854
I1
sS'sacramento'
p4855
I2
sS'408.02'
p4856
I1
sS'detroit.detroit'
p4857
I1
sS'opportunity'
p4858
I2
sS'programs'
p4859
I5
sS'failing'
p4860
I2
sS'materials'
p4861
I7
sS'claims'
p4862
I9
sS'800'
p4863
I1
sS'investments'
p4864
I3
sS'left'
p4865
I20
sS'21.94/barrel'
p4866
I1
sS'just'
p4867
I35
sS'sentence'
p4868
I2
sS'farquharson'
p4869
I6
sS'sporting'
p4870
I1
sS'assigned'
p4871
I1
sS'bandwidth'
p4872
I1
sS'identify'
p4873
I1
sS'human'
p4874
I6
sS'facts'
p4875
I2
sS'yes'
p4876
I5
sS'nicolas'
p4877
I1
sS'buyers'
p4878
I4
sS'floor.the'
p4879
I1
sS'royal'
p4880
I12
sS'states.a'
p4881
I1
sS'gaetti'
p4882
I1
sS'ikeda'
p4883
I1
sS'save'
p4884
I4
sS'kimberlite'
p4885
I5
sS'forested'
p4886
I1
sS'shoulder'
p4887
I1
sS'performing'
p4888
I8
sS'qichen'
p4889
I1
sS'system.its'
p4890
I1
sS'4.11'
p4891
I1
sS'4.14'
p4892
I1
sS'deal'
p4893
I32
sS'dead'
p4894
I1
sS'1.0297-07'
p4895
I1
sS'marlin'
p4896
I1
sS'said.watson'
p4897
I2
sS'norman'
p4898
I1
sS'megacity'
p4899
I2
sS'dense'
p4900
I2
sS'tuesday.bre'
p4901
I7
sS'grading'
p4902
I2
sS'assn.note'
p4903
I1
sS'normal'
p4904
I11
sS'0.47/barrel'
p4905
I1
sS'track'
p4906
I1
sS'5901.66'
p4907
I1
sS'tallies'
p4908
I1
sS'yfeb'
p4909
I2
sS'bold'
p4910
I2
sS'prairies'
p4911
I7
sS'87.96-06'
p4912
I1
sS'predicting'
p4913
I1
sS'140.00'
p4914
I3
sS'paid'
p4915
I3
sS'casciato'
p4916
I2
sS'efeb'
p4917
I2
sS'6425'
p4918
I1
sS'127.00'
p4919
I2
sS"o'halloran"
p4920
I1
sS'reuters.about'
p4921
I1
sS'45the'
p4922
I1
sS'afternoon'
p4923
I2
sS'commit'
p4924
I1
sS'hospital'
p4925
I2
sS'texas.bre'
p4926
I1
sS'soycomplex'
p4927
I2
sS'managers'
p4928
I4
sS'lied'
p4929
I1
sS'overloads'
p4930
I2
sS'beukeboom'
p4931
I1
sS'complaints'
p4932
I1
sS'shippers'
p4933
I4
sS'salisbury'
p4934
I1
sS'3.3703/27/97'
p4935
I1
sS'refined'
p4936
I1
sS'stall'
p4937
I2
sS'm4'
p4938
I9
sS'tennis'
p4939
I1
sS'editor'
p4940
I2
sS'm0'
p4941
I2
sS'11.28'
p4942
I1
sS'bourse.but'
p4943
I1
sS'offering'
p4944
I6
sS'0.64/barrel'
p4945
I1
sS'11.22'
p4946
I1
sS'menopausal'
p4947
I1
sS'ford'
p4948
I1
sS'failure'
p4949
I5
sS'229'
p4950
I5
sS'228'
p4951
I1
sS'227'
p4952
I7
sS'family.the'
p4953
I1
sS'225'
p4954
I1
sS'223'
p4955
I1
sS'analyst'
p4956
I20
sS'221'
p4957
I9
sS'220'
p4958
I2
sS'builds'
p4959
I1
sS'understood'
p4960
I1
sS'hikers'
p4961
I1
sS'10/09/97'
p4962
I1
sS'26.39'
p4963
I2
sS'services.destinations'
p4964
I1
sS'3.2'
p4965
I6
sS'plaintiffs'
p4966
I1
sS'stages'
p4967
I4
sS'originating'
p4968
I1
sS'currency.the'
p4969
I4
sS'372'
p4970
I1
sS'bharti'
p4971
I3
sS'demurrage'
p4972
I3
sS'covers'
p4973
I2
sS'drive'
p4974
I2
sS'tarnished'
p4975
I2
sS'fashioned'
p4976
I1
sS'grier'
p4977
I2
sS'ship'
p4978
I16
sS'marxist'
p4979
I1
sS'bill.in'
p4980
I1
sS'generally'
p4981
I2
sS'earningsmar'
p4982
I1
sS'68.59'
p4983
I1
sS'conine'
p4984
I1
sS'felt'
p4985
I1
sS'utilities'
p4986
I6
sS'diet'
p4987
I4
sS'canada.in'
p4988
I1
sS'fell'
p4989
I63
sS'titlethursday'
p4990
I1
sS'authorities'
p4991
I7
sS'transfers'
p4992
I1
sS'weekend'
p4993
I5
sS'russo'
p4994
I2
sS'died'
p4995
I1
sS'billion'
p4996
I68
sS'happening'
p4997
I2
sS'17-19.canola'
p4998
I1
sS'assume'
p4999
I1
sS'market.bre'
p5000
I1
sS'daily'
p5001
I4
sS'eliminate'
p5002
I1
sS'pellets'
p5003
I3
sS'homered'
p5004
I10
sS'profits'
p5005
I5
sS'managed'
p5006
I8
sS'woodwork'
p5007
I1
sS'invent'
p5008
I2
sS'manager'
p5009
I9
sS'96.313'
p5010
I1
sS'21st'
p5011
I1
sS'suicide'
p5012
I2
sS'depend'
p5013
I3
sS'0'
p5014
I28
sS'finally'
p5015
I6
sS'3.4204/01/97'
p5016
I1
sS'marks'
p5017
I3
sS'sovereignty'
p5018
I1
sS'28.40'
p5019
I1
sS'adviser'
p5020
I1
sS'string'
p5021
I1
sS'time.normal'
p5022
I2
sS'constitution.after'
p5023
I1
sS'lynch'
p5024
I4
sS'advised'
p5025
I5
sS'thursday.bre'
p5026
I2
sS'152.00shell'
p5027
I2
sS'anne'
p5028
I1
sS'governments'
p5029
I1
sS'1-yr'
p5030
I2
sS'1.85/1.90'
p5031
I1
sS'trended'
p5032
I1
sS'did'
p5033
I28
sS'die'
p5034
I1
sS'permits'
p5035
I5
sS'proposals'
p5036
I2
sS'dia'
p5037
I1
sS'specials'
p5038
I1
sS'dip'
p5039
I1
sS'round'
p5040
I3
sS'attracting'
p5041
I1
sS'olympic'
p5042
I1
sS'unexpected'
p5043
I1
sS'dealing'
p5044
I4
sS'1125'
p5045
I1
sS'21.40'
p5046
I2
sS'aggressive'
p5047
I2
sS'coahuila'
p5048
I1
sS'soured'
p5049
I1
sS'trachsel'
p5050
I1
sS'853.0'
p5051
I1
sS'suspect'
p5052
I1
sS'somalia'
p5053
I2
sS'international'
p5054
I30
sS'transportation'
p5055
I8
sS'mr'
p5056
I2
sS'feedpeas'
p5057
I2
sS'french'
p5058
I2
sS'wait'
p5059
I2
sS'box'
p5060
I2
sS'canadian'
p5061
I286
sS'institute'
p5062
I8
sS'shift'
p5063
I1
sS'jungles'
p5064
I5
sS'bow'
p5065
I7
sS'57.5'
p5066
I1
sS'cargill'
p5067
I2
sS'suggestion'
p5068
I1
sS'bob'
p5069
I3
sS'gundy.the'
p5070
I1
sS'slackened'
p5071
I1
sS"nat'l"
p5072
I2
sS'teenage'
p5073
I1
sS'0.7255'
p5074
I1
sS'ailing'
p5075
I1
sS'monterrey'
p5076
I2
sS'additive'
p5077
I1
sS'troops'
p5078
I7
sS'salting'
p5079
I5
sS'1.87/1.92'
p5080
I1
sS'0500'
p5081
I18
sS'99.156'
p5082
I1
sS'visit'
p5083
I6
sS'insider'
p5084
I9
sS'said.alberta'
p5085
I3
sS'peru'
p5086
I2
sS'reseated'
p5087
I1
sS'season.placing'
p5088
I1
sS'problems.trading'
p5089
I2
sS'556'
p5090
I1
sS'prev1'
p5091
I8
sS'60.0candlr'
p5092
I1
sS'property.despite'
p5093
I2
sS'effort'
p5094
I3
sS'bushels'
p5095
I2
sS'fly'
p5096
I6
sS'tokyo'
p5097
I5
sS'avoiding'
p5098
I3
sS'quoting'
p5099
I2
sS'417.20'
p5100
I1
sS'reviews'
p5101
I1
sS'goodale'
p5102
I6
sS'sour'
p5103
I19
sS'growing'
p5104
I13
sS'making'
p5105
I5
sS'claim'
p5106
I7
sS'1.88/1.94'
p5107
I1
sS'predict'
p5108
I1
sS'agent'
p5109
I5
sS'sample'
p5110
I11
sS'battered'
p5111
I2
sS'council'
p5112
I5
sS'indonesia.trading'
p5113
I1
sS'dennis'
p5114
I1
sS'skated'
p5115
I1
sS'tilt'
p5116
I1
sS'ping'
p5117
I2
sS'yld'
p5118
I3
sS'pine'
p5119
I6
sS'culverts'
p5120
I1
sS'hostage'
p5121
I1
sS'sunday'
p5122
I1
sS'resume.bre'
p5123
I1
sS'success.on'
p5124
I1
sS'19.47'
p5125
I1
sS'mar'
p5126
I123
sS'142'
p5127
I1
sS'snc'
p5128
I19
sS'140'
p5129
I4
sS'critics'
p5130
I1
sS'walbeck'
p5131
I1
sS'384-6364'
p5132
I1
sS'50-cent'
p5133
I1
sS'mutation.women'
p5134
I1
sS'designed'
p5135
I7
sS'sulphurlight'
p5136
I4
sS'70-91'
p5137
I1
sS'maj'
p5138
I3
sS'guys'
p5139
I1
sS'grow'
p5140
I3
sS'pressuring'
p5141
I2
sS'man'
p5142
I14
sS'johnson'
p5143
I1
sS'16,000'
p5144
I2
sS'maybe'
p5145
I2
sS'85,123,007'
p5146
I1
sS'q'
p5147
I9
sS'cascade'
p5148
I1
sS'jail'
p5149
I1
sS'deposit'
p5150
I15
sS'african'
p5151
I1
sS'talk'
p5152
I2
sS'said.dealers'
p5153
I2
sS'career.russ'
p5154
I1
sS'blnnote'
p5155
I1
sS'milnor'
p5156
I1
sS'disclosure'
p5157
I12
sS'pointed'
p5158
I2
sS'stability'
p5159
I2
sS'cuts'
p5160
I5
sS'argued'
p5161
I1
sS'48.74'
p5162
I1
sS'police'
p5163
I7
sS'interesting'
p5164
I2
sS'shehri'
p5165
I2
sS'listing'
p5166
I23
sS'policy'
p5167
I14
sS'mail'
p5168
I13
sS'main'
p5169
I4
sS'texas'
p5170
I13
sS'losses.the'
p5171
I1
sS'finance'
p5172
I10
sS'killer'
p5173
I1
sS'shatter'
p5174
I1
sS'sooner'
p5175
I2
sS'toxic'
p5176
I1
sS'anson'
p5177
I1
sS'sumas.in'
p5178
I1
sS'killed'
p5179
I2
sS'developments'
p5180
I1
sS'14.5'
p5181
I1
sS'13.0-13.5'
p5182
I1
sS'9.6/9.6'
p5183
I1
sS'14.3'
p5184
I1
sS'liabilities.the'
p5185
I1
sS'14.8'
p5186
I2
sS'rock'
p5187
I1
sS'825'
p5188
I1
sS'thursday.an'
p5189
I1
sS'nick'
p5190
I1
sS'bitumen'
p5191
I4
sS's&p'
p5192
I4
sS'speculators'
p5193
I2
sS'summary'
p5194
I1
sS'spiking'
p5195
I1
sS'canada'
p5196
I347
sS'living'
p5197
I4
sS'operates'
p5198
I2
sS'54.85'
p5199
I1
sS'sixth.sean'
p5200
I1
sS'phoenixsacramento'
p5201
I1
sS'emerged'
p5202
I1
sS'resins'
p5203
I1
sS'dominate'
p5204
I2
sS'correct'
p5205
I2
sS'lag'
p5206
I2
sS'monster'
p5207
I1
sS'products.st'
p5208
I1
sS'hefty'
p5209
I1
sS'california'
p5210
I4
sS'vinyl'
p5211
I1
sS'83.35'
p5212
I1
sS'ore'
p5213
I9
sS'keith'
p5214
I2
sS'advance'
p5215
I1
sS'ministry'
p5216
I6
sS'widths'
p5217
I1
sS'39,156'
p5218
I1
sS'thing'
p5219
I7
sS'8720'
p5220
I3
sS'92-70'
p5221
I1
sS'think'
p5222
I28
sS'waited'
p5223
I1
sS'upon.in'
p5224
I1
sS'urbina'
p5225
I1
sS'americans'
p5226
I1
sS'telus'
p5227
I1
sS'carry'
p5228
I8
sS'corporations'
p5229
I1
sS'318'
p5230
I1
sS'104.95'
p5231
I1
sS'little'
p5232
I15
sS'130,060'
p5233
I1
sS'1y'
p5234
I2
sS'murky'
p5235
I2
sS'early.on'
p5236
I1
sS'company.a'
p5237
I1
sS'1m'
p5238
I2
sS'speaking'
p5239
I3
sS'eyes'
p5240
I3
sS'826-km'
p5241
I1
sS'24.17'
p5242
I4
sS'moscow'
p5243
I1
sS'continuous'
p5244
I9
sS'trader.the'
p5245
I1
sS'broadcast'
p5246
I6
sS'hillary'
p5247
I1
sS'hartford'
p5248
I8
sS'butt'
p5249
I3
sS'11'
p5250
I33
sS'10'
p5251
I50
sS'13'
p5252
I20
sS'12'
p5253
I37
sS'15'
p5254
I28
sS'14'
p5255
I17
sS'17'
p5256
I16
sS'16'
p5257
I6
sS'19'
p5258
I14
sS'18'
p5259
I21
sS'burba'
p5260
I1
sS'354'
p5261
I2
sS'ventura'
p5262
I1
sS'venture'
p5263
I9
sS'1992.the'
p5264
I1
sS'dorgan'
p5265
I1
sS'casale'
p5266
I2
sS'improbability'
p5267
I1
sS'immediately.other'
p5268
I1
sS'1.3899'
p5269
I2
sS'voiced'
p5270
I1
sS'1.3890'
p5271
I1
sS'chinarichard'
p5272
I1
sS'kevin'
p5273
I3
sS'speakers'
p5274
I2
sS'1/32'
p5275
I3
sS'efficient'
p5276
I1
sS'4,484'
p5277
I1
sS'isolate'
p5278
I1
sS'consortium'
p5279
I4
sS'shocked'
p5280
I2
sS'endangered'
p5281
I1
sS'potential'
p5282
I18
sS'performance'
p5283
I4
sS'channel'
p5284
I3
sS'bets'
p5285
I1
sS'200'
p5286
I8
sS'203'
p5287
I7
sS'202'
p5288
I4
sS'204'
p5289
I28
sS'207'
p5290
I4
sS'investigations'
p5291
I1
sS'209'
p5292
I1
sS'208'
p5293
I5
sS'woodrow'
p5294
I1
sS'pair'
p5295
I3
sS'12,500'
p5296
I1
sS'especially'
p5297
I3
sS'refunds'
p5298
I1
sS'season.the'
p5299
I2
sS'larry'
p5300
I4
sS'voodoo'
p5301
I1
sS'1.3850/1.3895'
p5302
I1
sS'rating'
p5303
I8
sS'shot'
p5304
I4
sS'lvng'
p5305
I8
sS'glenmore'
p5306
I2
sS'data'
p5307
I37
sS'frequent'
p5308
I1
sS'samples.strathcona'
p5309
I3
sS'statement.this'
p5310
I1
sS'dick'
p5311
I1
sS'backlogged'
p5312
I2
sS'again.on'
p5313
I1
sS'flightcraft'
p5314
I1
sS'black'
p5315
I2
sS'treasury'
p5316
I4
sS'enthusiasm'
p5317
I2
sS'pegged'
p5318
I3
sS'50competing'
p5319
I1
sS'ger'
p5320
I38
sS'6.55'
p5321
I1
sS'contracts'
p5322
I13
sS'45,163'
p5323
I1
sS'8-12'
p5324
I1
sS'employers'
p5325
I1
sS'nearly'
p5326
I18
sS'133,000'
p5327
I1
sS'reading'
p5328
I1
sS'york.canada'
p5329
I1
sS'6.6'
p5330
I1
sS'367.50'
p5331
I1
sS'busiest'
p5332
I1
sS'yield'
p5333
I27
sS'morning'
p5334
I17
sS'miles'
p5335
I3
sS'12.7'
p5336
I1
sS'communicated'
p5337
I1
sS'5.40'
p5338
I1
sS'declared'
p5339
I2
sS'6.1'
p5340
I3
sS'2988.64'
p5341
I1
sS'pitlick'
p5342
I1
sS'105.18'
p5343
I1
sS'pcttech'
p5344
I2
sS'forecast'
p5345
I26
sS'68.71'
p5346
I1
sS'14,757'
p5347
I1
sS'27.804'
p5348
I1
sS'diamonds'
p5349
I4
sS'6.8'
p5350
I1
sS'checks'
p5351
I2
sS'infrastructure'
p5352
I2
sS'august'
p5353
I5
sS'parent'
p5354
I1
sS'approvals'
p5355
I2
sS'jp'
p5356
I2
sS'jr'
p5357
I1
sS'float.methanex'
p5358
I1
sS'tue'
p5359
I51
sS'rowland'
p5360
I7
sS'trader'
p5361
I13
sS'trades'
p5362
I2
sS'according'
p5363
I8
sS'dkb'
p5364
I2
sS'99.212'
p5365
I1
sS'harbor'
p5366
I1
sS'traded'
p5367
I35
sS'0.6british'
p5368
I1
sS'21.64'
p5369
I1
sS'cancer'
p5370
I15
sS'terse'
p5371
I2
sS'maintained'
p5372
I2
sS'holberton'
p5373
I2
sS'5285.30'
p5374
I1
sS'estrogen'
p5375
I1
sS'406'
p5376
I1
sS'barry'
p5377
I1
sS'95.96152'
p5378
I1
sS'mark'
p5379
I4
sS'march.some'
p5380
I1
sS'2932.71'
p5381
I1
sS'mary'
p5382
I1
sS'16.1'
p5383
I2
sS'offered'
p5384
I4
sS'400'
p5385
I8
sS'173.00'
p5386
I5
sS'1.05ftse100'
p5387
I1
sS'wake'
p5388
I1
sS'truck.but'
p5389
I1
sS'ongoing'
p5390
I3
sS'1100'
p5391
I2
sS'promising'
p5392
I2
sS'cancelled'
p5393
I1
sS'investigating'
p5394
I2
sS'margin'
p5395
I8
sS'winless'
p5396
I1
sS'numminen'
p5397
I2
sS'middle'
p5398
I3
sS'westjet'
p5399
I2
sS'0.7193'
p5400
I2
sS'movements'
p5401
I1
sS'different'
p5402
I4
sS'pat'
p5403
I8
sS'55.90.the'
p5404
I1
sS'pay'
p5405
I14
sS'creaky'
p5406
I6
sS'guadalajara'
p5407
I1
sS'78-84'
p5408
I2
sS'speech'
p5409
I1
sS"o'brien"
p5410
I4
sS'deference'
p5411
I1
sS'struggling'
p5412
I1
sS'indonesia.bre'
p5413
I1
sS'pan'
p5414
I3
sS'jeffrey'
p5415
I9
sS'extended'
p5416
I4
sS'assist'
p5417
I5
sS'running'
p5418
I3
sS'driven'
p5419
I5
sS'175-day'
p5420
I1
sS'climbing'
p5421
I1
sS'g-10'
p5422
I1
sS'breasts.the'
p5423
I1
sS'largely'
p5424
I2
sS'days.tugnutt'
p5425
I1
sS'southam'
p5426
I2
sS'mortgages'
p5427
I3
sS'364-day'
p5428
I1
sS'easing'
p5429
I1
sS'call.until'
p5430
I1
sS'consisted'
p5431
I1
sS'gates'
p5432
I1
sS'100,000'
p5433
I4
sS'gangs'
p5434
I1
sS'money'
p5435
I9
sS'94.04'
p5436
I1
sS'1,068'
p5437
I1
sS'177.00'
p5438
I2
sS'fahad'
p5439
I1
sS'vesting'
p5440
I1
sS'dipped'
p5441
I3
sS'3.20'
p5442
I8
sS'chorske'
p5443
I1
sS'gre'
p5444
I1
sS'pile'
p5445
I2
sS'4'
p5446
I34
sS'3.25'
p5447
I8
sS'extensive'
p5448
I5
sS'docks'
p5449
I1
sS'3.26'
p5450
I1
sS'192.62'
p5451
I1
sS'karnal'
p5452
I1
sS'grid'
p5453
I1
sS'mon'
p5454
I46
sS'mcdonnell'
p5455
I1
sS'cbot'
p5456
I3
sS'aiming'
p5457
I2
sS'identifying'
p5458
I1
sS'serves'
p5459
I2
sS'facing'
p5460
I3
sS'chamber'
p5461
I1
sS'audience'
p5462
I1
sS'served'
p5463
I1
sS'52,089'
p5464
I1
sS'splash'
p5465
I1
sS'dold'
p5466
I1
sS'organizing'
p5467
I2
sS'matching'
p5468
I1
sS'booming'
p5469
I3
sS'gross'
p5470
I4
sS'outs'
p5471
I2
sS'48.58'
p5472
I1
sS'confirm'
p5473
I6
sS'48.51'
p5474
I1
sS'critical'
p5475
I4
sS'panics'
p5476
I3
sS'pared'
p5477
I2
sS'moderate'
p5478
I4
sS'projects.the'
p5479
I1
sS'underwriters'
p5480
I2
sS'seconds'
p5481
I6
sS'manufactured'
p5482
I1
sS'refers'
p5483
I1
sS'manufactures'
p5484
I1
sS'regulations'
p5485
I4
sS'conducting'
p5486
I2
sS'rockies.at'
p5487
I1
sS'841'
p5488
I1
sS'stations'
p5489
I1
sS'island'
p5490
I12
sS'violence'
p5491
I3
sS'generated'
p5492
I1
sS'practical'
p5493
I2
sS'stretch'
p5494
I1
sS'airline'
p5495
I4
sS'said.canadian'
p5496
I1
sS'mixed'
p5497
I2
sS'135.00suncor'
p5498
I1
sS'provisional'
p5499
I5
sS'road'
p5500
I1
sS'organizers'
p5501
I2
sS'quietly'
p5502
I3
sS'fertile'
p5503
I1
sS'coupon'
p5504
I5
sS'spreading'
p5505
I1
sS'531-1624'
p5506
I16
sS'empress'
p5507
I2
sS'430'
p5508
I1
sS'shrs'
p5509
I1
sS'whiten'
p5510
I1
sS'gomez'
p5511
I1
sS'bottineau'
p5512
I1
sS'ymay'
p5513
I4
sS'downed'
p5514
I2
sS'weather.carry'
p5515
I1
sS'85.52'
p5516
I1
sS'ymar'
p5517
I9
sS'174.00'
p5518
I1
sS'handcuffed'
p5519
I2
sS'railcars'
p5520
I3
sS'strikes'
p5521
I1
sS'sophisticated'
p5522
I2
sS'belated'
p5523
I1
sS'spice'
p5524
I1
sS'concerns.ter'
p5525
I1
sS"wasn't"
p5526
I2
sS'1997.the'
p5527
I2
sS'drills'
p5528
I1
sS'dams.according'
p5529
I1
sS'added.after'
p5530
I1
sS'co.he'
p5531
I1
sS'whiteshell'
p5532
I4
sS'yorkton'
p5533
I6
sS'28.apr.00'
p5534
I1
sS'acetate'
p5535
I2
sS'general'
p5536
I6
sS'sentence.watson'
p5537
I1
sS'04/24building'
p5538
I2
sS'file'
p5539
I3
sS'that.cone'
p5540
I1
sS'importing'
p5541
I1
sS'lifetime'
p5542
I1
sS'4.41'
p5543
I1
sS'ago.in'
p5544
I1
sS'casualty'
p5545
I1
sS'amendments'
p5546
I2
sS'retiring'
p5547
I2
sS'98.0'
p5548
I1
sS'each.nti'
p5549
I1
sS'suit.the'
p5550
I1
sS'fruitless'
p5551
I2
sS'4,000'
p5552
I1
sS'students'
p5553
I1
sS'bribe'
p5554
I1
sS'0-2-1'
p5555
I1
sS'important'
p5556
I5
sS'zeneca'
p5557
I1
sS'chris'
p5558
I4
sS'486'
p5559
I2
sS'481'
p5560
I1
sS'gripped'
p5561
I1
sS'assets'
p5562
I9
sS'inhibited'
p5563
I1
sS'husky'
p5564
I2
sS'starting'
p5565
I8
sS'represent'
p5566
I2
sS'32.00'
p5567
I1
sS'diesel'
p5568
I1
sS'dollar'
p5569
I76
sS'founded'
p5570
I3
sS'trainers'
p5571
I1
sS'cooperative'
p5572
I2
sS'talks'
p5573
I7
sS'children'
p5574
I1
sS'reluctant'
p5575
I2
sS'aiport'
p5576
I1
sS'152.00petro-canada'
p5577
I2
sS'24.33'
p5578
I1
sS'alberta'
p5579
I60
sS'enjoying'
p5580
I1
sS'premium'
p5581
I1
sS'sitting'
p5582
I1
sS'depths'
p5583
I1
sS'mcdonough'
p5584
I2
sS'util'
p5585
I2
sS'got'
p5586
I15
sS'winning'
p5587
I5
sS'difference'
p5588
I5
sS'959.2'
p5589
I1
sS'26.71'
p5590
I5
sS'worden'
p5591
I1
sS'angus'
p5592
I2
sS'a-21'
p5593
I2
sS'bankrolled'
p5594
I2
sS'saudi'
p5595
I10
sS'economically'
p5596
I3
sS'lemkau'
p5597
I2
sS'625,000'
p5598
I1
sS'cibc'
p5599
I2
sS'clinch'
p5600
I1
sS'said.may'
p5601
I6
sS'zero'
p5602
I2
sS'titles'
p5603
I2
sS'quebec'
p5604
I15
sS'lawyer'
p5605
I3
sS'inc.freeport'
p5606
I1
sS'defence'
p5607
I5
sS'stood'
p5608
I1
sS'contributions'
p5609
I1
sS'sides'
p5610
I2
sS'abn'
p5611
I1
sS'gj'
p5612
I4
sS'11.67'
p5613
I1
sS'37.52'
p5614
I1
sS'public'
p5615
I11
sS'37.50'
p5616
I1
sS'movement'
p5617
I1
sS'flat.frantic'
p5618
I1
sS'jefferies'
p5619
I1
sS'12.40'
p5620
I1
sS'ranges'
p5621
I1
sS'favourable'
p5622
I2
sS'operating'
p5623
I5
sS'4.185'
p5624
I1
sS'statement.o'
p5625
I1
sS'nti'
p5626
I2
sS'900'
p5627
I2
sS'prosecutors'
p5628
I3
sS'airport'
p5629
I5
sS'published'
p5630
I3
sS'narrow'
p5631
I1
sS'107.35'
p5632
I1
sS'exchanges.huge'
p5633
I1
sS'transit'
p5634
I2
sS'africa'
p5635
I5
sS'establish'
p5636
I3
sS'bruins'
p5637
I1
sS'shareholders'
p5638
I13
sS'27.6total'
p5639
I1
sS'levels.in'
p5640
I1
sS'direction'
p5641
I1
sS'0.80'
p5642
I7
sS'0.81'
p5643
I1
sS'interview.he'
p5644
I1
sS'paterson'
p5645
I1
sS'sarnia'
p5646
I2
sS'diamond'
p5647
I8
sS'statement.the'
p5648
I9
sS'brisk'
p5649
I5
sS'tokapr'
p5650
I1
sS'particular'
p5651
I1
sS'town'
p5652
I1
sS'amro'
p5653
I1
sS'system.a'
p5654
I2
sS'hour'
p5655
I11
sS'recall'
p5656
I2
sS'des'
p5657
I1
sS'preapr'
p5658
I1
sS'dev'
p5659
I1
sS'choquette'
p5660
I8
sS'8934'
p5661
I1
sS'remain'
p5662
I14
sS'paragraph'
p5663
I1
sS'del'
p5664
I1
sS'dem'
p5665
I2
sS'abandon'
p5666
I2
sS'strategies'
p5667
I2
sS'dec'
p5668
I7
sS'def'
p5669
I4
sS'reapr'
p5670
I1
sS'purchases'
p5671
I2
sS'13.8'
p5672
I3
sS'share'
p5673
I26
sS'mainline'
p5674
I1
sS'hassanwalia'
p5675
I3
sS'numbers'
p5676
I16
sS'purchased'
p5677
I2
sS'sharp'
p5678
I5
sS'narrowly'
p5679
I1
sS'needs'
p5680
I8
sS'venepal'
p5681
I4
sS'drained'
p5682
I1
sS'comfort'
p5683
I2
sS'percent.vancancy'
p5684
I1
sS'maps'
p5685
I1
sS'larsen'
p5686
I1
sS'cst'
p5687
I8
sS'said.clinton'
p5688
I1
sS'inflationary'
p5689
I3
sS'lp.it'
p5690
I1
sS'oilers'
p5691
I1
sS'frills'
p5692
I2
sS'questioning'
p5693
I1
sS'blood'
p5694
I1
sS'coming'
p5695
I5
sS'gold.panic'
p5696
I2
sS'response'
p5697
I3
sS'harsh'
p5698
I1
sS'percent.the'
p5699
I10
sS'coal'
p5700
I1
sS'elster'
p5701
I1
sS'stz.to'
p5702
I1
sS'playing'
p5703
I4
sS'24.64/barrelbow'
p5704
I1
sS'gratton'
p5705
I1
sS'cdlr/m3imperial'
p5706
I5
sS'24'
p5707
I16
sS'25'
p5708
I26
sS'26'
p5709
I22
sS'27'
p5710
I12
sS'20'
p5711
I28
sS'21'
p5712
I14
sS'22'
p5713
I34
sS'shortstop'
p5714
I8
sS'rigel'
p5715
I6
sS'28'
p5716
I18
sS'29'
p5717
I18
sS'pct'
p5718
I405
sS'seasonally'
p5719
I3
sS'peng'
p5720
I2
sS'thursday.the'
p5721
I13
sS'reuters'
p5722
I133
sS'gmt.tse'
p5723
I1
sS'pena'
p5724
I1
sS'7.07'
p5725
I1
sS'hurting'
p5726
I2
sS'good'
p5727
I20
sS'seeking'
p5728
I3
sS'railroads'
p5729
I1
sS'7.08'
p5730
I2
sS'03/21/97'
p5731
I2
sS'walls'
p5732
I1
sS'compound'
p5733
I1
sS'detach'
p5734
I1
sS'association'
p5735
I15
sS'easily'
p5736
I2
sS'namibia'
p5737
I2
sS'exiled'
p5738
I1
sS'2m'
p5739
I2
sS'ports'
p5740
I9
sS'said.southern'
p5741
I1
sS'house'
p5742
I4
sS'fish'
p5743
I3
sS'hard'
p5744
I10
sS'idea'
p5745
I3
sS'macmillan'
p5746
I1
sS'oil'
p5747
I60
sS'connect'
p5748
I4
sS'fist'
p5749
I2
sS'harv'
p5750
I2
sS'portland'
p5751
I2
sS'nsamar'
p5752
I9
sS'insurance'
p5753
I2
sS'604'
p5754
I7
sS'initiatives'
p5755
I2
sS'may.gregory'
p5756
I1
sS'funding'
p5757
I4
sS'19.81'
p5758
I1
sS'outpacing'
p5759
I1
sS'1.some'
p5760
I1
sS'1.70'
p5761
I3
sS'longtime'
p5762
I1
sS'yankees.andy'
p5763
I1
sS'1.73'
p5764
I1
sS'evaluation'
p5765
I1
sS'50.18'
p5766
I1
sS'lawrence'
p5767
I5
sS'enforcing'
p5768
I1
sS'difficulty'
p5769
I1
sS'terminals'
p5770
I2
sS'berth.defenceman'
p5771
I1
sS'members'
p5772
I6
sS'impeached'
p5773
I1
sS'backed'
p5774
I1
sS'beginning'
p5775
I3
sS'28,100'
p5776
I1
sS'benefits'
p5777
I1
sS'computers'
p5778
I8
sS'36/11'
p5779
I1
sS'conducted'
p5780
I3
sS'stentor'
p5781
I6
sS'ridership'
p5782
I1
sS'copper'
p5783
I24
sS'gold.earlier'
p5784
I1
sS'0.07'
p5785
I1
sS'elevator'
p5786
I2
sS'wages'
p5787
I2
sS'netter'
p5788
I1
sS's-09.apr.97'
p5789
I2
sS'nsajan'
p5790
I1
sS'militant'
p5791
I2
sS'states.frantic'
p5792
I2
sS'regulation'
p5793
I4
sS'181'
p5794
I3
sS'187'
p5795
I4
sS'184'
p5796
I1
sS'188'
p5797
I4
sS'189'
p5798
I1
sS'larkin'
p5799
I1
sS'6517.01'
p5800
I1
sS'saltillo'
p5801
I1
sS'bema'
p5802
I8
sS'koffi'
p5803
I1
sS'park'
p5804
I2
sS'domestic'
p5805
I13
sS'favorable'
p5806
I4
sS'1.490.special'
p5807
I1
sS'franchises'
p5808
I1
sS'believe'
p5809
I12
sS'71.81'
p5810
I2
sS'john'
p5811
I18
sS'88-74'
p5812
I1
sS'youth'
p5813
I1
sS'supposed'
p5814
I2
sS'sole'
p5815
I1
sS'treated'
p5816
I1
sS'ages'
p5817
I1
sS'contactgerard'
p5818
I1
sS'productions.shares'
p5819
I1
sS'showers'
p5820
I5
sS'confirms'
p5821
I1
sS'orders'
p5822
I18
sS'rollbacks'
p5823
I1
sS'mountain'
p5824
I14
sS'built'
p5825
I4
sS'depending'
p5826
I4
sS'south.saskatchewan'
p5827
I2
sS'majority'
p5828
I2
sS'est/1700'
p5829
I1
sS'build'
p5830
I14
sS'deepening'
p5831
I2
sS'partnership.aec'
p5832
I1
sS'dalmatians'
p5833
I1
sS'15political'
p5834
I1
sS'salmon'
p5835
I3
sS'sulphurhardisty'
p5836
I5
sS'rsrvs'
p5837
I1
sS'significant'
p5838
I10
sS'services'
p5839
I28
sS'extremely'
p5840
I4
sS'kg'
p5841
I2
sS'orioles.jimmy'
p5842
I1
sS'mediation'
p5843
I1
sS'km'
p5844
I7
sS'gigajoule'
p5845
I4
sS'standoff'
p5846
I2
sS'sector'
p5847
I13
sS'gdp'
p5848
I18
sS'thomas'
p5849
I1
sS'particularly'
p5850
I3
sS'rebels'
p5851
I1
sS'217'
p5852
I6
sS'obligations'
p5853
I2
sS'hopper'
p5854
I3
sS'215'
p5855
I4
sS'businesses'
p5856
I6
sS'malignant'
p5857
I1
sS'carefully'
p5858
I1
sS'headlines'
p5859
I4
sS'fine'
p5860
I2
sS'networks'
p5861
I1
sS'giant'
p5862
I1
sS'depended'
p5863
I3
sS'merger'
p5864
I1
sS'eased.western'
p5865
I1
sS'distributed'
p5866
I2
sS'tobago.methanex'
p5867
I1
sS'8'
p5868
I23
sS'distributes'
p5869
I1
sS'1317'
p5870
I2
sS'1315'
p5871
I4
sS'breast'
p5872
I9
sS'351.05'
p5873
I1
sS'restart'
p5874
I1
sS'resolve'
p5875
I6
sS'53.95'
p5876
I1
sS'mcculloch'
p5877
I2
sS'doubled'
p5878
I3
sS'garcia'
p5879
I1
sS'spiked'
p5880
I1
sS'diffusmay'
p5881
I1
sS'restaurants'
p5882
I1
sS'run.pep'
p5883
I1
sS'1.3850'
p5884
I2
sS'tended'
p5885
I1
sS'1.3852'
p5886
I1
sS'individual'
p5887
I1
sS'dustup'
p5888
I1
sS'surrendered'
p5889
I2
sS'regions.stone'
p5890
I1
sS'tender'
p5891
I4
sS'11th'
p5892
I1
sS'materially'
p5893
I1
sS'feared'
p5894
I1
sS'repairs'
p5895
I1
sS'wednesday.axworthy'
p5896
I1
sS'137.00'
p5897
I3
sS'visiting'
p5898
I1
sS'sought.forests'
p5899
I1
sS'891.07'
p5900
I1
sS'said.adding'
p5901
I1
sS'electoral'
p5902
I1
sS'fans'
p5903
I2
sS'smallest'
p5904
I1
sS'suicide.sudjana'
p5905
I1
sS'toledo'
p5906
I3
sS'seeded'
p5907
I2
sS'vindicated'
p5908
I3
sS'27.57'
p5909
I1
sS'iron'
p5910
I3
sS'dividends'
p5911
I1
sS'environmentalists'
p5912
I2
sS'salmon.also'
p5913
I1
sS'aircraft'
p5914
I1
sS'scuttle'
p5915
I1
sS'1.3prince'
p5916
I1
sS'16.27'
p5917
I1
sS'reverse'
p5918
I1
sS"o'neil"
p5919
I1
sS'2,900'
p5920
I1
sS'annual'
p5921
I6
sS'26.55'
p5922
I6
sS'0.7177'
p5923
I1
sS'foreign'
p5924
I24
sS'20.6'
p5925
I2
sS'newsdesk'
p5926
I6
sS'alou'
p5927
I1
sS'lots.ugg'
p5928
I2
sS'baltimore'
p5929
I10
sS'supply'
p5930
I19
sS'said.southeast'
p5931
I2
sS'0.7218'
p5932
I2
sS'10.67'
p5933
I1
sS'expensive'
p5934
I2
sS'headaches'
p5935
I2
sS'kernels'
p5936
I1
sS'consuming'
p5937
I1
sS'raise'
p5938
I25
sS'create'
p5939
I2
sS'million.the'
p5940
I1
sS'rivals'
p5941
I5
sS'dropping'
p5942
I2
sS'ensured'
p5943
I1
sS'said.the'
p5944
I31
sS'perth'
p5945
I2
sS'meeting'
p5946
I15
sS'6.19'
p5947
I1
sS'gaz'
p5948
I1
sS'12.22'
p5949
I1
sS'6.10'
p5950
I1
sS'gas'
p5951
I90
sS'priced'
p5952
I4
sS'35.31'
p5953
I1
sS'understand'
p5954
I2
sS'whitney'
p5955
I3
sS'54.5-53.5'
p5956
I1
sS'prices'
p5957
I104
sS'resisted'
p5958
I1
sS'grains'
p5959
I4
sS'talking'
p5960
I1
sS'steinbach'
p5961
I2
sS'lemieux'
p5962
I1
sS'elections'
p5963
I8
sS'3.8402/26/97'
p5964
I1
sS'replaced'
p5965
I6
sS'fun'
p5966
I1
sS'unearned'
p5967
I1
sS'century'
p5968
I3
sS'cents'
p5969
I37
sS'encountered'
p5970
I2
sS'stubbornly'
p5971
I1
sS'30/30'
p5972
I1
sS'shunning'
p5973
I3
sS'activities.pnoc'
p5974
I1
sS'italy'
p5975
I1
sS'week.vancouver'
p5976
I1
sS'methanex.long'
p5977
I1
sS'corridor'
p5978
I3
sS'relatively'
p5979
I3
sS'development'
p5980
I22
sS'currencies'
p5981
I2
sS'welland'
p5982
I2
sS'yesterday'
p5983
I4
sS'solicited'
p5984
I1
sS'moment'
p5985
I1
sS'koch'
p5986
I5
sS'0.70nikkei'
p5987
I1
sS'task'
p5988
I1
sS'y'
p5989
I138
sS'entry'
p5990
I1
sS'chemistry'
p5991
I1
sS'8.771'
p5992
I1
sS'spend'
p5993
I3
sS'prevention'
p5994
I1
sS'milling'
p5995
I2
sS'1.0405-15'
p5996
I1
sS'atomic'
p5997
I1
sS'rotation.1996'
p5998
I1
sS'alternative'
p5999
I1
sS'injuries'
p6000
I4
sS'timber'
p6001
I2
sS'wage'
p6002
I5
sS'impetus'
p6003
I1
sS'cut'
p6004
I8
sS'cup'
p6005
I2
sS'102.57'
p6006
I1
sS'powerplay'
p6007
I1
sS'source'
p6008
I8
sS'cue'
p6009
I1
sS'3.28803/12/97'
p6010
I1
sS'snap'
p6011
I1
sS'24.apr.97'
p6012
I1
sS'impoverished'
p6013
I1
sS'administrative'
p6014
I1
sS'wil'
p6015
I1
sS'big'
p6016
I15
sS'bid'
p6017
I6
sS'judgement'
p6018
I2
sS'bit'
p6019
I4
sS'cleared.source'
p6020
I2
sS'precipitation'
p6021
I3
sS'competitively'
p6022
I2
sS'166.20'
p6023
I1
sS'blemish'
p6024
I1
sS'semi'
p6025
I2
sS'follows'
p6026
I6
sS'provapr'
p6027
I1
sS'surging'
p6028
I1
sS'produfeb'
p6029
I1
sS'jolted'
p6030
I1
sS'drabek'
p6031
I1
sS'1415'
p6032
I4
sS'interconnecting'
p6033
I1
sS'3.14day'
p6034
I1
sS'charges.sayegh'
p6035
I1
sS'pricing'
p6036
I2
sS'panenergy'
p6037
I1
sS'brent'
p6038
I2
sS'scrim'
p6039
I1
sS'scale'
p6040
I2
sS'affects'
p6041
I1
sS'decision'
p6042
I15
sS'91-day'
p6043
I1
sS'newark'
p6044
I1
sS'bogus'
p6045
I2
sS'peg'
p6046
I1
sS'pea'
p6047
I3
sS'stock.but'
p6048
I1
sS'chartists'
p6049
I1
sS'300'
p6050
I12
sS'ufb'
p6051
I1
sS'paribas'
p6052
I1
sS'continuing'
p6053
I3
sS'fed'
p6054
I24
sS'306'
p6055
I1
sS'hostages'
p6056
I1
sS'katzin'
p6057
I4
sS'1998.he'
p6058
I1
sS'141/43'
p6059
I1
sS'goods'
p6060
I7
sS'consumption'
p6061
I2
sS'group.meanwhile'
p6062
I3
sS'drama'
p6063
I1
sS'belting'
p6064
I1
sS'ounce'
p6065
I1
sS'extensions'
p6066
I1
sS'guerillas'
p6067
I1
sS'time.the'
p6068
I1
sS'pollution'
p6069
I1
sS'jimmy'
p6070
I1
sS'harassed'
p6071
I1
sS'nsa'
p6072
I2
sS'said.twelve'
p6073
I1
sS'retailer'
p6074
I2
sS'tcpl'
p6075
I2
sS'martinez'
p6076
I2
sS'cianfrocco'
p6077
I1
sS'nsp'
p6078
I2
sS'190.63'
p6079
I1
sS'ontario'
p6080
I35
sS'openers'
p6081
I1
sS'1.50'
p6082
I5
sS'brokers.reuters'
p6083
I1
sS'forward'
p6084
I4
sS'1.59'
p6085
I1
sS'557'
p6086
I1
sS'frenzied'
p6087
I4
sS'boyd'
p6088
I1
sS'ltd.the'
p6089
I2
sS'i.d.e.a.canada'
p6090
I1
sS'stunning'
p6091
I3
sS'hoped'
p6092
I1
sS'hopes'
p6093
I3
sS'subsidiary'
p6094
I5
sS'migrating'
p6095
I1
sS'osc.bre'
p6096
I2
sS'position.canadian'
p6097
I1
sS'rejection'
p6098
I1
sS'requesting'
p6099
I1
sS'exploration'
p6100
I29
sS'1,539'
p6101
I1
sS'1-212-859-1640'
p6102
I1
sS'selling.three'
p6103
I1
sS'sort'
p6104
I5
sS'mckinnon'
p6105
I2
sS'lieberthal'
p6106
I1
sS'ordmar'
p6107
I1
sS'single'
p6108
I17
sS'04/15'
p6109
I1
sS'axworthy'
p6110
I6
sS'streamlining'
p6111
I1
sS'1.979'
p6112
I1
sS'1,839'
p6113
I1
sS'158.00petro-canada'
p6114
I2
sS'ravines'
p6115
I1
sS'aggregates'
p6116
I1
sS'prepared'
p6117
I3
sS'2.315'
p6118
I2
sS'300.ten'
p6119
I1
sS'bagus'
p6120
I5
sS'rallied'
p6121
I5
sS'vehicles'
p6122
I2
sS'corapr'
p6123
I2
sS'2003'
p6124
I1
sS'2000'
p6125
I6
sS'2006'
p6126
I2
sS'2005'
p6127
I1
sS'rates.in'
p6128
I1
sS'valves'
p6129
I2
sS'aguilera'
p6130
I1
sS'55.3-54.3'
p6131
I1
sS'qian'
p6132
I1
sS'138,200'
p6133
I2
sS'wrangle'
p6134
I4
sS'15,000'
p6135
I1
sS'breached'
p6136
I3
sS'intensive'
p6137
I1
sS'reductions'
p6138
I2
sS'breaches'
p6139
I2
sS'helps'
p6140
I1
sS'19.71/barrelmidale'
p6141
I1
sS'quarterly'
p6142
I7
sS'inject'
p6143
I1
sS'nervousness'
p6144
I1
sS'assay'
p6145
I17
sS'presently'
p6146
I1
sS'crosses'
p6147
I1
sS'putting'
p6148
I1
sS'accuse'
p6149
I1
sS'clemens'
p6150
I4
sS'entire'
p6151
I3
sS'min'
p6152
I3
sS'tie.the'
p6153
I1
sS'approvals.chesapeake'
p6154
I1
sS'0.0nova'
p6155
I1
sS'bleeding'
p6156
I1
sS'may.the'
p6157
I1
sS'crop'
p6158
I10
sS'rivers'
p6159
I1
sS'uncomfortable'
p6160
I1
sS'rivera'
p6161
I2
sS'halt.a'
p6162
I1
sS'chicago'
p6163
I40
sS'giving'
p6164
I5
sS'pipes'
p6165
I7
sS'radioisotopes'
p6166
I1
sS'access'
p6167
I4
sS'145,000'
p6168
I2
sS'21,000'
p6169
I1
sS'3m'
p6170
I2
sS'cordova'
p6171
I2
sS'exercise'
p6172
I3
sS'body'
p6173
I7
sS'monday.traders'
p6174
I1
sS'mcmurray'
p6175
I1
sS'exchange'
p6176
I139
sS'440'
p6177
I1
sS'1330'
p6178
I77
sS'jointly'
p6179
I1
sS'sino'
p6180
I3
sS'159.0'
p6181
I1
sS'outpitched'
p6182
I1
sS'sink'
p6183
I2
sS'safer'
p6184
I2
sS'implicit'
p6185
I2
sS'extreme'
p6186
I2
sS'7706'
p6187
I1
sS'39'
p6188
I5
sS'38'
p6189
I10
sS'33'
p6190
I34
sS'32'
p6191
I18
sS'31'
p6192
I19
sS'30'
p6193
I25
sS'37'
p6194
I16
sS'36'
p6195
I23
sS'35'
p6196
I27
sS'34'
p6197
I19
sS'climb'
p6198
I1
sS'named'
p6199
I3
sS'blizzard'
p6200
I3
sS'presidents'
p6201
I1
sS'gusting'
p6202
I1
sS'private'
p6203
I5
sS'names'
p6204
I2
sS'lima'
p6205
I1
sS'walwyn'
p6206
I1
sS'gateway'
p6207
I1
sS'120-day'
p6208
I1
sS'chf'
p6209
I3
sS'chg'
p6210
I3
sS'chi'
p6211
I1
sS'25,500'
p6212
I1
sS'hammered'
p6213
I2
sS'celsius.saskatchewan'
p6214
I1
sS'oils'
p6215
I2
sS'84.68'
p6216
I1
sS'upcoming'
p6217
I2
sS'tax'
p6218
I10
sS'131,473'
p6219
I1
sS'train'
p6220
I1
sS'pricemar'
p6221
I1
sS'account'
p6222
I2
sS'549'
p6223
I2
sS'f'
p6224
I377
sS'840'
p6225
I1
sS'0800'
p6226
I8
sS'04/16inventories/shipments'
p6227
I2
sS'1.3877'
p6228
I1
sS'obvious'
p6229
I1
sS'1.3872'
p6230
I1
sS'nazario'
p6231
I1
sS'closing'
p6232
I4
sS'aci'
p6233
I2
sS'newsletter.he'
p6234
I2
sS'continuity'
p6235
I2
sS'reserves'
p6236
I12
sS'employs'
p6237
I1
sS'spruce'
p6238
I1
sS'native'
p6239
I1
sS'varied'
p6240
I1
sS'regains'
p6241
I1
sS'holds'
p6242
I4
sS'regions'
p6243
I6
sS'forest'
p6244
I9
sS'said.but'
p6245
I1
sS'revs'
p6246
I9
sS'stock'
p6247
I184
sS'prelmar'
p6248
I2
sS'0.2/0.5'
p6249
I1
sS'highs'
p6250
I15
sS'preferred'
p6251
I1
sS'58.81'
p6252
I1
sS'946'
p6253
I1
sS'947'
p6254
I25
sS'6-mo'
p6255
I4
sS'lines'
p6256
I9
sS'941'
p6257
I1
sS'lauria'
p6258
I2
sS'chief'
p6259
I32
sS'gundy'
p6260
I2
sS'77.45.source'
p6261
I1
sS'ener'
p6262
I2
sS'institutional'
p6263
I2
sS'meter'
p6264
I4
sS'107,335,944'
p6265
I1
sS'charting'
p6266
I4
sS'613-951-4051'
p6267
I1
sS'transborder'
p6268
I1
sS'industries'
p6269
I1
sS'negotiated'
p6270
I1
sS'le'
p6271
I25
sS'la'
p6272
I8
sS'lo'
p6273
I11
sS'tse'
p6274
I128
sS'market.it'
p6275
I2
sS'li'
p6276
I3
sS'seige'
p6277
I2
sS'lt'
p6278
I10
sS'lu'
p6279
I2
sS'garciaparra'
p6280
I1
sS'extradition'
p6281
I2
sS'friday.the'
p6282
I3
sS'greater'
p6283
I5
sS'dan'
p6284
I3
sS'spell'
p6285
I1
sS'yearend'
p6286
I1
sS'cutting'
p6287
I4
sS'mandate'
p6288
I4
sS'property.it'
p6289
I1
sS'1996.nymex'
p6290
I1
sS'day'
p6291
I45
sS'february'
p6292
I20
sS'airports'
p6293
I2
sS'slacken'
p6294
I1
sS'vasquez'
p6295
I1
sS'countries'
p6296
I7
sS'identified'
p6297
I2
sS'safeway'
p6298
I8
sS'mets.new'
p6299
I1
sS'chesapeake'
p6300
I4
sS'3,000'
p6301
I1
sS'lfb'
p6302
I4
sS'cartierdoc'
p6303
I1
sS'58x'
p6304
I2
sS'5,000-7,000'
p6305
I1
sS'megamarketer'
p6306
I1
sS'prison.dukeman'
p6307
I1
sS'sexual'
p6308
I2
sS'matt'
p6309
I4
sS'145.00/cubic'
p6310
I1
sS'hedges'
p6311
I4
sS'defend'
p6312
I11
sS'rev'
p6313
I1
sS'wholly'
p6314
I4
sS'barley'
p6315
I13
sS'stud'
p6316
I2
sS'85-76'
p6317
I2
sS'85-77'
p6318
I2
sS'electronics'
p6319
I1
sS'cwb'
p6320
I6
sS'381.1'
p6321
I1
sS'red'
p6322
I22
sS'christensen'
p6323
I2
sS'approached'
p6324
I2
sS'581'
p6325
I1
sS'frank'
p6326
I2
sS'metres.a'
p6327
I1
sS'payroll'
p6328
I9
sS'dmar'
p6329
I2
sS'clarify'
p6330
I1
sS'que'
p6331
I3
sS'likelihood'
p6332
I4
sS'receipts'
p6333
I1
sS'1.637'
p6334
I1
sS'fall.but'
p6335
I1
sS'26.55/barrelcromer'
p6336
I1
sS'wednesday.in'
p6337
I1
sS'allied'
p6338
I1
sS'retain'
p6339
I1
sS'retail'
p6340
I25
sS'south'
p6341
I15
sS'braced'
p6342
I1
sS'2,000'
p6343
I2
sS'strategic'
p6344
I4
sS'embarrassed'
p6345
I3
sS'improvements'
p6346
I1
sS'projects.methanex'
p6347
I1
sS'lagging'
p6348
I1
sS'wong.irritated'
p6349
I1
sS'reached'
p6350
I8
sS'toronto.pierre'
p6351
I1
sS'body.under'
p6352
I1
sS'86,393'
p6353
I1
sS'unspecified'
p6354
I3
sS'fahrenheit'
p6355
I1
sS'representatives.the'
p6356
I1
sS'intermediate'
p6357
I1
sS'pakistani'
p6358
I1
sS'averted'
p6359
I1
sS'completed'
p6360
I7
sS'acquire'
p6361
I6
sS'said.production'
p6362
I1
sS'environmental'
p6363
I13
sS'agreements.axworthy'
p6364
I1
sS'completes'
p6365
I1
sS'loved'
p6366
I1
sS'slack'
p6367
I3
sS'compensation'
p6368
I1
sS'assays'
p6369
I6
sS'ptapril'
p6370
I1
sS'allotments'
p6371
I1
sS'comfortable'
p6372
I1
sS'unlikely'
p6373
I1
sS'38.9'
p6374
I1
sS'5.28'
p6375
I1
sS'request.the'
p6376
I1
sS'mid'
p6377
I10
sS'incentive'
p6378
I2
sS'1.39'
p6379
I2
sS'concerns'
p6380
I9
sS'324'
p6381
I1
sS'1.30'
p6382
I3
sS'mis'
p6383
I1
sS'1.33'
p6384
I2
sS'1.35'
p6385
I5
sS'1.36'
p6386
I4
sS'unless'
p6387
I4
sS'agenda'
p6388
I1
sS'oilseed'
p6389
I3
sS'craggy'
p6390
I1
sS'payment'
p6391
I1
sS'request'
p6392
I13
sS'disease'
p6393
I3
sS'1,000'
p6394
I9
sS'convicted'
p6395
I1
sS'balanced.election'
p6396
I1
sS'3.987'
p6397
I1
sS'infielder'
p6398
I1
sS'relievers'
p6399
I1
sS'absorbing'
p6400
I1
sS'charles'
p6401
I2
sS'pittsburghny'
p6402
I1
sS'elimination'
p6403
I1
sS'portfolio'
p6404
I4
sS'staff'
p6405
I3
sS'said.petro'
p6406
I1
sS'controls'
p6407
I1
sS'bernard'
p6408
I1
sS'0630'
p6409
I8
sS'communist'
p6410
I1
sS'equilibrium'
p6411
I1
sS'proceedings'
p6412
I3
sS'higginson'
p6413
I1
sS'april.sudjana'
p6414
I1
sS'beat'
p6415
I8
sS'bear'
p6416
I4
sS'thursday.in'
p6417
I1
sS'reputations'
p6418
I1
sS'a-154'
p6419
I6
sS'timing'
p6420
I2
sS'westchester'
p6421
I2
sS'areas'
p6422
I13
sS'year.dominion'
p6423
I1
sS'calling'
p6424
I2
sS'mercedes'
p6425
I1
sS'tightening'
p6426
I4
sS'101.10'
p6427
I1
sS'looks'
p6428
I2
sS'3.48bankers'
p6429
I1
sS'national'
p6430
I34
sS'cablesystems'
p6431
I4
sS'centerfielder'
p6432
I2
sS'36.9'
p6433
I1
sS'awaits'
p6434
I1
sS'attempting'
p6435
I2
sS'clearing'
p6436
I1
sS'ralph'
p6437
I4
sS'brunt'
p6438
I2
sS'difficulties'
p6439
I8
sS'vindicated.cp'
p6440
I1
sS'progress'
p6441
I3
sS'9587.91'
p6442
I1
sS'std&btr'
p6443
I1
sS'reproduced'
p6444
I1
sS'said.canada'
p6445
I2
sS'junkies'
p6446
I1
sS'toronto.in'
p6447
I1
sS'suitcase'
p6448
I2
sS'deliver'
p6449
I4
sS'gyohten'
p6450
I1
sS'commenting'
p6451
I1
sS'joke'
p6452
I1
sS'taking'
p6453
I8
sS'equal'
p6454
I1
sS'attributed'
p6455
I2
sS'pulp'
p6456
I8
sS'87,241'
p6457
I1
sS'pancanadian'
p6458
I1
sS'orfeb'
p6459
I1
sS'comment'
p6460
I16
sS'detailed'
p6461
I12
sS'relevant'
p6462
I4
sS'1601.0'
p6463
I1
sS'backers'
p6464
I1
sS'134,500'
p6465
I2
sS'calta'
p6466
I2
sS'earning'
p6467
I1
sS'evaulation'
p6468
I1
sS'society'
p6469
I3
sS'7095'
p6470
I1
sS'3.85.volume'
p6471
I1
sS'muddy'
p6472
I1
sS'indicators'
p6473
I11
sS'proposal'
p6474
I7
sS"it'a"
p6475
I2
sS'51.50'
p6476
I1
sS'foes'
p6477
I1
sS'464'
p6478
I1
sS'eldred'
p6479
I1
sS'cos'
p6480
I2
sS'bulk'
p6481
I8
sS'finished'
p6482
I8
sS'locomotives'
p6483
I1
sS'homer'
p6484
I18
sS'homes'
p6485
I1
sS'multi'
p6486
I1
sS'hrly'
p6487
I1
sS'appearance'
p6488
I1
sS'7-6'
p6489
I1
sS'7-5'
p6490
I1
sS'belted'
p6491
I3
sS'spemar'
p6492
I1
sS'frustrating'
p6493
I1
sS'24,200'
p6494
I1
sS'daigle'
p6495
I1
sS'md-11'
p6496
I1
sS'cereals'
p6497
I1
sS'pctmms'
p6498
I2
sS'weighed'
p6499
I3
sS'arrangements'
p6500
I2
sS'tampered'
p6501
I1
sS'arabia'
p6502
I4
sS'partner'
p6503
I22
sS'25.12'
p6504
I5
sS'parents.when'
p6505
I1
sS'tumbled'
p6506
I3
sS'productivity'
p6507
I2
sS'administration'
p6508
I1
sS'dakotas'
p6509
I1
sS'century.bre'
p6510
I1
sS'4,065'
p6511
I2
sS'7.361'
p6512
I1
sS'said.he'
p6513
I6
sS'126.00'
p6514
I3
sS'injured'
p6515
I1
sS'tighten'
p6516
I3
sS'survey.while'
p6517
I1
sS'cubic'
p6518
I15
sS'earlier.oil'
p6519
I1
sS'40,299'
p6520
I1
sS'reporting'
p6521
I2
sS'60.4'
p6522
I1
sS'8176267'
p6523
I1
sS'9.69'
p6524
I1
sS'tighter'
p6525
I1
sS'center'
p6526
I1
sS'montreal.rodriguez'
p6527
I1
sS'thought'
p6528
I3
sS'position'
p6529
I11
sS'arising'
p6530
I1
sS'latest'
p6531
I14
sS'stores'
p6532
I3
sS'10.26'
p6533
I1
sS'ratify'
p6534
I4
sS'3.678'
p6535
I1
sS'wagner'
p6536
I1
sS'15.62'
p6537
I2
sS'interim'
p6538
I3
sS'30.00/32.00'
p6539
I1
sS'seats'
p6540
I3
sS'3.844'
p6541
I1
sS'victory.belle'
p6542
I1
sS'griffith'
p6543
I7
sS'field'
p6544
I5
sS'absorption'
p6545
I3
sS'demographic'
p6546
I1
sS'lake'
p6547
I9
sS'gmt.the'
p6548
I3
sS'add'
p6549
I2
sS'mikio'
p6550
I1
sS'27.11'
p6551
I1
sS'280'
p6552
I3
sS'285'
p6553
I1
sS'reformed'
p6554
I2
sS'gmt'
p6555
I33
sS'resolved'
p6556
I1
sS'tests'
p6557
I5
sS'alberta.the'
p6558
I1
sS'unhampered'
p6559
I2
sS'chretien'
p6560
I8
sS'royalty'
p6561
I2
sS'like'
p6562
I17
sS'excluding'
p6563
I2
sS'admitted'
p6564
I4
sS'ozone'
p6565
I1
sS'praecipuum'
p6566
I3
sS'works'
p6567
I4
sS'soft'
p6568
I4
sS'outfield'
p6569
I2
sS'sumatra.in'
p6570
I1
sS'authority'
p6571
I10
sS'217.50'
p6572
I1
sS'goaltender'
p6573
I3
sS'recommendation'
p6574
I4
sS'proper'
p6575
I2
sS'halifax'
p6576
I1
sS'laurent'
p6577
I7
sS'righthander'
p6578
I1
sS'happens'
p6579
I1
sS'rate.for'
p6580
I1
sS'est'
p6581
I2
sS'encouraging'
p6582
I3
sS'unpredictable'
p6583
I1
sS'0.25'
p6584
I5
sS'underwins'
p6585
I1
sS'0.27'
p6586
I1
sS'0.20'
p6587
I2
sS'0.22'
p6588
I1
sS'0.23'
p6589
I4
sS'assuming'
p6590
I2
sS'concesssions'
p6591
I1
sS'shares.among'
p6592
I2
sS'tonne.stl'
p6593
I1
sS'asamera'
p6594
I1
sS'stellar'
p6595
I1
sS'pools'
p6596
I1
sS'host'
p6597
I1
sS'expire'
p6598
I1
sS'hospitable'
p6599
I1
sS'snapped'
p6600
I2
sS'lockheed'
p6601
I1
sS'5224.75'
p6602
I1
sS'panel'
p6603
I2
sS'reoffer'
p6604
I2
sS'nomura'
p6605
I1
sS'introduces'
p6606
I1
sS'statement'
p6607
I36
sS'216.50'
p6608
I1
sS'may.bre'
p6609
I1
sS'conway'
p6610
I1
sS'brotherhood'
p6611
I2
sS'billions'
p6612
I2
sS'102.12'
p6613
I1
sS'monday.fleming'
p6614
I1
sS'playoff'
p6615
I9
sS'again.the'
p6616
I1
sS'60.15'
p6617
I1
sS'1630'
p6618
I4
sS'1987'
p6619
I1
sS'1984'
p6620
I1
sS'rushed'
p6621
I3
sS'vegetables'
p6622
I1
sS'awarded'
p6623
I2
sS'biggest'
p6624
I32
sS'laredo'
p6625
I1
sS'samarinda'
p6626
I1
sS'buy'
p6627
I13
sS'bus'
p6628
I4
sS'brand'
p6629
I1
sS'565'
p6630
I1
sS'repeated'
p6631
I1
sS'flexible'
p6632
I1
sS'kraft'
p6633
I4
sS'7.444'
p6634
I1
sS'dangerous'
p6635
I1
sS'j'
p6636
I1
sS'yapr'
p6637
I5
sS'goals.in'
p6638
I1
sS'supreme'
p6639
I1
sS'deaths'
p6640
I1
sS'exceeded'
p6641
I6
sS'4/10'
p6642
I1
sS'4/11'
p6643
I4
sS'hopkins'
p6644
I1
sS'difficulties.womg'
p6645
I1
sS'manley'
p6646
I7
sS'periods'
p6647
I2
sS'relates'
p6648
I3
sS'commentators'
p6649
I2
sS'shooting'
p6650
I1
sS'pit'
p6651
I2
sS'proceeds'
p6652
I6
sS'416-941-8100'
p6653
I1
sS'opls'
p6654
I1
sS'49'
p6655
I7
sS'46'
p6656
I8
sS'47'
p6657
I5
sS'44'
p6658
I14
sS'45'
p6659
I9
sS'42'
p6660
I5
sS'43'
p6661
I9
sS'40'
p6662
I25
sS'41'
p6663
I13
sS'forestry'
p6664
I1
sS'oat'
p6665
I2
sS'84'
p6666
I6
sS'dresser'
p6667
I1
sS'ecological'
p6668
I1
sS'3,000-4,000'
p6669
I1
sS'scheduletoronto'
p6670
I1
sS'can.dollar'
p6671
I2
sS'195,000'
p6672
I1
sS'baker'
p6673
I2
sS'hikes'
p6674
I2
sS'molyneaux'
p6675
I2
sS'portsapril'
p6676
I8
sS'biotechnology'
p6677
I1
sS'surpising'
p6678
I1
sS'nwt'
p6679
I1
sS'limited'
p6680
I9
sS'sergei'
p6681
I1
sS'songjiang'
p6682
I1
sS'comparatively'
p6683
I2
sS'facilities'
p6684
I7
sS'1997.royal'
p6685
I1
sS'1.14'
p6686
I1
sS'replacements'
p6687
I1
sS'1.10'
p6688
I2
sS'paris'
p6689
I4
sS'supported'
p6690
I1
sS'7.63'
p6691
I1
sS'10,831'
p6692
I1
sS'30.00/32.00butane'
p6693
I1
sS'pride'
p6694
I1
sS'stanton'
p6695
I1
sS'risk'
p6696
I11
sS'angelespittsburgh'
p6697
I1
sS'rise'
p6698
I17
sS'jack'
p6699
I2
sS'softened'
p6700
I3
sS'upstream'
p6701
I2
sS'waters.with'
p6702
I1
sS'calif'
p6703
I1
sS'deflator'
p6704
I2
sS'monday.canadian'
p6705
I1
sS'cloudiness'
p6706
I1
sS'manuf'
p6707
I10
sS'leaders'
p6708
I4
sS'consistent'
p6709
I5
sS'weddings'
p6710
I1
sS'estimates'
p6711
I14
sS'direct'
p6712
I14
sS'tokmay'
p6713
I1
sS'40asia'
p6714
I1
sS'surrounding'
p6715
I3
sS'street'
p6716
I8
sS'estimated'
p6717
I15
sS'westcoast'
p6718
I3
sS'blue'
p6719
I7
sS'selected'
p6720
I6
sS'supplied'
p6721
I6
sS'conduct'
p6722
I8
sS'supplies'
p6723
I4
sS'dauphin'
p6724
I1
sS'disney'
p6725
I1
sS'injections'
p6726
I3
sS'algocape'
p6727
I2
sS'yanks'
p6728
I2
sS'polls.a'
p6729
I1
sS'represented'
p6730
I2
sS'enron'
p6731
I3
sS'forum'
p6732
I2
sS'luggage'
p6733
I1
sS'auction'
p6734
I2
sS'leaves'
p6735
I1
sS'changed'
p6736
I10
sS'1.48-1.50'
p6737
I1
sS'saint'
p6738
I1
sS'analysts'
p6739
I27
sS'changes'
p6740
I13
sS'punishment'
p6741
I1
sS'96/97'
p6742
I2
sS'blowtorch'
p6743
I1
sS'canola'
p6744
I31
sS'south.manitoba'
p6745
I2
sS'furore'
p6746
I2
sS'250-million'
p6747
I1
sS'patience'
p6748
I1
sS'5,700'
p6749
I1
sS'forums'
p6750
I1
sS'swings'
p6751
I1
sS'leishman'
p6752
I8
sS'smelter'
p6753
I1
sS'30.51'
p6754
I1
sS'less.the'
p6755
I1
sS'tenders'
p6756
I2
sS'discrepancies'
p6757
I2
sS'301,000'
p6758
I1
sS'noting'
p6759
I3
sS'm1'
p6760
I1
sS'asset'
p6761
I1
sS'm3'
p6762
I5
sS'm2'
p6763
I3
sS'session.in'
p6764
I1
sS'assessment'
p6765
I1
sS'statement.pnoc'
p6766
I1
sS'14,679'
p6767
I1
sS'3-ply'
p6768
I1
sS'naive'
p6769
I2
sS'phone'
p6770
I3
sS'692.64'
p6771
I1
sS'outdated'
p6772
I4
sS'513-mile'
p6773
I1
sS'tampa'
p6774
I6
sS'shoot'
p6775
I1
sS'md'
p6776
I1
sS'join'
p6777
I1
sS'9-7'
p6778
I1
sS'4531.78'
p6779
I1
sS'mm'
p6780
I1
sS'lo04/02/97'
p6781
I1
sS'mo'
p6782
I33
sS'interlist'
p6783
I2
sS'cancellations'
p6784
I1
sS'mt'
p6785
I2
sS'conc'
p6786
I3
sS'henry'
p6787
I2
sS'development.its'
p6788
I1
sS'shook'
p6789
I1
sS'estate'
p6790
I9
sS'diminished'
p6791
I1
sS'bilaterally'
p6792
I1
sS'19,014'
p6793
I1
sS'attract'
p6794
I2
sS'guarantee'
p6795
I1
sS'end'
p6796
I39
sS'returning'
p6797
I1
sS'67.96'
p6798
I1
sS'bunt'
p6799
I1
sS'felderhof'
p6800
I3
sS'badly'
p6801
I1
sS'mapleglen'
p6802
I3
sS'detention'
p6803
I1
sS'jumping'
p6804
I3
sS'rowney'
p6805
I1
sS'vehiclfeb'
p6806
I1
sS'0.875'
p6807
I1
sS'amid'
p6808
I9
sS'acknowledged'
p6809
I2
sS'jungle'
p6810
I1
sS'enter'
p6811
I3
sS'3.1803/27/97'
p6812
I1
sS'copper.the'
p6813
I1
sS'lords'
p6814
I1
sS'find.the'
p6815
I1
sS'fall'
p6816
I6
sS'07/10/97'
p6817
I1
sS'expects'
p6818
I6
sS'20.57'
p6819
I2
sS'london'
p6820
I10
sS'20.50'
p6821
I1
sS'06/09help'
p6822
I2
sS'219.4'
p6823
I1
sS'bottleneck'
p6824
I1
sS'borneo'
p6825
I13
sS'wilton'
p6826
I1
sS'expectations'
p6827
I10
sS'16.6'
p6828
I1
sS'403'
p6829
I18
sS'7.345'
p6830
I1
sS'16.0'
p6831
I1
sS'408'
p6832
I2
sS'0.7194'
p6833
I2
sS'iowa'
p6834
I4
sS'tourist'
p6835
I1
sS'0.7199'
p6836
I2
sS'revelations'
p6837
I1
sS'problems.bre'
p6838
I2
sS'paul.casciato@reuters.com'
p6839
I2
sS'rental'
p6840
I2
sS'months.the'
p6841
I2
sS'30-year'
p6842
I8
sS'netherlands'
p6843
I2
sS'alex'
p6844
I3
sS'1.11/barrel'
p6845
I1
sS'2686.55'
p6846
I1
sS'missoula'
p6847
I1
sS'detroit'
p6848
I20
sS'herald'
p6849
I1
sS'1.3839'
p6850
I1
sS'victory'
p6851
I18
sS'fitness'
p6852
I1
sS'00closing'
p6853
I1
sS'supplies.at'
p6854
I1
sS'consolidate'
p6855
I2
sS'signing'
p6856
I2
sS'hanger'
p6857
I2
sS'satellite'
p6858
I15
sS'group'
p6859
I37
sS'celebrating'
p6860
I1
sS'saturday'
p6861
I4
sS'hits.in'
p6862
I1
sS'revisions'
p6863
I1
sS'islanders'
p6864
I9
sS'driving'
p6865
I1
sS'god'
p6866
I1
sS'washed'
p6867
I1
sS'counselors'
p6868
I1
sS'laid'
p6869
I1
sS'millennium'
p6870
I4
sS'c35'
p6871
I2
sS'1.3740'
p6872
I2
sS'newly'
p6873
I1
sS'gov'
p6874
I4
sS'creole'
p6875
I1
sS'c30'
p6876
I2
sS'independence'
p6877
I2
sS'market.the'
p6878
I3
sS'7.20'
p6879
I1
sS'arizona'
p6880
I6
sS'associate'
p6881
I1
sS'106.35'
p6882
I1
sS'free'
p6883
I12
sS'fred'
p6884
I5
sS'5.43march'
p6885
I1
sS'management'
p6886
I8
sS'freq'
p6887
I3
sS'wanted'
p6888
I13
sS'westside'
p6889
I1
sS'days'
p6890
I27
sS'priorities'
p6891
I1
sS'138.70'
p6892
I1
sS'cooperating'
p6893
I3
sS'tinkering'
p6894
I1
sS'demitra'
p6895
I1
sS'industrial'
p6896
I26
sS'290-us'
p6897
I1
sS'nhl'
p6898
I1
sS'30,700.the'
p6899
I1
sS'primary'
p6900
I4
sS'hearing'
p6901
I2
sS'199'
p6902
I3
sS'0.08'
p6903
I1
sS'debut.belle'
p6904
I1
sS'0.02'
p6905
I1
sS'0.03'
p6906
I4
sS'witchita'
p6907
I1
sS'lawton.minnesota'
p6908
I1
sS'0.05'
p6909
I4
sS'confirming'
p6910
I1
sS'1.859'
p6911
I2
sS'3,790'
p6912
I1
sS'tom'
p6913
I3
sS'percentage'
p6914
I10
sS'stg'
p6915
I1
sS'188.23'
p6916
I1
sS'196'
p6917
I1
sS'period.the'
p6918
I1
sS'serve'
p6919
I4
sS'took'
p6920
I10
sS'negotiating'
p6921
I2
sS'petition.a'
p6922
I1
sS'western'
p6923
I31
sS'abandoning'
p6924
I2
sS'118.5'
p6925
I1
sS'1,429,233'
p6926
I1
sS'edmonds'
p6927
I1
sS'18.9'
p6928
I1
sS'kosan'
p6929
I1
sS'10th'
p6930
I2
sS'18.7'
p6931
I3
sS'perspective'
p6932
I2
sS'2-2'
p6933
I2
sS'lbs'
p6934
I2
sS'0.3/1.5'
p6935
I1
sS'added.concert'
p6936
I1
sS'1996.but'
p6937
I2
sS'raw'
p6938
I4
sS'shrank'
p6939
I1
sS'1thursday'
p6940
I1
sS'ray'
p6941
I2
sS'traditionally'
p6942
I1
sS'snow'
p6943
I23
sS'thorough'
p6944
I4
sS'brandon'
p6945
I1
sS'0.2quebec'
p6946
I1
sS'contact'
p6947
I7
sS'crests'
p6948
I1
sS'effectiveness'
p6949
I1
sS'thome'
p6950
I2
sS'2.95'
p6951
I3
sS'capitalization'
p6952
I1
sS'2.90'
p6953
I1
sS'visionary'
p6954
I1
sS'concided'
p6955
I1
sS'commanding'
p6956
I1
sS'explosives'
p6957
I1
sS'rogers'
p6958
I8
sS'flow'
p6959
I10
sS'treaty'
p6960
I2
sS'lyle'
p6961
I1
sS'orderly'
p6962
I1
sS'reputation'
p6963
I10
sS'gj.in'
p6964
I1
sS'canada.analysts'
p6965
I2
sS'leaguer'
p6966
I1
sS'sanctuary'
p6967
I1
sS'saga'
p6968
I4
sS'random'
p6969
I5
sS'pleasanton'
p6970
I1
sS'solutions'
p6971
I1
sS'earth'
p6972
I1
sS'files.inland'
p6973
I1
sS'availability'
p6974
I3
sS'departed'
p6975
I1
sS'0.100'
p6976
I1
sS'spite'
p6977
I1
sS'delays'
p6978
I2
sS'minnesota'
p6979
I16
sS'542'
p6980
I7
sS'shares.calta'
p6981
I1
sS'547'
p6982
I1
sS'announce'
p6983
I1
sS'84.67'
p6984
I1
sS'84.66'
p6985
I1
sS'oct'
p6986
I2
sS'pitcher.1996'
p6987
I1
sS'spar.telesat'
p6988
I1
sS'watch'
p6989
I2
sS'6/6'
p6990
I1
sS'borrower'
p6991
I4
sS'despite'
p6992
I10
sS'report'
p6993
I74
sS'haiti'
p6994
I6
sS'said.wce'
p6995
I1
sS'yrnotes'
p6996
I1
sS'angers'
p6997
I1
sS'quotes'
p6998
I2
sS'scotia'
p6999
I6
sS'boggling'
p7000
I1
sS'added.canadian'
p7001
I1
sS'twice'
p7002
I12
sS'34th'
p7003
I1
sS'shots'
p7004
I2
sS'13.50.husky'
p7005
I1
sS'2000.however'
p7006
I1
sS'her.farmers'
p7007
I1
sS'133.81'
p7008
I1
sS'resist'
p7009
I2
sS'corrupt'
p7010
I1
sS'amalgamated'
p7011
I1
sS'capacity'
p7012
I20
sS'tuesday.it'
p7013
I1
sS'04/25budget'
p7014
I2
sS'efficiency.the'
p7015
I1
sS'may.investors'
p7016
I1
sS'366'
p7017
I1
sS'367'
p7018
I1
sS'bellowing'
p7019
I1
sS'approach'
p7020
I3
sS'discovery'
p7021
I15
sS'adding'
p7022
I10
sS'confusion'
p7023
I3
sS'weak'
p7024
I8
sS'33,000'
p7025
I1
sS'southeast'
p7026
I1
sS'news'
p7027
I43
sS'129,300'
p7028
I2
sS'improve'
p7029
I5
sS'faced'
p7030
I6
sS'protect'
p7031
I3
sS'fault'
p7032
I2
sS'extracts'
p7033
I1
sS'participating'
p7034
I1
sS'players'
p7035
I10
sS'games'
p7036
I23
sS'faces'
p7037
I3
sS'variance'
p7038
I2
sS'expense'
p7039
I4
sS'standings'
p7040
I6
sS'bellyhold'
p7041
I1
sS'betting'
p7042
I1
sS'39th'
p7043
I2
sS'found.natural'
p7044
I1
sS'trust'
p7045
I3
sS'conference'
p7046
I19
sS'jobless'
p7047
I1
sS'beef'
p7048
I1
sS'rekayasa'
p7049
I1
sS'quickly'
p7050
I4
sS'maritmes'
p7051
I1
sS'confident'
p7052
I4
sS'expected'
p7053
I66
sS'dracut'
p7054
I1
sS'berthy'
p7055
I5
sS'georgia.western'
p7056
I1
sS'drugs'
p7057
I2
sS'catch'
p7058
I1
sS'slowdown'
p7059
I2
sS'glider'
p7060
I1
sS'62,000'
p7061
I1
sS'heartland'
p7062
I1
sS'n'
p7063
I1000
sS'teachers'
p7064
I1
sS'stopping'
p7065
I1
sS'procedure'
p7066
I2
sS'extruder'
p7067
I1
sS'brewer'
p7068
I1
sS'expenses'
p7069
I1
sS'innings.orlando'
p7070
I1
sS'dig'
p7071
I1
sS'experts'
p7072
I2
sS'experience'
p7073
I2
sS'celgar'
p7074
I6
sS'containing'
p7075
I4
sS'18.726'
p7076
I1
sS'46th.britain'
p7077
I1
sS'kilborn'
p7078
I25
sS'6.892'
p7079
I1
sS'complex'
p7080
I6
sS'inventory'
p7081
I3
sS'moose'
p7082
I5
sS'buyback'
p7083
I2
sS'insisted'
p7084
I2
sS'proforma'
p7085
I3
sS'shortly'
p7086
I5
sS'21,200'
p7087
I1
sS'ocean'
p7088
I1
sS'savings'
p7089
I4
sS'detained'
p7090
I3
sS'jean'
p7091
I5
sS'spencer'
p7092
I1
sS'seasonal'
p7093
I4
sS'w.g'
p7094
I2
sS'proposed'
p7095
I11
sS'unemployment'
p7096
I67
sS'23.loss'
p7097
I1
sS'judge'
p7098
I5
sS'grades'
p7099
I6
sS'carats'
p7100
I8
sS'expos'
p7101
I7
sS'floridast'
p7102
I1
sS'stocks.the'
p7103
I1
sS'totalbonus'
p7104
I3
sS'5k'
p7105
I1
sS'gave'
p7106
I15
sS'casting'
p7107
I2
sS'statement.swp'
p7108
I1
sS'advances'
p7109
I7
sS'23.52'
p7110
I1
sS'spanner'
p7111
I2
sS'burns'
p7112
I3
sS'advanced'
p7113
I1
sS'apart'
p7114
I2
sS'melting'
p7115
I2
sS'59'
p7116
I3
sS'58'
p7117
I1
sS'54'
p7118
I4
sS'57'
p7119
I6
sS'hunt'
p7120
I4
sS'orlando'
p7121
I4
sS'50'
p7122
I24
sS'3.00/cubic'
p7123
I1
sS'52'
p7124
I2
sS'specific'
p7125
I1
sS'44-171-542-6284'
p7126
I1
sS'offices'
p7127
I3
sS'officer'
p7128
I5
sS'hung'
p7129
I1
sS'bremerhaven'
p7130
I2
sS'2.15-2.18'
p7131
I1
sS'season.percival'
p7132
I1
sS'56'
p7133
I1
sS'2,451'
p7134
I1
sS'sportmart'
p7135
I1
sS'successfully'
p7136
I1
sS'donald'
p7137
I1
sS'meters'
p7138
I4
sS'election'
p7139
I6
sS'escape'
p7140
I2
sS'indirect'
p7141
I1
sS'137.80'
p7142
I1
sS'doorstep'
p7143
I1
sS'namco'
p7144
I2
sS'cooper'
p7145
I4
sS'ice'
p7146
I4
sS'totals'
p7147
I1
sS'icy'
p7148
I1
sS'2.75-3.25'
p7149
I1
sS'dimensions'
p7150
I2
sS'425'
p7151
I1
sS'booking'
p7152
I1
sS'core'
p7153
I5
sS'9.20'
p7154
I1
sS'china.royal'
p7155
I1
sS'corn'
p7156
I2
sS'discount'
p7157
I2
sS'corp'
p7158
I38
sS'menopause'
p7159
I1
sS'brakes.daimler'
p7160
I1
sS'chapter'
p7161
I1
sS'7.00'
p7162
I3
sS'39,559'
p7163
I1
sS'plunging'
p7164
I1
sS'dinner'
p7165
I1
sS'ensure'
p7166
I3
sS'sales.one'
p7167
I1
sS'efforts'
p7168
I5
sS'3.800'
p7169
I1
sS'ferc'
p7170
I1
sS'schedule.over'
p7171
I1
sS'15.22'
p7172
I2
sS'presence'
p7173
I1
sS'civil'
p7174
I1
sS'ppi'
p7175
I10
sS'est/1645'
p7176
I3
sS'obtaining'
p7177
I1
sS'explain'
p7178
I1
sS'bats'
p7179
I6
sS'coastal'
p7180
I1
sS'year.the'
p7181
I1
sS'rounds'
p7182
I1
sS'project.bre'
p7183
I2
sS'rely'
p7184
I2
sS'difficulaties'
p7185
I2
sS'bordick'
p7186
I1
sS'stuck'
p7187
I3
sS'fought'
p7188
I1
sS'142.00'
p7189
I2
sS'naught'
p7190
I2
sS'gil'
p7191
I1
sS'immediately.the'
p7192
I4
sS'head'
p7193
I10
sS'medium'
p7194
I21
sS'steers'
p7195
I1
sS'differences'
p7196
I7
sS'deluged'
p7197
I1
sS'underperformance'
p7198
I1
sS'hear'
p7199
I2
sS'heap'
p7200
I1
sS'sustained'
p7201
I3
sS'removed'
p7202
I2
sS'counsel'
p7203
I2
sS'bids'
p7204
I1
sS'chelminska'
p7205
I1
sS'neighboring'
p7206
I1
sS'2.585'
p7207
I1
sS'penal'
p7208
I1
sS'trim'
p7209
I1
sS'peruvian'
p7210
I1
sS'0.60'
p7211
I3
sS'0.62'
p7212
I1
sS'cromerimperial'
p7213
I5
sS'0.65'
p7214
I8
sS'0.68'
p7215
I1
sS'0.69'
p7216
I1
sS'check'
p7217
I11
sS'constructed'
p7218
I1
sS'looked'
p7219
I6
sS'6.91'
p7220
I1
sS'6.90'
p7221
I1
sS'faithful'
p7222
I1
sS'landon'
p7223
I1
sS'commercials'
p7224
I1
sS'46.93'
p7225
I1
sS'98.29121'
p7226
I1
sS'tim'
p7227
I2
sS'setting'
p7228
I3
sS'259.11'
p7229
I2
sS'tie'
p7230
I7
sS'erosion'
p7231
I3
sS'1.875'
p7232
I2
sS'picture'
p7233
I1
sS'phoenix'
p7234
I12
sS'rising'
p7235
I10
sS'ordapr'
p7236
I1
sS'tie.jaromir'
p7237
I1
sS'longer'
p7238
I6
sS'area.bre'
p7239
I1
sS'vigorously'
p7240
I1
sS'night.several'
p7241
I1
sS'cambiste'
p7242
I1
sS'ron'
p7243
I3
sS'60.55'
p7244
I1
sS'alternatives'
p7245
I3
sS'focus'
p7246
I2
sS'deliveries'
p7247
I1
sS'leads'
p7248
I1
sS'160.80'
p7249
I1
sS'1.80'
p7250
I2
sS'433.70'
p7251
I1
sS'row'
p7252
I1
sS'4.785'
p7253
I1
sS'contemplating'
p7254
I1
sS'environment'
p7255
I8
sS'charge'
p7256
I7
sS'positions.telesat'
p7257
I1
sS'weakening'
p7258
I8
sS'year.1996'
p7259
I1
sS'advantage'
p7260
I5
sS'sloppy'
p7261
I1
sS'pinawa'
p7262
I1
sS'1.121'
p7263
I1
sS'cook'
p7264
I1
sS'1.129'
p7265
I1
sS'stonewalled'
p7266
I1
sS'level'
p7267
I24
sS'valentin'
p7268
I1
sS'philippines'
p7269
I5
sS'crestar'
p7270
I1
sS'brother'
p7271
I8
sS'standards'
p7272
I4
sS'408-8787'
p7273
I3
sS'quick'
p7274
I3
sS'613-951-4166'
p7275
I1
sS'mid-1998'
p7276
I1
sS'says'
p7277
I6
sS'trend'
p7278
I10
sS'said.despite'
p7279
I3
sS'injunction'
p7280
I1
sS'inland'
p7281
I1
sS'widened'
p7282
I5
sS'22/32'
p7283
I1
sS'port'
p7284
I9
sS'irritated'
p7285
I3
sS'endangering'
p7286
I2
sS'arimidex'
p7287
I2
sS'crashed.bre'
p7288
I1
sS'debate'
p7289
I1
sS'525'
p7290
I1
sS'04/24retail'
p7291
I2
sS'goes'
p7292
I1
sS'lines.canadian'
p7293
I1
sS'halts'
p7294
I5
sS'fmar'
p7295
I1
sS'98.375'
p7296
I1
sS'water'
p7297
I5
sS'fmac'
p7298
I1
sS'baseball'
p7299
I3
sS'imffeb'
p7300
I1
sS'groups'
p7301
I10
sS'crippled'
p7302
I4
sS'6-6'
p7303
I1
sS'6-4'
p7304
I1
sS'6-5'
p7305
I4
sS'6-2'
p7306
I1
sS'supplying'
p7307
I1
sS'6-1'
p7308
I1
sS'capacity.in'
p7309
I1
sS'56,000'
p7310
I1
sS'standout'
p7311
I1
sS"const'n"
p7312
I2
sS'proven.the'
p7313
I1
sS'healthy'
p7314
I3
sS'world.one'
p7315
I1
sS'guilty'
p7316
I3
sS'noticeably'
p7317
I1
sS'navigation'
p7318
I1
sS'4507.81'
p7319
I2
sS'extensions.preval'
p7320
I1
sS'soybeans'
p7321
I3
sS'05/09cpi'
p7322
I1
sS'nmar'
p7323
I1
sS'durham'
p7324
I2
sS'shares.bre'
p7325
I4
sS'interesting.1996'
p7326
I1
sS'crisis'
p7327
I3
sS'trinidad'
p7328
I6
sS'prel'
p7329
I4
sS'handled'
p7330
I1
sS'stored'
p7331
I4
sS'handler'
p7332
I1
sS'andy'
p7333
I1
sS'5900.37'
p7334
I3
sS'memory'
p7335
I1
sS'today'
p7336
I15
sS'kerry'
p7337
I1
sS'sessions'
p7338
I3
sS'beers'
p7339
I2
sS'changetse'
p7340
I2
sS'cases'
p7341
I1
sS'observers.these'
p7342
I1
sS'local'
p7343
I14
sS'1995.economists'
p7344
I1
sS'flagship'
p7345
I1
sS'minimum'
p7346
I2
sS'achieve'
p7347
I1
sS'shares.it'
p7348
I1
sS'plum'
p7349
I1
sS'unconditional'
p7350
I2
sS'streak'
p7351
I4
sS'sandbag'
p7352
I1
sS'figure'
p7353
I1
sS'nexus'
p7354
I2
sS'growers.barshefsky'
p7355
I1
sS'said.government'
p7356
I1
sS'celsius'
p7357
I15
sS'slugging'
p7358
I1
sS'dropped'
p7359
I4
sS'unloads'
p7360
I5
sS'provoke'
p7361
I1
sS'parliamentary'
p7362
I1
sS'requirements'
p7363
I13
sS'secured'
p7364
I3
sS'5-4.norberto'
p7365
I1
sS'1'
p7366
I75
sS'fourth'
p7367
I16
sS'plus'
p7368
I1
sS'subsidiaries'
p7369
I1
sS'springfield'
p7370
I1
sS'3.45'
p7371
I2
sS'paramount'
p7372
I1
sS'3.42'
p7373
I1
sS'crashes'
p7374
I4
sS'information'
p7375
I39
sS'83'
p7376
I1
sS'6/32'
p7377
I1
sS'crashed'
p7378
I7
sS'boards'
p7379
I1
sS'pct04/08'
p7380
I1
sS'eighth'
p7381
I7
sS'branches'
p7382
I1
sS'liquid'
p7383
I2
sS'mgr'
p7384
I1
sS'bocwatyq'
p7385
I1
sS'wainstein'
p7386
I2
sS'probert'
p7387
I1
sS'exclusive'
p7388
I1
sS'yule'
p7389
I2
sS'0.3saskatchewan'
p7390
I1
sS'mgt'
p7391
I3
sS'mainly'
p7392
I3
sS'year.tse'
p7393
I2
sS'1.35/1.39'
p7394
I1
sS'aber'
p7395
I8
sS'heward'
p7396
I1
sS'offers'
p7397
I6
sS'rosado'
p7398
I1
sS'farmer'
p7399
I3
sS'vandersande'
p7400
I2
sS'happened'
p7401
I2
sS'amaru'
p7402
I1
sS'underneath'
p7403
I1
sS'hamilton'
p7404
I1
sS'26.6'
p7405
I1
sS'rescind'
p7406
I1
sS'term'
p7407
I21
sS'jonquiere'
p7408
I2
sS'stock.the'
p7409
I1
sS'jalisco'
p7410
I1
sS'138.00suncor'
p7411
I2
sS'telesat'
p7412
I10
sS'states.the'
p7413
I1
sS'benito'
p7414
I2
sS'gaps'
p7415
I1
sS'farewell'
p7416
I1
sS'begun'
p7417
I2
sS'kpmg'
p7418
I1
sS'argument.residents'
p7419
I1
sS'plans'
p7420
I19
sS'banff'
p7421
I1
sS'factors'
p7422
I2
sS'profit'
p7423
I18
sS'oklahoma'
p7424
I2
sS'mass.the'
p7425
I1
sS'factory'
p7426
I1
sS'attracted'
p7427
I6
sS'datelivestock'
p7428
I1
sS'unch'
p7429
I4
sS'maneuver'
p7430
I1
sS'theory'
p7431
I1
sS'81.5-80.5'
p7432
I1
sS'tigers.rick'
p7433
I1
sS'albuquerque'
p7434
I1
sS'flyer'
p7435
I1
sS'juden'
p7436
I2
sS'friday.some'
p7437
I1
sS'prvmay'
p7438
I1
sS'strathcona'
p7439
I54
sS'10mo'
p7440
I2
sS'turn'
p7441
I2
sS'place'
p7442
I22
sS'swing'
p7443
I1
sS'border.another'
p7444
I1
sS'suspend'
p7445
I1
sS'merrill'
p7446
I4
sS'revenue'
p7447
I2
sS'04/22wholesale'
p7448
I2
sS'symbolic'
p7449
I1
sS'requirement'
p7450
I2
sS'wholesalers'
p7451
I1
sS'multibillion'
p7452
I1
sS'acct'
p7453
I2
sS'array'
p7454
I1
sS'george'
p7455
I3
sS'petered'
p7456
I1
sS'engineer'
p7457
I3
sS'given'
p7458
I8
sS'necessarily'
p7459
I1
sS'district'
p7460
I1
sS'virgin'
p7461
I1
sS'trillion'
p7462
I3
sS'plastic'
p7463
I1
sS'returns'
p7464
I4
sS'white'
p7465
I14
sS'modernisation'
p7466
I1
sS'krivokrasov.in'
p7467
I1
sS'gives'
p7468
I5
sS'exploring'
p7469
I2
sS'lme'
p7470
I4
sS'copa'
p7471
I1
sS'16.80'
p7472
I2
sS'hub'
p7473
I9
sS'cope'
p7474
I2
sS'season'
p7475
I31
sS'9.03'
p7476
I1
sS'15.719'
p7477
I1
sS'circulated'
p7478
I1
sS'alan'
p7479
I1
sS'released'
p7480
I23
sS'holes.cibc'
p7481
I1
sS'28.1'
p7482
I1
sS'copy'
p7483
I3
sS'specify'
p7484
I1
sS'population'
p7485
I5
sS'wide'
p7486
I4
sS'oats'
p7487
I5
sS'require'
p7488
I5
sS'diplomatic'
p7489
I1
sS'year.in'
p7490
I1
sS'spokeswoman'
p7491
I13
sS'computer'
p7492
I50
sS'cards'
p7493
I2
sS'dwarfed'
p7494
I1
sS'pre'
p7495
I3
sS'rene'
p7496
I2
sS'ann'
p7497
I1
sS'capacity.the'
p7498
I1
sS'pri'
p7499
I12
sS'operated'
p7500
I6
sS'prv'
p7501
I1
sS'fixed.bre'
p7502
I1
sS'marathon'
p7503
I2
sS'conversion'
p7504
I4
sS'1.3830/1.3880'
p7505
I1
sS'snowy'
p7506
I1
sS'1.3780'
p7507
I2
sS'1.3783'
p7508
I1
sS'26.07/barrelmidale'
p7509
I1
sS'ideal'
p7510
I1
sS'sh&e'
p7511
I1
sS'sure'
p7512
I3
sS'multiple'
p7513
I2
sS'sherman'
p7514
I1
sS'falls'
p7515
I1
sS'visitors'
p7516
I1
sS'cleared'
p7517
I3
sS'probes'
p7518
I1
sS'26th'
p7519
I2
sS'potvin'
p7520
I1
sS'depreciation'
p7521
I2
sS'considered'
p7522
I2
sS'jakarta'
p7523
I5
sS'later'
p7524
I11
sS'stock.about'
p7525
I1
sS'10.83'
p7526
I1
sS'trafficking'
p7527
I2
sS'thursday.its'
p7528
I1
sS'senior'
p7529
I19
sS'schedulemontreal'
p7530
I1
sS'allegations'
p7531
I1
sS'troy'
p7532
I2
sS'nextnew'
p7533
I2
sS'southwestern'
p7534
I1
sS'0.46'
p7535
I1
sS'mexican'
p7536
I1
sS'0.45'
p7537
I2
sS'0.40'
p7538
I2
sS'pricfeb'
p7539
I1
sS'3.30.bre'
p7540
I1
sS'04/22cpi'
p7541
I6
sS'44.4'
p7542
I1
sS'wood'
p7543
I6
sS'believing'
p7544
I2
sS'44.0'
p7545
I1
sS'1.4250'
p7546
I1
sS'affected.bre'
p7547
I1
sS'government.axworthy'
p7548
I1
sS'642,000'
p7549
I1
sS'responding'
p7550
I1
sS'lighter'
p7551
I1
sS'approvals.co'
p7552
I1
sS'hedge'
p7553
I3
sS'trade'
p7554
I73
sS'closure'
p7555
I2
sS'reveal'
p7556
I3
sS'regarding'
p7557
I4
sS'recession.the'
p7558
I1
sS'aluminum'
p7559
I2
sS'third.potvin'
p7560
I1
sS'jokes'
p7561
I3
sS'embassy'
p7562
I4
sS'5.56feb'
p7563
I1
sS'predicted'
p7564
I5
sS'ignored'
p7565
I3
sS'1,300-kilometre'
p7566
I1
sS'violated'
p7567
I2
sS'april.however'
p7568
I1
sS'maximum'
p7569
I1
sS'connections'
p7570
I1
sS'provisions.canada'
p7571
I1
sS'6-2.seven'
p7572
I1
sS'fails'
p7573
I1
sS'dissidents.canada'
p7574
I1
sS'issuewas'
p7575
I1
sS'mortgage'
p7576
I4
sS'farmers'
p7577
I9
sS'federal'
p7578
I37
sS'subsequent'
p7579
I1
sS'review'
p7580
I11
sS'commitments'
p7581
I3
sS'outside'
p7582
I4
sS'surfaced'
p7583
I1
sS'end.diplomats'
p7584
I1
sS'rumours'
p7585
I2
sS'injury.1996'
p7586
I1
sS'coms'
p7587
I3
sS'pent'
p7588
I1
sS'texas.the'
p7589
I1
sS'said.five'
p7590
I1
sS'cities'
p7591
I10
sS'come'
p7592
I11
sS'5/32'
p7593
I1
sS'acquiring'
p7594
I1
sS'treapr'
p7595
I1
sS'darin'
p7596
I1
sS'region'
p7597
I7
sS'23'
p7598
I9
sS'quiet'
p7599
I2
sS'contract'
p7600
I8
sS'prompted'
p7601
I6
sS'maritimes'
p7602
I5
sS'magadan'
p7603
I1
sS'senator'
p7604
I1
sS'railway'
p7605
I4
sS'5.31'
p7606
I1
sS'industryjean'
p7607
I1
sS'athletics.justice'
p7608
I1
sS'14.581'
p7609
I1
sS'colony'
p7610
I1
sS'period'
p7611
I32
sS'pop'
p7612
I1
sS'sampling'
p7613
I12
sS'60'
p7614
I12
sS'61'
p7615
I1
sS'62'
p7616
I5
sS'63'
p7617
I6
sS'65'
p7618
I3
sS'66'
p7619
I3
sS'67'
p7620
I10
sS'68'
p7621
I8
sS'69'
p7622
I8
sS'poll'
p7623
I4
sS'late'
p7624
I24
sS'said.participants'
p7625
I1
sS'dis'
p7626
I1
sS'consultancy'
p7627
I1
sS'subscriber'
p7628
I1
sS'508'
p7629
I1
sS'peaceful'
p7630
I1
sS'helicopter'
p7631
I3
sS'505'
p7632
I2
sS'tepco'
p7633
I1
sS'500'
p7634
I12
sS'501'
p7635
I1
sS'630'
p7636
I1
sS'632'
p7637
I2
sS'634'
p7638
I1
sS'andrew'
p7639
I4
sS'4,102'
p7640
I1
sS'tiger'
p7641
I1
sS'minister'
p7642
I34
sS'6526'
p7643
I1
sS'andrea'
p7644
I1
sS'champions'
p7645
I2
sS'case'
p7646
I10
sS'shaft'
p7647
I1
sS'5849.10'
p7648
I1
sS'amend'
p7649
I1
sS'obligating'
p7650
I1
sS'cash'
p7651
I22
sS'premature'
p7652
I1
sS'cast'
p7653
I4
sS'telephone'
p7654
I14
sS'dissident'
p7655
I2
sS'refinery'
p7656
I3
sS'leadoff'
p7657
I1
sS'april.more'
p7658
I1
sS'colbrunn'
p7659
I2
sS'inflation.another'
p7660
I1
sS'28.8-28.3'
p7661
I1
sS'granted'
p7662
I7
sS'moratorium'
p7663
I1
sS'manila'
p7664
I7
sS'timlin'
p7665
I2
sS'week'
p7666
I98
sS'12,460'
p7667
I1
sS'refusal'
p7668
I3
sS'driver'
p7669
I1
sS'producers'
p7670
I5
sS'arose'
p7671
I1
sS'changing'
p7672
I2
sS'nm'
p7673
I4
sS'1,088'
p7674
I1
sS'breakdowns'
p7675
I1
sS'said.t'
p7676
I1
sS'relief'
p7677
I2
sS'said.a'
p7678
I1
sS'said.o'
p7679
I1
sS'july.chan'
p7680
I1
sS'researchers'
p7681
I3
sS'justify'
p7682
I1
sS'softwood'
p7683
I2
sS'actions'
p7684
I3
sS'158.58'
p7685
I1
sS'kill'
p7686
I2
sS'1,889'
p7687
I1
sS'announcement'
p7688
I8
sS'ny'
p7689
I19
sS'rose'
p7690
I40
sS'bloc'
p7691
I1
sS'samples'
p7692
I46
sS'poised'
p7693
I1
sS'scheduled'
p7694
I6
sS'3.65'
p7695
I2
sS'3.66'
p7696
I1
sS'3.61'
p7697
I1
sS'3.60'
p7698
I2
sS'2.67/2.73'
p7699
I1
sS'inflation'
p7700
I9
sS'october.the'
p7701
I1
sS'justice'
p7702
I2
sS'glitches'
p7703
I1
sS'abudget'
p7704
I2
sS'furniture'
p7705
I1
sS'reduced'
p7706
I1
sS'said.hogan'
p7707
I1
sS'pacific'
p7708
I24
sS'outpaced'
p7709
I4
sS'monday.the'
p7710
I1
sS'provided'
p7711
I10
sS'caribbean'
p7712
I1
sS'swaps'
p7713
I1
sS'freer'
p7714
I1
sS'legal'
p7715
I9
sS'provides'
p7716
I3
sS'45,000'
p7717
I1
sS'16,440'
p7718
I1
sS'declaratory'
p7719
I1
sS'1,300.may'
p7720
I1
sS'norberto'
p7721
I1
sS'inspect'
p7722
I1
sS'royals'
p7723
I3
sS'update'
p7724
I5
sS'agencies.greyhound'
p7725
I1
sS'5.32feb'
p7726
I1
sS'bronfman'
p7727
I1
sS'discussed'
p7728
I1
sS'2x8'
p7729
I1
sS'stand'
p7730
I5
sS'gregory'
p7731
I5
sS'transportation.the'
p7732
I1
sS'2x4'
p7733
I2
sS'2x6'
p7734
I1
sS'tribe'
p7735
I1
sS'nymex'
p7736
I1
sS'said.much'
p7737
I1
sS'communication'
p7738
I1
sS'torex'
p7739
I5
sS'accounts'
p7740
I4
sS'determine'
p7741
I8
sS'gary'
p7742
I1
sS'speculated'
p7743
I2
sS'erstad'
p7744
I1
sS'tugnutt'
p7745
I3
sS'pipes.she'
p7746
I1
sS'alleged'
p7747
I5
sS'strict'
p7748
I5
sS'outflow'
p7749
I1
sS'valley'
p7750
I15
sS'energy'
p7751
I36
sS'751'
p7752
I1
sS'750'
p7753
I3
sS'755'
p7754
I1
sS'fundamentals'
p7755
I3
sS'155.00light'
p7756
I3
sS'regard'
p7757
I1
sS'jun'
p7758
I1
sS'cabinet'
p7759
I1
sS'3fob'
p7760
I1
sS'zone.inland'
p7761
I1
sS'6237.09'
p7762
I1
sS'promote'
p7763
I3
sS'haitian'
p7764
I3
sS'faster'
p7765
I1
sS'18.98'
p7766
I1
sS'applying'
p7767
I2
sS'wholesale'
p7768
I13
sS'18.92'
p7769
I1
sS'panthers.wayne'
p7770
I1
sS'internationale'
p7771
I1
sS'grasp'
p7772
I1
sS'creeping'
p7773
I1
sS'32,427march'
p7774
I1
sS'taylor'
p7775
I2
sS'20.35'
p7776
I1
sS'cbi'
p7777
I5
sS'willson'
p7778
I4
sS'britain'
p7779
I4
sS'politics'
p7780
I1
sS'blues'
p7781
I1
sS'4.5'
p7782
I1
sS'4.4'
p7783
I2
sS'4.7'
p7784
I1
sS'4.6'
p7785
I2
sS'4.1'
p7786
I3
sS'4.0'
p7787
I3
sS'4.3'
p7788
I3
sS'4.2'
p7789
I1
sS'5'
p7790
I41
sS'season.aeco'
p7791
I1
sS'announcements'
p7792
I1
sS'sufficient'
p7793
I3
sS'deviation'
p7794
I2
sS'separate'
p7795
I3
sS'hwa'
p7796
I1
sS'mmbtu'
p7797
I7
sS'flower'
p7798
I1
sS'percentmeat'
p7799
I1
sS'included'
p7800
I13
sS'stocks'
p7801
I37
sS'earmar'
p7802
I1
sS'applause'
p7803
I1
sS'calls'
p7804
I3
sS'wife'
p7805
I2
sS'invest'
p7806
I5
sS'odds'
p7807
I6
sS'curve'
p7808
I1
sS'directors'
p7809
I2
sS'leases.solv'
p7810
I1
sS'missouri'
p7811
I2
sS'minnesotadetroit'
p7812
I1
sS'montego'
p7813
I2
sS'migrated'
p7814
I1
sS'chinese'
p7815
I11
sS'lack'
p7816
I6
sS'groupement'
p7817
I1
sS'projected'
p7818
I3
sS'earners'
p7819
I1
sS'lots.japan'
p7820
I2
sS'follow'
p7821
I5
sS'settlement'
p7822
I1
sS'decisions'
p7823
I2
sS'leafs.the'
p7824
I1
sS'thursday'
p7825
I115
sS'program'
p7826
I27
sS'present'
p7827
I5
sS'35.0'
p7828
I1
sS'28,603'
p7829
I1
sS'uptick'
p7830
I2
sS'woman'
p7831
I3
sS"they'll"
p7832
I1
sS'far'
p7833
I10
sS'brewers'
p7834
I2
sS'fat'
p7835
I7
sS'worst'
p7836
I1
sS"we've"
p7837
I14
sS'billion.declining'
p7838
I1
sS'vessels.those'
p7839
I1
sS'stimulus'
p7840
I3
sS'clinched'
p7841
I12
sS'list'
p7842
I10
sS'est/1600'
p7843
I1
sS'thiessen'
p7844
I7
sS'programme'
p7845
I5
sS'produmar'
p7846
I2
sS'rest.officials'
p7847
I1
sS'17.apr.00'
p7848
I1
sS'90.0'
p7849
I2
sS'ted'
p7850
I2
sS'90.7'
p7851
I2
sS'ulises'
p7852
I1
sS'rate'
p7853
I92
sS'ter'
p7854
I2
sS'5,368bulls'
p7855
I1
sS'sue'
p7856
I1
sS'sub'
p7857
I4
sS'sun'
p7858
I4
sS'sum'
p7859
I2
sS'brief'
p7860
I3
sS'crush'
p7861
I6
sS'0755'
p7862
I9
sS'problems.paul'
p7863
I1
sS'0200'
p7864
I1
sS'womg'
p7865
I1
sS'1.3865'
p7866
I2
sS'transiting'
p7867
I1
sS'reuters.analysts'
p7868
I2
sS'said.other'
p7869
I1
sS'overstated.it'
p7870
I1
sS'directions'
p7871
I1
sS'untarnished'
p7872
I2
sS'8.802'
p7873
I1
sS'fourth.in'
p7874
I1
sS'extraordinary'
p7875
I3
sS'allows'
p7876
I1
sS'runoff'
p7877
I1
sS'options'
p7878
I1
sS'sticking'
p7879
I1
sS'smar'
p7880
I1
sS'7.00/cubic'
p7881
I1
sS'conference.daigle'
p7882
I1
sS'suddenly'
p7883
I1
sS'inc.the'
p7884
I4
sS'inflation.the'
p7885
I2
sS'2.tse'
p7886
I1
sS'said.shares'
p7887
I3
sS'bonilla'
p7888
I2
sS'markets'
p7889
I43
sS'minor'
p7890
I2
sS'flat'
p7891
I6
sS'flaw'
p7892
I1
sS'knows'
p7893
I5
sS'operators'
p7894
I1
sS'flax'
p7895
I8
sS'basically'
p7896
I5
sS'known'
p7897
I3
sS'glad'
p7898
I1
sS'5.1/5.4'
p7899
I1
sS'berth'
p7900
I2
sS'3.630'
p7901
I2
sS'302.6'
p7902
I1
sS'6316.22'
p7903
I1
sS'exchange.the'
p7904
I3
sS'86.04'
p7905
I1
sS'challenging'
p7906
I1
sS'division'
p7907
I44
sS'1996.the'
p7908
I1
sS'retest'
p7909
I1
sS'niagara'
p7910
I5
sS'allege'
p7911
I2
sS'394.81'
p7912
I1
sS'5.0'
p7913
I5
sS'5.1'
p7914
I2
sS'5.2'
p7915
I2
sS'5.3'
p7916
I2
sS'5.4'
p7917
I2
sS'5.5'
p7918
I5
sS'5.6'
p7919
I1
sS'operations.the'
p7920
I2
sS'5.8'
p7921
I1
sS'breaking'
p7922
I2
sS'84.01'
p7923
I1
sS'quebecois'
p7924
I2
sS'rebalance'
p7925
I1
sS'okay'
p7926
I1
sS'spitzer'
p7927
I1
sS'613'
p7928
I15
sS'brodsky'
p7929
I1
sS'committeephil'
p7930
I1
sS'fungus'
p7931
I2
sS'prospecting'
p7932
I2
sS'concentrating'
p7933
I1
sS'6,474canadian'
p7934
I1
sS'short'
p7935
I24
sS'178moving'
p7936
I1
sS'prefers'
p7937
I1
sS'shore'
p7938
I1
sS'extrapolation'
p7939
I1
sS'04/09avg'
p7940
I2
sS'pctnote'
p7941
I1
sS'turnover'
p7942
I22
sS'september'
p7943
I3
sS'developed'
p7944
I6
sS'permitsfeb'
p7945
I1
sS'thomson'
p7946
I2
sS'milwaukee'
p7947
I8
sS'eluded'
p7948
I1
sS'inquiries'
p7949
I1
sS'developer'
p7950
I2
sS'1.5/2.9'
p7951
I1
sS'slipped'
p7952
I4
sS'susceptible'
p7953
I1
sS'138.00shell'
p7954
I2
sS'stephen'
p7955
I2
sS'speaker'
p7956
I1
sS'ahousing'
p7957
I2
sS'timfeb'
p7958
I1
sS'return'
p7959
I5
sS'hunter'
p7960
I1
sS'clippers'
p7961
I2
sS'panning'
p7962
I1
sS'zinc'
p7963
I3
sS'communities'
p7964
I2
sS'bigger'
p7965
I2
sS'0430'
p7966
I2
sS'huronnote'
p7967
I1
sS'1.3933'
p7968
I1
sS'bolts'
p7969
I1
sS'debacle'
p7970
I4
sS'12th'
p7971
I3
sS'athletics'
p7972
I2
sS'characterized'
p7973
I1
sS'weighs'
p7974
I1
sS'disagreements'
p7975
I1
sS'weight'
p7976
I6
sS'colder'
p7977
I1
sS'25.76'
p7978
I1
sS'40,000'
p7979
I1
sS'expect'
p7980
I9
sS'undertake'
p7981
I1
sS'inflated'
p7982
I2
sS'sasktel'
p7983
I1
sS'500-million'
p7984
I1
sS'health'
p7985
I2
sS'hill'
p7986
I1
sS'shipment'
p7987
I2
sS'0.7new'
p7988
I1
sS'wisconsin'
p7989
I3
sS'summer.huisman'
p7990
I1
sS'exchange.so'
p7991
I1
sS'3.00'
p7992
I2
sS'3.05'
p7993
I2
sS'49.57'
p7994
I1
sS'experimenting'
p7995
I1
sS'win.at'
p7996
I1
sS'e.g'
p7997
I2
sS'capital.the'
p7998
I1
sS'stampede'
p7999
I1
sS'tributaries'
p8000
I1
sS'gains.bre'
p8001
I1
sS'sagged'
p8002
I1
sS'threat'
p8003
I1
sS'friday.analysts'
p8004
I1
sS'1996.province'
p8005
I1
sS'fallen'
p8006
I6
sS'throws'
p8007
I1
sS'feed'
p8008
I11
sS'rafsanjani'
p8009
I1
sS'usda'
p8010
I2
sS'upper'
p8011
I5
sS'feel'
p8012
I4
sS'pork'
p8013
I3
sS'feet'
p8014
I20
sS'11.92'
p8015
I2
sS'11.90'
p8016
I1
sS'fees'
p8017
I6
sS'55.0'
p8018
I1
sS'grenfell.canada'
p8019
I2
sS'182'
p8020
I3
sS'story'
p8021
I3
sS'impairing'
p8022
I1
sS'temperature'
p8023
I2
sS'utilization'
p8024
I2
sS'leading'
p8025
I10
sS'financed'
p8026
I1
sS'coasts'
p8027
I1
sS'hangs'
p8028
I1
sS'assumption'
p8029
I2
sS'storm'
p8030
I4
sS'5817.36'
p8031
I1
sS'finances'
p8032
I1
sS'recovered'
p8033
I4
sS'columbia.a'
p8034
I1
sS'pipelines'
p8035
I3
sS'khobar'
p8036
I2
sS'segui'
p8037
I1
sS'exploded'
p8038
I1
sS'hotel'
p8039
I1
sS'convinced'
p8040
I3
sS'reliever'
p8041
I2
sS'trading.in'
p8042
I1
sS'king'
p8043
I1
sS'kind'
p8044
I7
sS'double'
p8045
I9
sS'stals'
p8046
I2
sS'aims'
p8047
I1
sS'5-4.after'
p8048
I1
sS'prairie'
p8049
I2
sS'risks'
p8050
I1
sS'nathalie'
p8051
I1
sS'midmorning'
p8052
I2
sS'corp.the'
p8053
I2
sS'outstanding'
p8054
I4
sS'strengthen'
p8055
I6
sS'imports'
p8056
I9
sS'kline'
p8057
I1
sS'oifeb'
p8058
I2
sS'homering'
p8059
I1
sS'wilson'
p8060
I2
sS'simao'
p8061
I1
sS'imf'
p8062
I1
sS'pmi'
p8063
I2
sS'moist'
p8064
I1
sS'maison'
p8065
I2
sS'chairman'
p8066
I12
sS'finding'
p8067
I2
sS'sherry'
p8068
I2
sS'eff'
p8069
I10
sS'added'
p8070
I32
sS'64,282'
p8071
I1
sS'chimney.the'
p8072
I1
sS'intervened'
p8073
I2
sS'goldman'
p8074
I2
sS'measures'
p8075
I2
sS'reach'
p8076
I2
sS'elaborate.freeport'
p8077
I1
sS'77'
p8078
I5
sS'76'
p8079
I3
sS'75'
p8080
I10
sS'74'
p8081
I2
sS'shareholder'
p8082
I6
sS'72'
p8083
I8
sS'71'
p8084
I14
sS'psbr'
p8085
I2
sS'seasons'
p8086
I2
sS'soared'
p8087
I3
sS'78'
p8088
I4
sS'mineral'
p8089
I12
sS'traditional'
p8090
I1
sS'985.34'
p8091
I1
sS'wong.she'
p8092
I1
sS'galarraga'
p8093
I1
sS'institutions'
p8094
I2
sS'lying'
p8095
I1
sS'report.nigeria'
p8096
I1
sS'stones'
p8097
I1
sS'26.07/barrelcromer'
p8098
I1
sS'cdn'
p8099
I5
sS'memorandum'
p8100
I1
sS'140.7'
p8101
I1
sS'havoc'
p8102
I5
sS'cdx'
p8103
I1
sS'feedstock'
p8104
I1
sS'securing'
p8105
I1
sS'anvil'
p8106
I2
sS'sunnybrook'
p8107
I2
sS'starters'
p8108
I1
sS'africa.following'
p8109
I1
sS'1.65-1.66'
p8110
I1
sS'anikkei'
p8111
I1
sS'affairs.her'
p8112
I1
sS'shepherd'
p8113
I2
sS'hit'
p8114
I23
sS'gains'
p8115
I10
sS'11-4'
p8116
I1
sS'b'
p8117
I7
sS'5,000'
p8118
I3
sS'longest'
p8119
I1
sS'5.22jan'
p8120
I1
sS'appeal'
p8121
I1
sS'years.st'
p8122
I1
sS'brendan'
p8123
I1
sS'ottawahartford'
p8124
I1
sS'184.86'
p8125
I1
sS'trade.may'
p8126
I1
sS'activity'
p8127
I6
sS'vincent'
p8128
I1
sS'43.05'
p8129
I1
sS'precaution'
p8130
I1
sS'snowstorm'
p8131
I1
sS'canwest'
p8132
I1
sS'dump'
p8133
I3
sS'intelligence'
p8134
I2
sS'2.9'
p8135
I3
sS'defense'
p8136
I2
sS'2.3'
p8137
I5
sS'2.2'
p8138
I15
sS'2.1'
p8139
I19
sS'2.0'
p8140
I11
sS'2.7'
p8141
I3
sS'2.6'
p8142
I3
sS'2.5'
p8143
I5
sS'2.4'
p8144
I4
sS'down.on'
p8145
I1
sS'deutch'
p8146
I1
sS'plywood'
p8147
I3
sS'canada.the'
p8148
I2
sS'consecutive'
p8149
I2
sS'solo'
p8150
I2
sS'latin'
p8151
I2
sS'recently'
p8152
I9
sS'initially'
p8153
I7
sS'sold'
p8154
I23
sS'attention'
p8155
I1
sS'247,721'
p8156
I1
sS'importers'
p8157
I2
sS'opposition'
p8158
I1
sS'solv'
p8159
I8
sS'c'
p8160
I267
sS'license'
p8161
I3
sS'system.tse'
p8162
I1
sS'industry.the'
p8163
I1
sS'33,437'
p8164
I1
sS'1,807,255'
p8165
I1
sS'1,452'
p8166
I1
sS'flies'
p8167
I2
sS'monopros'
p8168
I5
sS'reasons'
p8169
I6
sS'sweet'
p8170
I14
sS'guzman'
p8171
I13
sS'autoposy'
p8172
I1
sS'slots'
p8173
I2
sS'bolster'
p8174
I1
sS'decline'
p8175
I5
sS'belovay'
p8176
I1
sS'pt'
p8177
I1
sS'political'
p8178
I7
sS'strategy'
p8179
I2
sS'reduction'
p8180
I4
sS'orioles'
p8181
I3
sS'chandler'
p8182
I1
sS'cycle.nova'
p8183
I1
sS'referee'
p8184
I5
sS'flight'
p8185
I4
sS'session.following'
p8186
I1
sS'philippine'
p8187
I6
sS'firefighters'
p8188
I1
sS'brokers'
p8189
I1
sS'demand'
p8190
I18
sS'86,000'
p8191
I1
sS'ahead.he'
p8192
I1
sS'plants'
p8193
I6
sS'advocating'
p8194
I1
sS'indefinitely'
p8195
I1
sS'unprecedented'
p8196
I3
sS'parachutes'
p8197
I1
sS'backwaters'
p8198
I1
sS'behavior'
p8199
I1
sS'fernandez'
p8200
I1
sS'engineers'
p8201
I5
sS'earlier.sales'
p8202
I1
sS'concernsdr'
p8203
I1
sS'said.however'
p8204
I1
sS'rio'
p8205
I1
sS'frantic'
p8206
I1
sS'rig'
p8207
I1
sS'rid'
p8208
I1
sS'currents'
p8209
I1
sS'definitive'
p8210
I2
sS'ample'
p8211
I3
sS'lengths'
p8212
I5
sS'widely'
p8213
I1
sS'9'
p8214
I20
sS'160,000'
p8215
I1
sS'daughters'
p8216
I1
sS'higher'
p8217
I31
sS'1.147'
p8218
I1
sS'891'
p8219
I1
sS'indemnity'
p8220
I1
sS'paths'
p8221
I1
sS'flows'
p8222
I4
sS'8.85'
p8223
I1
sS'flown'
p8224
I2
sS'moving'
p8225
I9
sS'may.at'
p8226
I1
sS'contractors'
p8227
I1
sS'17869.59'
p8228
I1
sS'interrogation'
p8229
I1
sS'lower'
p8230
I25
sS'analysis'
p8231
I12
sS'century.its'
p8232
I1
sS'cheer'
p8233
I1
sS'machinery'
p8234
I3
sS'sumas'
p8235
I5
sS'0.378'
p8236
I1
sS'86.24'
p8237
I1
sS'stating'
p8238
I1
sS'unseen'
p8239
I1
sS'52.9'
p8240
I1
sS'polled'
p8241
I1
sS'85.82'
p8242
I1
sS'questions'
p8243
I4
sS'destinationapril'
p8244
I3
sS'prince'
p8245
I1
sS'products.chesapeake'
p8246
I1
sS'profitable'
p8247
I1
sS'loading'
p8248
I8
sS'workers'
p8249
I10
sS'dallas.toronto'
p8250
I1
sS'added.significant'
p8251
I1
sS'governmental'
p8252
I1
sS'47th'
p8253
I3
sS'2.19'
p8254
I9
sS'2.17'
p8255
I1
sS'violations'
p8256
I1
sS'2.10'
p8257
I2
sS'customers'
p8258
I4
sS'amended'
p8259
I2
sS'670'
p8260
I2
sS'moody'
p8261
I4
sS'said.cumulative'
p8262
I1
sS'cogeneration'
p8263
I1
sS'capitals'
p8264
I2
sS'7600'
p8265
I1
sS'province'
p8266
I22
sS'3.6'
p8267
I2
sS'3.7'
p8268
I1
sS'3.4'
p8269
I6
sS'3.5'
p8270
I5
sS'101.93'
p8271
I1
sS'3.3'
p8272
I2
sS'3.0'
p8273
I10
sS'3.1'
p8274
I6
sS'newsletter'
p8275
I1
sS'eight.in'
p8276
I1
sS'3.8'
p8277
I1
sS'3.9'
p8278
I1
sS'gradually'
p8279
I2
sS'prov'
p8280
I9
sS'pros'
p8281
I1
sS'seller'
p8282
I1
sS'innovation'
p8283
I1
sS'83.80'
p8284
I1
sS'prod'
p8285
I21
sS'beleaguered'
p8286
I1
sS'turpen'
p8287
I1
sS'lose'
p8288
I2
sS'refused'
p8289
I1
sS'nuevo'
p8290
I2
sS'unadj'
p8291
I2
sS'intense'
p8292
I1
sS'6.03dec'
p8293
I1
sS'350.50'
p8294
I1
sS'44.00/45.00'
p8295
I1
sS'pipeline'
p8296
I43
sS'cautious'
p8297
I1
sS'ordeal'
p8298
I1
sS'range'
p8299
I10
sS'barshefsky'
p8300
I2
sS'1.3916'
p8301
I1
sS'1.3910'
p8302
I5
sS'clubhouse'
p8303
I1
sS'marketsdr'
p8304
I1
sS'1mth'
p8305
I2
sS'exceed'
p8306
I3
sS'statment'
p8307
I1
sS'century.the'
p8308
I4
sS'24.80'
p8309
I2
sS'inventories'
p8310
I1
sS'seattle.the'
p8311
I1
sS'canal'
p8312
I2
sS'territories'
p8313
I5
sS'question'
p8314
I13
sS'long'
p8315
I19
sS'hydropower'
p8316
I3
sS'nextunemployment'
p8317
I2
sS"we're"
p8318
I16
sS'singled'
p8319
I2
sS'sections'
p8320
I1
sS'oilseeds'
p8321
I5
sS'files'
p8322
I1
sS'plunge'
p8323
I1
sS'clots'
p8324
I1
sS'fisheries'
p8325
I2
sS'repeatedly'
p8326
I1
sS'filed'
p8327
I17
sS'junior'
p8328
I3
sS'raising'
p8329
I7
sS'said.hundreds'
p8330
I1
sS'growth'
p8331
I30
sS'167.20'
p8332
I1
sS'111'
p8333
I1
sS'agents.the'
p8334
I1
sS'called'
p8335
I13
sS'163.50'
p8336
I1
sS'associated'
p8337
I4
sS'soars'
p8338
I1
sS'reuters.speed'
p8339
I1
sS'warning'
p8340
I1
sS'debt.chesapeake'
p8341
I1
sS'rally'
p8342
I3
sS'graham'
p8343
I3
sS'haney'
p8344
I1
sS'3.21'
p8345
I2
sS'years.they'
p8346
I1
sS'3.23'
p8347
I1
sS'3.22'
p8348
I1
sS'526.72'
p8349
I1
sS'3.27'
p8350
I1
sS'income'
p8351
I10
sS'3.28'
p8352
I2
sS'users'
p8353
I2
sS'problems'
p8354
I28
sS'breasts'
p8355
I1
sS'helping'
p8356
I1
sS'meaning'
p8357
I2
sS'allowing'
p8358
I7
sS'primeau'
p8359
I1
sS'america.the'
p8360
I1
sS'94,903'
p8361
I1
sS'2.086'
p8362
I1
sS'vice'
p8363
I5
sS'policymaker'
p8364
I1
sS'microsoft'
p8365
I1
sS'talks.the'
p8366
I2
sS'wording'
p8367
I2
sS'buffalo'
p8368
I9
sS'ziemia'
p8369
I1
sS'edc'
p8370
I5
sS'indexapril'
p8371
I1
sS'jimy'
p8372
I1
sS'issued'
p8373
I23
sS'124totals'
p8374
I1
sS'resistance'
p8375
I2
sS'steve'
p8376
I2
sS'individuals.in'
p8377
I1
sS'percent.yet'
p8378
I1
sS'winds'
p8379
I2
sS'gann'
p8380
I1
sS'issues'
p8381
I11
sS'issuer'
p8382
I2
sS'inbreeding'
p8383
I1
sS'shanghai'
p8384
I3
sS'dissidents'
p8385
I1
sS'stable'
p8386
I3
sS'breach'
p8387
I4
sS'include'
p8388
I7
sS'dramatically'
p8389
I1
sS'427.70'
p8390
I1
sS'confirmation'
p8391
I2
sS'scattered'
p8392
I3
sS'712'
p8393
I1
sS'burton'
p8394
I1
sS'seaway'
p8395
I7
sS'volume.on'
p8396
I1
sS'approval.royal'
p8397
I1
sS'notes'
p8398
I11
sS'100.48'
p8399
I1
sS'deals'
p8400
I7
sS'105.81'
p8401
I1
sS'fortified'
p8402
I1
sS'50.15'
p8403
I4
sS'underscored'
p8404
I1
sS'noted'
p8405
I4
sS'concluded'
p8406
I2
sS'smaller'
p8407
I6
sS'370,400'
p8408
I1
sS'98.28936'
p8409
I1
sS'busang'
p8410
I126
sS'growers'
p8411
I2
sS'makers'
p8412
I1
sS'hourly'
p8413
I1
sS'gainers'
p8414
I1
sS'unavailable'
p8415
I3
sS'concessions'
p8416
I1
sS'waiting'
p8417
I15
sS'capital'
p8418
I20
sS'trillium'
p8419
I1
sS'4236.60'
p8420
I1
sS'613-951-3618'
p8421
I1
sS'chose'
p8422
I1
sS'degree'
p8423
I4
sS'212-859-1628'
p8424
I2
sS'pushing'
p8425
I4
sS'overvalued'
p8426
I1
sS'slated'
p8427
I3
sS'explore'
p8428
I2
sS'added.the'
p8429
I4
sS'swirled'
p8430
I3
sS'imrl.as'
p8431
I1
sS'metro'
p8432
I1
sS'larger'
p8433
I1
sS'metre'
p8434
I15
sS'calvin'
p8435
I1
sS'leaving'
p8436
I2
sS'suggests'
p8437
I1
sS'placements'
p8438
I2
sS'reds'
p8439
I2
sS'deputy'
p8440
I2
sS'apr'
p8441
I72
sS'7,600'
p8442
I1
sS'api'
p8443
I35
sS'motor'
p8444
I10
sS'apply'
p8445
I1
sS'use'
p8446
I7
sS'fee'
p8447
I5
sS'feb'
p8448
I64
sS'usa'
p8449
I86
sS'iced'
p8450
I1
sS'overmar'
p8451
I1
sS'ordsfeb'
p8452
I1
sS'timetable'
p8453
I2
sS'possession'
p8454
I3
sS'secretions'
p8455
I1
sS'journalists'
p8456
I1
sS'laws.the'
p8457
I2
sS'inclined'
p8458
I1
sS'factor'
p8459
I3
sS'said.cbot'
p8460
I1
sS'18,638'
p8461
I1
sS'women'
p8462
I16
sS'36.76'
p8463
I1
sS'36.73'
p8464
I1
sS'us5'
p8465
I1
sS'lumber'
p8466
I7
sS'performed'
p8467
I17
sS'0.9'
p8468
I11
sS'0.8'
p8469
I12
sS'386.93m3'
p8470
I1
sS'institute.breast'
p8471
I1
sS'0.1'
p8472
I26
sS'0.0'
p8473
I4
sS'0.3'
p8474
I15
sS'0.2'
p8475
I24
sS'enerapr'
p8476
I1
sS'0.4'
p8477
I10
sS'0.7'
p8478
I12
sS'0.6'
p8479
I14
sS'tad'
p8480
I1
sS'3,737'
p8481
I1
sS'urged'
p8482
I2
sS'percent.overall'
p8483
I1
sS'enrique'
p8484
I1
sS'rape'
p8485
I1
sS'united'
p8486
I31
sS'session.meanwhile'
p8487
I1
sS'obando'
p8488
I2
sS'handover'
p8489
I3
sS'thurday'
p8490
I1
sS'act.chretien'
p8491
I1
sS'traders'
p8492
I32
sS'brian'
p8493
I3
sS'privatize'
p8494
I1
sS'unites'
p8495
I1
sS'23.3'
p8496
I1
sS'panic'
p8497
I2
sS'attend'
p8498
I3
sS'abuse'
p8499
I1
sS'wrist'
p8500
I2
sS'reuters.in'
p8501
I1
sS'status'
p8502
I2
sS'highlands'
p8503
I1
sS'light'
p8504
I26
sS'interrupted'
p8505
I2
sS'stabilitybill'
p8506
I1
sS'billion.the'
p8507
I1
sS'tony'
p8508
I4
sS'361.4'
p8509
I1
sS'sanctioned'
p8510
I1
sS'ventures'
p8511
I1
sS'jungles.an'
p8512
I1
sS'bloedel'
p8513
I1
sS'interpreted'
p8514
I1
sS'153.14'
p8515
I1
sS'136'
p8516
I1
sS'ordrs'
p8517
I6
sS'charlene'
p8518
I1
sS'contaminated'
p8519
I1
sS'glen'
p8520
I2
sS'superior'
p8521
I2
sS'wilderness'
p8522
I1
sS'ships'
p8523
I13
sS'beijung'
p8524
I1
sS'merchandise'
p8525
I1
sS'underpin'
p8526
I1
sS'covered'
p8527
I3
sS'pending'
p8528
I4
sS'circle.geoff'
p8529
I1
sS'crash'
p8530
I5
sS'flour'
p8531
I3
sS'games.chicago'
p8532
I1
sS'material'
p8533
I19
sS'oranges'
p8534
I1
sS'aa2/aa'
p8535
I1
sS'negligent'
p8536
I1
sS'1-billion'
p8537
I2
sS'nations.lake'
p8538
I1
sS'satellites'
p8539
I1
sS'investor'
p8540
I8
sS'expansion.the'
p8541
I1
sS'nfd'
p8542
I1
sS'eased'
p8543
I2
sS'pakar'
p8544
I1
sS'billy'
p8545
I3
sS'1.056'
p8546
I1
sS'bills'
p8547
I14
sS'04/30gdp'
p8548
I2
sS'related'
p8549
I12
sS'trade.minutes'
p8550
I1
sS'88'
p8551
I6
sS'89'
p8552
I4
sS'remove'
p8553
I1
sS'buchberger'
p8554
I1
sS'82'
p8555
I3
sS'3.43'
p8556
I4
sS'80'
p8557
I9
sS'87'
p8558
I6
sS'tabulate'
p8559
I6
sS'85'
p8560
I2
sS'2.35'
p8561
I1
sS'3.41'
p8562
I1
sS'sentiment'
p8563
I1
sS'3.40'
p8564
I2
sS'800heifers'
p8565
I1
sS'04/04/97'
p8566
I10
sS'performs'
p8567
I3
sS'165,923'
p8568
I1
sS'trading.the'
p8569
I2
sS'integrated'
p8570
I3
sS'edomonton'
p8571
I1
sS'common'
p8572
I10
sS'disclose'
p8573
I2
sS'rewrote'
p8574
I1
sS'664-7314'
p8575
I7
sS'maintains'
p8576
I1
sS'58.48m2'
p8577
I1
sS'164.00'
p8578
I5
sS'wateridge'
p8579
I2
sS'york'
p8580
I39
sS'molitor'
p8581
I2
sS'overtake'
p8582
I1
sS'caie'
p8583
I1
sS'produce'
p8584
I3
sS'shutout'
p8585
I2
sS'blanketed'
p8586
I1
sS'156.00suncor'
p8587
I2
sS'cst/1725'
p8588
I1
sS'2790.10'
p8589
I1
sS'set'
p8590
I23
sS'homers'
p8591
I6
sS'kypreos'
p8592
I1
sS'destinations'
p8593
I3
sS"doesn't"
p8594
I6
sS'162.00shell'
p8595
I1
sS'nbi'
p8596
I2
sS'unknown'
p8597
I2
sS'pct04/09'
p8598
I1
sS'priority'
p8599
I2
sS'1500'
p8600
I35
sS'zigmund'
p8601
I1
sS'650'
p8602
I3
sS'rigs'
p8603
I2
sS'311'
p8604
I1
sS'2,317'
p8605
I1
sS'network.cargo'
p8606
I1
sS'shell'
p8607
I2
sS'165.00'
p8608
I3
sS'shallow'
p8609
I1
sS'reflecting'
p8610
I1
sS'1.3853'
p8611
I2
sS'months.canada'
p8612
I2
sS'july'
p8613
I38
sS'20-year'
p8614
I9
sS'runners'
p8615
I1
sS'480,000'
p8616
I1
sS'commodity'
p8617
I3
sS'2698.87'
p8618
I1
sS'richer'
p8619
I1
sS'25.50'
p8620
I1
sS'1.4'
p8621
I13
sS'1.5'
p8622
I10
sS'1.6'
p8623
I13
sS'1.7'
p8624
I5
sS'1.0'
p8625
I12
sS'1.1'
p8626
I9
sS'1.2'
p8627
I10
sS'1.3'
p8628
I10
sS'1.8'
p8629
I9
sS'1.9'
p8630
I3
sS'linked'
p8631
I2
sS'inform'
p8632
I1
sS'agency'
p8633
I19
sS'march.results'
p8634
I1
sS'est/1430'
p8635
I5
sS'centre'
p8636
I6
sS'cleland'
p8637
I1
sS'wht'
p8638
I11
sS'system.snc'
p8639
I1
sS'homer.in'
p8640
I1
sS'class'
p8641
I22
sS'17.58'
p8642
I1
sS'32.90'
p8643
I1
sS'17.57'
p8644
I1
sS'dent'
p8645
I2
sS'167.00'
p8646
I6
sS'mid-1980s'
p8647
I2
sS'deng'
p8648
I2
sS'goals'
p8649
I16
sS'agreed'
p8650
I8
sS'0030'
p8651
I12
sS'purely'
p8652
I1
sS'planning'
p8653
I4
sS'yudi'
p8654
I1
sS'fear'
p8655
I6
sS'pleased'
p8656
I4
sS'q1'
p8657
I16
sS'filmed'
p8658
I1
sS'q4'
p8659
I14
sS'thousands'
p8660
I6
sS'spun'
p8661
I1
sS'findings.bre'
p8662
I2
sS'cuba'
p8663
I3
sS'bocwatym'
p8664
I1
sS'community'
p8665
I3
sS'ones'
p8666
I1
sS'cubs'
p8667
I4
sS'sutts'
p8668
I2
sS'delgado'
p8669
I1
sS'spur'
p8670
I1
sS'differential'
p8671
I5
sS'jaime'
p8672
I1
sS'view'
p8673
I4
sS'europe'
p8674
I7
sS'shedding'
p8675
I4
sS'acquired'
p8676
I6
sS'27.50'
p8677
I5
sS'monetaryaffairs'
p8678
I1
sS'ebs'
p8679
I1
sS'12,908'
p8680
I1
sS'strengthin'
p8681
I1
sS'closer'
p8682
I8
sS'weller'
p8683
I1
sS'arguably'
p8684
I1
sS'favor'
p8685
I2
sS'identification'
p8686
I1
sS'closed'
p8687
I20
sS'crude'
p8688
I13
sS'limit'
p8689
I3
sS'frustrated'
p8690
I3
sS'masterful'
p8691
I1
sS'bought'
p8692
I20
sS'weighing'
p8693
I3
sS'ability'
p8694
I6
sS'opening'
p8695
I17
sS'agencies'
p8696
I3
sS'blnlfb'
p8697
I3
sS'takeover'
p8698
I4
sS'5.30'
p8699
I1
sS'joe'
p8700
I2
sS'probing'
p8701
I3
sS'18.71'
p8702
I1
sS'swift'
p8703
I1
sS'declining'
p8704
I5
sS'100.25'
p8705
I1
sS'1.532'
p8706
I1
sS'respondents'
p8707
I1
sS'today.propane'
p8708
I1
sS'april'
p8709
I69
sS'grain'
p8710
I15
sS'replaced.the'
p8711
I1
sS'grounds'
p8712
I1
sS'unclear'
p8713
I2
sS'wall'
p8714
I8
sS'99.60'
p8715
I1
sS'packaging'
p8716
I5
sS'rpi'
p8717
I4
sS'table'
p8718
I2
sS'narrowed'
p8719
I3
sS'withdrawn'
p8720
I1
sS'provinces'
p8721
I1
sS'bbl'
p8722
I10
sS'occured'
p8723
I2
sS'turn.while'
p8724
I2
sS'decent'
p8725
I3
sS'hunters'
p8726
I4
sS'78,862'
p8727
I1
sS'agreements'
p8728
I5
sS'736'
p8729
I1
sS'mike'
p8730
I11
sS'nickel'
p8731
I2
sS'inventories.summer'
p8732
I1
sS'astros'
p8733
I2
sS'rbi.chris'
p8734
I1
sS'1.3840canada'
p8735
I2
sS"d'amico"
p8736
I1
sS'mrta'
p8737
I1
sS'1yr'
p8738
I1
sS'painter'
p8739
I1
sS'1.27/barrel'
p8740
I1
sS'wily'
p8741
I1
sS'shares.a'
p8742
I1
sS'choices'
p8743
I1
sS'hovering'
p8744
I1
sS'20.97'
p8745
I2
sS'20.95'
p8746
I1
sS'wireless'
p8747
I1
sS'belvieu'
p8748
I1
sS'simafranca'
p8749
I1
sS'68.2'
p8750
I1
sS'avg'
p8751
I5
sS'terrorised'
p8752
I1
sS'thom'
p8753
I1
sS'deals.petro'
p8754
I1
sS'stadiums'
p8755
I1
sS'subcontract'
p8756
I1
sS'cross'
p8757
I2
sS'member'
p8758
I2
sS'adverse'
p8759
I1
sS'geographical'
p8760
I1
sS'largest'
p8761
I12
sS'units'
p8762
I5
sS'gets'
p8763
I1
sS'diepolder'
p8764
I1
sS'tomatoes'
p8765
I1
sS'tuesday.norway'
p8766
I1
sS'snowdrifts'
p8767
I1
sS'mutual'
p8768
I3
sS'issuance'
p8769
I1
sS'est/1330'
p8770
I1
sS'perpetrate'
p8771
I1
sS'camphor'
p8772
I2
sS'undertaken'
p8773
I1
sS'deion'
p8774
I2
sS'excessive'
p8775
I1
sS'heavily'
p8776
I6
sS'126.00/cubic'
p8777
I1
sS'obtain'
p8778
I2
sS'replenish'
p8779
I1
sS'rocked'
p8780
I1
sS'rapid'
p8781
I3
sS'avidly'
p8782
I4
sS'0730'
p8783
I1
sS'point'
p8784
I22
sS'smith'
p8785
I5
sS'discuss'
p8786
I3
sS'traded.the'
p8787
I1
sS'attractive'
p8788
I3
sS'smart'
p8789
I1
sS'loan'
p8790
I6
sS'enact'
p8791
I1
sS'recycling'
p8792
I1
sS'provisions'
p8793
I4
sS'30,200'
p8794
I1
sS'paymenbts'
p8795
I1
sS'geneva.in'
p8796
I1
sS'statement.nafta'
p8797
I1
sS'know'
p8798
I14
sS'press'
p8799
I7
sS'miami'
p8800
I2
sS'loser'
p8801
I2
sS'counsellors'
p8802
I1
sS'trenmay'
p8803
I1
sS'28,994'
p8804
I1
sS'5,600'
p8805
I1
sS'fall.a'
p8806
I1
sS'smoothly'
p8807
I1
sS'elevators'
p8808
I3
sS'reclamation'
p8809
I1
sS'5.56jan'
p8810
I1
sS'poole.washington'
p8811
I1
sS'116'
p8812
I1
sS'export'
p8813
I19
sS'110'
p8814
I2
sS'112'
p8815
I1
sS'employment'
p8816
I37
sS'118'
p8817
I1
sS'possibilities'
p8818
I1
sS'busang.it'
p8819
I1
sS'lead'
p8820
I27
sS'leak'
p8821
I1
sS'miner'
p8822
I2
sS'mines'
p8823
I8
sS'bullion'
p8824
I2
sS'mined'
p8825
I1
sS'smyth'
p8826
I2
sS'leader'
p8827
I7
sS'whitemouth'
p8828
I1
sS'tamaulipas'
p8829
I1
sS'epidemiology'
p8830
I1
sS'plant.but'
p8831
I1
sS'4.0can'
p8832
I1
sS'rare'
p8833
I1
sS'carried'
p8834
I6
sS'extension'
p8835
I4
sS'getting'
p8836
I8
sS'seventh.in'
p8837
I1
sS'debentures.co'
p8838
I1
sS'dependence'
p8839
I1
sS'shipping'
p8840
I6
sS'carrier'
p8841
I2
sS'outlok'
p8842
I1
sS'outstripped'
p8843
I1
sS'164.00petro-canada'
p8844
I1
sS'sources.the'
p8845
I1
sS'owe'
p8846
I1
sS'tight'
p8847
I2
sS'weather'
p8848
I16
sS'promise'
p8849
I1
sS'5360.41'
p8850
I1
sS'kabila.report'
p8851
I1
sS'fired'
p8852
I1
sS'indonesia.dave'
p8853
I1
sS'2.50'
p8854
I3
sS'lykes'
p8855
I4
sS'2.55'
p8856
I1
sS'books.but'
p8857
I1
sS'transfer'
p8858
I7
sS'gmt.a'
p8859
I1
sS'0.0alberta'
p8860
I1
sS'overtime'
p8861
I1
sS'29.3'
p8862
I10
sS'resists'
p8863
I1
sS'2.08-2.09'
p8864
I1
sS'triggered'
p8865
I1
sS'shane'
p8866
I1
sS'funds'
p8867
I16
sS'volume'
p8868
I60
sS'peppers'
p8869
I1
sS'hitter'
p8870
I4
sS'record'
p8871
I27
sS'ruling'
p8872
I3
sS'march.sportmart'
p8873
I1
sS'1.132'
p8874
I1
sS'percival'
p8875
I1
sS'04/16capacity'
p8876
I2
sS'block'
p8877
I3
sS'received'
p8878
I5
sS'04/15indicator'
p8879
I1
sS'1.3850-55'
p8880
I1
sS'resumption'
p8881
I5
sS'13.125'
p8882
I1
sS'diplomat'
p8883
I1
sS'83.49'
p8884
I1
sS'728-7903'
p8885
I1
sS'percent'
p8886
I206
sS'illinois'
p8887
I2
sS'book'
p8888
I2
sS'boom'
p8889
I1
sS'lance'
p8890
I2
sS'june'
p8891
I13
sS'margaret'
p8892
I2
sS'pumps'
p8893
I1
sS'4.21'
p8894
I1
sS'gap'
p8895
I2
sS'4.24'
p8896
I1
sS'4.26'
p8897
I1
sS'upwards'
p8898
I1
sS'overloading'
p8899
I1
sS'expands'
p8900
I1
sS'intentionally'
p8901
I1
sS'small.the'
p8902
I1
sS'volumes'
p8903
I28
sS'43,222'
p8904
I1
sS'tonnes'
p8905
I32
sS'mobutu'
p8906
I1
sS'125.00'
p8907
I3
sS'sask'
p8908
I1
s.