(dp0
S'china.they'
p1
I1
sS'hanging'
p2
I1
sS'trawling'
p3
I1
sS'sevens'
p4
I1
sS'increase'
p5
I29
sS'granting'
p6
I3
sS'eligible'
p7
I2
sS'electricity'
p8
I2
sS'161.2'
p9
I1
sS'crooner'
p10
I1
sS'lord'
p11
I2
sS'regional'
p12
I16
sS'45.7'
p13
I1
sS'1996.average'
p14
I1
sS'44.55'
p15
I1
sS'unify'
p16
I1
sS'bringing'
p17
I1
sS'6532-4978'
p18
I4
sS'prize'
p19
I2
sS'wednesday'
p20
I74
sS'piling'
p21
I1
sS'thursday.xinhua'
p22
I1
sS'second'
p23
I30
sS'transport.chongqing'
p24
I1
sS'14.55'
p25
I1
sS'increased.the'
p26
I1
sS'contributed'
p27
I4
sS'statement.exxon'
p28
I1
sS'friday.he'
p29
I2
sS'banker.local'
p30
I1
sS'increasing'
p31
I9
sS'succumb'
p32
I1
sS'specialist'
p33
I2
sS'hero'
p34
I2
sS'fervent'
p35
I1
sS'affiliates'
p36
I2
sS'output.china'
p37
I1
sS'reported'
p38
I17
sS'ching'
p39
I2
sS'china'
p40
I843
sS'affiliated'
p41
I1
sS'cyclical'
p42
I1
sS'substance'
p43
I1
sS'provinces.military'
p44
I1
sS'elaborate'
p45
I5
sS'climbed'
p46
I1
sS'reports'
p47
I11
sS'controversy'
p48
I1
sS"i'd"
p49
I2
sS'military'
p50
I34
sS"i'm"
p51
I3
sS'cancellation'
p52
I1
sS'criticism'
p53
I5
sS'replace'
p54
I6
sS'brought'
p55
I12
sS'unit'
p56
I14
sS'hoping'
p57
I3
sS'spoke'
p58
I1
sS'borrow'
p59
I2
sS'telegraph'
p60
I2
sS'passport'
p61
I6
sS'distortions'
p62
I2
sS'strike'
p63
I4
sS'10,000-15,000'
p64
I1
sS'paperwork'
p65
I2
sS'successful'
p66
I2
sS'benefiting'
p67
I1
sS'hurt'
p68
I1
sS'eases.china'
p69
I1
sS'5.10'
p70
I1
sS'5.16'
p71
I1
sS'sital'
p72
I1
sS'5.14'
p73
I1
sS'5.15'
p74
I2
sS'90'
p75
I5
sS'93'
p76
I1
sS'hold'
p77
I24
sS'95'
p78
I2
sS'96'
p79
I1
sS'fifths'
p80
I2
sS'40'
p81
I15
sS'pursue'
p82
I1
sS'sweeten'
p83
I1
sS'100.00'
p84
I1
sS'plunged'
p85
I3
sS'ryutaro'
p86
I1
sS'temperatures'
p87
I1
sS'shelve'
p88
I4
sS'revenues'
p89
I1
sS'example'
p90
I5
sS'chief.in'
p91
I2
sS'phrase'
p92
I1
sS'wang'
p93
I27
sS'artillery'
p94
I2
sS'currency'
p95
I21
sS'65-870'
p96
I1
sS'caution'
p97
I1
sS'country.beijing'
p98
I1
sS'want'
p99
I16
sS'absolute'
p100
I1
sS'provincial'
p101
I8
sS'complaining'
p102
I1
sS'travel'
p103
I4
sS'shirked'
p104
I1
sS'damage'
p105
I4
sS'machine'
p106
I2
sS'hot'
p107
I6
sS'hou'
p108
I3
sS'cut.but'
p109
I1
sS'pboc'
p110
I2
sS'pimps'
p111
I1
sS'modest'
p112
I2
sS'outcry'
p113
I1
sS'types'
p114
I3
sS'effective'
p115
I2
sS'ratsiraka'
p116
I2
sS'wins'
p117
I1
sS'attracts'
p118
I1
sS'shipowners'
p119
I1
sS'headquarters'
p120
I6
sS'repatriated'
p121
I1
sS'democratic'
p122
I19
sS'wing'
p123
I1
sS'wind'
p124
I1
sS'hashimoto'
p125
I1
sS'sprawling'
p126
I2
sS'feedback'
p127
I1
sS'said.these'
p128
I1
sS'welcomed'
p129
I9
sS'govern'
p130
I1
sS'shantui'
p131
I1
sS'taiwan.vice'
p132
I1
sS'stockpiles'
p133
I1
sS'459.76'
p134
I2
sS'welcomes'
p135
I2
sS'university.during'
p136
I1
sS'matures'
p137
I5
sS'fit'
p138
I2
sS'rankings'
p139
I1
sS'interaction'
p140
I1
sS'matured'
p141
I5
sS'easier'
p142
I1
sS'statement.both'
p143
I1
sS'commemorate'
p144
I1
sS'township'
p145
I1
sS'silver'
p146
I2
sS'rumour'
p147
I1
sS'represents'
p148
I1
sS'130,000'
p149
I1
sS'debut'
p150
I2
sS'cftc'
p151
I5
sS'armoured'
p152
I1
sS'60-80aluminium'
p153
I1
sS'asked.formosa'
p154
I1
sS'interfering'
p155
I5
sS'queued'
p156
I2
sS'preceded'
p157
I1
sS'financial'
p158
I33
sS'series'
p159
I9
sS'250,000'
p160
I3
sS'china.lee'
p161
I1
sS'391'
p162
I1
sS'currencies'
p163
I1
sS'lionda'
p164
I3
sS'message'
p165
I5
sS'stabilised'
p166
I1
sS'17,000-bpd'
p167
I1
sS'won'
p168
I12
sS'tianjin'
p169
I8
sS'said.britains'
p170
I1
sS'waive'
p171
I2
sS'smr'
p172
I1
sS'reversion'
p173
I4
sS'encourage'
p174
I1
sS'ra'
p175
I1
sS'1950-53'
p176
I2
sS'xu'
p177
I3
sS'smc'
p178
I1
sS'foundation'
p179
I1
sS'assured'
p180
I5
sS'threatened'
p181
I3
sS'mindedly'
p182
I1
sS'corrects'
p183
I1
sS'3.228'
p184
I1
sS'estimate'
p185
I1
sS'universally'
p186
I1
sS'shipper'
p187
I1
sS'flag.in'
p188
I1
sS'ministries'
p189
I1
sS'shipped'
p190
I1
sS'leapt'
p191
I1
sS'kingdom'
p192
I1
sS'tuesday.personal'
p193
I1
sS'clothes'
p194
I1
sS'caught'
p195
I2
sS'ardour'
p196
I1
sS'channels'
p197
I3
sS'175'
p198
I1
sS'174'
p199
I3
sS'171'
p200
I7
sS'170'
p201
I3
sS'xia'
p202
I1
sS'service'
p203
I20
sS'needed'
p204
I6
sS'listed'
p205
I33
sS'said.siazon'
p206
I1
sS'euro'
p207
I1
sS'bitter'
p208
I3
sS'ranging'
p209
I2
sS'8610'
p210
I33
sS'collapse'
p211
I6
sS'geneva'
p212
I6
sS'1.29'
p213
I2
sS'defaulted'
p214
I1
sS'said.li'
p215
I1
sS'time.with'
p216
I1
sS'positively'
p217
I1
sS'showed'
p218
I7
sS'23,350'
p219
I1
sS'ewe'
p220
I1
sS'tree'
p221
I1
sS'rusty'
p222
I1
sS'nations'
p223
I27
sS'regulator'
p224
I1
sS'pneumonia'
p225
I1
sS'idle'
p226
I1
sS'16,250'
p227
I1
sS'willingness'
p228
I1
sS'boston'
p229
I3
sS'hours.chang'
p230
I1
sS'dozen'
p231
I3
sS'airola'
p232
I3
sS'affairs'
p233
I27
sS'162.49'
p234
I1
sS'23,530'
p235
I1
sS'person'
p236
I2
sS'2.70'
p237
I2
sS'responsible'
p238
I2
sS'power.officials'
p239
I1
sS'2.76'
p240
I3
sS'toothed'
p241
I1
sS'doors'
p242
I1
sS'sovereignty.taiwan'
p243
I1
sS'shipments'
p244
I2
sS'yangcheng'
p245
I1
sS'5.94'
p246
I1
sS'transactions'
p247
I4
sS'wells'
p248
I3
sS'mouth'
p249
I6
sS'letter'
p250
I9
sS'conceded'
p251
I2
sS'160-point'
p252
I1
sS'8.75'
p253
I2
sS'morality'
p254
I1
sS'clearance'
p255
I2
sS'professor'
p256
I8
sS'camp'
p257
I3
sS'tech'
p258
I2
sS'lpg'
p259
I2
sS'2845-0636'
p260
I2
sS'confederation'
p261
I1
sS'saying'
p262
I46
sS'bomb'
p263
I3
sS'insects'
p264
I1
sS'meetings'
p265
I5
sS'years.chiu'
p266
I1
sS'customs.mainland'
p267
I1
sS'report.yangming'
p268
I1
sS'23,820'
p269
I1
sS'participate'
p270
I2
sS'hungary'
p271
I1
sS'touches'
p272
I2
sS'busy'
p273
I1
sS'lube'
p274
I1
sS'rick'
p275
I1
sS'rich'
p276
I12
sS'rice'
p277
I4
sS'1.21'
p278
I1
sS'altogether'
p279
I1
sS'tips'
p280
I1
sS'volatility'
p281
I2
sS'xinjiang'
p282
I1
sS'release'
p283
I5
sS'respond'
p284
I3
sS'leasing'
p285
I1
sS'disaster'
p286
I3
sS'fair'
p287
I3
sS'sensitivity'
p288
I1
sS'shoujia'
p289
I1
sS'result'
p290
I7
sS'party.beixing'
p291
I1
sS'fail'
p292
I1
sS'reporters.asked'
p293
I1
sS'best'
p294
I8
sS'report.the'
p295
I1
sS'necessary.whether'
p296
I1
sS'sedans'
p297
I1
sS'oceania'
p298
I1
sS'lots'
p299
I13
sS'rings'
p300
I1
sS'solicitude'
p301
I1
sS'droves'
p302
I1
sS'said.under'
p303
I1
sS'score'
p304
I1
sS'said.trading'
p305
I1
sS'preserve'
p306
I2
sS'discipline'
p307
I2
sS'extend'
p308
I1
sS'nature'
p309
I1
sS'side.under'
p310
I1
sS'extent'
p311
I3
sS'defiance'
p312
I3
sS'downgrade'
p313
I2
sS'debt'
p314
I38
sS'council.beijing'
p315
I1
sS'london.china'
p316
I1
sS'accident'
p317
I2
sS'country'
p318
I34
sS'demanded'
p319
I5
sS'planned'
p320
I15
sS'himalayan'
p321
I2
sS'argue'
p322
I1
sS'asked'
p323
I16
sS'blending'
p324
I3
sS'250'
p325
I2
sS'3.87'
p326
I2
sS'3.84'
p327
I1
sS'holdings'
p328
I7
sS'criticised'
p329
I6
sS'80.24'
p330
I1
sS'year.annual'
p331
I1
sS'stadium'
p332
I2
sS'then.some'
p333
I1
sS'lanzhou'
p334
I1
sS'operations.chiwan'
p335
I1
sS'life'
p336
I14
sS'200-300'
p337
I1
sS'eastern'
p338
I7
sS'worker'
p339
I2
sS'relevance'
p340
I1
sS'chile'
p341
I1
sS'doubts'
p342
I1
sS'worked'
p343
I4
sS'commerce'
p344
I2
sS'contemplated'
p345
I1
sS'administrative'
p346
I14
sS'organisers'
p347
I1
sS'haiphong'
p348
I2
sS'levies'
p349
I1
sS'played'
p350
I4
sS'0.070'
p351
I2
sS'player'
p352
I1
sS'points.merrill'
p353
I1
sS'1.288'
p354
I1
sS'campaigning'
p355
I2
sS'information.since'
p356
I1
sS'trusted'
p357
I1
sS'rapprochement'
p358
I6
sS'memorial'
p359
I2
sS'things'
p360
I5
sS'35.88'
p361
I1
sS'split'
p362
I18
sS'1.restaurants'
p363
I1
sS'year.tung'
p364
I2
sS'rebound'
p365
I8
sS'european'
p366
I15
sS'fairly'
p367
I3
sS'surveying'
p368
I1
sS'josef'
p369
I1
sS'displace'
p370
I1
sS'slovenia'
p371
I1
sS'ownership'
p372
I1
sS'department.china'
p373
I1
sS'tung'
p374
I22
sS'registering'
p375
I2
sS'echoed'
p376
I3
sS'academic'
p377
I4
sS'corporate'
p378
I3
sS'opinions'
p379
I1
sS'distribute'
p380
I7
sS'sleepy'
p381
I1
sS'financially'
p382
I1
sS'siazon'
p383
I8
sS'behalf.when'
p384
I1
sS'khabarovsk'
p385
I2
sS'previous'
p386
I20
sS'hai'
p387
I2
sS'enters'
p388
I1
sS'han'
p389
I3
sS'ease'
p390
I8
sS'espouses'
p391
I1
sS'tianxing'
p392
I2
sS'sunpage'
p393
I1
sS'86-21'
p394
I23
sS'democrats.house'
p395
I1
sS'easy'
p396
I2
sS'east'
p397
I18
sS'20-25'
p398
I6
sS'6532-1921'
p399
I14
sS'elevation'
p400
I1
sS'municipal'
p401
I1
sS'village.the'
p402
I1
sS'possible'
p403
I19
sS'possibly'
p404
I3
sS'firmed'
p405
I1
sS'poses'
p406
I3
sS'occurring'
p407
I1
sS'desire'
p408
I3
sS'beijing.washington'
p409
I1
sS'swelled'
p410
I1
sS'obvious'
p411
I2
sS'98.00'
p412
I1
sS'remind'
p413
I1
sS'affluence.wang'
p414
I1
sS'steps'
p415
I1
sS'8.2963.the'
p416
I1
sS'wujing'
p417
I1
sS'777-200'
p418
I2
sS'beneficial'
p419
I1
sS'right'
p420
I25
sS'old'
p421
I13
sS'people'
p422
I95
sS'czech'
p423
I4
sS'291.05'
p424
I1
sS'crown'
p425
I4
sS'brokerage.the'
p426
I1
sS'consultants'
p427
I1
sS'said.ticket'
p428
I1
sS'8520'
p429
I1
sS'25-40'
p430
I1
sS'million.on'
p431
I1
sS'creative'
p432
I1
sS'contributing'
p433
I1
sS'continue'
p434
I32
sS'fob'
p435
I1
sS'fok'
p436
I1
sS'14.64'
p437
I1
sS'annan'
p438
I1
sS'6,000'
p439
I1
sS'defensive'
p440
I5
sS'losing'
p441
I11
sS'brokerage'
p442
I4
sS'manufacturing'
p443
I2
sS'emits'
p444
I1
sS'meetings.he'
p445
I1
sS'reuters.another'
p446
I2
sS'filipino'
p447
I5
sS'dollars'
p448
I3
sS'citizens'
p449
I3
sS'7.033'
p450
I2
sS'slightly'
p451
I19
sS'meddle'
p452
I2
sS'match'
p453
I3
sS'raised'
p454
I4
sS'statements'
p455
I1
sS'facility'
p456
I2
sS'yen'
p457
I10
sS'son'
p458
I2
sS'undermining'
p459
I1
sS'beings'
p460
I1
sS'raises'
p461
I1
sS'reducing'
p462
I2
sS'defendants'
p463
I1
sS'unambiguous'
p464
I1
sS'rivals.what'
p465
I1
sS'foothold'
p466
I1
sS'waits'
p467
I1
sS'support'
p468
I45
sS'association.south'
p469
I1
sS'joseph'
p470
I1
sS'www.bizinfo.reuters.com'
p471
I1
sS'resulted'
p472
I4
sS'unquoted'
p473
I1
sS'jang'
p474
I3
sS'launching'
p475
I4
sS'happy'
p476
I2
sS'alloys'
p477
I1
sS'offer'
p478
I19
sS'inititive.in'
p479
I1
sS'11.377'
p480
I1
sS'crudes.japanese'
p481
I1
sS'underdeveloped'
p482
I2
sS'devices'
p483
I2
sS'vanguard'
p484
I1
sS'pesos'
p485
I2
sS'accelerate'
p486
I2
sS'passenger'
p487
I4
sS'later'
p488
I13
sS'liberal'
p489
I2
sS'sight'
p490
I2
sS'156'
p491
I1
sS'tournament'
p492
I4
sS'somebody'
p493
I1
sS'minas'
p494
I1
sS'qiu'
p495
I3
sS'accounting'
p496
I24
sS'ericsson'
p497
I5
sS'dealer'
p498
I13
sS'negotiations'
p499
I13
sS'supporters'
p500
I2
sS'protested'
p501
I3
sS'daily.the'
p502
I1
sS'eventual'
p503
I2
sS'actor'
p504
I2
sS'flood'
p505
I3
sS'serous'
p506
I1
sS'role'
p507
I5
sS'roll'
p508
I2
sS'trafficking'
p509
I1
sS'intend'
p510
I1
sS'models'
p511
I3
sS'invested'
p512
I7
sS'1949.chiang'
p513
I1
sS'23,330'
p514
I1
sS'tuesday.shanghai'
p515
I1
sS'domingo'
p516
I4
sS'glass'
p517
I3
sS'time'
p518
I43
sS'push'
p519
I8
sS'conferred'
p520
I1
sS'banners'
p521
I1
sS'issue.washington'
p522
I1
sS'8.2905'
p523
I1
sS'chain'
p524
I6
sS'reporters.hong'
p525
I1
sS'said.tung'
p526
I1
sS'chair'
p527
I1
sS'8864'
p528
I1
sS'grounds.south'
p529
I1
sS'bicycles'
p530
I1
sS'circumstances'
p531
I2
sS'stabilise'
p532
I1
sS'3,150'
p533
I1
sS'cheap'
p534
I1
sS'consolidation'
p535
I5
sS'debt.qiu'
p536
I1
sS'choice'
p537
I7
sS'mobilise'
p538
I1
sS'16,900'
p539
I2
sS'6279-7004'
p540
I17
sS'launchers'
p541
I1
sS'exact'
p542
I1
sS'minute'
p543
I1
sS'hainiu'
p544
I1
sS'reining'
p545
I1
sS'solves'
p546
I2
sS'leave'
p547
I15
sS'settle'
p548
I4
sS'subway'
p549
I1
sS'team'
p550
I5
sS'speculation'
p551
I2
sS'prevent'
p552
I7
sS'spiritual'
p553
I3
sS'30-40'
p554
I1
sS'zhuhai'
p555
I1
sS'sign'
p556
I6
sS'83.00'
p557
I1
sS'so.u.s'
p558
I1
sS'16,700.combined'
p559
I1
sS'11.611'
p560
I2
sS'china.esso'
p561
I1
sS'current'
p562
I33
sS'remembered'
p563
I1
sS'falling'
p564
I11
sS'trot'
p565
I1
sS'boost'
p566
I11
sS'drafted'
p567
I2
sS'guangzhou'
p568
I9
sS'understanding'
p569
I1
sS'contemplate'
p570
I1
sS'address'
p571
I2
sS'june.however'
p572
I1
sS'ratio'
p573
I3
sS'passengers'
p574
I4
sS'redemption'
p575
I8
sS'dusty'
p576
I1
sS'funded'
p577
I10
sS'queue'
p578
I2
sS'brazilian'
p579
I1
sS'fumio'
p580
I1
sS'streets.chongqing'
p581
I1
sS'influx'
p582
I4
sS'49.00'
p583
I2
sS'12.5bp'
p584
I1
sS'prefer'
p585
I2
sS'bloody'
p586
I3
sS'fake'
p587
I3
sS'saying.the'
p588
I7
sS'12.87'
p589
I1
sS'said.meanwhile'
p590
I1
sS'opposes'
p591
I3
sS'working'
p592
I17
sS'positive'
p593
I6
sS"it'll"
p594
I1
sS'tightly'
p595
I1
sS'cherished'
p596
I1
sS'explicitly'
p597
I3
sS'opposed'
p598
I3
sS'body.the'
p599
I1
sS'good.active'
p600
I1
sS'electrolytic'
p601
I1
sS'loving'
p602
I1
sS'afford'
p603
I2
sS'apparent'
p604
I3
sS'refrain'
p605
I4
sS'approving'
p606
I1
sS'marbled'
p607
I1
sS'easiest'
p608
I1
sS'behalf'
p609
I6
sS'minister.china'
p610
I1
sS'rebounding'
p611
I2
sS'valued'
p612
I1
sS'1989.the'
p613
I2
sS'originally'
p614
I2
sS'believes'
p615
I1
sS'zhao'
p616
I4
sS'unaffected.foreign'
p617
I1
sS'albright'
p618
I1
sS'believed'
p619
I10
sS'14,000'
p620
I1
sS'allowed'
p621
I24
sS'zhichao'
p622
I1
sS'230'
p623
I1
sS'monitoring'
p624
I2
sS'winter'
p625
I7
sS'divided'
p626
I2
sS'80.00'
p627
I2
sS'divides'
p628
I1
sS'hog'
p629
I5
sS'c&f'
p630
I2
sS'qiu.but'
p631
I2
sS'spot'
p632
I22
sS'applications'
p633
I7
sS'26,840'
p634
I2
sS'date'
p635
I8
sS'data'
p636
I11
sS'natural'
p637
I4
sS'varieties'
p638
I4
sS'sectors'
p639
I2
sS'down.the'
p640
I1
sS'15bppraecipium'
p641
I1
sS'st'
p642
I1
sS'castings'
p643
I2
sS'zhangjiang'
p644
I1
sS'pulled'
p645
I1
sS'6.45'
p646
I1
sS'said.construction'
p647
I1
sS'unacceptable'
p648
I4
sS'years'
p649
I86
sS'course'
p650
I5
sS'union.he'
p651
I1
sS'2,892'
p652
I1
sS'avid'
p653
I1
sS'jie'
p654
I2
sS'overhaul'
p655
I2
sS'avic'
p656
I1
sS'internationally'
p657
I1
sS'jin'
p658
I2
sS'low-50s.chase'
p659
I1
sS'troubles'
p660
I1
sS'12.seoul'
p661
I1
sS'attraction'
p662
I2
sS'hubbub'
p663
I1
sS'suspicion'
p664
I1
sS'spotlighting'
p665
I1
sS'suspension'
p666
I1
sS'troubled'
p667
I2
sS'decades'
p668
I5
sS'30.nearly'
p669
I1
sS'nation'
p670
I14
sS'drilling'
p671
I15
sS'subscribers'
p672
I3
sS'travel.hong'
p673
I1
sS'arriving'
p674
I1
sS'facility.cibc'
p675
I1
sS'runners'
p676
I1
sS'taishan'
p677
I1
sS'24.5'
p678
I1
sS'revert'
p679
I1
sS'establishing'
p680
I1
sS'amnesty'
p681
I5
sS'quarter'
p682
I6
sS'shareholder'
p683
I3
sS'stalling'
p684
I1
sS'square'
p685
I4
sS'178.7'
p686
I1
sS'revised'
p687
I2
sS'breakthrough'
p688
I3
sS'entering'
p689
I2
sS'sexually'
p690
I1
sS'disasters'
p691
I1
sS'commissar'
p692
I3
sS'contracts.a'
p693
I2
sS'abide'
p694
I4
sS'seriously'
p695
I1
sS'investigation'
p696
I1
sS'7-8.the'
p697
I1
sS'office.the'
p698
I1
sS'internet'
p699
I4
sS'formula'
p700
I1
sS'lubricating'
p701
I2
sS'curbs'
p702
I1
sS'million'
p703
I295
sS'seventh'
p704
I2
sS'governing'
p705
I4
sS'quite'
p706
I6
sS'lucrative'
p707
I3
sS'plea'
p708
I2
sS'remainder'
p709
I2
sS'training'
p710
I1
sS'17.23'
p711
I1
sS'wrong'
p712
I1
sS'ostrich'
p713
I2
sS'stastistical'
p714
I1
sS'massive'
p715
I2
sS'routes'
p716
I1
sS'clause'
p717
I1
sS'ong'
p718
I1
sS'vote'
p719
I5
sS'open'
p720
I18
sS'city'
p721
I29
sS'wrath'
p722
I1
sS'bite'
p723
I1
sS'bookrunner.bayerische'
p724
I1
sS'2'
p725
I21
sS'lows.traders'
p726
I1
sS'said.hanoi'
p727
I1
sS'4,200'
p728
I1
sS'excellent'
p729
I1
sS'14.88'
p730
I1
sS'surges'
p731
I1
sS'boomtown'
p732
I2
sS'ridiculous'
p733
I1
sS'yinchuan'
p734
I1
sS'attempt'
p735
I3
sS'surged'
p736
I4
sS'rmb'
p737
I1
sS'underweight'
p738
I4
sS'depressed'
p739
I2
sS'rival'
p740
I22
sS'458.38'
p741
I2
sS'future'
p742
I40
sS'russia'
p743
I4
sS'personnel.the'
p744
I1
sS'prospect'
p745
I3
sS'sai'
p746
I5
sS'san'
p747
I3
sS'fanfare.apart'
p748
I1
sS'problems.hefty'
p749
I1
sS'revolt'
p750
I2
sS'turned'
p751
I3
sS'2,899'
p752
I1
sS'complete.hong'
p753
I1
sS'say'
p754
I26
sS'buried'
p755
I1
sS'sar'
p756
I14
sS'saw'
p757
I10
sS'china.at'
p758
I1
sS'sat'
p759
I1
sS'governments.the'
p760
I1
sS'unsuitable'
p761
I1
sS'japan.gucci'
p762
I1
sS'downwards'
p763
I1
sS'aside'
p764
I1
sS'note'
p765
I12
sS'intends'
p766
I1
sS'zou'
p767
I2
sS'destroy'
p768
I1
sS'coincide'
p769
I1
sS'concern'
p770
I8
sS'pagers'
p771
I2
sS'46.4'
p772
I1
sS'46.5'
p773
I1
sS'73.276'
p774
I2
sS'remarks'
p775
I6
sS'average'
p776
I20
sS'managers.the'
p777
I1
sS'drive'
p778
I2
sS'680'
p779
I1
sS'ways'
p780
I3
sS'refining'
p781
I7
sS'axe'
p782
I1
sS'chiang'
p783
I11
sS'link'
p784
I6
sS'30,000'
p785
I6
sS'liquidity'
p786
I7
sS'laws'
p787
I8
sS'operations'
p788
I10
sS'cobra'
p789
I4
sS'surplus'
p790
I7
sS'kuen'
p791
I11
sS'island.taiwan'
p792
I1
sS'merit'
p793
I1
sS'bright'
p794
I2
sS'aggressive'
p795
I3
sS'fibre'
p796
I2
sS'slow'
p797
I10
sS'annually.the'
p798
I1
sS'liberation'
p799
I7
sS'going'
p800
I15
sS'equipped'
p801
I1
sS'congressional'
p802
I6
sS'dispute'
p803
I17
sS'assistant'
p804
I1
sS'condemning'
p805
I4
sS'bovespa'
p806
I1
sS'freezing'
p807
I1
sS'section.ting'
p808
I1
sS'countered'
p809
I2
sS'awaiting'
p810
I3
sS'prime'
p811
I10
sS'resource'
p812
I5
sS'keenly'
p813
I1
sS'years.china'
p814
I2
sS'redeemed'
p815
I1
sS'46-8-700'
p816
I1
sS'worried'
p817
I6
sS'roger'
p818
I1
sS'exports.zinc'
p819
I1
sS'worries'
p820
I4
sS'vision'
p821
I1
sS'8.2960'
p822
I2
sS'8.2962'
p823
I3
sS'8.2965'
p824
I2
sS'8.2967'
p825
I1
sS'8.2969'
p826
I1
sS'8.2968'
p827
I4
sS'yanshan'
p828
I1
sS'responsive'
p829
I1
sS'surgery'
p830
I1
sS'unlikely.mainland'
p831
I1
sS'7.657'
p832
I2
sS'ostensibly'
p833
I1
sS'jumped'
p834
I9
sS'colony.lisbon'
p835
I1
sS'representatives'
p836
I18
sS'visits.beijing'
p837
I1
sS'vaccines'
p838
I3
sS'134.67'
p839
I1
sS'bureau'
p840
I18
sS'affecting'
p841
I1
sS'co.on'
p842
I1
sS'jobs'
p843
I5
sS'continuously'
p844
I1
sS'concentrate'
p845
I2
sS'spare'
p846
I1
sS'jets'
p847
I6
sS'filipinas'
p848
I1
sS'undermine'
p849
I5
sS'residence'
p850
I1
sS's'
p851
I75
sS'workplace'
p852
I1
sS'10.8'
p853
I2
sS'manh'
p854
I4
sS"can't"
p855
I3
sS'yearly'
p856
I1
sS'baden'
p857
I1
sS'anti'
p858
I9
sS'considers'
p859
I4
sS'mounting'
p860
I2
sS'locally'
p861
I1
sS'airlines'
p862
I13
sS'breath'
p863
I2
sS'combined'
p864
I5
sS'1.siazon'
p865
I1
sS'wants'
p866
I13
sS'enable'
p867
I3
sS'formed'
p868
I4
sS'movies'
p869
I1
sS'observe'
p870
I1
sS'polls'
p871
I2
sS'prominence'
p872
I1
sS'single'
p873
I5
sS'policies'
p874
I10
sS'newspaper'
p875
I66
sS'situation'
p876
I13
sS'spotlight'
p877
I2
sS'aluminium'
p878
I7
sS'24.28'
p879
I1
sS'chau'
p880
I2
sS'engaged'
p881
I1
sS'ctry'
p882
I1
sS'billiton'
p883
I1
sS'13.9'
p884
I1
sS'13.5'
p885
I1
sS'technology'
p886
I19
sS'13.3'
p887
I1
sS'13.1'
p888
I1
sS'compatriots'
p889
I4
sS'6.7600'
p890
I2
sS'month.hwang'
p891
I1
sS'missiles'
p892
I20
sS'scientifically'
p893
I1
sS'extravaganza.football'
p894
I1
sS'underestimate'
p895
I1
sS'310.54'
p896
I1
sS'unemployed'
p897
I2
sS'breakdown'
p898
I1
sS'edged'
p899
I7
sS'hideaway'
p900
I2
sS'singapore'
p901
I48
sS'boosted'
p902
I2
sS'reverts'
p903
I12
sS'wanguo'
p904
I6
sS'hand.gingrich'
p905
I1
sS'gingrich'
p906
I66
sS'politicisation'
p907
I1
sS'60,000'
p908
I1
sS'costs'
p909
I3
sS'trains'
p910
I8
sS'gdp'
p911
I2
sS'summer'
p912
I3
sS'said.chiwan'
p913
I1
sS'muoi'
p914
I3
sS'correction.in'
p915
I1
sS'rest'
p916
I6
sS'saying.beijing'
p917
I2
sS'weekly'
p918
I2
sS'preventing'
p919
I1
sS'13,271'
p920
I1
sS'funds.changhong'
p921
I1
sS'1,321.663'
p922
I2
sS'briefing.the'
p923
I1
sS'market.but'
p924
I1
sS'splittist'
p925
I1
sS'0300'
p926
I1
sS'defection'
p927
I2
sS'years.tam'
p928
I1
sS'aspects'
p929
I3
sS'sums'
p930
I1
sS'period'
p931
I21
sS'necessary.a'
p932
I1
sS'traffic'
p933
I3
sS'preference'
p934
I1
sS'vacuum'
p935
I2
sS'world'
p936
I43
sS'10.59'
p937
I1
sS'reliable.some'
p938
I1
sS'dare'
p939
I1
sS'meat'
p940
I1
sS'satisfaction'
p941
I1
sS'intel'
p942
I1
sS'souvenirs'
p943
I1
sS'11.51'
p944
I1
sS'clay'
p945
I1
sS'12.50'
p946
I1
sS'100,000-strong'
p947
I1
sS'12.080'
p948
I2
sS'wijaya'
p949
I1
sS'tube'
p950
I2
sS'13.55'
p951
I1
sS'china.officials'
p952
I1
sS'1995.the'
p953
I1
sS'politicians.during'
p954
I1
sS'transformers'
p955
I1
sS'scientific'
p956
I3
sS'power'
p957
I27
sS'percent.in'
p958
I2
sS'sprung'
p959
I1
sS'years.roadshows'
p960
I1
sS'leadership'
p961
I3
sS'ratios'
p962
I5
sS'thailand'
p963
I16
sS'luxurious'
p964
I1
sS'debt.the'
p965
I1
sS'saying.many'
p966
I1
sS'package'
p967
I1
sS'industry'
p968
I60
sS'unseasonable'
p969
I1
sS'privilages'
p970
I1
sS'act'
p971
I6
sS'johnston'
p972
I1
sS'bond'
p973
I19
sS'650,000'
p974
I1
sS'image'
p975
I1
sS'homeland'
p976
I2
sS'lively'
p977
I1
sS'parties'
p978
I4
sS'audina'
p979
I1
sS'technically'
p980
I1
sS'legacy'
p981
I1
sS'chungking.a'
p982
I1
sS'sides'
p983
I23
sS'sealed'
p984
I1
sS'garment'
p985
I1
sS'said.wu'
p986
I1
sS'interfaith'
p987
I1
sS'complete'
p988
I1
sS'509'
p989
I1
sS'elimination'
p990
I1
sS'technologies'
p991
I2
sS'wednesday.li'
p992
I1
sS'featuring'
p993
I2
sS'buying'
p994
I29
sS'affairs.u.s'
p995
I2
sS"they're"
p996
I2
sS'rush'
p997
I2
sS'october'
p998
I5
sS'purchase.local'
p999
I1
sS'monopoly'
p1000
I1
sS'31.5'
p1001
I1
sS'abuses'
p1002
I3
sS'politically'
p1003
I8
sS'agree'
p1004
I3
sS'regimes'
p1005
I1
sS'detailed'
p1006
I3
sS'gone'
p1007
I2
sS'ac'
p1008
I1
sS'gong'
p1009
I1
sS'citizenship'
p1010
I2
sS'ag'
p1011
I2
sS'certain'
p1012
I7
sS'al'
p1013
I4
sS'watches'
p1014
I1
sS'carved'
p1015
I1
sS'walks'
p1016
I1
sS'taiwan.the'
p1017
I2
sS'cream'
p1018
I1
sS'mandated'
p1019
I2
sS'abolish'
p1020
I1
sS'tight'
p1021
I1
sS'beverage'
p1022
I2
sS'capacity.ipai'
p1023
I1
sS'clinton.sponsors'
p1024
I1
sS'congress'
p1025
I13
sS'35,000'
p1026
I3
sS'faxed'
p1027
I2
sS'imminently'
p1028
I1
sS'yuan.the'
p1029
I1
sS'144a'
p1030
I1
sS'infanticide'
p1031
I1
sS'thorn'
p1032
I1
sS'nagano'
p1033
I1
sS'mass'
p1034
I1
sS'nelson'
p1035
I2
sS'original'
p1036
I2
sS'consider'
p1037
I6
sS'caused'
p1038
I10
sS'16,750.combined'
p1039
I1
sS'code'
p1040
I1
sS'restated'
p1041
I2
sS'causes'
p1042
I2
sS'hunting'
p1043
I1
sS'tv'
p1044
I1
sS'qian'
p1045
I2
sS'taik'
p1046
I1
sS'said.beijing'
p1047
I6
sS'30.however'
p1048
I1
sS'ta'
p1049
I1
sS'ghana'
p1050
I1
sS'paying'
p1051
I2
sS'kong.the'
p1052
I2
sS'returned'
p1053
I2
sS'puzzled'
p1054
I1
sS'floated'
p1055
I1
sS'candid'
p1056
I1
sS'revolving'
p1057
I1
sS'condition'
p1058
I1
sS'cable'
p1059
I2
sS'accompanying'
p1060
I2
sS'province.gingrich'
p1061
I1
sS'joined'
p1062
I4
sS'large'
p1063
I32
sS'scrapping'
p1064
I4
sS'adjust'
p1065
I4
sS'harry'
p1066
I1
sS'small'
p1067
I20
sS'99.871'
p1068
I3
sS'shipping.about'
p1069
I1
sS'192'
p1070
I1
sS'past'
p1071
I46
sS'burnish'
p1072
I1
sS'displays'
p1073
I1
sS'mierlo'
p1074
I4
sS'china.beijing'
p1075
I1
sS'investment'
p1076
I59
sS'eradication'
p1077
I1
sS'bridgestone'
p1078
I1
sS'dictatorship.in'
p1079
I1
sS'trees.patriotism'
p1080
I1
sS'scientists'
p1081
I1
sS'microchip'
p1082
I1
sS'contrast'
p1083
I1
sS'5.086'
p1084
I1
sS'hebei'
p1085
I2
sS'chunyun'
p1086
I2
sS'wuhan'
p1087
I8
sS'november'
p1088
I11
sS'legend'
p1089
I6
sS'experience'
p1090
I1
sS'prior'
p1091
I1
sS'ramos'
p1092
I3
sS'30-55aluminium'
p1093
I1
sS'social'
p1094
I11
sS'action'
p1095
I5
sS'tibetans'
p1096
I1
sS'picc'
p1097
I9
sS'followed'
p1098
I5
sS'116.29'
p1099
I2
sS'marriages'
p1100
I3
sS'young'
p1101
I3
sS'vip'
p1102
I1
sS'coercion'
p1103
I1
sS'said.analysts'
p1104
I1
sS'gujral'
p1105
I4
sS'852'
p1106
I13
sS'petroleum'
p1107
I10
sS'banks.state'
p1108
I1
sS'pearl'
p1109
I2
sS'6'
p1110
I8
sS'1.major'
p1111
I1
sS'door'
p1112
I1
sS'company'
p1113
I101
sS'ploughshares'
p1114
I1
sS'attack.however'
p1115
I1
sS'tested'
p1116
I2
sS'4,900'
p1117
I1
sS'democratisation'
p1118
I1
sS'couples'
p1119
I2
sS'keeping'
p1120
I4
sS'science'
p1121
I4
sS'industrialists'
p1122
I1
sS'installing'
p1123
I1
sS'iss'
p1124
I1
sS'resources'
p1125
I2
sS'morgan'
p1126
I2
sS'learn'
p1127
I1
sS'taiwan.he'
p1128
I3
sS'wells.in'
p1129
I1
sS'stated'
p1130
I10
sS'lives'
p1131
I3
sS'suggestions'
p1132
I1
sS'accept'
p1133
I6
sS'states'
p1134
I66
sS'sense'
p1135
I3
sS'schoolgirl'
p1136
I1
sS'bonded'
p1137
I3
sS'information'
p1138
I6
sS'respective'
p1139
I1
sS'imminent'
p1140
I1
sS'dismissed'
p1141
I3
sS'loser.wafangdian'
p1142
I2
sS'bated'
p1143
I1
sS'earnings'
p1144
I19
sS'said.amid'
p1145
I1
sS'plant'
p1146
I17
sS'seoul'
p1147
I9
sS'47.63'
p1148
I1
sS'disgraced'
p1149
I1
sS'economy.it'
p1150
I2
sS'plane'
p1151
I2
sS'director'
p1152
I30
sS'waver'
p1153
I1
sS'waves'
p1154
I1
sS'lama.organisers'
p1155
I1
sS'appealed'
p1156
I1
sS'authentic'
p1157
I1
sS'flutter'
p1158
I1
sS'refuse'
p1159
I1
sS'jiang'
p1160
I16
sS'wanted.he'
p1161
I1
sS'island.beijing'
p1162
I1
sS'fundamental'
p1163
I3
sS'thursday.kao'
p1164
I1
sS'3,440'
p1165
I1
sS'replied'
p1166
I1
sS'passages'
p1167
I1
sS'mexican'
p1168
I3
sS'radios'
p1169
I1
sS'furthering'
p1170
I1
sS'holders.lu'
p1171
I1
sS'trade'
p1172
I51
sS'attitude'
p1173
I6
sS'paper'
p1174
I10
sS'signs'
p1175
I5
sS'itv'
p1176
I1
sS'490'
p1177
I1
sS'roots'
p1178
I1
sS'39.14'
p1179
I1
sS'rapidly'
p1180
I7
sS'gerald'
p1181
I1
sS'xiaoping'
p1182
I3
sS'minerals'
p1183
I1
sS'said.hong'
p1184
I5
sS'do.despite'
p1185
I1
sS'july.thousands'
p1186
I1
sS'travelling'
p1187
I2
sS'ally'
p1188
I4
sS'tentatively'
p1189
I2
sS'year.de'
p1190
I1
sS'friday.changan'
p1191
I1
sS'entire'
p1192
I2
sS'elaborate.china'
p1193
I2
sS'netherlands.havel'
p1194
I1
sS'lmts'
p1195
I1
sS'1,260'
p1196
I1
sS'designation'
p1197
I2
sS'mandarins'
p1198
I1
sS'repayment'
p1199
I1
sS'subic'
p1200
I5
sS'investigators'
p1201
I1
sS'status'
p1202
I17
sS'engendered'
p1203
I1
sS'england'
p1204
I1
sS'reduce'
p1205
I8
sS'slowdown'
p1206
I1
sS'measurement'
p1207
I1
sS'operation'
p1208
I10
sS'really'
p1209
I4
sS'anxious'
p1210
I2
sS'blacks'
p1211
I1
sS'years.britain'
p1212
I1
sS'research'
p1213
I7
sS'ministerial'
p1214
I1
sS'occurs'
p1215
I3
sS'highway'
p1216
I2
sS'beijing.china'
p1217
I2
sS'jiangsu'
p1218
I5
sS'refusal'
p1219
I1
sS'risen'
p1220
I2
sS'sparked'
p1221
I13
sS'cockpit'
p1222
I2
sS'rises'
p1223
I13
sS'reproach'
p1224
I1
sS'driven'
p1225
I6
sS'owners'
p1226
I1
sS'tuesday.total'
p1227
I3
sS'diaspora'
p1228
I1
sS'bumper'
p1229
I1
sS'2,370'
p1230
I2
sS'corrugated'
p1231
I1
sS'major'
p1232
I71
sS'emblazoned'
p1233
I2
sS'there.shen'
p1234
I1
sS'6.03'
p1235
I2
sS'number'
p1236
I21
sS'preservation'
p1237
I1
sS'contended'
p1238
I1
sS'protectionism'
p1239
I1
sS'guess'
p1240
I1
sS'23,460'
p1241
I1
sS'heads'
p1242
I6
sS'leverage'
p1243
I1
sS'threatening'
p1244
I2
sS'amcol'
p1245
I1
sS'erupted'
p1246
I1
sS'protocol'
p1247
I2
sS'jen'
p1248
I1
sS'relies'
p1249
I1
sS'5.99'
p1250
I1
sS'warmly'
p1251
I2
sS'relationship'
p1252
I5
sS'1.594'
p1253
I2
sS'immediate'
p1254
I8
sS'appreciation'
p1255
I1
sS'crop'
p1256
I2
sS'11.049'
p1257
I1
sS'rampant'
p1258
I2
sS'grace'
p1259
I4
sS'3.136'
p1260
I2
sS'friday.low'
p1261
I1
sS'drift'
p1262
I1
sS'k6-mmx'
p1263
I1
sS'determined'
p1264
I2
sS'marriage'
p1265
I4
sS'ningbo'
p1266
I1
sS'0.010'
p1267
I2
sS'0.014'
p1268
I4
sS'added.as'
p1269
I1
sS'session.shenzhen'
p1270
I1
sS'organisations'
p1271
I3
sS'defect'
p1272
I3
sS'point.in'
p1273
I1
sS'luzon'
p1274
I2
sS'45kgsair'
p1275
I1
sS'said.lu'
p1276
I1
sS'sell'
p1277
I10
sS'self'
p1278
I6
sS'reliance'
p1279
I1
sS'milk.but'
p1280
I1
sS'internal'
p1281
I10
sS'play'
p1282
I6
sS'newspaper.the'
p1283
I1
sS'said.a'
p1284
I8
sS'perfomance'
p1285
I1
sS'paperwork.industry'
p1286
I1
sS'singles'
p1287
I1
sS'swiftly'
p1288
I4
sS'jiahua'
p1289
I2
sS'1995.a'
p1290
I1
sS'organization.last'
p1291
I1
sS'plan'
p1292
I17
sS'reports.only'
p1293
I2
sS'apparatus'
p1294
I2
sS'arson'
p1295
I1
sS'seize'
p1296
I1
sS'24.the'
p1297
I1
sS'cover'
p1298
I5
sS'barred'
p1299
I1
sS'bodies'
p1300
I1
sS'barrel'
p1301
I3
sS'bulletin'
p1302
I3
sS'harbin'
p1303
I3
sS'reporters.much'
p1304
I1
sS'monopolise'
p1305
I1
sS'gold'
p1306
I10
sS'defended'
p1307
I2
sS'session'
p1308
I18
sS'275.37'
p1309
I1
sS'freight'
p1310
I1
sS'sulphur'
p1311
I1
sS'impact'
p1312
I10
sS'said.vietnamese'
p1313
I2
sS'failed'
p1314
I11
sS'zhenxian'
p1315
I1
sS'factor'
p1316
I6
sS'giants'
p1317
I1
sS'shanghai.caterpillar'
p1318
I1
sS'dependent'
p1319
I3
sS'banned'
p1320
I9
sS'preparing'
p1321
I13
sS'closely'
p1322
I1
sS'reporters'
p1323
I29
sS'adhered'
p1324
I1
sS'banner'
p1325
I1
sS'ruihong'
p1326
I1
sS'devoured'
p1327
I1
sS'progressive'
p1328
I4
sS'banking'
p1329
I7
sS'prospectus'
p1330
I1
sS'approaching'
p1331
I1
sS'set'
p1332
I41
sS'312'
p1333
I2
sS'activists'
p1334
I2
sS'314'
p1335
I1
sS'seg'
p1336
I3
sS'sea'
p1337
I23
sS'rights.wang'
p1338
I1
sS'institutes'
p1339
I1
sS'project'
p1340
I18
sS'spirits'
p1341
I2
sS'movie'
p1342
I1
sS'currently'
p1343
I18
sS'links.the'
p1344
I1
sS'15th'
p1345
I1
sS'knowing'
p1346
I1
sS'hangzhou'
p1347
I1
sS'premises'
p1348
I1
sS'brewing'
p1349
I2
sS'incident'
p1350
I2
sS'dividend'
p1351
I8
sS'renminbi'
p1352
I3
sS'legislature'
p1353
I18
sS'prospects'
p1354
I4
sS'improved'
p1355
I6
sS'influential'
p1356
I1
sS'1.67'
p1357
I3
sS'connection'
p1358
I1
sS'1.62'
p1359
I1
sS'rose'
p1360
I43
sS'lash'
p1361
I1
sS'let'
p1362
I7
sS'approve'
p1363
I7
sS'guangxi'
p1364
I2
sS'loan'
p1365
I7
sS'northeastern'
p1366
I6
sS'community'
p1367
I10
sS'coincidence'
p1368
I1
sS'agents'
p1369
I1
sS'said.figures'
p1370
I1
sS'indefinite'
p1371
I1
sS'329.75'
p1372
I1
sS'monthly'
p1373
I1
sS'acceptance'
p1374
I1
sS'hitting'
p1375
I8
sS'citations'
p1376
I1
sS'1,400'
p1377
I2
sS'power.he'
p1378
I1
sS'1,321.586'
p1379
I1
sS'firm'
p1380
I43
sS'sweetheart'
p1381
I1
sS'china.van'
p1382
I1
sS'fund'
p1383
I4
sS'fung'
p1384
I1
sS'representative'
p1385
I4
sS'xiong'
p1386
I6
sS'consulate'
p1387
I5
sS'xiaohua'
p1388
I3
sS'handling'
p1389
I3
sS'judicial'
p1390
I1
sS'reliable'
p1391
I4
sS'expanded'
p1392
I1
sS'mln'
p1393
I1
sS'budget'
p1394
I4
sS'technical'
p1395
I23
sS'36.00'
p1396
I1
sS'error'
p1397
I1
sS'guestlist'
p1398
I1
sS'pound'
p1399
I1
sS'wednesday.xue'
p1400
I1
sS'backing'
p1401
I2
sS'motors'
p1402
I1
sS'fleming.local'
p1403
I1
sS'vow'
p1404
I2
sS'renounced'
p1405
I2
sS'cuisine'
p1406
I1
sS'maids'
p1407
I2
sS'3,523.073'
p1408
I2
sS'13,700'
p1409
I2
sS'870'
p1410
I1
sS'read'
p1411
I1
sS'said.based'
p1412
I1
sS'virtually'
p1413
I1
sS'wasteland'
p1414
I1
sS'survey'
p1415
I2
sS'spiralling'
p1416
I2
sS'2.78'
p1417
I1
sS'55.925'
p1418
I1
sS'comprehensive'
p1419
I3
sS'tenor.if'
p1420
I1
sS'alert'
p1421
I2
sS'levels'
p1422
I15
sS'opinion'
p1423
I4
sS'implement'
p1424
I2
sS'recent'
p1425
I29
sS'0.59'
p1426
I2
sS'effective.beijing'
p1427
I1
sS'friday.contracts'
p1428
I1
sS'concrete'
p1429
I2
sS'regulating'
p1430
I1
sS'statement.annual'
p1431
I1
sS'11.184'
p1432
I2
sS'comprise'
p1433
I1
sS'beijing.white'
p1434
I1
sS'named'
p1435
I3
sS'arrests'
p1436
I1
sS'domingos'
p1437
I1
sS'plagued'
p1438
I1
sS'0.50'
p1439
I2
sS'50.6'
p1440
I1
sS'close.the'
p1441
I1
sS'admission'
p1442
I1
sS'recommended'
p1443
I1
sS'signals'
p1444
I6
sS'eager'
p1445
I7
sS'parents'
p1446
I1
sS'location'
p1447
I1
sS'sydney'
p1448
I3
sS'minorities.but'
p1449
I1
sS'communiques'
p1450
I1
sS'surprised'
p1451
I1
sS'indonesian'
p1452
I1
sS'australia'
p1453
I6
sS'demands'
p1454
I2
sS'couple'
p1455
I3
sS'wives'
p1456
I4
sS'suffering'
p1457
I2
sS'quest'
p1458
I1
sS'nanjing'
p1459
I5
sS'emergence'
p1460
I1
sS'projects'
p1461
I9
sS'formal'
p1462
I5
sS'layoffs'
p1463
I4
sS'imposed'
p1464
I6
sS'saying.north'
p1465
I1
sS'communications'
p1466
I10
sS'individuals'
p1467
I4
sS'yields'
p1468
I6
sS'disorder'
p1469
I1
sS'names'
p1470
I1
sS'methods'
p1471
I1
sS'senate'
p1472
I4
sS'spring'
p1473
I6
sS'sovereignty.jiang'
p1474
I1
sS'wednesday.television'
p1475
I1
sS'scandal'
p1476
I2
sS'international.the'
p1477
I1
sS'88.60'
p1478
I1
sS'thursday.south'
p1479
I1
sS'8.2975'
p1480
I1
sS'shall'
p1481
I2
sS'oblivion'
p1482
I1
sS'staple'
p1483
I1
sS'religion'
p1484
I2
sS'ba'
p1485
I3
sS'shuanghe'
p1486
I2
sS'agreement'
p1487
I19
sS'officials.the'
p1488
I1
sS'relating'
p1489
I2
sS'exaggerated'
p1490
I2
sS'snowballed'
p1491
I2
sS'huludao'
p1492
I1
sS'vietnam.foreign'
p1493
I1
sS'repair'
p1494
I1
sS'clinton'
p1495
I19
sS'beijing.gingrich'
p1496
I1
sS'1995.six'
p1497
I1
sS'uncertainties'
p1498
I1
sS'spending'
p1499
I1
sS'submit'
p1500
I3
sS'control.xinhua'
p1501
I1
sS'streets.party'
p1502
I1
sS'years.chinese'
p1503
I1
sS'opens'
p1504
I2
sS'zealand'
p1505
I1
sS'relaxed'
p1506
I1
sS'slump'
p1507
I2
sS'pastor'
p1508
I1
sS'vowing'
p1509
I1
sS'inched'
p1510
I3
sS'atlantic'
p1511
I1
sS'pacific'
p1512
I10
sS'a319s'
p1513
I1
sS'line'
p1514
I16
sS'said.earnings'
p1515
I1
sS'posted'
p1516
I6
sS'37.00'
p1517
I1
sS'cif'
p1518
I1
sS'11.478'
p1519
I2
sS'maturity'
p1520
I3
sS'uk'
p1521
I2
sS'wuhan.sun'
p1522
I1
sS'consumed'
p1523
I1
sS'nationalist'
p1524
I25
sS'reuters.guangdong'
p1525
I1
sS'flocked'
p1526
I1
sS'chan'
p1527
I10
sS'chat'
p1528
I2
sS'nautical'
p1529
I9
sS'419.37'
p1530
I1
sS'35.00'
p1531
I1
sS'950'
p1532
I1
sS'25-30lead'
p1533
I1
sS'occasional'
p1534
I1
sS'hongyuan'
p1535
I1
sS'definitely'
p1536
I3
sS'28.8-33'
p1537
I1
sS'said.traders'
p1538
I4
sS'elements'
p1539
I1
sS'sidek'
p1540
I1
sS'3,417.may'
p1541
I1
sS'310-320indian'
p1542
I1
sS'suppression'
p1543
I1
sS'curtail'
p1544
I1
sS'reinsurance'
p1545
I2
sS'total.the'
p1546
I1
sS'meals'
p1547
I1
sS'liquor.more'
p1548
I1
sS'ago'
p1549
I10
sS'worsened'
p1550
I2
sS'land'
p1551
I7
sS'fighter'
p1552
I4
sS'59,078'
p1553
I1
sS'missiles.a'
p1554
I1
sS'age'
p1555
I1
sS'24,610'
p1556
I2
sS'6.25'
p1557
I1
sS'came'
p1558
I10
sS'fresh'
p1559
I7
sS'having'
p1560
I2
sS'yuan.combined'
p1561
I5
sS'denoms'
p1562
I1
sS'holiday.analysts'
p1563
I1
sS'reuters.the'
p1564
I1
sS'5.17'
p1565
I1
sS'results'
p1566
I44
sS'existing'
p1567
I7
sS'softer'
p1568
I1
sS'legal'
p1569
I3
sS'conditionalities'
p1570
I1
sS'month.le'
p1571
I1
sS'shrugged'
p1572
I1
sS'centers'
p1573
I1
sS'longstanding'
p1574
I1
sS'business.the'
p1575
I1
sS'concerned'
p1576
I12
sS'seng'
p1577
I1
sS'send'
p1578
I6
sS'citing'
p1579
I5
sS'yuan.in'
p1580
I1
sS'sent'
p1581
I17
sS'continues'
p1582
I3
sS'manipulated'
p1583
I1
sS'emigrated'
p1584
I1
sS'24,070'
p1585
I2
sS'continued'
p1586
I10
sS'wipe'
p1587
I2
sS'northwestern'
p1588
I2
sS'shiners'
p1589
I1
sS'press.he'
p1590
I1
sS'experiencing'
p1591
I1
sS'marry'
p1592
I1
sS'dirt.the'
p1593
I1
sS'eve'
p1594
I1
sS'try'
p1595
I6
sS'challenge'
p1596
I3
sS'pledge'
p1597
I6
sS'thursday.yuan'
p1598
I1
sS'products.it'
p1599
I1
sS'video'
p1600
I1
sS'munitions'
p1601
I1
sS'wheat'
p1602
I4
sS'index'
p1603
I69
sS'15,950'
p1604
I1
sS'mainland.taipei'
p1605
I1
sS'directive'
p1606
I1
sS'strikes.china'
p1607
I1
sS'inder'
p1608
I1
sS'50,000-tonne'
p1609
I1
sS'expressed'
p1610
I6
sS'consistently'
p1611
I2
sS'indian'
p1612
I9
sS'business.chinese'
p1613
I1
sS'flowing'
p1614
I3
sS'citic'
p1615
I9
sS'firms'
p1616
I57
sS'proliferation'
p1617
I1
sS'led'
p1618
I8
sS'lee'
p1619
I32
sS'leg'
p1620
I1
sS'90-day'
p1621
I2
sS'delivering'
p1622
I1
sS'fall.winston'
p1623
I1
sS'poverty'
p1624
I4
sS'consideration'
p1625
I2
sS'said.chicago'
p1626
I1
sS'vinegar'
p1627
I1
sS'great'
p1628
I9
sS'cts'
p1629
I1
sS'receive'
p1630
I13
sS'involved'
p1631
I5
sS'casino'
p1632
I1
sS'resulting'
p1633
I3
sS'defeat'
p1634
I2
sS'sensitivity.the'
p1635
I1
sS'residents'
p1636
I11
sS'makes'
p1637
I4
sS'maker'
p1638
I13
sS'1.the'
p1639
I1
sS'telecom'
p1640
I1
sS'337'
p1641
I1
sS'7.53'
p1642
I3
sS'330'
p1643
I3
sS'standards.it'
p1644
I1
sS'ninth'
p1645
I1
sS'17-1/2'
p1646
I1
sS'standing'
p1647
I1
sS'confidence'
p1648
I12
sS'certificate'
p1649
I2
sS'recalling'
p1650
I1
sS'illegal'
p1651
I12
sS'ministers'
p1652
I6
sS'zig'
p1653
I1
sS'doubt'
p1654
I2
sS'doubling'
p1655
I1
sS'laboured'
p1656
I1
sS'41.8'
p1657
I1
sS'gucci'
p1658
I4
sS'27aluminium'
p1659
I1
sS'dealings'
p1660
I5
sS'carrying'
p1661
I5
sS'sharply'
p1662
I23
sS'payrolls'
p1663
I2
sS'customer'
p1664
I1
sS'20-day'
p1665
I1
sS'animals'
p1666
I3
sS'china.siazon'
p1667
I1
sS'clients'
p1668
I5
sS'poul'
p1669
I1
sS'fulfill'
p1670
I1
sS'1.47'
p1671
I2
sS'1.41'
p1672
I1
sS'1.40'
p1673
I2
sS'1.43'
p1674
I3
sS'slid'
p1675
I2
sS'perfecting'
p1676
I1
sS'process'
p1677
I13
sS'lock'
p1678
I2
sS'slim'
p1679
I1
sS'purposes'
p1680
I1
sS'high'
p1681
I63
sS'details.tsann'
p1682
I1
sS'figures.police'
p1683
I1
sS'said.seeds'
p1684
I1
sS'confrontation.as'
p1685
I1
sS'destroying'
p1686
I1
sS'hongkong'
p1687
I2
sS'53-member'
p1688
I2
sS'reuter'
p1689
I3
sS'yukong'
p1690
I3
sS'delay'
p1691
I5
sS'establishment'
p1692
I3
sS'success.he'
p1693
I1
sS'thursday.officials'
p1694
I1
sS'indicating'
p1695
I1
sS'summonses'
p1696
I3
sS'tied'
p1697
I1
sS'ties.gingrich'
p1698
I2
sS'tier'
p1699
I9
sS'ties'
p1700
I43
sS'hawk'
p1701
I8
sS'case.in'
p1702
I1
sS'regains'
p1703
I3
sS'counter'
p1704
I2
sS'commodities'
p1705
I1
sS'allow'
p1706
I15
sS'alloy'
p1707
I2
sS'457.15'
p1708
I2
sS'producer'
p1709
I9
sS'freeing'
p1710
I1
sS'assets.but'
p1711
I1
sS'11.407'
p1712
I2
sS'produced'
p1713
I10
sS'motorcycle'
p1714
I2
sS'said.amd'
p1715
I1
sS'perfect'
p1716
I1
sS'chosen'
p1717
I7
sS'meantime'
p1718
I1
sS'57.48'
p1719
I1
sS'hainan'
p1720
I17
sS'260.27'
p1721
I1
sS'dasheng'
p1722
I4
sS'conformity'
p1723
I1
sS'outlines'
p1724
I3
sS'presidential'
p1725
I11
sS'liberia'
p1726
I1
sS'undertaking'
p1727
I2
sS'0.29'
p1728
I2
sS'merge'
p1729
I1
sS'70,000'
p1730
I2
sS'kph'
p1731
I4
sS'rising'
p1732
I15
sS'strode'
p1733
I1
sS'doing'
p1734
I8
sS'society'
p1735
I4
sS'books'
p1736
I2
sS'agriculture'
p1737
I5
sS'fundamentally'
p1738
I2
sS'overproduction'
p1739
I1
sS'antimissile'
p1740
I1
sS'244.70women'
p1741
I1
sS'highs'
p1742
I3
sS'shut'
p1743
I1
sS'126,500'
p1744
I2
sS'hyundai'
p1745
I1
sS'290,000'
p1746
I1
sS'regulators'
p1747
I1
sS'regulatory'
p1748
I4
sS'bothered'
p1749
I1
sS'mainland'
p1750
I92
sS'flagged'
p1751
I1
sS'length'
p1752
I8
sS'2,879'
p1753
I1
sS'23,880'
p1754
I1
sS'davis'
p1755
I1
sS'hussein'
p1756
I1
sS'scare'
p1757
I1
sS'spilt'
p1758
I2
sS'jurists'
p1759
I1
sS'playstation'
p1760
I1
sS'shenyang'
p1761
I3
sS'owned'
p1762
I17
sS'gatherings'
p1763
I1
sS'mandatory'
p1764
I1
sS'ying'
p1765
I2
sS'buoyed'
p1766
I1
sS'legislative'
p1767
I5
sS'10,670'
p1768
I1
sS'23,620'
p1769
I1
sS'feedgrain'
p1770
I1
sS'los'
p1771
I2
sS'ordering'
p1772
I1
sS'courted'
p1773
I1
sS'3,422.511'
p1774
I2
sS'tongye'
p1775
I1
sS'449,175'
p1776
I1
sS'interests'
p1777
I10
sS'accompany'
p1778
I1
sS'stars'
p1779
I2
sS'qiren'
p1780
I1
sS'boeing'
p1781
I7
sS'chong'
p1782
I1
sS'haven'
p1783
I1
sS'havel'
p1784
I1
sS'steel'
p1785
I24
sS'unexpectedly'
p1786
I1
sS'shares.shenzhen'
p1787
I6
sS'sourcing'
p1788
I1
sS'disband'
p1789
I1
sS'briefing'
p1790
I11
sS'coal.about'
p1791
I1
sS'steep'
p1792
I2
sS'devotion'
p1793
I1
sS'collecting'
p1794
I2
sS'rule.the'
p1795
I2
sS'stopovers'
p1796
I1
sS'942'
p1797
I2
sS'defending'
p1798
I3
sS'9.75'
p1799
I1
sS'9.71'
p1800
I2
sS'viewed'
p1801
I2
sS'prohibits'
p1802
I1
sS'resigned'
p1803
I3
sS'koreas'
p1804
I1
sS'studying'
p1805
I1
sS'mills'
p1806
I5
sS'mechanism'
p1807
I3
sS'approaching.traders'
p1808
I1
sS'chiang.asked'
p1809
I1
sS'korean'
p1810
I21
sS'1980s.communist'
p1811
I1
sS'accuracy'
p1812
I9
sS'worldwide'
p1813
I3
sS'10.34'
p1814
I1
sS'freestanding'
p1815
I1
sS'fidel'
p1816
I1
sS'herders'
p1817
I1
sS'visa'
p1818
I5
sS'device'
p1819
I3
sS'medal'
p1820
I4
sS'120day'
p1821
I2
sS'briefing.taiwan'
p1822
I1
sS'11.412'
p1823
I2
sS'stronger'
p1824
I3
sS'37.22'
p1825
I1
sS'face'
p1826
I15
sS'fact'
p1827
I5
sS'terminate'
p1828
I1
sS'him.thanks'
p1829
I1
sS'centralized'
p1830
I1
sS'bring'
p1831
I9
sS'asylum'
p1832
I4
sS'economist'
p1833
I7
sS'decade'
p1834
I1
sS'burnished'
p1835
I1
sS'china.washington'
p1836
I1
sS'disgruntlement'
p1837
I1
sS'terminal'
p1838
I1
sS'entities'
p1839
I3
sS'india.bentonite'
p1840
I1
sS'tape'
p1841
I1
sS'8,000'
p1842
I4
sS'okinawan'
p1843
I1
sS'meant'
p1844
I3
sS'handle'
p1845
I3
sS'means'
p1846
I7
sS'irreproachable'
p1847
I1
sS'autos'
p1848
I1
sS'exchanges'
p1849
I3
sS'weapons.gujral'
p1850
I1
sS'h'
p1851
I2
sS'taxes'
p1852
I1
sS'vying'
p1853
I1
sS'all.the'
p1854
I1
sS'lead.he'
p1855
I1
sS'stuff'
p1856
I2
sS'34.88'
p1857
I1
sS'18.90'
p1858
I2
sS'25.00'
p1859
I1
sS'taxed'
p1860
I2
sS'30bp'
p1861
I1
sS'strengthened'
p1862
I1
sS'edition'
p1863
I1
sS'20,000-25,000'
p1864
I1
sS'textiles'
p1865
I2
sS'wire'
p1866
I1
sS'nationwide'
p1867
I2
sS'nuclear'
p1868
I9
sS'miguel'
p1869
I2
sS'june.industry'
p1870
I1
sS'bentonite'
p1871
I5
sS'ends'
p1872
I4
sS'explosive'
p1873
I2
sS'30-percent'
p1874
I1
sS'belinda'
p1875
I1
sS'lawsuit'
p1876
I2
sS'33.70'
p1877
I1
sS'restrictions'
p1878
I6
sS'said.diesel'
p1879
I1
sS'said.avic'
p1880
I1
sS'kofi'
p1881
I1
sS'invited'
p1882
I1
sS'province.taiwan'
p1883
I2
sS'zone.he'
p1884
I1
sS'figures'
p1885
I42
sS'bertini'
p1886
I1
sS'authority.marriage'
p1887
I1
sS'conclude'
p1888
I4
sS'authorised'
p1889
I5
sS'migrant'
p1890
I1
sS'laws.the'
p1891
I1
sS'cs'
p1892
I2
sS'allocated'
p1893
I1
sS'winning'
p1894
I4
sS'authorises'
p1895
I2
sS'8.0'
p1896
I1
sS'8.3'
p1897
I24
sS'8.2'
p1898
I1
sS'friday.official'
p1899
I1
sS'8.8'
p1900
I1
sS'guilin'
p1901
I1
sS'poured'
p1902
I3
sS'roller'
p1903
I1
sS'wto'
p1904
I3
sS'bases.in'
p1905
I1
sS'valuations'
p1906
I3
sS'localising'
p1907
I1
sS'neighbour'
p1908
I1
sS'atlanta'
p1909
I3
sS'freewheeling'
p1910
I2
sS'spain'
p1911
I1
sS'chiang.chiang'
p1912
I1
sS'tonne'
p1913
I30
sS'3.99'
p1914
I1
sS'shortcourse'
p1915
I1
sS'yukihiko'
p1916
I1
sS'ultra'
p1917
I1
sS'said.lack'
p1918
I1
sS'concerted'
p1919
I1
sS'60-day'
p1920
I1
sS'china.it'
p1921
I1
sS'adminstration'
p1922
I1
sS'11.640'
p1923
I2
sS'site'
p1924
I2
sS'hardware'
p1925
I2
sS'vs'
p1926
I29
sS'5887'
p1927
I1
sS'optimistic'
p1928
I4
sS'raison'
p1929
I1
sS'vw'
p1930
I1
sS'industrialisation'
p1931
I1
sS'moves'
p1932
I5
sS'newsroom'
p1933
I64
sS'reporters.construction'
p1934
I1
sS'intra'
p1935
I2
sS'outbreak'
p1936
I3
sS'ball'
p1937
I1
sS'24-28'
p1938
I1
sS'restating'
p1939
I1
sS'forecasts'
p1940
I1
sS'saying.taiwan'
p1941
I1
sS'expand'
p1942
I5
sS'maoming'
p1943
I1
sS'indonesia'
p1944
I15
sS'southeastern'
p1945
I4
sS'7.74'
p1946
I2
sS'1.28'
p1947
I2
sS'7.73'
p1948
I2
sS'350'
p1949
I3
sS'1.23'
p1950
I2
sS'1.22'
p1951
I4
sS'diversify'
p1952
I2
sS'audio'
p1953
I2
sS'held.it'
p1954
I1
sS'1.25'
p1955
I1
sS'lest'
p1956
I1
sS'yuan.lee'
p1957
I1
sS'newest'
p1958
I1
sS'moments'
p1959
I1
sS'glut'
p1960
I1
sS'concern.gingrich'
p1961
I1
sS'generous'
p1962
I1
sS'residential'
p1963
I2
sS'wei'
p1964
I6
sS'wen'
p1965
I1
sS'1,292.738'
p1966
I2
sS'practise'
p1967
I1
sS'villagers'
p1968
I1
sS'members.but'
p1969
I1
sS'increased'
p1970
I10
sS'government'
p1971
I103
sS'checking'
p1972
I1
sS'normalise'
p1973
I1
sS'rubin'
p1974
I2
sS'fuji'
p1975
I6
sS'increases'
p1976
I2
sS'desk'
p1977
I1
sS'belgium'
p1978
I1
sS'wednesday.shenzhen'
p1979
I1
sS'efficiency'
p1980
I1
sS'accelerating'
p1981
I1
sS'a320'
p1982
I4
sS'a321'
p1983
I1
sS'shenzhen'
p1984
I60
sS'192.15'
p1985
I1
sS'gaining'
p1986
I4
sS'indications'
p1987
I2
sS'foreseeable'
p1988
I2
sS'footage'
p1989
I1
sS'bookrunner.in'
p1990
I1
sS'choosing'
p1991
I2
sS'79.087'
p1992
I2
sS'ineligible'
p1993
I1
sS'ballot'
p1994
I1
sS'transport'
p1995
I19
sS'contested'
p1996
I2
sS'avoid'
p1997
I4
sS'asthma'
p1998
I1
sS'demonstrators'
p1999
I2
sS'does'
p2000
I28
sS'laws.britain'
p2001
I1
sS'1.0719'
p2002
I2
sS'judgement.he'
p2003
I1
sS'schedule'
p2004
I1
sS'kaifa'
p2005
I1
sS'33.555'
p2006
I2
sS'shortage'
p2007
I2
sS'3.84.the'
p2008
I1
sS'garrison.the'
p2009
I1
sS'117.60'
p2010
I2
sS'hwa'
p2011
I9
sS'loans'
p2012
I15
sS'stage'
p2013
I6
sS'gained'
p2014
I8
sS'25.3'
p2015
I1
sS'thursday.china'
p2016
I1
sS'puts'
p2017
I4
sS'praecipium'
p2018
I1
sS'angeles'
p2019
I2
sS'union'
p2020
I6
sS'gainer'
p2021
I2
sS'rain.shampoo'
p2022
I1
sS'preconditions'
p2023
I1
sS'14,828'
p2024
I2
sS'burma'
p2025
I2
sS'coverage'
p2026
I5
sS'catherine'
p2027
I1
sS'commitment'
p2028
I4
sS'frn'
p2029
I2
sS'lung'
p2030
I2
sS'roads'
p2031
I3
sS'sander'
p2032
I1
sS'housing'
p2033
I14
sS'spots'
p2034
I1
sS'1951'
p2035
I1
sS'slovakia'
p2036
I1
sS'9.9'
p2037
I1
sS'0.246'
p2038
I2
sS'9.4'
p2039
I1
sS'9.5'
p2040
I2
sS'9.6'
p2041
I3
sS'9.7'
p2042
I4
sS'9.1'
p2043
I1
sS'9.3'
p2044
I1
sS'function'
p2045
I2
sS'fiscal'
p2046
I4
sS'cosmopolitan'
p2047
I1
sS'staple.the'
p2048
I1
sS'abode.wang'
p2049
I1
sS'xinhua'
p2050
I24
sS'delivery'
p2051
I7
sS'lowered'
p2052
I2
sS'apollo'
p2053
I1
sS'valuation'
p2054
I2
sS'count'
p2055
I2
sS'places'
p2056
I2
sS'official'
p2057
I139
sS'smooth'
p2058
I6
sS'placed'
p2059
I2
sS'intangible'
p2060
I1
sS'problem'
p2061
I28
sS'38.39'
p2062
I2
sS'bearing'
p2063
I7
sS'trade.local'
p2064
I1
sS'tonne.china'
p2065
I1
sS'886.9'
p2066
I1
sS'contribute'
p2067
I2
sS'159.8'
p2068
I1
sS'ink'
p2069
I2
sS'ina'
p2070
I1
sS'products.volclay'
p2071
I1
sS'planting'
p2072
I2
sS'compared'
p2073
I32
sS'nonetheless'
p2074
I3
sS'deadly'
p2075
I1
sS'said.shanghai'
p2076
I4
sS'118.15'
p2077
I1
sS'details'
p2078
I26
sS'francisco'
p2079
I1
sS'outsold'
p2080
I1
sS'monday'
p2081
I22
sS'dismantle'
p2082
I2
sS'outlets'
p2083
I2
sS'chance'
p2084
I4
sS'multinationals'
p2085
I1
sS'veil'
p2086
I1
sS'exposure'
p2087
I1
sS'10.875'
p2088
I1
sS'lasted'
p2089
I1
sS'rule'
p2090
I33
sS'tuesday.asian'
p2091
I1
sS'compete'
p2092
I7
sS'pension'
p2093
I2
sS'2.915'
p2094
I1
sS'rural'
p2095
I5
sS'consolidated'
p2096
I2
sS'arms.beijing'
p2097
I1
sS'controversial'
p2098
I5
sS'11.205'
p2099
I2
sS'2,200'
p2100
I1
sS'9.50'
p2101
I1
sS'integrity'
p2102
I2
sS'9.54'
p2103
I1
sS'ethics'
p2104
I6
sS'votes'
p2105
I1
sS'specialising'
p2106
I1
sS'neighbours'
p2107
I7
sS'73.3'
p2108
I4
sS'voted'
p2109
I4
sS'oriental'
p2110
I3
sS'sped'
p2111
I1
sS'chan.though'
p2112
I1
sS'worth'
p2113
I25
sS'1975.taiwan'
p2114
I1
sS'binding.last'
p2115
I1
sS'distort'
p2116
I1
sS'sellers'
p2117
I2
sS'11.431'
p2118
I2
sS'11.436'
p2119
I2
sS'exporters'
p2120
I1
sS'lehman'
p2121
I1
sS'tickets'
p2122
I2
sS'sovereignty.beijing'
p2123
I2
sS'presidency'
p2124
I3
sS'cme'
p2125
I5
sS'delegate'
p2126
I3
sS'indices'
p2127
I4
sS'defence.the'
p2128
I1
sS'1940s'
p2129
I1
sS'alarm'
p2130
I1
sS'advocate'
p2131
I1
sS'pragmatic'
p2132
I1
sS'worldbest'
p2133
I6
sS'chee'
p2134
I9
sS'chen'
p2135
I8
sS'il.senior'
p2136
I1
sS'machines'
p2137
I6
sS'colonialism'
p2138
I1
sS'ptt'
p2139
I12
sS'deliberate'
p2140
I1
sS'uniglory'
p2141
I4
sS'toll'
p2142
I2
sS'officially'
p2143
I7
sS'told'
p2144
I93
sS'22,690.traders'
p2145
I1
sS'festive'
p2146
I1
sS'down.traders'
p2147
I1
sS'conglomerate'
p2148
I4
sS'protection'
p2149
I5
sS'kong.total'
p2150
I1
sS'celebration'
p2151
I5
sS'obtained'
p2152
I1
sS'16,530'
p2153
I1
sS'fluctuated'
p2154
I1
sS'items'
p2155
I1
sS'employees'
p2156
I1
sS'envoy'
p2157
I2
sS'0.32'
p2158
I1
sS'internationalisation'
p2159
I1
sS'stressed'
p2160
I3
sS'bettered'
p2161
I1
sS'deposits.but'
p2162
I1
sS'postponed'
p2163
I1
sS'thursday.a'
p2164
I2
sS'patacas'
p2165
I1
sS'neighbours.beijing'
p2166
I1
sS'secure'
p2167
I2
sS'servicemen'
p2168
I1
sS'darlings'
p2169
I1
sS'south.beijing'
p2170
I1
sS'highly'
p2171
I8
sS'thrust'
p2172
I1
sS'thursday'
p2173
I79
sS'total'
p2174
I24
sS'mccurry'
p2175
I2
sS'100,000-barrel'
p2176
I1
sS'negative'
p2177
I1
sS'metres.she'
p2178
I1
sS'abusing'
p2179
I1
sS'oil.the'
p2180
I1
sS'71.5'
p2181
I2
sS'award'
p2182
I1
sS'aware'
p2183
I2
sS'102.00'
p2184
I1
sS'championships'
p2185
I5
sS'say.candidates'
p2186
I1
sS'striving'
p2187
I1
sS'blocking'
p2188
I1
sS'mountains'
p2189
I1
sS'1990'
p2190
I4
sS'1993'
p2191
I7
sS'1992'
p2192
I2
sS'1995'
p2193
I43
sS'1994'
p2194
I8
sS'1997'
p2195
I64
sS'1996'
p2196
I149
sS'1999'
p2197
I4
sS'1998'
p2198
I11
sS'work'
p2199
I24
sS'era'
p2200
I1
sS'containment'
p2201
I1
sS'indicated'
p2202
I11
sS'cited'
p2203
I1
sS'flung'
p2204
I1
sS'india'
p2205
I6
sS'550'
p2206
I1
sS'indicates'
p2207
I1
sS'urea'
p2208
I1
sS'22,000'
p2209
I3
sS'recovery'
p2210
I2
sS'carriers'
p2211
I4
sS'provide'
p2212
I6
sS'verify'
p2213
I1
sS'5452'
p2214
I1
sS'toehold'
p2215
I1
sS'interview'
p2216
I9
sS'ordinary'
p2217
I1
sS'offshore'
p2218
I22
sS'term.the'
p2219
I1
sS'grown'
p2220
I3
sS'lao'
p2221
I5
sS'lai'
p2222
I1
sS'transforming'
p2223
I1
sS'earlier'
p2224
I10
sS'hong'
p2225
I321
sS'customs'
p2226
I4
sS'stalinist'
p2227
I5
sS'publicised'
p2228
I3
sS'lay'
p2229
I2
sS'lau'
p2230
I6
sS'venturetech'
p2231
I3
sS'law'
p2232
I29
sS'arch'
p2233
I6
sS'chilled'
p2234
I1
sS'suprianto'
p2235
I1
sS'264,000'
p2236
I1
sS'hasty'
p2237
I1
sS'stimulate'
p2238
I1
sS'worst'
p2239
I4
sS'500.1'
p2240
I1
sS'order'
p2241
I13
sS'triggering'
p2242
I1
sS'office'
p2243
I21
sS'24,010'
p2244
I1
sS'dirtiest'
p2245
I1
sS'satisfied'
p2246
I2
sS'12.3'
p2247
I3
sS'6.6'
p2248
I4
sS'6.5'
p2249
I2
sS'6.4'
p2250
I6
sS'6.3'
p2251
I1
sS'6.1'
p2252
I1
sS'innovative'
p2253
I1
sS'japan'
p2254
I26
sS'mayor'
p2255
I5
sS'wurttembergische'
p2256
I1
sS'motherland.the'
p2257
I1
sS'50,000'
p2258
I5
sS'production'
p2259
I32
sS'understated'
p2260
I1
sS'precipitate'
p2261
I1
sS'years.about'
p2262
I1
sS'eventually'
p2263
I6
sS'coffee'
p2264
I2
sS'affected'
p2265
I5
sS'bans'
p2266
I3
sS'safe'
p2267
I2
sS'break'
p2268
I3
sS'band'
p2269
I3
sS'penetration'
p2270
I1
sS'cautious'
p2271
I16
sS'reaserch'
p2272
I1
sS'bank'
p2273
I144
sS'defected'
p2274
I2
sS'1.00'
p2275
I1
sS'3,416'
p2276
I1
sS'1.05'
p2277
I2
sS'3,410'
p2278
I2
sS'3,418'
p2279
I1
sS'378'
p2280
I1
sS'seedlings'
p2281
I1
sS'cashmere'
p2282
I3
sS'370'
p2283
I1
sS'7.91'
p2284
I1
sS'lifted'
p2285
I2
sS'crimes'
p2286
I2
sS'hosted'
p2287
I1
sS'flock'
p2288
I1
sS'hostel'
p2289
I1
sS'network'
p2290
I5
sS'diesel'
p2291
I24
sS'vessels'
p2292
I8
sS'cfm'
p2293
I1
sS'sliding'
p2294
I1
sS'disputed'
p2295
I7
sS'1957.the'
p2296
I1
sS'standard'
p2297
I8
sS'smacking'
p2298
I1
sS'disputes'
p2299
I12
sS'recovering'
p2300
I1
sS'created'
p2301
I3
sS'chirac'
p2302
I4
sS'renew'
p2303
I1
sS'oppose'
p2304
I1
sS'incorporated'
p2305
I2
sS'a340'
p2306
I1
sS'contribution.the'
p2307
I1
sS'5.71'
p2308
I2
sS'electronic'
p2309
I1
sS'rule.chinese'
p2310
I1
sS'timothy'
p2311
I1
sS'rated'
p2312
I1
sS'lynch.while'
p2313
I1
sS'there.it'
p2314
I1
sS'rates'
p2315
I44
sS'john'
p2316
I8
sS'damaging'
p2317
I1
sS'inalienable'
p2318
I1
sS'fanatical'
p2319
I1
sS'1.459'
p2320
I1
sS'diversified'
p2321
I1
sS'encouraging'
p2322
I4
sS'rejected'
p2323
I5
sS'wastes'
p2324
I2
sS'wasted'
p2325
I1
sS'117.40'
p2326
I3
sS'fuelled'
p2327
I1
sS'target'
p2328
I11
sS'negotiator'
p2329
I1
sS'historical'
p2330
I6
sS'solely'
p2331
I2
sS'210,000'
p2332
I1
sS'98'
p2333
I2
sS'lull'
p2334
I1
sS'refreshingly'
p2335
I1
sS'forced'
p2336
I3
sS'strength'
p2337
I1
sS'genuine'
p2338
I4
sS'progress.tsann'
p2339
I1
sS'65321921'
p2340
I1
sS'materials'
p2341
I4
sS'staying.police'
p2342
I1
sS'forces'
p2343
I22
sS'thundering'
p2344
I1
sS'7.41'
p2345
I1
sS'400,000'
p2346
I1
sS'speedboats'
p2347
I1
sS'involving'
p2348
I4
sS'germany'
p2349
I4
sS'khoo'
p2350
I1
sS'phase'
p2351
I3
sS'grave'
p2352
I3
sS'1,598.77'
p2353
I1
sS'crackdown'
p2354
I2
sS'calculated'
p2355
I1
sS'accounted'
p2356
I4
sS'sun'
p2357
I5
sS'voting'
p2358
I2
sS'responded'
p2359
I1
sS'reserve'
p2360
I8
sS'renting'
p2361
I1
sS'6960'
p2362
I2
sS'fleming'
p2363
I2
sS'7.2'
p2364
I3
sS'7.6'
p2365
I1
sS'7.4'
p2366
I4
sS'7.5'
p2367
I2
sS'nephew'
p2368
I1
sS'7.8'
p2369
I6
sS'7.9'
p2370
I2
sS'enjoyed'
p2371
I1
sS'53.00'
p2372
I2
sS'0.0084'
p2373
I1
sS'implementation'
p2374
I4
sS'elite'
p2375
I1
sS'whynot'
p2376
I1
sS'details.its'
p2377
I1
sS'118.35'
p2378
I1
sS'25.27'
p2379
I1
sS'colleagues'
p2380
I5
sS'preferred'
p2381
I3
sS'25,000'
p2382
I4
sS'tsann'
p2383
I7
sS'dv'
p2384
I2
sS'du'
p2385
I4
sS'tsang'
p2386
I1
sS'10.854'
p2387
I2
sS'covering'
p2388
I5
sS'exchanged'
p2389
I1
sS'suffrage'
p2390
I1
sS'8.the'
p2391
I1
sS'irregularities'
p2392
I2
sS'410'
p2393
I1
sS'411'
p2394
I1
sS'207.2'
p2395
I1
sS'secretary'
p2396
I23
sS'tingquan'
p2397
I1
sS'customs.rather'
p2398
I2
sS'716.68'
p2399
I1
sS'depends'
p2400
I2
sS'hohhot'
p2401
I1
sS'projections'
p2402
I1
sS'discussions'
p2403
I7
sS'away'
p2404
I7
sS'waters.hanoi'
p2405
I1
sS'compensation'
p2406
I1
sS'rushing'
p2407
I1
sS'unable'
p2408
I1
sS'venturetechno'
p2409
I2
sS'cooperation'
p2410
I11
sS'drawn'
p2411
I1
sS'failings'
p2412
I1
sS'accord'
p2413
I1
sS'loose'
p2414
I1
sS'terms'
p2415
I8
sS'overestimates'
p2416
I1
sS'handful'
p2417
I5
sS'island.echoing'
p2418
I1
sS'wu'
p2419
I2
sS'travellers'
p2420
I2
sS'packages'
p2421
I1
sS'abolished'
p2422
I2
sS'42.7'
p2423
I2
sS'received'
p2424
I8
sS'climate'
p2425
I1
sS'1995.huandao'
p2426
I1
sS'invite.the'
p2427
I1
sS'assets.shanghai'
p2428
I1
sS'steer'
p2429
I1
sS'receiver'
p2430
I1
sS'exceeds'
p2431
I1
sS'55.53'
p2432
I1
sS'brokerage.under'
p2433
I1
sS'hwang'
p2434
I15
sS'negotiation'
p2435
I1
sS'widen'
p2436
I1
sS'time.not'
p2437
I1
sS'accusing'
p2438
I1
sS'ltd.note'
p2439
I7
sS'tons'
p2440
I3
sS'wider'
p2441
I1
sS'telecommunications'
p2442
I2
sS'speak'
p2443
I2
sS'strong'
p2444
I26
sS'engines'
p2445
I19
sS'condemned'
p2446
I1
sS'drafting'
p2447
I2
sS'said.sources'
p2448
I2
sS'wednesday.loans'
p2449
I1
sS'flexible'
p2450
I2
sS'1949.taiwan'
p2451
I1
sS'families'
p2452
I8
sS'soar'
p2453
I1
sS'attacked'
p2454
I2
sS'said.tam'
p2455
I3
sS'0.15'
p2456
I3
sS'0.17'
p2457
I2
sS'0.11'
p2458
I3
sS'0.12'
p2459
I2
sS'0.19'
p2460
I1
sS'said.simultaneously'
p2461
I1
sS'said.dasheng'
p2462
I1
sS'applied'
p2463
I5
sS'yongchaiyudh'
p2464
I3
sS'concubinage'
p2465
I2
sS'publicly'
p2466
I7
sS'launches'
p2467
I5
sS'6358'
p2468
I2
sS'air'
p2469
I15
sS'aim'
p2470
I2
sS'contract.the'
p2471
I1
sS'aid'
p2472
I6
sS'voice'
p2473
I6
sS'launched'
p2474
I16
sS'cylinder'
p2475
I1
sS'issue.however'
p2476
I1
sS'dumped'
p2477
I1
sS'separatist'
p2478
I3
sS'freedom.wang'
p2479
I1
sS'straits'
p2480
I6
sS'comparative'
p2481
I1
sS'wooing'
p2482
I1
sS'confirmed'
p2483
I5
sS'said.at'
p2484
I3
sS'said.as'
p2485
I2
sS'patent'
p2486
I1
sS'clearly'
p2487
I1
sS'sakura'
p2488
I4
sS'accumulating'
p2489
I1
sS'said.an'
p2490
I1
sS'independent'
p2491
I3
sS'wednesday.more'
p2492
I1
sS'saddam'
p2493
I1
sS'10.45china'
p2494
I1
sS'hang'
p2495
I2
sS'rain'
p2496
I3
sS'hand'
p2497
I7
sS'pubs'
p2498
I1
sS'documents'
p2499
I4
sS'hans'
p2500
I1
sS'blamed'
p2501
I3
sS'camping'
p2502
I1
sS'kept'
p2503
I2
sS'1979'
p2504
I12
sS'1978'
p2505
I1
sS'1974'
p2506
I1
sS'centres'
p2507
I7
sS'tabling'
p2508
I2
sS'camps'
p2509
I1
sS'unified'
p2510
I4
sS'0.104'
p2511
I2
sS'stringent'
p2512
I1
sS'quoted'
p2513
I42
sS'others.the'
p2514
I2
sS'2843'
p2515
I5
sS'time.the'
p2516
I1
sS'8.19'
p2517
I1
sS'farther'
p2518
I1
sS'8.17'
p2519
I2
sS'haiqing'
p2520
I1
sS'adding'
p2521
I22
sS'transformer'
p2522
I2
sS'technology.britain'
p2523
I1
sS'moftec'
p2524
I1
sS'passive'
p2525
I1
sS'spread'
p2526
I7
sS'board'
p2527
I14
sS'righteous'
p2528
I1
sS'expelled'
p2529
I1
sS'markets.beijing'
p2530
I1
sS'revolution.thousands'
p2531
I1
sS'unification'
p2532
I1
sS'lci'
p2533
I1
sS'255.56'
p2534
I1
sS'south.both'
p2535
I4
sS'bpd'
p2536
I3
sS'securities'
p2537
I68
sS'guiyang'
p2538
I1
sS'8.2955.dealers'
p2539
I1
sS'ramsden'
p2540
I1
sS'security'
p2541
I19
sS'starvation'
p2542
I1
sS'times.the'
p2543
I1
sS'portuguese'
p2544
I4
sS'identified.airbus'
p2545
I1
sS'lashed'
p2546
I1
sS'said.trains'
p2547
I2
sS'said.shenzhen'
p2548
I1
sS'said.competition'
p2549
I1
sS'comments'
p2550
I7
sS'changhong'
p2551
I4
sS'unavoidably'
p2552
I1
sS'beating'
p2553
I1
sS'friday.kaifa'
p2554
I1
sS'marketing'
p2555
I6
sS'confer'
p2556
I2
sS'ply'
p2557
I2
sS'constructive'
p2558
I1
sS'plg'
p2559
I1
sS'restructuring'
p2560
I4
sS'angering'
p2561
I2
sS'plc'
p2562
I5
sS'pla'
p2563
I15
sS'post'
p2564
I20
sS'taiwan.all'
p2565
I1
sS'trophy'
p2566
I1
sS'corp.local'
p2567
I1
sS'3,430'
p2568
I1
sS'3,435'
p2569
I1
sS'newspapers'
p2570
I18
sS'months'
p2571
I20
sS'accepts'
p2572
I2
sS'said.vietnam'
p2573
I2
sS'banker'
p2574
I10
sS'saying.medical'
p2575
I1
sS'jacques'
p2576
I2
sS'dilemma'
p2577
I2
sS'concern.winners'
p2578
I1
sS'pays'
p2579
I3
sS'prisoners'
p2580
I6
sS'bound'
p2581
I2
sS'given.in'
p2582
I1
sS'anheuser'
p2583
I1
sS'formidable'
p2584
I1
sS'balanced'
p2585
I2
sS'wan'
p2586
I4
sS'wam'
p2587
I1
sS'1,480'
p2588
I1
sS'legislation'
p2589
I2
sS'sovereign'
p2590
I1
sS'fight'
p2591
I4
sS'way'
p2592
I20
sS'150,000'
p2593
I1
sS'war'
p2594
I43
sS'lowest'
p2595
I2
sS'90day'
p2596
I4
sS'peninsula'
p2597
I2
sS'a321s'
p2598
I1
sS'158.25'
p2599
I1
sS'restive'
p2600
I1
sS'true'
p2601
I2
sS'independent.chinese'
p2602
I1
sS'percent.hale'
p2603
I1
sS'veiled'
p2604
I1
sS'way.korea'
p2605
I1
sS'affluence'
p2606
I1
sS'ancestral'
p2607
I1
sS'maximum'
p2608
I8
sS'45.55'
p2609
I1
sS'generosity'
p2610
I2
sS'soybeans.china'
p2611
I1
sS'emotional'
p2612
I1
sS'promises'
p2613
I4
sS'locust'
p2614
I1
sS'evidence'
p2615
I2
sS'tsr20'
p2616
I1
sS'promised'
p2617
I14
sS'prayer'
p2618
I1
sS'pilots'
p2619
I1
sS'line.the'
p2620
I1
sS'physical'
p2621
I1
sS'14.18china'
p2622
I1
sS'stake'
p2623
I8
sS'topped'
p2624
I1
sS'negotiators'
p2625
I1
sS'interested'
p2626
I2
sS'jong'
p2627
I2
sS'holding'
p2628
I12
sS'test'
p2629
I9
sS'unwilling'
p2630
I1
sS'brothers'
p2631
I3
sS'consumption.world'
p2632
I1
sS'welcome'
p2633
I6
sS'editorial.china'
p2634
I1
sS'30.27'
p2635
I1
sS'scorer'
p2636
I1
sS'scores'
p2637
I1
sS'corp.kaifa'
p2638
I1
sS'governed'
p2639
I1
sS'banquets'
p2640
I1
sS'songs'
p2641
I2
sS'341.08'
p2642
I1
sS'concept'
p2643
I1
sS'switched'
p2644
I6
sS'global'
p2645
I6
sS'35.4'
p2646
I1
sS'261.61'
p2647
I1
sS'battle'
p2648
I1
sS'polluted'
p2649
I1
sS'devoted'
p2650
I3
sS'certainly'
p2651
I5
sS'mounted'
p2652
I4
sS'zone'
p2653
I20
sS'coal.the'
p2654
I1
sS'compensate'
p2655
I2
sS'dissatisfied'
p2656
I1
sS'million.b'
p2657
I1
sS'liquor.china'
p2658
I1
sS'southwest'
p2659
I2
sS'1994.a'
p2660
I1
sS'brown'
p2661
I2
sS'supported'
p2662
I6
sS'zhang'
p2663
I12
sS'tonnages'
p2664
I1
sS'automobiles'
p2665
I1
sS'internationalised'
p2666
I1
sS'10-year'
p2667
I10
sS'trouble'
p2668
I3
sS'feeble'
p2669
I1
sS'aggressively'
p2670
I3
sS'12.103'
p2671
I1
sS'presented'
p2672
I6
sS'turns'
p2673
I1
sS'guo'
p2674
I3
sS'gun'
p2675
I1
sS'ruminants'
p2676
I1
sS'fujian'
p2677
I13
sS'possibility'
p2678
I2
sS'upper'
p2679
I1
sS'brave'
p2680
I1
sS'regret'
p2681
I2
sS'cost'
p2682
I7
sS'23.44'
p2683
I1
sS'cargo'
p2684
I8
sS'hitmen.days'
p2685
I1
sS'appear'
p2686
I5
sS'shares'
p2687
I69
sS'peels'
p2688
I1
sS'1017'
p2689
I1
sS'supporting'
p2690
I7
sS'unsure'
p2691
I1
sS'communications.china'
p2692
I1
sS'inauguration'
p2693
I2
sS'firms.china'
p2694
I1
sS'zhongyi'
p2695
I1
sS'appears'
p2696
I2
sS'change'
p2697
I21
sS'sending'
p2698
I3
sS'86,000'
p2699
I1
sS'customers.there'
p2700
I1
sS'trial'
p2701
I3
sS'usually'
p2702
I2
sS'airbase'
p2703
I1
sS'kong.hong'
p2704
I2
sS'extra'
p2705
I2
sS'elaborate.the'
p2706
I1
sS'marked'
p2707
I2
sS'uphill'
p2708
I1
sS'filaments'
p2709
I1
sS'725.10'
p2710
I1
sS'terrritory'
p2711
I1
sS'gonzalez'
p2712
I1
sS'market'
p2713
I219
sS'surnamed'
p2714
I1
sS'prove'
p2715
I1
sS'territories'
p2716
I3
sS'live'
p2717
I16
sS'shaken'
p2718
I2
sS'nguyen'
p2719
I6
sS'outstanding.gingrich'
p2720
I1
sS'reunify'
p2721
I4
sS'fees.lead'
p2722
I1
sS'midsession'
p2723
I1
sS'migrants'
p2724
I1
sS'car'
p2725
I12
sS'wetherspoon'
p2726
I1
sS'cat'
p2727
I2
sS'week.trading'
p2728
I1
sS'cai'
p2729
I1
sS'hope'
p2730
I13
sS'cam'
p2731
I5
sS'totalled'
p2732
I5
sS'trans'
p2733
I1
sS'pretoria'
p2734
I8
sS'23,950.combined'
p2735
I1
sS'heart'
p2736
I2
sS'metallurgical'
p2737
I2
sS'december'
p2738
I13
sS'subsidies'
p2739
I1
sS'88.00'
p2740
I1
sS"didn't"
p2741
I3
sS'chiu'
p2742
I1
sS'1980s'
p2743
I10
sS'heard'
p2744
I3
sS'chih'
p2745
I1
sS'chin'
p2746
I2
sS'purity'
p2747
I2
sS'rate.they'
p2748
I1
sS'spa'
p2749
I1
sS'productive'
p2750
I1
sS'domenico'
p2751
I1
sS'bankrupt'
p2752
I2
sS'discussion'
p2753
I2
sS'bonds'
p2754
I12
sS'switchgear'
p2755
I2
sS'write'
p2756
I1
sS'10.93'
p2757
I1
sS'10.99'
p2758
I1
sS'10.98'
p2759
I3
sS'economy'
p2760
I25
sS'5.0'
p2761
I2
sS'product'
p2762
I5
sS'influenced'
p2763
I1
sS'liberalisation'
p2764
I3
sS'project.but'
p2765
I1
sS'southern'
p2766
I30
sS'produce'
p2767
I15
sS'commit'
p2768
I3
sS'said.wei'
p2769
I1
sS'lifting'
p2770
I1
sS'goal'
p2771
I9
sS'year.all'
p2772
I1
sS'accelerates'
p2773
I1
sS'12.98'
p2774
I1
sS'2843-6441'
p2775
I1
sS'futures'
p2776
I20
sS'explicit'
p2777
I3
sS'worsens'
p2778
I1
sS'ulan'
p2779
I2
sS'serving'
p2780
I1
sS'forfeit'
p2781
I1
sS'displayed'
p2782
I1
sS'ostriches'
p2783
I4
sS'ended'
p2784
I58
sS'inappropriate.nine'
p2785
I1
sS'statistical'
p2786
I11
sS'tranche'
p2787
I1
sS'cold'
p2788
I4
sS'birds'
p2789
I2
sS'culmination'
p2790
I1
sS'hampered'
p2791
I1
sS'acknowledge'
p2792
I1
sS'arrangments'
p2793
I1
sS'forms'
p2794
I1
sS'window'
p2795
I1
sS'115.00'
p2796
I1
sS'norway'
p2797
I1
sS'emigrants'
p2798
I6
sS'non'
p2799
I16
sS'halt'
p2800
I2
sS'refiner'
p2801
I2
sS'100,000'
p2802
I4
sS'refineries'
p2803
I2
sS'55,000'
p2804
I1
sS'hale'
p2805
I3
sS'1950'
p2806
I2
sS'half'
p2807
I19
sS'1959'
p2808
I3
sS'discuss'
p2809
I12
sS'january'
p2810
I16
sS'drop'
p2811
I16
sS'55-75copper'
p2812
I1
sS'wong'
p2813
I3
sS'3,418.may'
p2814
I2
sS'stockholm'
p2815
I1
sS'years.a'
p2816
I1
sS'22.5'
p2817
I1
sS'entirely'
p2818
I1
sS'kerb'
p2819
I1
sS'time.cheng'
p2820
I1
sS'100,000-tonne'
p2821
I1
sS'prompted'
p2822
I2
sS'challenged'
p2823
I1
sS'kang'
p2824
I1
sS'0.121'
p2825
I1
sS'hurried'
p2826
I1
sS'challenges'
p2827
I4
sS'polices'
p2828
I1
sS'1.644'
p2829
I1
sS'ex'
p2830
I2
sS'year'
p2831
I212
sS'eu'
p2832
I12
sS'happen'
p2833
I1
sS'lunching'
p2834
I1
sS'amusement'
p2835
I2
sS'opened'
p2836
I29
sS'bullish'
p2837
I4
sS'space'
p2838
I2
sS'lawyers'
p2839
I2
sS'looking'
p2840
I14
sS'hectares'
p2841
I2
sS'receiving'
p2842
I4
sS'shows'
p2843
I5
sS'hyung'
p2844
I1
sS'cars'
p2845
I6
sS'rebel'
p2846
I7
sS'repurchase'
p2847
I6
sS'marine'
p2848
I5
sS'lme'
p2849
I24
sS'card'
p2850
I1
sS'care'
p2851
I1
sS'cycles'
p2852
I1
sS'1.0708'
p2853
I2
sS'transition'
p2854
I17
sS'british'
p2855
I45
sS'honest'
p2856
I1
sS'industrialised'
p2857
I1
sS'promotion'
p2858
I1
sS'46.46'
p2859
I2
sS'smelting'
p2860
I1
sS'tonne.a'
p2861
I1
sS'flying'
p2862
I1
sS'striking'
p2863
I1
sS'said.gingrich'
p2864
I5
sS'629'
p2865
I1
sS'24,050'
p2866
I1
sS'6.5-for-10'
p2867
I1
sS'comprised'
p2868
I1
sS'6532'
p2869
I14
sS'directly'
p2870
I6
sS'cities.many'
p2871
I1
sS'comprises'
p2872
I2
sS'impossible'
p2873
I2
sS'ring'
p2874
I1
sS'smelters'
p2875
I1
sS'tomorrow'
p2876
I3
sS'size'
p2877
I6
sS'sheep'
p2878
I2
sS'health.zhou'
p2879
I1
sS'checked'
p2880
I8
sS'fanling'
p2881
I1
sS'crossings'
p2882
I9
sS'yin'
p2883
I1
sS'reorganising'
p2884
I1
sS'yiu'
p2885
I2
sS'year.this'
p2886
I1
sS'west'
p2887
I1
sS'tiankai'
p2888
I1
sS'thaw'
p2889
I6
sS'taxation'
p2890
I2
sS'tonne.combined'
p2891
I3
sS'thai'
p2892
I8
sS'interbank'
p2893
I23
sS'said.aid'
p2894
I1
sS'television'
p2895
I18
sS'accordance'
p2896
I4
sS'3,450'
p2897
I1
sS'recruit'
p2898
I1
sS'hsbc'
p2899
I2
sS'reassignment'
p2900
I1
sS'independence.it'
p2901
I1
sS'investors'
p2902
I58
sS'remained'
p2903
I7
sS'correction'
p2904
I21
sS'premier'
p2905
I11
sS'taipei.it'
p2906
I1
sS'overnight'
p2907
I4
sS'supervision'
p2908
I2
sS'anger'
p2909
I1
sS'recover'
p2910
I4
sS'nuanced'
p2911
I1
sS'jardine'
p2912
I3
sS'manufacturers'
p2913
I4
sS'terrific'
p2914
I1
sS'equipment'
p2915
I10
sS'online'
p2916
I1
sS'drilling.an'
p2917
I1
sS'begin'
p2918
I14
sS'kyung'
p2919
I1
sS'price'
p2920
I31
sS'successive'
p2921
I1
sS'america'
p2922
I4
sS'said.they'
p2923
I2
sS'forever'
p2924
I1
sS'garments'
p2925
I1
sS'steady'
p2926
I3
sS'year.zhang'
p2927
I1
sS'service.taiwan'
p2928
I1
sS'professional'
p2929
I2
sS'ghangsha'
p2930
I1
sS'xianglong'
p2931
I2
sS'german'
p2932
I1
sS'discovered'
p2933
I3
sS'said.combined'
p2934
I1
sS'days.but'
p2935
I1
sS'huandao'
p2936
I5
sS'fifth'
p2937
I2
sS'ground'
p2938
I3
sS'65-8703305'
p2939
I3
sS'upgrade'
p2940
I1
sS'busily'
p2941
I1
sS'title'
p2942
I1
sS'proclamation'
p2943
I1
sS'proportion'
p2944
I2
sS'deployments'
p2945
I1
sS'filipinos'
p2946
I8
sS'enriched'
p2947
I1
sS'essence'
p2948
I1
sS'china.but'
p2949
I1
sS'optimism'
p2950
I2
sS'117.04'
p2951
I1
sS'samuel'
p2952
I1
sS'soon'
p2953
I19
sS'celebrate'
p2954
I1
sS'proper.china'
p2955
I1
sS'irritant'
p2956
I6
sS'qizao'
p2957
I1
sS'60,000-bpd'
p2958
I1
sS'catering'
p2959
I1
sS'cover.the'
p2960
I1
sS'husband'
p2961
I3
sS'24,010.april'
p2962
I1
sS'salomon'
p2963
I1
sS'burst'
p2964
I1
sS'attached'
p2965
I1
sS'keynote'
p2966
I2
sS'famine'
p2967
I2
sS'elected'
p2968
I12
sS'actively'
p2969
I5
sS'icbc'
p2970
I2
sS'sport'
p2971
I5
sS'europeans'
p2972
I2
sS'tackling'
p2973
I1
sS'attack.washington'
p2974
I1
sS'3'
p2975
I15
sS'import'
p2976
I11
sS'justified'
p2977
I1
sS'said.formosa'
p2978
I1
sS'notice'
p2979
I1
sS'neighbour.the'
p2980
I1
sS'clashes.li'
p2981
I1
sS'hefei'
p2982
I1
sS'blame'
p2983
I1
sS'shenyin'
p2984
I7
sS'comeback'
p2985
I1
sS'emigrant'
p2986
I1
sS'perceptions'
p2987
I1
sS'49,000'
p2988
I1
sS'monk'
p2989
I4
sS'enabling'
p2990
I1
sS'inward'
p2991
I1
sS'comes'
p2992
I1
sS'nearby'
p2993
I3
sS'150'
p2994
I21
sS'overview'
p2995
I1
sS'exploit'
p2996
I4
sS'forces.between'
p2997
I1
sS'sorely'
p2998
I1
sS'informed'
p2999
I1
sS'territorial'
p3000
I7
sS'tropical'
p3001
I5
sS'punished'
p3002
I1
sS'systems'
p3003
I13
sS'shortages'
p3004
I5
sS'aero'
p3005
I3
sS'ties.a'
p3006
I2
sS'2,400'
p3007
I1
sS'commenting'
p3008
I1
sS'23,910'
p3009
I1
sS'suspected'
p3010
I1
sS'developing'
p3011
I12
sS'4-1/2-year'
p3012
I2
sS'editorial'
p3013
I4
sS'landslide'
p3014
I1
sS'sorghum'
p3015
I1
sS'baoshan'
p3016
I1
sS'mandating'
p3017
I1
sS'11.762'
p3018
I2
sS'zenith'
p3019
I1
sS'susi'
p3020
I1
sS'soil'
p3021
I1
sS'metric'
p3022
I1
sS'commander'
p3023
I4
sS'embrace'
p3024
I2
sS'1997.while'
p3025
I1
sS'commanded'
p3026
I1
sS'8.83-1/2'
p3027
I1
sS'floating'
p3028
I13
sS'worry'
p3029
I2
sS'unshakable'
p3030
I2
sS'develop'
p3031
I8
sS'11.4'
p3032
I3
sS'media'
p3033
I21
sS'10-station'
p3034
I1
sS'11.7'
p3035
I1
sS'11.2'
p3036
I1
sS'ya'
p3037
I1
sS'inquiry'
p3038
I1
sS'angered'
p3039
I2
sS'document'
p3040
I1
sS'11.493'
p3041
I1
sS'rules.the'
p3042
I1
sS'details.china'
p3043
I2
sS'centuries'
p3044
I1
sS'closest'
p3045
I2
sS'fruit'
p3046
I1
sS'tradition'
p3047
I1
sS'dotted'
p3048
I1
sS'charges'
p3049
I1
sS'severe'
p3050
I1
sS'congressmen'
p3051
I1
sS'gain'
p3052
I1
sS'radici'
p3053
I1
sS'charged'
p3054
I1
sS'taxi'
p3055
I4
sS'transshipment'
p3056
I4
sS'armour'
p3057
I1
sS'touch'
p3058
I1
sS'speed'
p3059
I10
sS'death'
p3060
I11
sS'123.4'
p3061
I2
sS'improvement'
p3062
I6
sS'troubleshooter.critics'
p3063
I2
sS'treatment'
p3064
I4
sS'week.the'
p3065
I1
sS'republic'
p3066
I22
sS'struck'
p3067
I3
sS'momentum'
p3068
I1
sS'real'
p3069
I10
sS'hover'
p3070
I2
sS'rules'
p3071
I13
sS'amd'
p3072
I4
sS'stools'
p3073
I1
sS'early'
p3074
I28
sS'zhanjiang'
p3075
I1
sS'listening'
p3076
I1
sS'wednesday.oil'
p3077
I1
sS'using'
p3078
I5
sS'0.53'
p3079
I1
sS'reap'
p3080
I1
sS'0.54'
p3081
I2
sS'0.57'
p3082
I2
sS'ruled'
p3083
I15
sS'pounds'
p3084
I1
sS'suppliers'
p3085
I4
sS'annually'
p3086
I2
sS'yearnings'
p3087
I1
sS'benefit'
p3088
I4
sS't'
p3089
I5
sS'output'
p3090
I17
sS'downward'
p3091
I2
sS'endorsed'
p3092
I1
sS'408-8750'
p3093
I1
sS'verbal'
p3094
I8
sS'exposed'
p3095
I2
sS'cathode'
p3096
I1
sS'exposes'
p3097
I1
sS'coercive'
p3098
I1
sS'laotian'
p3099
I1
sS'conservative'
p3100
I1
sS'deficit'
p3101
I2
sS'willie'
p3102
I1
sS'assembly'
p3103
I8
sS'business'
p3104
I90
sS'equivalent'
p3105
I1
sS'volkswagen'
p3106
I1
sS'credits'
p3107
I2
sS'7095'
p3108
I1
sS'exciting'
p3109
I1
sS'throw'
p3110
I1
sS'comparison'
p3111
I1
sS'ackerly.washington'
p3112
I1
sS'central'
p3113
I69
sS'hampers'
p3114
I3
sS'said.bridgestone'
p3115
I1
sS'boldly'
p3116
I1
sS'journey'
p3117
I4
sS'underway'
p3118
I1
sS'intent'
p3119
I2
sS'processor'
p3120
I2
sS'heavy'
p3121
I9
sS'outlook'
p3122
I3
sS'protests'
p3123
I2
sS'inclusion'
p3124
I1
sS'shares.shanghai'
p3125
I8
sS'bolstering'
p3126
I4
sS'involvement'
p3127
I2
sS'intervention'
p3128
I1
sS'prepare'
p3129
I2
sS'area'
p3130
I58
sS'lok'
p3131
I1
sS'456.2'
p3132
I1
sS'start'
p3133
I18
sS'72.7'
p3134
I2
sS'72.6'
p3135
I1
sS'low'
p3136
I34
sS'lot'
p3137
I12
sS'politeness'
p3138
I1
sS'thursday.with'
p3139
I1
sS'72.9'
p3140
I1
sS'oppressed'
p3141
I1
sS"xi'an"
p3142
I1
sS'delayed'
p3143
I1
sS'wednesday.the'
p3144
I8
sS'48.1-54.9'
p3145
I1
sS'punishment.china'
p3146
I1
sS'trying'
p3147
I10
sS'61,000'
p3148
I2
sS'fraud'
p3149
I2
sS'circulation'
p3150
I3
sS'255.12'
p3151
I1
sS'appliance'
p3152
I2
sS'house.the'
p3153
I1
sS'410.60'
p3154
I1
sS'oxen'
p3155
I2
sS'600'
p3156
I3
sS'dresdner'
p3157
I1
sS'moved'
p3158
I17
sS'sales'
p3159
I59
sS'said.some'
p3160
I6
sS'named.but'
p3161
I2
sS'said.dai'
p3162
I1
sS'yoo'
p3163
I1
sS'1995.he'
p3164
I2
sS'administered'
p3165
I1
sS'storage'
p3166
I6
sS'period.chinese'
p3167
I1
sS'248.596'
p3168
I2
sS'gambling'
p3169
I1
sS'15.54china'
p3170
I1
sS'forcing'
p3171
I1
sS'yop'
p3172
I3
sS'poor'
p3173
I10
sS'authoritarian'
p3174
I1
sS'pear'
p3175
I1
sS'track'
p3176
I4
sS'peak'
p3177
I4
sS'unattractive'
p3178
I1
sS'said.metal'
p3179
I1
sS'pool'
p3180
I1
sS'building'
p3181
I6
sS'assert'
p3182
I1
sS'dabble'
p3183
I1
sS'3-4'
p3184
I1
sS'repay'
p3185
I1
sS'vulnerable.state'
p3186
I1
sS'overseas'
p3187
I17
sS'others.china'
p3188
I1
sS'6.7382'
p3189
I2
sS'month'
p3190
I42
sS'unrest'
p3191
I2
sS'deadline'
p3192
I8
sS'douglas'
p3193
I2
sS'coking'
p3194
I1
sS'religious'
p3195
I2
sS'manner.the'
p3196
I1
sS'carpet'
p3197
I2
sS'referring'
p3198
I1
sS'guesthouse'
p3199
I1
sS'pledged'
p3200
I6
sS'ties.the'
p3201
I2
sS'1930s'
p3202
I2
sS'china.gingrich'
p3203
I2
sS'surya'
p3204
I1
sS'dominated'
p3205
I4
sS'pledges'
p3206
I4
sS'200,000-bpd'
p3207
I1
sS'confidential'
p3208
I1
sS'voicing'
p3209
I1
sS'mph'
p3210
I4
sS'rogue'
p3211
I2
sS'minded'
p3212
I1
sS'decide'
p3213
I12
sS'tuesday.lu'
p3214
I1
sS'underwriter.the'
p3215
I1
sS'deficient'
p3216
I1
sS'louis'
p3217
I1
sS'mild'
p3218
I1
sS'11.534'
p3219
I1
sS'circuit'
p3220
I1
sS"i'll"
p3221
I1
sS'island.but'
p3222
I1
sS'12.103turnover'
p3223
I1
sS'73.494'
p3224
I2
sS'streets'
p3225
I1
sS'hamper'
p3226
I1
sS'volclay'
p3227
I4
sS'5.426'
p3228
I1
sS'consumers'
p3229
I4
sS'investing'
p3230
I3
sS'6-1yoon'
p3231
I1
sS'105.875'
p3232
I1
sS'mainland.gingrich'
p3233
I1
sS'lauridsen'
p3234
I1
sS'certificates'
p3235
I1
sS'diplomacy.hanoi'
p3236
I2
sS'morning.shenzhen'
p3237
I1
sS'turmoil'
p3238
I1
sS'iran'
p3239
I3
sS'ma'
p3240
I1
sS'zedong'
p3241
I1
sS'taiwan.but'
p3242
I1
sS'comment.taiwan'
p3243
I1
sS'selective'
p3244
I5
sS'8.2953.the'
p3245
I1
sS'depend'
p3246
I1
sS'iraq'
p3247
I2
sS'bookrunner.proceeds'
p3248
I1
sS'defensive.the'
p3249
I1
sS'ahead'
p3250
I15
sS'kaohsiung.taiwan'
p3251
I1
sS'losses'
p3252
I24
sS'soldier'
p3253
I1
sS'heroin'
p3254
I2
sS'advertising'
p3255
I8
sS'family'
p3256
I4
sS'toyo'
p3257
I4
sS'cosmetic'
p3258
I1
sS'hogs'
p3259
I5
sS'aimed'
p3260
I9
sS'takes'
p3261
I14
sS'nehru'
p3262
I2
sS'said.china'
p3263
I18
sS'beijing.officials'
p3264
I1
sS'70,400'
p3265
I1
sS'17-year'
p3266
I2
sS'taken'
p3267
I6
sS'injury'
p3268
I1
sS'america.gingrich'
p3269
I1
sS'hanoi.they'
p3270
I1
sS'zemin'
p3271
I9
sS'broke'
p3272
I3
sS'underwriter'
p3273
I3
sS'show.last'
p3274
I1
sS'factories'
p3275
I3
sS'producing'
p3276
I8
sS'suffered'
p3277
I4
sS'respected'
p3278
I1
sS'kong.sources'
p3279
I1
sS'zhenyao'
p3280
I1
sS'ning'
p3281
I1
sS'history'
p3282
I4
sS'f7'
p3283
I1
sS'f8'
p3284
I1
sS'prevently'
p3285
I2
sS'tenor'
p3286
I1
sS'pushed'
p3287
I7
sS'repackaged'
p3288
I1
sS'lacks'
p3289
I2
sS'species'
p3290
I2
sS'firmly'
p3291
I1
sS'18.88'
p3292
I2
sS'18.82'
p3293
I1
sS'thailand.the'
p3294
I1
sS'liaison'
p3295
I1
sS'stayed'
p3296
I5
sS'ideologue'
p3297
I1
sS'quanxin'
p3298
I1
sS'393,500'
p3299
I2
sS'kung'
p3300
I6
sS'13-pound'
p3301
I1
sS'tried'
p3302
I5
sS'sneak'
p3303
I1
sS'invasion'
p3304
I1
sS'inconceivable'
p3305
I2
sS'fo'
p3306
I1
sS'preferential'
p3307
I2
sS'frictions'
p3308
I2
sS'documentation'
p3309
I1
sS'embark'
p3310
I1
sS'banks'
p3311
I69
sS'dream'
p3312
I1
sS'jinting'
p3313
I1
sS'help'
p3314
I21
sS'chalked'
p3315
I1
sS'financing.in'
p3316
I1
sS'held'
p3317
I20
sS'thermal'
p3318
I1
sS'sse30'
p3319
I4
sS'committee'
p3320
I9
sS'committed'
p3321
I7
sS'staunch'
p3322
I1
sS'usda'
p3323
I3
sS'limelight'
p3324
I1
sS'permitted.the'
p3325
I1
sS'solving'
p3326
I1
sS'actually'
p3327
I1
sS'absence'
p3328
I4
sS'blacks.it'
p3329
I1
sS'disclosed'
p3330
I1
sS'differed'
p3331
I1
sS'founders'
p3332
I1
sS'governments'
p3333
I7
sS"haven't"
p3334
I2
sS'yi'
p3335
I3
sS'cef'
p3336
I1
sS'evening'
p3337
I2
sS'food'
p3338
I21
sS'ye'
p3339
I4
sS'trade.arms'
p3340
I1
sS'foot'
p3341
I6
sS'yu'
p3342
I1
sS'million.brokers'
p3343
I3
sS'imprisoned'
p3344
I1
sS'450,000'
p3345
I2
sS'fully'
p3346
I5
sS'ctbt'
p3347
I2
sS'fairs'
p3348
I1
sS'stopped'
p3349
I1
sS'die'
p3350
I2
sS'lifestyles'
p3351
I1
sS'referred'
p3352
I2
sS'barrels'
p3353
I10
sS'standoff'
p3354
I1
sS'3.8531'
p3355
I1
sS'11.91'
p3356
I2
sS'positioned'
p3357
I1
sS'16,600'
p3358
I1
sS'inspections'
p3359
I1
sS'balance'
p3360
I1
sS'event'
p3361
I2
sS'publish'
p3362
I2
sS'reorganised'
p3363
I1
sS'safety'
p3364
I3
sS'7'
p3365
I9
sS'issue'
p3366
I90
sS'favored'
p3367
I1
sS'pub'
p3368
I2
sS'reason'
p3369
I4
sS'base'
p3370
I8
sS'ask'
p3371
I3
sS'launch'
p3372
I13
sS'american'
p3373
I12
sS'expecting'
p3374
I2
sS'businessmen'
p3375
I5
sS'sandner'
p3376
I3
sS'leading'
p3377
I10
sS'xiang'
p3378
I5
sS'undergo'
p3379
I1
sS'investment.taipei'
p3380
I1
sS'consultations'
p3381
I1
sS'168.4'
p3382
I1
sS'reflected'
p3383
I3
sS'liquefied'
p3384
I1
sS'13,000'
p3385
I1
sS'shenhua'
p3386
I1
sS'horse'
p3387
I1
sS'airborne'
p3388
I1
sS'pinned'
p3389
I1
sS'station'
p3390
I7
sS'scheme'
p3391
I3
sS'gansu'
p3392
I3
sS'selling'
p3393
I14
sS'passed'
p3394
I3
sS'history.proud'
p3395
I1
sS'norms'
p3396
I2
sS'financing'
p3397
I7
sS'grew'
p3398
I4
sS'11.282'
p3399
I2
sS'anticipate'
p3400
I1
sS'battering'
p3401
I1
sS'garrison'
p3402
I20
sS'16.60'
p3403
I1
sS'procedural'
p3404
I1
sS'sentenced'
p3405
I2
sS'macau'
p3406
I16
sS'alongside'
p3407
I1
sS'substantial'
p3408
I6
sS'sentences'
p3409
I1
sS'chirac.eccleston'
p3410
I1
sS'post-1997'
p3411
I1
sS'vulnerable'
p3412
I5
sS'option'
p3413
I1
sS'lie'
p3414
I3
sS'speculative'
p3415
I17
sS'officers'
p3416
I6
sS'cargoes'
p3417
I4
sS'liu'
p3418
I3
sS'labour'
p3419
I11
sS'frauds'
p3420
I1
sS'kai'
p3421
I6
sS'7.71'
p3422
I1
sS'kao'
p3423
I3
sS'kan'
p3424
I21
sS'anniversary'
p3425
I4
sS'increased.shanghai'
p3426
I1
sS'sponsored'
p3427
I3
sS'approved'
p3428
I14
sS'21-24'
p3429
I1
sS'network.disorderly'
p3430
I1
sS'said.amnesty'
p3431
I1
sS'clear'
p3432
I19
sS'popularity'
p3433
I2
sS'unreasonable'
p3434
I1
sS'drawing'
p3435
I2
sS'quarrel'
p3436
I1
sS'2.08'
p3437
I2
sS'2.09'
p3438
I1
sS'clean'
p3439
I2
sS'2.05'
p3440
I2
sS'usual'
p3441
I1
sS'phenomenon'
p3442
I1
sS'hovered'
p3443
I1
sS'registers'
p3444
I1
sS'bayerisch'
p3445
I1
sS'completion'
p3446
I2
sS'saying.xue'
p3447
I1
sS'northern'
p3448
I14
sS'justice'
p3449
I1
sS'convinced'
p3450
I1
sS'farm.the'
p3451
I1
sS'flights'
p3452
I2
sS'au.s'
p3453
I1
sS'pretty'
p3454
I4
sS'criticising'
p3455
I1
sS'albeit'
p3456
I1
sS'trees'
p3457
I4
sS'famous'
p3458
I1
sS'said.their'
p3459
I1
sS'competing'
p3460
I7
sS'1.83'
p3461
I1
sS'1.82'
p3462
I1
sS'1.85'
p3463
I1
sS'xiamen'
p3464
I10
sS'vietnam.vietnamese'
p3465
I1
sS'cfm56'
p3466
I1
sS'researched.he'
p3467
I1
sS'start.china'
p3468
I1
sS'withdrawal'
p3469
I6
sS'bank.china'
p3470
I1
sS'zhaoying'
p3471
I1
sS'seventeen'
p3472
I1
sS'term.investors'
p3473
I1
sS'taikang'
p3474
I2
sS'unpublished'
p3475
I1
sS'nnanning'
p3476
I1
sS'culture'
p3477
I1
sS'protecting'
p3478
I1
sS'reporters.the'
p3479
I1
sS'close'
p3480
I29
sS'deploying'
p3481
I2
sS'month.philippine'
p3482
I1
sS'pictures'
p3483
I1
sS'guangdian'
p3484
I2
sS'woo'
p3485
I3
sS'onstream'
p3486
I1
sS'probably'
p3487
I10
sS'conditions'
p3488
I12
sS'chiwan'
p3489
I2
sS'missing'
p3490
I1
sS'poorer'
p3491
I1
sS'11.511'
p3492
I1
sS'hardline'
p3493
I1
sS'league'
p3494
I3
sS'cashing'
p3495
I1
sS"wouldn't"
p3496
I3
sS'minorities'
p3497
I3
sS'sensitive'
p3498
I3
sS'11,829'
p3499
I1
sS'experimental'
p3500
I1
sS'onward'
p3501
I3
sS'headed'
p3502
I2
sS'china.major'
p3503
I1
sS'badminton'
p3504
I1
sS'vessel'
p3505
I1
sS'tuesday.chinese'
p3506
I1
sS'44.00'
p3507
I1
sS'southwood'
p3508
I1
sS'forseeable'
p3509
I1
sS'necessary.lee'
p3510
I1
sS'maintenance'
p3511
I4
sS'collected'
p3512
I1
sS'threaten'
p3513
I2
sS'territory'
p3514
I51
sS'dialogue'
p3515
I11
sS'partly'
p3516
I5
sS'31.brokerage'
p3517
I1
sS'wet'
p3518
I4
sS'deter'
p3519
I1
sS'kunming'
p3520
I1
sS'recalled'
p3521
I4
sS'argentinian'
p3522
I1
sS'282'
p3523
I1
sS'utmost'
p3524
I1
sS'look'
p3525
I9
sS'socialist'
p3526
I6
sS'governor'
p3527
I5
sS'135.69'
p3528
I1
sS'3.35'
p3529
I1
sS'ought'
p3530
I1
sS'3.30'
p3531
I1
sS'danger.the'
p3532
I1
sS'3.38'
p3533
I2
sS'320-330south'
p3534
I1
sS'shanghai.asia'
p3535
I1
sS'monday.brokers'
p3536
I1
sS'hoan'
p3537
I4
sS'voters'
p3538
I5
sS'261.09'
p3539
I1
sS'ready'
p3540
I5
sS'65.00'
p3541
I2
sS'grant'
p3542
I5
sS'rerated'
p3543
I1
sS'belong'
p3544
I1
sS'vulnerable.beijing'
p3545
I1
sS'makeshift'
p3546
I1
sS'1.174'
p3547
I2
sS'grand'
p3548
I1
sS'conflict'
p3549
I2
sS'used'
p3550
I18
sS'temporary'
p3551
I1
sS'bonus'
p3552
I13
sS'overweight'
p3553
I3
sS'censure'
p3554
I2
sS'event.about'
p3555
I1
sS'nights'
p3556
I1
sS'uses'
p3557
I2
sS'yuan'
p3558
I332
sS'gsp'
p3559
I2
sS'15.3'
p3560
I1
sS'15.4'
p3561
I1
sS'states.he'
p3562
I1
sS'poland'
p3563
I2
sS'haul'
p3564
I2
sS'wedged'
p3565
I1
sS'obviously'
p3566
I4
sS'reclaim'
p3567
I1
sS'anting'
p3568
I1
sS'gsm'
p3569
I2
sS'lin'
p3570
I2
sS'grossly'
p3571
I2
sS'promised.fok'
p3572
I1
sS'ambassador'
p3573
I5
sS'begin.lme'
p3574
I1
sS'abstain'
p3575
I1
sS'wednesday.officials'
p3576
I1
sS'reviewed'
p3577
I1
sS'taiwan'
p3578
I332
sS'retirement'
p3579
I1
sS'informal'
p3580
I2
sS'guaranteed'
p3581
I1
sS'ministry.policies'
p3582
I1
sS'questioned'
p3583
I3
sS'ballots'
p3584
I1
sS'guarantees'
p3585
I2
sS'remaining'
p3586
I4
sS'march'
p3587
I53
sS'thurston'
p3588
I3
sS'capacities'
p3589
I1
sS'said.cynthia'
p3590
I1
sS'game'
p3591
I5
sS'levels.analysts'
p3592
I1
sS'signal'
p3593
I1
sS'translates'
p3594
I1
sS'fuzhou'
p3595
I2
sS'popular'
p3596
I3
sS'drove'
p3597
I1
sS'creation'
p3598
I1
sS'metres'
p3599
I4
sS'trends'
p3600
I2
sS'economic'
p3601
I85
sS'change.some'
p3602
I1
sS'fanfare'
p3603
I1
sS'delivered'
p3604
I2
sS'lujiazui'
p3605
I3
sS'tonne.one'
p3606
I1
sS'phasing'
p3607
I1
sS'approves'
p3608
I1
sS'sympathetic'
p3609
I1
sS'run'
p3610
I31
sS'processing'
p3611
I8
sS'quota'
p3612
I2
sS'step'
p3613
I4
sS'291.94'
p3614
I1
sS'at&t'
p3615
I1
sS'abroad'
p3616
I14
sS'liggett'
p3617
I1
sS'office.all'
p3618
I1
sS'shing'
p3619
I1
sS'said.about'
p3620
I2
sS'bourses'
p3621
I1
sS'mid-1990s'
p3622
I1
sS'said.premium'
p3623
I1
sS'shantuo.the'
p3624
I1
sS'hired'
p3625
I1
sS'congressman'
p3626
I1
sS'said.worldbest'
p3627
I3
sS'block'
p3628
I2
sS'seeing'
p3629
I5
sS'dissatisfaction'
p3630
I1
sS'14.15'
p3631
I1
sS'14.14'
p3632
I1
sS'reuters.he'
p3633
I1
sS'14.12'
p3634
I1
sS'added.contracts'
p3635
I1
sS'guangdong'
p3636
I12
sS'pentagon'
p3637
I2
sS'rolls'
p3638
I1
sS'militarily'
p3639
I1
sS'statistics'
p3640
I9
sS'bangladesh'
p3641
I1
sS'renewal'
p3642
I5
sS'said.established'
p3643
I1
sS'soared'
p3644
I3
sS'reporters.ting'
p3645
I1
sS'said.medium'
p3646
I1
sS'manufacture'
p3647
I2
sS'0-0'
p3648
I2
sS'v2500'
p3649
I2
sS'registered'
p3650
I2
sS'frost'
p3651
I1
sS'reiterated'
p3652
I3
sS'properly'
p3653
I1
sS'authority'
p3654
I1
sS'russian'
p3655
I3
sS'dull'
p3656
I5
sS'mineral'
p3657
I3
sS'2,800'
p3658
I2
sS'mobile'
p3659
I1
sS'telephone.the'
p3660
I1
sS'cautiously'
p3661
I2
sS'similar'
p3662
I1
sS'policy.the'
p3663
I1
sS'said.in'
p3664
I3
sS'inch'
p3665
I1
sS'ordered'
p3666
I4
sS'adults'
p3667
I2
sS'said.beverage'
p3668
I1
sS'metals'
p3669
I7
sS'estrangement'
p3670
I1
sS'said.it'
p3671
I3
sS'kidney'
p3672
I1
sS'cotton'
p3673
I5
sS'council.indian'
p3674
I1
sS'amounts'
p3675
I3
sS'fears'
p3676
I9
sS'nabbed'
p3677
I1
sS'nam'
p3678
I11
sS'producers.an'
p3679
I1
sS'politicians'
p3680
I3
sS'electrical'
p3681
I2
sS'recognition'
p3682
I2
sS'department'
p3683
I16
sS'tuesday.shenzhen'
p3684
I1
sS'draw'
p3685
I1
sS'visits'
p3686
I5
sS'regulations'
p3687
I8
sS'state.wfp'
p3688
I1
sS'turkmenistan'
p3689
I1
sS'downtown'
p3690
I1
sS'independently'
p3691
I1
sS'e'
p3692
I1
sS'outing'
p3693
I1
sS'required'
p3694
I6
sS'resolving'
p3695
I3
sS'97.00'
p3696
I1
sS'neighbouring'
p3697
I2
sS'possible.china'
p3698
I1
sS'redhill'
p3699
I1
sS'requires'
p3700
I1
sS'sounded'
p3701
I1
sS'stability.the'
p3702
I2
sS'helped'
p3703
I5
sS'270.82'
p3704
I1
sS'airliners'
p3705
I8
sS'control.but'
p3706
I1
sS'175.7'
p3707
I1
sS'stunned'
p3708
I1
sS'anointed'
p3709
I1
sS'lubricants'
p3710
I2
sS'yokosuka'
p3711
I2
sS'1.0710'
p3712
I1
sS'1980s.asked'
p3713
I1
sS'friendly'
p3714
I7
sS'persuade'
p3715
I1
sS'separation.gingrich'
p3716
I1
sS'entrepot'
p3717
I1
sS'miners'
p3718
I5
sS'acreage'
p3719
I1
sS'zhejiang'
p3720
I6
sS'rattling'
p3721
I1
sS'telling'
p3722
I9
sS'acres'
p3723
I1
sS'stiff'
p3724
I1
sS'said.per'
p3725
I1
sS'positions'
p3726
I8
sS'explosions'
p3727
I1
sS'huaiyu'
p3728
I1
sS'assignments'
p3729
I1
sS'picture.bureau'
p3730
I2
sS'enforce'
p3731
I1
sS'1,300.395'
p3732
I2
sS'zi'
p3733
I3
sS'landesbank'
p3734
I5
sS'market.fewer'
p3735
I1
sS'jump'
p3736
I1
sS'picked'
p3737
I2
sS'said.insurance'
p3738
I1
sS'berhad'
p3739
I1
sS'agm-84a'
p3740
I4
sS'bluntly'
p3741
I1
sS'experiment'
p3742
I2
sS'volatile'
p3743
I2
sS'1995.fast'
p3744
I1
sS'brunei'
p3745
I1
sS'stance'
p3746
I12
sS'commercial'
p3747
I10
sS'defector'
p3748
I3
sS'following'
p3749
I22
sS'quell'
p3750
I1
sS'focused'
p3751
I3
sS'25bp'
p3752
I1
sS'huaicheng'
p3753
I1
sS'spratly'
p3754
I5
sS'kidnapped'
p3755
I1
sS'impact.many'
p3756
I2
sS'copyright'
p3757
I3
sS'pressure'
p3758
I10
sS'noisily'
p3759
I1
sS'withdrawing'
p3760
I2
sS'hiroshima'
p3761
I1
sS'standards.the'
p3762
I4
sS'products'
p3763
I39
sS"weren't"
p3764
I1
sS'oversees'
p3765
I4
sS'consildation'
p3766
I1
sS'chang'
p3767
I9
sS'libarnes'
p3768
I1
sS'examining'
p3769
I1
sS'clark'
p3770
I1
sS'danger'
p3771
I1
sS'win'
p3772
I13
sS'manage'
p3773
I2
sS'collaborating'
p3774
I2
sS'clout'
p3775
I2
sS'4.73'
p3776
I1
sS'4.72'
p3777
I1
sS'announced'
p3778
I11
sS'penalty'
p3779
I4
sS'remains'
p3780
I3
sS'turnaround.zhenhai'
p3781
I1
sS'camera'
p3782
I1
sS'vehicle'
p3783
I1
sS'hiding'
p3784
I2
sS'formally'
p3785
I3
sS'started'
p3786
I17
sS'benchmark'
p3787
I3
sS'missile'
p3788
I9
sS'360.36'
p3789
I1
sS'mitsubishi'
p3790
I3
sS'appointed'
p3791
I11
sS'components.another'
p3792
I1
sS'47-60'
p3793
I1
sS'sanctions'
p3794
I1
sS'averaged'
p3795
I1
sS'recession'
p3796
I2
sS'servants'
p3797
I2
sS'meet'
p3798
I17
sS'averages'
p3799
I4
sS'control'
p3800
I16
sS'beijing'
p3801
I228
sS'links'
p3802
I15
sS'779,000'
p3803
I1
sS"we'd"
p3804
I2
sS'235'
p3805
I1
sS'sought'
p3806
I14
sS'hit'
p3807
I16
sS'falls'
p3808
I11
sS'arrangement'
p3809
I2
sS'located'
p3810
I2
sS'ideologically'
p3811
I1
sS'circular'
p3812
I1
sS'taihang'
p3813
I1
sS'farm'
p3814
I6
sS'misbehave.they'
p3815
I1
sS'insufficient'
p3816
I1
sS'territory.siazon'
p3817
I1
sS'foment'
p3818
I1
sS'advocated'
p3819
I2
sS'manhattan'
p3820
I1
sS'antananarivo'
p3821
I2
sS'advocates'
p3822
I2
sS'agenda'
p3823
I2
sS'quotations'
p3824
I1
sS'commerical'
p3825
I1
sS'including'
p3826
I36
sS'10bp'
p3827
I1
sS'cruise'
p3828
I1
sS'12.988'
p3829
I2
sS'facilitates'
p3830
I1
sS'hock'
p3831
I1
sS'helicopters'
p3832
I9
sS'masses'
p3833
I1
sS'backers'
p3834
I1
sS'ltd.all'
p3835
I1
sS'country.siazon'
p3836
I1
sS'imbalance'
p3837
I1
sS'popularly'
p3838
I2
sS'auto'
p3839
I2
sS'hands'
p3840
I7
sS'documented'
p3841
I1
sS'3,467.606'
p3842
I1
sS'announcement.traders'
p3843
I1
sS'university'
p3844
I4
sS'1996.much'
p3845
I1
sS'magnitude'
p3846
I2
sS'deposit.formerly'
p3847
I1
sS'crossing'
p3848
I1
sS'1997.in'
p3849
I1
sS'nationals'
p3850
I2
sS'adventurous'
p3851
I1
sS'upward'
p3852
I2
sS'female'
p3853
I1
sS'chung'
p3854
I2
sS'704'
p3855
I1
sS'globe'
p3856
I1
sS'aggravated'
p3857
I1
sS'variety'
p3858
I3
sS'measure'
p3859
I1
sS'margins'
p3860
I1
sS'special'
p3861
I22
sS'secretly'
p3862
I1
sS'production.diesel'
p3863
I1
sS'entertainment'
p3864
I3
sS'libor'
p3865
I2
sS'cause'
p3866
I5
sS'50.00'
p3867
I1
sS'23,970'
p3868
I1
sS'trading.trading'
p3869
I1
sS'recommendations'
p3870
I1
sS'delegates'
p3871
I1
sS'attending'
p3872
I1
sS'conservatives'
p3873
I1
sS'20,000'
p3874
I1
sS'resumed'
p3875
I1
sS'farmland'
p3876
I1
sS'reeled'
p3877
I1
sS'route'
p3878
I2
sS'times'
p3879
I31
sS'counterpart'
p3880
I1
sS'keen'
p3881
I1
sS'resumes'
p3882
I3
sS'prospective'
p3883
I1
sS'yong'
p3884
I3
sS'beixing'
p3885
I4
sS'powerful'
p3886
I8
sS'flunked'
p3887
I1
sS'120daythursday'
p3888
I1
sS'awarded'
p3889
I2
sS'quality'
p3890
I10
sS'overestimate'
p3891
I1
sS'management'
p3892
I15
sS'philippines.ptt'
p3893
I1
sS'revealed'
p3894
I1
sS'tinkering'
p3895
I1
sS'adopted'
p3896
I3
sS'attack'
p3897
I24
sS'99.9'
p3898
I3
sS'declines'
p3899
I1
sS'wrapped'
p3900
I1
sS'final'
p3901
I3
sS'2-0'
p3902
I1
sS'2-6'
p3903
I2
sS'earmarked'
p3904
I1
sS'dallying'
p3905
I1
sS'elaborating.czech'
p3906
I1
sS'credibility'
p3907
I1
sS'chemicals'
p3908
I1
sS'said.passenger'
p3909
I1
sS'manipulation'
p3910
I1
sS'bythe'
p3911
I1
sS'reunification'
p3912
I25
sS'updating'
p3913
I1
sS'yrs'
p3914
I1
sS'3,350'
p3915
I3
sS'range.the'
p3916
I1
sS'conscious'
p3917
I1
sS'submitted'
p3918
I2
sS'shares.the'
p3919
I2
sS'defense'
p3920
I1
sS'spurs'
p3921
I1
sS'dalian'
p3922
I3
sS'lightly'
p3923
I1
sS'tabs'
p3924
I1
sS'unchanged'
p3925
I10
sS'issue.he'
p3926
I1
sS'battlegroups'
p3927
I2
sS'need'
p3928
I13
sS'assurances'
p3929
I4
sS'japan.the'
p3930
I2
sS'daughter.wei'
p3931
I2
sS'heaped'
p3932
I2
sS'1998.the'
p3933
I1
sS'j&a'
p3934
I6
sS'able'
p3935
I17
sS'purchasing'
p3936
I1
sS'showed.analysts'
p3937
I1
sS'instance'
p3938
I2
sS'relatives'
p3939
I1
sS'issuing'
p3940
I3
sS'declined'
p3941
I28
sS'dealer.the'
p3942
I1
sS'china.small'
p3943
I1
sS'balloting'
p3944
I2
sS'mileage'
p3945
I1
sS'deploy'
p3946
I1
sS'china.under'
p3947
I1
sS'cartons.new'
p3948
I1
sS'dutch'
p3949
I3
sS'wednesday.zhejiang'
p3950
I1
sS'8.25'
p3951
I1
sS'repeated'
p3952
I5
sS'daiwa'
p3953
I5
sS'gesture'
p3954
I1
sS'businessman'
p3955
I1
sS'affair'
p3956
I1
sS'emerging'
p3957
I1
sS'2.423'
p3958
I2
sS'emptive'
p3959
I2
sS'violation'
p3960
I3
sS'output.rumours'
p3961
I1
sS'remarks.as'
p3962
I1
sS'tuesday.china'
p3963
I1
sS'sailings'
p3964
I7
sS'soldiers'
p3965
I2
sS'forex'
p3966
I5
sS'based'
p3967
I63
sS'ties.taiwan'
p3968
I1
sS'earned'
p3969
I1
sS'winner'
p3970
I3
sS'rash'
p3971
I1
sS'said.returnees'
p3972
I1
sS'finalised'
p3973
I1
sS'bases'
p3974
I1
sS'fuel'
p3975
I5
sS'employed'
p3976
I1
sS'achieve'
p3977
I2
sS'overall'
p3978
I8
sS'maritime'
p3979
I2
sS'sipping'
p3980
I1
sS'120'
p3981
I10
sS'joint'
p3982
I56
sS'123'
p3983
I2
sS'legitimate'
p3984
I1
sS'joins'
p3985
I1
sS'153.04'
p3986
I1
sS'kong'
p3987
I328
sS'procedures'
p3988
I4
sS'partner.the'
p3989
I1
sS'105,000'
p3990
I1
sS'11.248'
p3991
I1
sS'evolution'
p3992
I1
sS'sowing'
p3993
I2
sS'tobacco'
p3994
I3
sS'11.241'
p3995
I1
sS'expansions'
p3996
I1
sS'processed'
p3997
I3
sS'accuses'
p3998
I1
sS'34.9'
p3999
I2
sS'shake'
p4000
I1
sS'shrouded'
p4001
I1
sS'immigrant'
p4002
I1
sS'reinforce'
p4003
I1
sS'computer'
p4004
I5
sS'desperate'
p4005
I1
sS'operated'
p4006
I2
sS'thursday.computer'
p4007
I1
sS'harvested'
p4008
I1
sS'teng'
p4009
I12
sS'restrictions.bankers'
p4010
I1
sS'written'
p4011
I1
sS'horrible'
p4012
I1
sS'tens'
p4013
I1
sS'0.341'
p4014
I2
sS'wanxiang'
p4015
I1
sS'comparable'
p4016
I1
sS'attention'
p4017
I3
sS'spares'
p4018
I2
sS'importance'
p4019
I1
sS'xining'
p4020
I1
sS'interfere'
p4021
I13
sS'spared'
p4022
I1
sS'key'
p4023
I13
sS'police'
p4024
I12
sS'boomchongqing'
p4025
I1
sS'distribution'
p4026
I1
sS'13.77'
p4027
I1
sS'2.40'
p4028
I1
sS'hits'
p4029
I3
sS'2.44'
p4030
I1
sS'limits'
p4031
I2
sS'career'
p4032
I1
sS'12.192turnover'
p4033
I1
sS'minds'
p4034
I2
sS'admit'
p4035
I1
sS'23,500'
p4036
I2
sS'said.tackling'
p4037
I1
sS'diplomats'
p4038
I7
sS'said.excessive'
p4039
I1
sS'normalisation'
p4040
I1
sS'pin'
p4041
I1
sS'addition'
p4042
I11
sS'discrimination'
p4043
I2
sS'cent'
p4044
I2
sS'slowly'
p4045
I2
sS'treat'
p4046
I2
sS'minimise'
p4047
I1
sS'poet'
p4048
I1
sS'armistice'
p4049
I1
sS'shantou'
p4050
I1
sS'controlled'
p4051
I2
sS'said.that'
p4052
I1
sS'plant.the'
p4053
I1
sS'58.5'
p4054
I1
sS'3,200'
p4055
I2
sS'bipartisan'
p4056
I1
sS'license'
p4057
I1
sS'intimidate'
p4058
I1
sS'harder'
p4059
I1
sS'58.8'
p4060
I2
sS'queuing'
p4061
I1
sS'secrets'
p4062
I1
sS'180,000'
p4063
I1
sS'boomtowns'
p4064
I1
sS'2843-6371'
p4065
I4
sS'owns'
p4066
I5
sS'2,300'
p4067
I2
sS'resident'
p4068
I3
sS'1-s'
p4069
I1
sS'4.56'
p4070
I1
sS'capture'
p4071
I1
sS'began'
p4072
I11
sS'civilian'
p4073
I2
sS'proceeds'
p4074
I3
sS'strange'
p4075
I1
sS'speaker'
p4076
I21
sS'northwest'
p4077
I2
sS'1990s'
p4078
I2
sS'underground'
p4079
I3
sS'party'
p4080
I36
sS'helium'
p4081
I1
sS'http'
p4082
I1
sS'absorb'
p4083
I2
sS'party.while'
p4084
I1
sS'effect'
p4085
I2
sS'qianchao'
p4086
I1
sS'discouraged'
p4087
I1
sS'frequently'
p4088
I1
sS'reporters.beijing'
p4089
I1
sS'reformteaching'
p4090
I1
sS'poultry'
p4091
I1
sS'10.apr.97'
p4092
I1
sS'obstacles'
p4093
I3
sS'years.at'
p4094
I1
sS'64.5'
p4095
I7
sS'trials'
p4096
I1
sS'increasingly'
p4097
I2
sS'42'
p4098
I3
sS'accurate'
p4099
I1
sS'neighbours.hanoi'
p4100
I1
sS'sources'
p4101
I22
sS'distant'
p4102
I3
sS'friday.that'
p4103
I1
sS'advertised'
p4104
I2
sS'skill'
p4105
I1
sS'said.airola'
p4106
I1
sS'deposits'
p4107
I12
sS'shipment.taipei'
p4108
I2
sS'uighur'
p4109
I1
sS'ipma2'
p4110
I1
sS'warrant'
p4111
I4
sS'kick'
p4112
I1
sS'china.taiwan'
p4113
I1
sS'fate'
p4114
I3
sS'crushed'
p4115
I2
sS'historic'
p4116
I3
sS'267'
p4117
I1
sS'burden'
p4118
I3
sS'racially'
p4119
I1
sS'prominent'
p4120
I6
sS'loss'
p4121
I11
sS'necessary'
p4122
I8
sS'renegade'
p4123
I13
sS'lost'
p4124
I18
sS'88.4'
p4125
I2
sS'august.built'
p4126
I2
sS'sized'
p4127
I1
sS'jianhui'
p4128
I1
sS'payments'
p4129
I3
sS'lose'
p4130
I7
sS'page'
p4131
I4
sS'shed'
p4132
I3
sS'shen'
p4133
I28
sS'shek'
p4134
I3
sS'240,00'
p4135
I1
sS'jlg'
p4136
I3
sS'repeat'
p4137
I1
sS'home'
p4138
I14
sS'peter'
p4139
I1
sS'15,750'
p4140
I1
sS'competitor'
p4141
I2
sS'zhou'
p4142
I3
sS'broad'
p4143
I5
sS'appreciative'
p4144
I1
sS'cradle'
p4145
I1
sS'sponsoring'
p4146
I3
sS'speakership'
p4147
I1
sS'117.85'
p4148
I3
sS'4.361'
p4149
I1
sS'inaccurate'
p4150
I2
sS'journal'
p4151
I2
sS'monetary'
p4152
I2
sS'expansion'
p4153
I20
sS'duk'
p4154
I1
sS'schoolyard'
p4155
I2
sS'offset'
p4156
I3
sS'90,000'
p4157
I1
sS'refuge'
p4158
I1
sS'2,830'
p4159
I1
sS'freedom'
p4160
I11
sS'pu'
p4161
I2
sS'23.5'
p4162
I2
sS'said.state'
p4163
I1
sS'equally'
p4164
I2
sS'celebrations'
p4165
I2
sS'18.60'
p4166
I1
sS'previously'
p4167
I2
sS'washington'
p4168
I61
sS'assessments.in'
p4169
I1
sS'managing'
p4170
I2
sS'rains.chongqing'
p4171
I1
sS'1991-1994'
p4172
I1
sS'accused'
p4173
I5
sS'additional'
p4174
I5
sS'capital.marking'
p4175
I1
sS'12-year'
p4176
I1
sS'relegated'
p4177
I2
sS'imperial'
p4178
I1
sS'inner'
p4179
I3
sS'receipt'
p4180
I1
sS'north'
p4181
I31
sS'agrees'
p4182
I1
sS'23,990'
p4183
I1
sS'hu'
p4184
I2
sS'hk'
p4185
I68
sS'neutral'
p4186
I3
sS'ho'
p4187
I1
sS'ear'
p4188
I1
sS'demilitarized'
p4189
I1
sS'itic'
p4190
I1
sS'hosting'
p4191
I1
sS'signed'
p4192
I22
sS'limit'
p4193
I8
sS'piece'
p4194
I1
sS'display'
p4195
I3
sS'urging'
p4196
I5
sS'marketplace'
p4197
I3
sS'erik'
p4198
I1
sS'21.01'
p4199
I1
sS'education'
p4200
I6
sS'eric'
p4201
I2
sS'month.the'
p4202
I2
sS'rumors'
p4203
I1
sS'contest'
p4204
I1
sS'470'
p4205
I1
sS'envisaged'
p4206
I1
sS'fledgling'
p4207
I2
sS'acrylic'
p4208
I1
sS'future.zinc'
p4209
I1
sS'said.xiong'
p4210
I1
sS'star'
p4211
I15
sS'living'
p4212
I5
sS'delfin'
p4213
I1
sS'stay'
p4214
I19
sS'backstage'
p4215
I1
sS'shares.inner'
p4216
I2
sS'friends'
p4217
I2
sS'samsung'
p4218
I1
sS'persistent'
p4219
I2
sS'portion'
p4220
I1
sS'uneducated'
p4221
I1
sS'determination'
p4222
I2
sS'indirectly'
p4223
I4
sS'paperless'
p4224
I1
sS'loan.from'
p4225
I1
sS'director.the'
p4226
I1
sS'style.some'
p4227
I1
sS'sichuan'
p4228
I9
sS'protest'
p4229
I5
sS'asian'
p4230
I21
sS'tajikistan'
p4231
I3
sS'pensions'
p4232
I1
sS'exploding'
p4233
I1
sS'restriction'
p4234
I1
sS'28-day'
p4235
I1
sS'beijing.while'
p4236
I2
sS'communique'
p4237
I2
sS'said.there'
p4238
I2
sS'years.however'
p4239
I1
sS'railways'
p4240
I1
sS'rates.there'
p4241
I1
sS'stolen'
p4242
I2
sS'reforms'
p4243
I11
sS'affect'
p4244
I3
sS'alpine'
p4245
I1
sS'election.taiwan'
p4246
I1
sS'crops'
p4247
I4
sS'companies'
p4248
I85
sS'convenience'
p4249
I1
sS'enhance'
p4250
I1
sS'unauthorised'
p4251
I2
sS'whirlwind'
p4252
I3
sS'favoured'
p4253
I1
sS'force'
p4254
I28
sS'services.china'
p4255
I1
sS'thursday.taipei'
p4256
I1
sS'chiung'
p4257
I1
sS'japanese'
p4258
I20
sS'likely'
p4259
I32
sS'beingschongqing'
p4260
I1
sS'custom.accommodation'
p4261
I1
sS'implemented'
p4262
I2
sS'preferences'
p4263
I1
sS'acation'
p4264
I1
sS'neg'
p4265
I1
sS'asia'
p4266
I39
sS'spokesman'
p4267
I46
sS'cheng'
p4268
I1
sS'new'
p4269
I106
sS'net'
p4270
I45
sS'neu'
p4271
I2
sS'relationships'
p4272
I1
sS'barometer'
p4273
I4
sS'men'
p4274
I6
sS'drew'
p4275
I2
sS'met'
p4276
I6
sS'jinglian'
p4277
I1
sS'active'
p4278
I37
sS'103'
p4279
I1
sS'100'
p4280
I19
sS"aren't"
p4281
I2
sS'106'
p4282
I1
sS'dry'
p4283
I1
sS'saying.in'
p4284
I1
sS'credit'
p4285
I4
sS'changzhou'
p4286
I1
sS'saying.it'
p4287
I1
sS'permit'
p4288
I3
sS'complicated'
p4289
I3
sS'campaign'
p4290
I8
sS'said.lawmakers'
p4291
I1
sS'shouhai'
p4292
I2
sS'county'
p4293
I4
sS'moral'
p4294
I2
sS'guests'
p4295
I6
sS'soybean'
p4296
I7
sS'pyongyang'
p4297
I12
sS'consultations.that'
p4298
I2
sS'rss1'
p4299
I1
sS'rss3'
p4300
I1
sS'army'
p4301
I13
sS'arms'
p4302
I14
sS'calm'
p4303
I4
sS'recommend'
p4304
I1
sS'23,690'
p4305
I1
sS'type'
p4306
I1
sS'tell'
p4307
I2
sS'kgs'
p4308
I2
sS'posting'
p4309
I2
sS'breeders'
p4310
I2
sS'wary'
p4311
I8
sS'warn'
p4312
I2
sS'warm'
p4313
I2
sS'adult'
p4314
I1
sS'risks.they'
p4315
I1
sS'aligned'
p4316
I2
sS'friday.proceeds'
p4317
I1
sS'kumar'
p4318
I1
sS'room'
p4319
I2
sS'rights'
p4320
I50
sS'setup'
p4321
I1
sS'162.50'
p4322
I2
sS'statistics.foreign'
p4323
I1
sS'2.61'
p4324
I2
sS'jeopardised'
p4325
I1
sS'directly.copies'
p4326
I1
sS'headphones'
p4327
I1
sS'10,000'
p4328
I15
sS'added.a'
p4329
I2
sS'routed'
p4330
I3
sS'colony.hong'
p4331
I1
sS'autonomy'
p4332
I6
sS'sideline'
p4333
I1
sS'brandeis'
p4334
I3
sS'aboard'
p4335
I1
sS'president'
p4336
I65
sS'royce'
p4337
I1
sS'purchase'
p4338
I5
sS'recently.official'
p4339
I1
sS'maintain'
p4340
I17
sS'48-year'
p4341
I2
sS'capitalist'
p4342
I10
sS'685'
p4343
I1
sS'exhorted'
p4344
I1
sS'fifa'
p4345
I5
sS'said.she'
p4346
I1
sS'referring.xinhua'
p4347
I1
sS'436.731'
p4348
I1
sS'soyoil'
p4349
I1
sS'interview.environmental'
p4350
I1
sS'peace.asean'
p4351
I1
sS'4.37'
p4352
I1
sS'84,000'
p4353
I1
sS'10.1'
p4354
I3
sS'10.2'
p4355
I1
sS'10.7'
p4356
I2
sS'personal'
p4357
I4
sS'22.55'
p4358
I2
sS'better'
p4359
I7
sS'persist'
p4360
I1
sS'weeks'
p4361
I22
sS'289.42'
p4362
I1
sS'weakness'
p4363
I1
sS'percent.officials'
p4364
I2
sS'1,295'
p4365
I1
sS'intimidation'
p4366
I3
sS'caterpillar'
p4367
I8
sS'project.asimco'
p4368
I1
sS'unregistered'
p4369
I1
sS'cathodes'
p4370
I1
sS'apline'
p4371
I1
sS'arrested'
p4372
I2
sS'pudong'
p4373
I7
sS'went'
p4374
I4
sS'6.7300'
p4375
I1
sS'meal'
p4376
I6
sS'mean'
p4377
I3
sS'interruption'
p4378
I1
sS'said.usda'
p4379
I1
sS'enthusiasts'
p4380
I1
sS'aide'
p4381
I1
sS'trading'
p4382
I72
sS'downplayed'
p4383
I1
sS'79.2'
p4384
I1
sS'clauses'
p4385
I1
sS'extract'
p4386
I1
sS'apply.the'
p4387
I2
sS'merchants'
p4388
I3
sS'restricted'
p4389
I4
sS'122.8'
p4390
I1
sS'crucial'
p4391
I1
sS'content'
p4392
I4
sS'centre.since'
p4393
I1
sS'sluggish'
p4394
I3
sS'university.she'
p4395
I1
sS'turning'
p4396
I1
sS'resume'
p4397
I4
sS'11.03'
p4398
I1
sS'245'
p4399
I1
sS'246'
p4400
I1
sS'23,900.combined'
p4401
I1
sS'struggle'
p4402
I1
sS'swimming'
p4403
I6
sS'3.90'
p4404
I1
sS'3.98'
p4405
I1
sS'starts'
p4406
I1
sS'condemnations'
p4407
I1
sS'country.tellez'
p4408
I1
sS'xue'
p4409
I2
sS'arrived'
p4410
I7
sS'vijay'
p4411
I1
sS'stewart'
p4412
I1
sS'playwright'
p4413
I1
sS'grade'
p4414
I5
sS'yuan.trading'
p4415
I1
sS'executions'
p4416
I5
sS'zhuzhou'
p4417
I5
sS'hawks'
p4418
I1
sS'historian'
p4419
I1
sS'242.76'
p4420
I1
sS'draft'
p4421
I3
sS'inflow'
p4422
I1
sS'1.most'
p4423
I1
sS'weddings'
p4424
I1
sS'bouncing'
p4425
I1
sS'villager'
p4426
I1
sS'villages'
p4427
I3
sS'objecting'
p4428
I1
sS'begins'
p4429
I3
sS'distance'
p4430
I4
sS'anxiety'
p4431
I2
sS'affront'
p4432
I1
sS'enabled'
p4433
I1
sS'urumqi'
p4434
I1
sS'matter'
p4435
I7
sS'solomon'
p4436
I1
sS'street'
p4437
I3
sS'espouse'
p4438
I1
sS'wielded'
p4439
I1
sS'11.581'
p4440
I2
sS'dispute.an'
p4441
I2
sS'minh'
p4442
I1
sS'mini'
p4443
I1
sS'sees'
p4444
I7
sS'18.05'
p4445
I1
sS'modern'
p4446
I5
sS'mind'
p4447
I2
sS'ming'
p4448
I5
sS'971.42'
p4449
I1
sS'seed'
p4450
I1
sS'seen'
p4451
I27
sS'seek'
p4452
I14
sS'tells'
p4453
I2
sS'5.03'
p4454
I4
sS'140,000'
p4455
I2
sS'china.the'
p4456
I9
sS'desist'
p4457
I2
sS'kaohsiung'
p4458
I12
sS'project.lionda'
p4459
I1
sS'machinery'
p4460
I7
sS'prueher'
p4461
I1
sS'established'
p4462
I2
sS'impurities'
p4463
I1
sS'regular'
p4464
I4
sS'chavalit'
p4465
I6
sS'dom'
p4466
I1
sS'medical'
p4467
I1
sS'worsen'
p4468
I1
sS'competitors'
p4469
I3
sS'points'
p4470
I83
sS'principle'
p4471
I2
sS'consumer'
p4472
I5
sS'20-30'
p4473
I3
sS'discontent'
p4474
I3
sS'hunger'
p4475
I3
sS'slashed'
p4476
I1
sS'ending'
p4477
I7
sS'treaties'
p4478
I1
sS'attempts'
p4479
I2
sS'chartered'
p4480
I1
sS'supplied'
p4481
I1
sS'sneaking'
p4482
I1
sS'representing'
p4483
I1
sS'easiermotorcycles'
p4484
I1
sS'debts'
p4485
I2
sS'sugar'
p4486
I1
sS'unleashed'
p4487
I1
sS'identified.cohen'
p4488
I1
sS'jailed'
p4489
I1
sS'jpta'
p4490
I1
sS'exports'
p4491
I13
sS'stop'
p4492
I5
sS'coast'
p4493
I15
sS'heilongjiang'
p4494
I1
sS'patten'
p4495
I3
sS'quarters'
p4496
I2
sS'bar'
p4497
I2
sS'sailing'
p4498
I3
sS'fields'
p4499
I6
sS'bay'
p4500
I5
sS'bad'
p4501
I4
sS'ban'
p4502
I7
sS'bao'
p4503
I1
sS'said.u.s'
p4504
I1
sS'arms.china'
p4505
I1
sS'66.3'
p4506
I1
sS'14.71'
p4507
I1
sS'decided'
p4508
I14
sS'incorporating'
p4509
I1
sS'subject'
p4510
I4
sS'brazil'
p4511
I3
sS'said'
p4512
I940
sS'scrap'
p4513
I2
sS'sail'
p4514
I1
sS'159.25'
p4515
I1
sS'olympics'
p4516
I3
sS'member.however'
p4517
I1
sS'dutch.restaurants'
p4518
I1
sS'huong'
p4519
I1
sS'tamed'
p4520
I1
sS'vows'
p4521
I3
sS'restricting'
p4522
I1
sS'ignorance'
p4523
I1
sS'380'
p4524
I2
sS'friday.tibet'
p4525
I1
sS'said.south'
p4526
I1
sS'picking'
p4527
I1
sS'30-million'
p4528
I1
sS'suggested'
p4529
I5
sS'localisation'
p4530
I1
sS'11.697'
p4531
I1
sS'uncertainty'
p4532
I5
sS'friday.gucci'
p4533
I1
sS'und'
p4534
I1
sS'contribution'
p4535
I1
sS'settled.beijing'
p4536
I1
sS'appeared'
p4537
I4
sS'area.china'
p4538
I2
sS'jinan'
p4539
I2
sS'said.on'
p4540
I2
sS'initiative'
p4541
I1
sS'foray'
p4542
I2
sS'springs'
p4543
I1
sS'said.of'
p4544
I2
sS'said.aluminium'
p4545
I3
sS'sam'
p4546
I1
sS'asks'
p4547
I1
sS'basis'
p4548
I21
sS'tiny'
p4549
I1
sS'ting'
p4550
I4
sS'commission'
p4551
I34
sS'recognised'
p4552
I7
sS'detrimental'
p4553
I1
sS'basic'
p4554
I12
sS'entered'
p4555
I1
sS'feedstuffs'
p4556
I1
sS'china.two'
p4557
I1
sS'exhibition'
p4558
I2
sS'deeper'
p4559
I1
sS'prosperous'
p4560
I3
sS'chun'
p4561
I2
sS'quantities'
p4562
I1
sS'tapping'
p4563
I2
sS'169'
p4564
I1
sS'personally'
p4565
I1
sS'11.204'
p4566
I1
sS'aviation'
p4567
I17
sS'regretted'
p4568
I1
sS'160'
p4569
I2
sS'side.the'
p4570
I1
sS'economies'
p4571
I2
sS'tana'
p4572
I1
sS'ugly'
p4573
I1
sS'near'
p4574
I16
sS'moratorium'
p4575
I2
sS'panamax'
p4576
I2
sS'study'
p4577
I3
sS'seven'
p4578
I34
sS'said.another'
p4579
I3
sS'hunan'
p4580
I1
sS'mexico'
p4581
I4
sS'0.33'
p4582
I1
sS'defeated'
p4583
I9
sS'ii'
p4584
I1
sS'il'
p4585
I2
sS'slogans.welcome'
p4586
I1
sS'0.30'
p4587
I2
sS'mouse'
p4588
I1
sS'sever'
p4589
I3
sS'prices.the'
p4590
I2
sS'0.472'
p4591
I2
sS'overstated'
p4592
I1
sS'0.470'
p4593
I2
sS'quang'
p4594
I2
sS'make'
p4595
I46
sS'tests.india'
p4596
I1
sS'sidelined'
p4597
I3
sS'potentially'
p4598
I7
sS'vegetable'
p4599
I1
sS'sidelines'
p4600
I10
sS'tonne.traders'
p4601
I1
sS'sodden'
p4602
I1
sS'meets'
p4603
I2
sS'discriminatory'
p4604
I2
sS'declaring'
p4605
I1
sS'renaissance'
p4606
I1
sS'border.the'
p4607
I1
sS'kim'
p4608
I5
sS'opportunity'
p4609
I3
sS'settled'
p4610
I2
sS'failing'
p4611
I2
sS'unconcerned'
p4612
I1
sS'practices'
p4613
I1
sS'claims'
p4614
I16
sS'800'
p4615
I1
sS'investments'
p4616
I14
sS'added.traders'
p4617
I2
sS'left'
p4618
I12
sS'facto'
p4619
I3
sS'just'
p4620
I22
sS'sentence'
p4621
I1
sS'statement.it'
p4622
I1
sS'unfair'
p4623
I1
sS'fighters'
p4624
I1
sS'human'
p4625
I46
sS'yangming'
p4626
I2
sS'yes'
p4627
I5
sS'32'
p4628
I1
sS'buyers'
p4629
I8
sS'nudge'
p4630
I2
sS'catalytic'
p4631
I1
sS'candidate'
p4632
I3
sS'regarded'
p4633
I10
sS'squad'
p4634
I1
sS'ikeda'
p4635
I3
sS'accepted.chinese'
p4636
I2
sS'save'
p4637
I2
sS'designate'
p4638
I3
sS'sapped'
p4639
I1
sS'maids.tellez'
p4640
I1
sS'angrily'
p4641
I1
sS'auspicious'
p4642
I1
sS'nationalists'
p4643
I2
sS'food.a'
p4644
I1
sS'farms'
p4645
I1
sS'neighbours.vietnamese'
p4646
I1
sS'dreams'
p4647
I3
sS'dignity'
p4648
I1
sS'1557'
p4649
I2
sS'patience'
p4650
I1
sS'performing'
p4651
I1
sS'way.china'
p4652
I1
sS'qichen'
p4653
I1
sS'dispute.they'
p4654
I4
sS'wuerkaixi'
p4655
I7
sS'pillar'
p4656
I1
sS'300u.s'
p4657
I1
sS'deal'
p4658
I33
sS'dead'
p4659
I1
sS'unfit'
p4660
I1
sS'outspoken'
p4661
I6
sS'22.37'
p4662
I1
sS'355-360'
p4663
I1
sS'guotai'
p4664
I10
sS'yongxiang'
p4665
I1
sS'announced.in'
p4666
I1
sS'6279-8544'
p4667
I2
sS'said.this'
p4668
I1
sS'confrontation'
p4669
I2
sS'16,020'
p4670
I1
sS'super'
p4671
I4
sS'year.chinese'
p4672
I1
sS'flourished'
p4673
I1
sS'woulkd'
p4674
I1
sS'conceal'
p4675
I1
sS'afternoon'
p4676
I4
sS'islands'
p4677
I6
sS'managers'
p4678
I10
sS'amounted'
p4679
I4
sS'lien'
p4680
I6
sS'lies'
p4681
I4
sS'shippers'
p4682
I12
sS'armada'
p4683
I1
sS'shanghai.he'
p4684
I1
sS'binding'
p4685
I1
sS'indra'
p4686
I1
sS'communists'
p4687
I8
sS'initial'
p4688
I6
sS'offering'
p4689
I4
sS'm2'
p4690
I2
sS'11.27'
p4691
I1
sS'landing'
p4692
I2
sS'failure'
p4693
I2
sS'1.5-for-10'
p4694
I1
sS'lows'
p4695
I3
sS'syndicate'
p4696
I1
sS'226'
p4697
I1
sS'analyst'
p4698
I30
sS'220'
p4699
I2
sS'minmetals'
p4700
I2
sS'rashid'
p4701
I1
sS'whisked'
p4702
I1
sS'splittists'
p4703
I2
sS'propaganda'
p4704
I2
sS'26.30'
p4705
I1
sS'separated'
p4706
I1
sS'sa-12'
p4707
I1
sS'zeng'
p4708
I1
sS'sale'
p4709
I1
sS'singaporeans'
p4710
I1
sS'claimants'
p4711
I4
sS'ship'
p4712
I1
sS'marking'
p4713
I3
sS'nichimen'
p4714
I1
sS'agreeing'
p4715
I1
sS'generally'
p4716
I2
sS'116.50-117.50'
p4717
I1
sS'handed'
p4718
I5
sS'nabco'
p4719
I1
sS'digital'
p4720
I1
sS'warehouse'
p4721
I2
sS'felt'
p4722
I5
sS'fell'
p4723
I43
sS'exported'
p4724
I1
sS'authorities'
p4725
I15
sS'transfers'
p4726
I1
sS'weekend'
p4727
I12
sS'died'
p4728
I3
sS'billion'
p4729
I128
sS'potato'
p4730
I3
sS'daily'
p4731
I47
sS'cordiant'
p4732
I1
sS'premiums'
p4733
I9
sS'unchanged.the'
p4734
I1
sS'profits'
p4735
I19
sS'precise'
p4736
I1
sS'managed'
p4737
I2
sS'said.re'
p4738
I1
sS'18.24'
p4739
I1
sS'manager'
p4740
I9
sS'01.apr.97'
p4741
I1
sS'5.63'
p4742
I1
sS'1.010'
p4743
I2
sS'37.3'
p4744
I1
sS'5.67'
p4745
I1
sS'37.5'
p4746
I4
sS'5.65'
p4747
I2
sS'korea.ramos'
p4748
I1
sS'suicide'
p4749
I3
sS'praises'
p4750
I1
sS'tariff'
p4751
I2
sS'father'
p4752
I1
sS'administration.china'
p4753
I1
sS'government.gingrich'
p4754
I1
sS'0'
p4755
I8
sS'finally'
p4756
I1
sS'praised'
p4757
I3
sS'sovereignty'
p4758
I30
sS'infuriate'
p4759
I1
sS'string'
p4760
I1
sS'billionaire'
p4761
I2
sS'construction'
p4762
I23
sS'homes.under'
p4763
I3
sS'lynch'
p4764
I6
sS'advised'
p4765
I1
sS'word'
p4766
I2
sS'payrolls.bureau'
p4767
I2
sS'stiffen'
p4768
I1
sS'did'
p4769
I32
sS'apartheid'
p4770
I1
sS'permits'
p4771
I4
sS'lawsuit.as'
p4772
I1
sS'0.624'
p4773
I1
sS'dip'
p4774
I1
sS'round'
p4775
I3
sS'attracting'
p4776
I1
sS'olympic'
p4777
I2
sS'dealing'
p4778
I2
sS'months.in'
p4779
I1
sS'public.shenzhen'
p4780
I2
sS'resurgence'
p4781
I3
sS'indochina'
p4782
I1
sS'republic.beijing'
p4783
I1
sS'favour'
p4784
I3
sS'reunite'
p4785
I1
sS'suspect'
p4786
I3
sS'international'
p4787
I87
sS'filled'
p4788
I1
sS'3,200-strong'
p4789
I1
sS'transportation'
p4790
I3
sS'council.poll'
p4791
I1
sS'tibet'
p4792
I21
sS'sir20'
p4793
I1
sS'french'
p4794
I12
sS'okinawa'
p4795
I3
sS'corporation'
p4796
I3
sS'rebates'
p4797
I1
sS'wait'
p4798
I7
sS'box'
p4799
I1
sS'bbc2'
p4800
I1
sS'canadian'
p4801
I1
sS'institute'
p4802
I4
sS'shift'
p4803
I2
sS'nanshan'
p4804
I1
sS'bow'
p4805
I2
sS'exploitation'
p4806
I4
sS'spheres'
p4807
I2
sS'suggestion'
p4808
I4
sS'boc'
p4809
I1
sS'taipei'
p4810
I42
sS'merely'
p4811
I3
sS'14.96'
p4812
I1
sS'msci'
p4813
I1
sS'contradictions'
p4814
I1
sS'plots'
p4815
I1
sS'ailing'
p4816
I2
sS'hotels'
p4817
I3
sS'said.macau'
p4818
I1
sS'infinitum'
p4819
I1
sS'troops'
p4820
I13
sS'sake'
p4821
I2
sS'visit'
p4822
I63
sS'france'
p4823
I7
sS'drilling.last'
p4824
I1
sS'vaccine'
p4825
I1
sS'flaunting'
p4826
I1
sS'francs'
p4827
I2
sS'ports'
p4828
I10
sS'sharing'
p4829
I3
sS'elaborating'
p4830
I1
sS'faith'
p4831
I1
sS'freestyle'
p4832
I2
sS'acceptable'
p4833
I3
sS'11.46'
p4834
I1
sS'malay'
p4835
I1
sS'tuesday.worldbest'
p4836
I1
sS'bayerische'
p4837
I3
sS'effort'
p4838
I2
sS'fly'
p4839
I2
sS'tokyo'
p4840
I5
sS'quoting'
p4841
I2
sS'reviews'
p4842
I2
sS'1996-2000'
p4843
I1
sS'applications.taiwan'
p4844
I1
sS'growing'
p4845
I17
sS'making'
p4846
I19
sS'geneva.bill'
p4847
I1
sS'arrive'
p4848
I1
sS'guangnan'
p4849
I1
sS'claim'
p4850
I7
sS'lobbying'
p4851
I1
sS'battered'
p4852
I3
sS'council'
p4853
I16
sS'ping'
p4854
I1
sS'chemical'
p4855
I5
sS'sunday'
p4856
I4
sS'19.40'
p4857
I1
sS'business.as'
p4858
I1
sS'staying'
p4859
I4
sS'142'
p4860
I1
sS'mat'
p4861
I1
sS'140'
p4862
I2
sS'critics'
p4863
I1
sS'149'
p4864
I1
sS'membership'
p4865
I4
sS'designed'
p4866
I3
sS'messaging'
p4867
I1
sS'inevitable'
p4868
I1
sS'said.together'
p4869
I1
sS'maj'
p4870
I1
sS'grow'
p4871
I5
sS'mao'
p4872
I6
sS'man'
p4873
I3
sS'16,000'
p4874
I1
sS'borrowing'
p4875
I1
sS'jail'
p4876
I1
sS'deposit'
p4877
I8
sS'uncivilised'
p4878
I1
sS'african'
p4879
I8
sS'talk'
p4880
I8
sS'said.dealers'
p4881
I1
sS'use.one'
p4882
I1
sS'1995.worldbest'
p4883
I1
sS'1,260/70'
p4884
I1
sS'gradual'
p4885
I1
sS'pointed'
p4886
I1
sS'wishing'
p4887
I1
sS'entity'
p4888
I4
sS'stability'
p4889
I6
sS'cuts'
p4890
I3
sS'argued'
p4891
I2
sS'consolidating'
p4892
I4
sS'group'
p4893
I41
sS'monitor'
p4894
I2
sS'soon.there'
p4895
I1
sS'undermined'
p4896
I1
sS'3,440.combined'
p4897
I2
sS'gen'
p4898
I1
sS'ban.in'
p4899
I1
sS'listing'
p4900
I6
sS'policy'
p4901
I40
sS'mail'
p4902
I1
sS'main'
p4903
I26
sS'8.2972'
p4904
I5
sS'8.2970'
p4905
I6
sS'8.2971'
p4906
I1
sS'finance'
p4907
I27
sS'views'
p4908
I5
sS'enclave'
p4909
I4
sS'lunch'
p4910
I3
sS'anson'
p4911
I2
sS'tellez'
p4912
I1
sS'killed'
p4913
I4
sS'developments'
p4914
I6
sS'14.4'
p4915
I1
sS'416.07'
p4916
I1
sS'13.48'
p4917
I2
sS'14.8'
p4918
I1
sS'taipei.responding'
p4919
I1
sS'incomesmost'
p4920
I1
sS'vogue'
p4921
I1
sS'motherland'
p4922
I4
sS'latin'
p4923
I2
sS'1995.de'
p4924
I1
sS'rates.the'
p4925
I1
sS'fever'
p4926
I2
sS'summary'
p4927
I8
sS'55.467'
p4928
I2
sS'canada'
p4929
I5
sS'emerges'
p4930
I1
sS'interference'
p4931
I5
sS'82.9'
p4932
I1
sS'explain'
p4933
I1
sS'emerged'
p4934
I1
sS'dioxide'
p4935
I1
sS'correct'
p4936
I1
sS'assurance'
p4937
I2
sS'registries'
p4938
I3
sS'mercantile'
p4939
I2
sS'hefty'
p4940
I2
sS'mechanisms'
p4941
I1
sS'madagascar'
p4942
I4
sS'romans'
p4943
I1
sS'statement.ethnic'
p4944
I1
sS'demanding'
p4945
I3
sS'ore'
p4946
I4
sS'forbids'
p4947
I2
sS'220,000'
p4948
I1
sS'advance'
p4949
I7
sS'language'
p4950
I2
sS'ministry'
p4951
I69
sS'listings'
p4952
I2
sS'audited'
p4953
I1
sS'generalissimo'
p4954
I2
sS'ningbo.construction'
p4955
I1
sS'60day'
p4956
I4
sS'think'
p4957
I23
sS'waited'
p4958
I1
sS'work.but'
p4959
I1
sS'120daywednesday'
p4960
I1
sS'polyster'
p4961
I1
sS'said.sales'
p4962
I1
sS'americans'
p4963
I5
sS'long'
p4964
I54
sS'suspended'
p4965
I4
sS'carry'
p4966
I5
sS'asimco'
p4967
I5
sS'little'
p4968
I13
sS'said.to'
p4969
I1
sS'5.49'
p4970
I1
sS'visas'
p4971
I1
sS'1973-1995'
p4972
I1
sS'speaking'
p4973
I10
sS'prettier'
p4974
I1
sS'mining'
p4975
I4
sS'allegedly'
p4976
I1
sS'moscow'
p4977
I2
sS'continuous'
p4978
I1
sS'taiwan.havel'
p4979
I1
sS'ceramics'
p4980
I1
sS'11'
p4981
I9
sS'10'
p4982
I63
sS'13'
p4983
I7
sS'12'
p4984
I9
sS'15'
p4985
I18
sS'14'
p4986
I8
sS'17'
p4987
I4
sS'16'
p4988
I10
sS'19'
p4989
I7
sS'18'
p4990
I4
sS'restate'
p4991
I1
sS'protected'
p4992
I2
sS'venture'
p4993
I40
sS'1992.the'
p4994
I1
sS'notched'
p4995
I1
sS'350,000'
p4996
I1
sS'16,280'
p4997
I1
sS'topics'
p4998
I1
sS'31.he'
p4999
I1
sS'bailed'
p5000
I1
sS'decision.after'
p5001
I1
sS'md-90'
p5002
I1
sS'answering'
p5003
I1
sS'consortium'
p5004
I2
sS'potential'
p5005
I19
sS'department.kartman'
p5006
I1
sS'interior'
p5007
I2
sS'performance'
p5008
I12
sS'switching'
p5009
I2
sS'channel'
p5010
I2
sS'glickman'
p5011
I6
sS'200'
p5012
I13
sS'690,000'
p5013
I2
sS'202'
p5014
I1
sS'pain'
p5015
I1
sS'normal'
p5016
I5
sS'arguing'
p5017
I2
sS'incidence'
p5018
I1
sS'paid'
p5019
I8
sS'assault'
p5020
I2
sS'sheets'
p5021
I1
sS'showed.china'
p5022
I1
sS'complaints'
p5023
I3
sS'especially'
p5024
I8
sS'surprising'
p5025
I1
sS'financing.china'
p5026
I1
sS'greed'
p5027
I1
sS'alarming'
p5028
I1
sS'shop'
p5029
I2
sS'rating'
p5030
I3
sS'shot'
p5031
I2
sS'for-10'
p5032
I4
sS'delta'
p5033
I3
sS'accession'
p5034
I1
sS'elevate'
p5035
I1
sS'shoe'
p5036
I1
sS'beihai'
p5037
I1
sS'rouble'
p5038
I2
sS'frequent'
p5039
I1
sS'feng'
p5040
I1
sS'treasure'
p5041
I1
sS'treasury'
p5042
I17
sS'ranking'
p5043
I1
sS'6.50'
p5044
I1
sS'contracts'
p5045
I25
sS'120-130'
p5046
I1
sS'designated'
p5047
I1
sS'6.59'
p5048
I1
sS'employers'
p5049
I1
sS'repo'
p5050
I18
sS'hailed'
p5051
I6
sS'nearly'
p5052
I10
sS'said.each'
p5053
I1
sS'secondary'
p5054
I3
sS'784.09'
p5055
I1
sS'12.2'
p5056
I5
sS'malaysian'
p5057
I1
sS'yield'
p5058
I5
sS'morning'
p5059
I6
sS'miles'
p5060
I9
sS'worrying'
p5061
I2
sS'1.037'
p5062
I1
sS'declared'
p5063
I7
sS'12.5'
p5064
I1
sS'ricci'
p5065
I2
sS'seas'
p5066
I3
sS'6.0'
p5067
I2
sS'families.bigamy'
p5068
I1
sS'seat'
p5069
I2
sS'declares'
p5070
I6
sS'production.industry'
p5071
I1
sS'andpoints'
p5072
I1
sS'corp.hanoi'
p5073
I1
sS'forecast'
p5074
I12
sS'whereabouts'
p5075
I1
sS'0.020'
p5076
I2
sS'said.april'
p5077
I1
sS'attack.it'
p5078
I1
sS'infrastructure'
p5079
I4
sS'august'
p5080
I9
sS'parent'
p5081
I2
sS'legitimacy'
p5082
I3
sS'tacit'
p5083
I2
sS'signaled'
p5084
I1
sS'leshan'
p5085
I2
sS'jd'
p5086
I1
sS'nationality'
p5087
I1
sS'jf'
p5088
I1
sS'said.small'
p5089
I1
sS'rugby'
p5090
I1
sS'staged'
p5091
I3
sS'trader'
p5092
I41
sS'according'
p5093
I13
sS'tour'
p5094
I8
sS'disappointment'
p5095
I2
sS'dwellers'
p5096
I1
sS'holders'
p5097
I3
sS'traded'
p5098
I16
sS'cancer'
p5099
I1
sS'refocused'
p5100
I1
sS'said.total'
p5101
I1
sS'maintained'
p5102
I2
sS'9,157'
p5103
I1
sS'plant.in'
p5104
I1
sS'custody'
p5105
I3
sS'considering'
p5106
I6
sS'destroyed'
p5107
I1
sS'barry'
p5108
I1
sS'bejing'
p5109
I1
sS'mark'
p5110
I6
sS'industrie'
p5111
I4
sS'cocoons'
p5112
I1
sS'offered'
p5113
I16
sS'exporting'
p5114
I2
sS'dramatic'
p5115
I3
sS'wake'
p5116
I1
sS'declaration'
p5117
I4
sS'granted'
p5118
I5
sS'klaus'
p5119
I2
sS'assets.in'
p5120
I1
sS'ongoing'
p5121
I3
sS'promising'
p5122
I2
sS'cancelled'
p5123
I1
sS'falsified'
p5124
I2
sS'bathe'
p5125
I1
sS'strait'
p5126
I23
sS'strain'
p5127
I5
sS'pressing'
p5128
I1
sS'baths'
p5129
I1
sS'protein'
p5130
I1
sS'movements'
p5131
I2
sS'subic.under'
p5132
I1
sS'different'
p5133
I6
sS'pay'
p5134
I21
sS'formulations'
p5135
I2
sS'17.2'
p5136
I2
sS'prevented'
p5137
I2
sS'speech'
p5138
I9
sS'struggling'
p5139
I1
sS'17.9'
p5140
I2
sS'media.brokers'
p5141
I1
sS'pan'
p5142
I1
sS'pao'
p5143
I6
sS'oil'
p5144
I52
sS'assist'
p5145
I2
sS'73.065'
p5146
I2
sS'china.schroders'
p5147
I1
sS'running'
p5148
I3
sS'largely'
p5149
I1
sS'macro'
p5150
I4
sS'stunted'
p5151
I1
sS'accountable'
p5152
I1
sS'easing'
p5153
I4
sS'convened'
p5154
I1
sS'gates'
p5155
I2
sS'overseeing'
p5156
I2
sS'money'
p5157
I43
sS'sights'
p5158
I2
sS'unofficial'
p5159
I5
sS'aspect'
p5160
I1
sS'11.382'
p5161
I2
sS'sprang'
p5162
I1
sS'dipped'
p5163
I4
sS'application'
p5164
I5
sS'mcdonald'
p5165
I2
sS'trade.gingrich'
p5166
I2
sS'4'
p5167
I25
sS'thursday.macau'
p5168
I1
sS'extensive'
p5169
I1
sS'grip'
p5170
I2
sS'15.38china'
p5171
I1
sS'forge'
p5172
I1
sS'friday.china'
p5173
I1
sS'secrecy'
p5174
I1
sS'okinawans'
p5175
I1
sS'credentials'
p5176
I2
sS'underwriting'
p5177
I3
sS'aiming'
p5178
I2
sS'disappointed'
p5179
I2
sS'goldthwait'
p5180
I2
sS'recorded.amnesty'
p5181
I1
sS'dividedin'
p5182
I1
sS'serves'
p5183
I1
sS'lightning'
p5184
I1
sS'facing'
p5185
I2
sS'chamber'
p5186
I5
sS'audience'
p5187
I2
sS'served'
p5188
I3
sS'voluntarily'
p5189
I1
sS'unbranded'
p5190
I1
sS'dole'
p5191
I1
sS'booming'
p5192
I5
sS'gross'
p5193
I4
sS'korea.they'
p5194
I1
sS'confirm'
p5195
I2
sS'sudan'
p5196
I1
sS'colonial'
p5197
I17
sS'footing'
p5198
I1
sS'overly'
p5199
I1
sS'pioneer'
p5200
I4
sS'critical'
p5201
I3
sS'expressing'
p5202
I1
sS'exports.in'
p5203
I1
sS'moderate'
p5204
I1
sS'8.2958'
p5205
I1
sS'8.2959'
p5206
I1
sS'underwriters'
p5207
I1
sS'airways'
p5208
I1
sS'8.2954'
p5209
I1
sS'8.2955'
p5210
I5
sS'8.2956'
p5211
I1
sS'8.2950'
p5212
I2
sS'broker'
p5213
I15
sS'8.2953'
p5214
I3
sS'7.94'
p5215
I1
sS'23,580'
p5216
I1
sS'refers'
p5217
I1
sS'londono'
p5218
I1
sS'william'
p5219
I1
sS'said.while'
p5220
I1
sS'stations'
p5221
I8
sS'island'
p5222
I90
sS'fringe'
p5223
I1
sS'practical'
p5224
I1
sS'airline'
p5225
I3
sS'roam'
p5226
I1
sS'mixed'
p5227
I14
sS'provisional'
p5228
I8
sS'road'
p5229
I5
sS'syndication'
p5230
I1
sS'quietly'
p5231
I3
sS'lands'
p5232
I1
sS'fertile'
p5233
I1
sS'coupon'
p5234
I5
sS'spreading'
p5235
I1
sS'harness'
p5236
I2
sS'operation.the'
p5237
I2
sS'guoan'
p5238
I1
sS'pharmaceutical'
p5239
I1
sS'85.55'
p5240
I1
sS'shipment.taiwan'
p5241
I1
sS'decisive'
p5242
I2
sS'year.but'
p5243
I1
sS'passports'
p5244
I6
sS'tycoon'
p5245
I3
sS'minechem'
p5246
I1
sS'sophisticated'
p5247
I2
sS'end-1996'
p5248
I2
sS'gore'
p5249
I6
sS'rises.many'
p5250
I1
sS'borders'
p5251
I2
sS'1997.the'
p5252
I2
sS'drills'
p5253
I4
sS'arranger'
p5254
I1
sS'juggling'
p5255
I1
sS'text.france'
p5256
I1
sS'official.the'
p5257
I1
sS'deep'
p5258
I5
sS'fellow'
p5259
I5
sS'remit'
p5260
I2
sS'girlfriend'
p5261
I1
sS'lifetime'
p5262
I1
sS'deterrent'
p5263
I2
sS'film'
p5264
I1
sS'personnel'
p5265
I1
sS'drivers'
p5266
I1
sS'narcotics'
p5267
I1
sS'neighbour.china'
p5268
I1
sS'sinopec'
p5269
I2
sS'4,000'
p5270
I3
sS'12.4'
p5271
I2
sS'adjustments.he'
p5272
I1
sS'important'
p5273
I8
sS'chris'
p5274
I5
sS'peugeot'
p5275
I1
sS'480'
p5276
I2
sS'burma.it'
p5277
I1
sS'remote'
p5278
I1
sS'assets'
p5279
I17
sS'tightened'
p5280
I1
sS'39.00'
p5281
I1
sS'starting'
p5282
I2
sS'represent'
p5283
I6
sS'colleges'
p5284
I1
sS'grassroots'
p5285
I1
sS'forbidden'
p5286
I1
sS'dollar'
p5287
I15
sS'founded'
p5288
I3
sS'cooperative'
p5289
I2
sS'lian'
p5290
I1
sS'spoken.china'
p5291
I2
sS'children'
p5292
I4
sS'reluctant'
p5293
I2
sS'15-nation'
p5294
I1
sS'24.30'
p5295
I1
sS'24.32'
p5296
I1
sS'mandela'
p5297
I3
sS'premium'
p5298
I7
sS'parcel'
p5299
I1
sS'fall'
p5300
I14
sS'difference'
p5301
I2
sS'sanpaolo'
p5302
I1
sS'gov'
p5303
I1
sS'dampen'
p5304
I1
sS'mothers'
p5305
I1
sS'angus'
p5306
I1
sS'applicable'
p5307
I1
sS'form'
p5308
I3
sS'unshakable.the'
p5309
I1
sS'biological'
p5310
I1
sS'economically'
p5311
I1
sS'20th'
p5312
I1
sS'portable'
p5313
I1
sS'clinch'
p5314
I1
sS'burger'
p5315
I1
sS'perception'
p5316
I2
sS'perspective'
p5317
I1
sS'10.48'
p5318
I1
sS'defence'
p5319
I17
sS'stood'
p5320
I7
sS'said.guangdong'
p5321
I1
sS'abn'
p5322
I1
sS'public'
p5323
I32
sS'movement'
p5324
I8
sS'228.5'
p5325
I1
sS'friday.an'
p5326
I1
sS'12.46'
p5327
I1
sS'component'
p5328
I1
sS'ranges'
p5329
I2
sS'suzhou'
p5330
I1
sS'disastrous'
p5331
I1
sS'operating'
p5332
I7
sS'depots'
p5333
I1
sS'29,289'
p5334
I1
sS'900'
p5335
I1
sS'prosecutors'
p5336
I1
sS'villages.the'
p5337
I1
sS'stretching'
p5338
I1
sS'significantly'
p5339
I1
sS'airport'
p5340
I2
sS'published'
p5341
I16
sS'restructuring.the'
p5342
I1
sS'toxicity'
p5343
I1
sS'tiananmen'
p5344
I4
sS'attack.the'
p5345
I1
sS'buses'
p5346
I3
sS'47,000'
p5347
I1
sS'transit'
p5348
I4
sS'africa'
p5349
I10
sS'taoyuan'
p5350
I1
sS'armed'
p5351
I5
sS'100-percent'
p5352
I1
sS'legislator'
p5353
I1
sS'shareholders'
p5354
I11
sS'twa'
p5355
I1
sS'eye'
p5356
I2
sS'6.6761'
p5357
I1
sS'destination'
p5358
I1
sS'governance'
p5359
I1
sS'0.80'
p5360
I2
sS'achieving'
p5361
I2
sS'confucian'
p5362
I1
sS'statement.the'
p5363
I1
sS'lam.the'
p5364
I1
sS'brisk'
p5365
I2
sS'landed'
p5366
I1
sS'particular'
p5367
I3
sS'resemblance'
p5368
I1
sS'town'
p5369
I6
sS'amro'
p5370
I1
sS'hour'
p5371
I8
sS'408-8787'
p5372
I1
sS'intercepted'
p5373
I1
sS'island.it'
p5374
I1
sS'guards'
p5375
I4
sS'2-508-0815'
p5376
I1
sS'remain'
p5377
I18
sS'abandon'
p5378
I7
sS'def'
p5379
I1
sS'purchases'
p5380
I7
sS'gravely'
p5381
I1
sS'share'
p5382
I136
sS'minimum'
p5383
I1
sS'attain'
p5384
I1
sS'ruifa'
p5385
I1
sS'sharp'
p5386
I13
sS'narrowly'
p5387
I1
sS'maturing'
p5388
I2
sS'needs'
p5389
I13
sS'comfort'
p5390
I2
sS'fame'
p5391
I2
sS'said.john'
p5392
I1
sS'larsen'
p5393
I1
sS'said.singapore'
p5394
I1
sS'thursday.siazon'
p5395
I1
sS'inflationary'
p5396
I1
sS'uprising'
p5397
I3
sS'par'
p5398
I4
sS'changchun'
p5399
I3
sS'coming'
p5400
I12
sS'rights.the'
p5401
I1
sS'response'
p5402
I2
sS'alps'
p5403
I1
sS'1996.chinese'
p5404
I1
sS'consumerchina'
p5405
I1
sS'conglomerates'
p5406
I3
sS'crippling'
p5407
I2
sS'dragon'
p5408
I2
sS'coal'
p5409
I15
sS'responsibility'
p5410
I1
sS'playing'
p5411
I2
sS'infant'
p5412
I1
sS'newsaper'
p5413
I1
sS'rounded'
p5414
I1
sS'swamped'
p5415
I2
sS'setback'
p5416
I2
sS'suffer'
p5417
I3
sS'4221'
p5418
I1
sS'shareholding'
p5419
I1
sS'24'
p5420
I5
sS'25'
p5421
I9
sS'26'
p5422
I2
sS'27'
p5423
I7
sS'20'
p5424
I20
sS'21'
p5425
I10
sS'23'
p5426
I1
sS'28'
p5427
I6
sS'29'
p5428
I6
sS'pct'
p5429
I3
sS'peng'
p5430
I6
sS'thursday.the'
p5431
I6
sS'detected'
p5432
I1
sS'reuters'
p5433
I38
sS'10/100/1000ksales'
p5434
I1
sS'good'
p5435
I34
sS'seeking'
p5436
I12
sS'yangshupu'
p5437
I1
sS'vans.the'
p5438
I1
sS'stepped'
p5439
I4
sS'association'
p5440
I13
sS'hails'
p5441
I1
sS'baa1'
p5442
I2
sS'xinmin'
p5443
I1
sS'405.48'
p5444
I1
sS'micro'
p5445
I3
sS'deteriorated'
p5446
I1
sS'exiled'
p5447
I12
sS'65.2'
p5448
I1
sS'centre.ostrich'
p5449
I1
sS'said.southern'
p5450
I1
sS'house'
p5451
I45
sS'fish'
p5452
I1
sS'hard'
p5453
I16
sS'engaging'
p5454
I2
sS'portland'
p5455
I1
sS'orient'
p5456
I5
sS'lovers'
p5457
I5
sS'19.85'
p5458
I1
sS'throes'
p5459
I1
sS'projected'
p5460
I2
sS'acting'
p5461
I3
sS"they'll"
p5462
I1
sS'brewers'
p5463
I1
sS'print'
p5464
I1
sS'brewery'
p5465
I2
sS'highground'
p5466
I1
sS'131.01'
p5467
I1
sS'commits'
p5468
I1
sS'sbc'
p5469
I1
sS'senor'
p5470
I1
sS'issue.officials'
p5471
I2
sS'backed'
p5472
I7
sS'laughable'
p5473
I1
sS'beginning'
p5474
I2
sS'benefits'
p5475
I2
sS'8.2969.dealers'
p5476
I1
sS'computers'
p5477
I1
sS'conducted'
p5478
I2
sS'trickle'
p5479
I1
sS'reinforced'
p5480
I2
sS'6590'
p5481
I1
sS'embraces'
p5482
I2
sS'waged'
p5483
I1
sS'smaller'
p5484
I4
sS'dong'
p5485
I2
sS'wages'
p5486
I2
sS'bangguo'
p5487
I1
sS'smoother'
p5488
I1
sS'construct'
p5489
I1
sS'paint'
p5490
I1
sS'taiwan.in'
p5491
I2
sS'examinees'
p5492
I1
sS'statement'
p5493
I30
sS'conduit'
p5494
I2
sS'guoqiang'
p5495
I2
sS'park'
p5496
I2
sS'korea.high'
p5497
I1
sS'believe'
p5498
I8
sS'b'
p5499
I63
sS'spirited'
p5500
I2
sS'treated'
p5501
I2
sS'declare'
p5502
I2
sS'0.760'
p5503
I2
sS'2.25-billion'
p5504
I1
sS'fuelling'
p5505
I1
sS'philippine'
p5506
I8
sS'parmar'
p5507
I8
sS'orders'
p5508
I10
sS'11.793turnover'
p5509
I1
sS'party.hong'
p5510
I1
sS'trip'
p5511
I12
sS'onset'
p5512
I1
sS'majority'
p5513
I6
sS'k6'
p5514
I1
sS'deepening'
p5515
I1
sS'commentary'
p5516
I4
sS'province'
p5517
I59
sS'said.funds'
p5518
I1
sS'commentary.reforms'
p5519
I1
sS'leaking'
p5520
I1
sS'reunification.china'
p5521
I1
sS'necessary.taiwan'
p5522
I2
sS'firm.disputes'
p5523
I1
sS'significant'
p5524
I6
sS'services'
p5525
I6
sS'extremely'
p5526
I3
sS'esso'
p5527
I8
sS'118-yuan'
p5528
I1
sS'taiwan.washington'
p5529
I1
sS'ka'
p5530
I1
sS'kg'
p5531
I11
sS'goodwill'
p5532
I2
sS'humanitarian'
p5533
I2
sS'said.officials'
p5534
I3
sS'organise'
p5535
I1
sS'confidence.the'
p5536
I1
sS'ltcb'
p5537
I1
sS'sector'
p5538
I14
sS'thomas'
p5539
I1
sS'particularly'
p5540
I7
sS'rebels'
p5541
I1
sS'obligations'
p5542
I1
sS'sanwa'
p5543
I1
sS'businesses'
p5544
I9
sS'carefully'
p5545
I4
sS'fine'
p5546
I1
sS'networks'
p5547
I1
sS'giant'
p5548
I5
sS'nervous'
p5549
I1
sS'freedoms'
p5550
I2
sS'override'
p5551
I1
sS'8'
p5552
I11
sS'7,000-10,000'
p5553
I1
sS'merged'
p5554
I2
sS'prowess'
p5555
I1
sS'permission'
p5556
I1
sS'express'
p5557
I1
sS'cheaper'
p5558
I1
sS'silk'
p5559
I11
sS'policymaking'
p5560
I3
sS'resolve'
p5561
I13
sS'motorcycles'
p5562
I2
sS'contagious'
p5563
I2
sS'doubled'
p5564
I3
sS'common'
p5565
I4
sS'london.the'
p5566
I1
sS'condemnation'
p5567
I1
sS'opposing'
p5568
I1
sS'wednesday.lionda'
p5569
I1
sS'tended'
p5570
I2
sS'individual'
p5571
I1
sS'lisbon'
p5572
I1
sS'feared'
p5573
I1
sS'repairs'
p5574
I1
sS'expert'
p5575
I15
sS'visiting'
p5576
I8
sS'electoral'
p5577
I3
sS'cahoots'
p5578
I2
sS'procedures.the'
p5579
I1
sS'iron'
p5580
I2
sS'zhengzhou'
p5581
I1
sS'intimidated'
p5582
I1
sS'environmentalists'
p5583
I1
sS'aircraft'
p5584
I25
sS'pepsi'
p5585
I2
sS'rule.macau'
p5586
I1
sS'reverse'
p5587
I1
sS'journeyed'
p5588
I1
sS'restaurant'
p5589
I2
sS'powers'
p5590
I7
sS'2,900'
p5591
I1
sS'annual'
p5592
I61
sS'foreign'
p5593
I176
sS'sparring'
p5594
I8
sS'newsdesk'
p5595
I2
sS'discontent.so'
p5596
I1
sS'upgraded'
p5597
I1
sS'sessions.in'
p5598
I1
sS'supply'
p5599
I30
sS'simple'
p5600
I2
sS'simply'
p5601
I2
sS'said.dutch'
p5602
I1
sS'shutdown'
p5603
I4
sS'unsuccessful'
p5604
I1
sS'expensive'
p5605
I3
sS'patiently'
p5606
I1
sS'solidarity.the'
p5607
I5
sS'raise'
p5608
I6
sS'create'
p5609
I2
sS'underage'
p5610
I1
sS'million.the'
p5611
I2
sS'rivals'
p5612
I3
sS'secret'
p5613
I4
sS'laos'
p5614
I2
sS'said.the'
p5615
I86
sS'meeting'
p5616
I45
sS'settling'
p5617
I1
sS'12.22'
p5618
I1
sS'1996.but'
p5619
I1
sS'chatted'
p5620
I1
sS'3417.426'
p5621
I1
sS'gas'
p5622
I14
sS'priced'
p5623
I3
sS'gao'
p5624
I4
sS'1996.shanghai'
p5625
I1
sS'understand'
p5626
I2
sS'whitney'
p5627
I1
sS'prices'
p5628
I68
sS'chatter'
p5629
I1
sS'setember'
p5630
I1
sS'politician'
p5631
I5
sS'grains'
p5632
I3
sS'raw'
p5633
I3
sS'solid'
p5634
I2
sS'elections'
p5635
I11
sS'replaced'
p5636
I3
sS'consular'
p5637
I1
sS'abroad.the'
p5638
I1
sS'monday.friday'
p5639
I1
sS'manner'
p5640
I1
sS'century'
p5641
I7
sS'cents'
p5642
I7
sS'drawbacks'
p5643
I1
sS'said.bigamy'
p5644
I1
sS'busch'
p5645
I1
sS'ethylene'
p5646
I1
sS'italy'
p5647
I3
sS'it.but'
p5648
I1
sS'textile'
p5649
I1
sS'vaclav'
p5650
I2
sS'press.it'
p5651
I1
sS'liberalised'
p5652
I1
sS'development'
p5653
I34
sS'up.shanghai'
p5654
I2
sS'cupinternational'
p5655
I1
sS'keys'
p5656
I2
sS'scrutiny.western'
p5657
I1
sS'flurry'
p5658
I1
sS'purpose'
p5659
I1
sS'liberties.beijing'
p5660
I1
sS'beijing.a'
p5661
I1
sS'task'
p5662
I2
sS'spent'
p5663
I5
sS'withdraw'
p5664
I4
sS'swiss'
p5665
I2
sS'entry'
p5666
I6
sS'saying.rather'
p5667
I1
sS'spend'
p5668
I1
sS'echoing'
p5669
I1
sS'months.attention'
p5670
I1
sS'injuries'
p5671
I1
sS'timber'
p5672
I1
sS'letting'
p5673
I2
sS'cut'
p5674
I30
sS'6279-7174'
p5675
I4
sS'cup'
p5676
I3
sS'call.cook'
p5677
I1
sS'vague'
p5678
I1
sS'source'
p5679
I26
sS'cue'
p5680
I1
sS'province.huandao'
p5681
I1
sS'impoverished'
p5682
I2
sS'easter'
p5683
I4
sS'excited'
p5684
I2
sS'cui'
p5685
I1
sS'luxury'
p5686
I1
sS'bin'
p5687
I1
sS'issues.contracts'
p5688
I1
sS'sovereignty.journalists'
p5689
I1
sS'big'
p5690
I17
sS'bid'
p5691
I7
sS'wafangdian'
p5692
I2
sS'25-35'
p5693
I1
sS'weeks.beijing'
p5694
I1
sS'tonnes.china'
p5695
I1
sS'matters'
p5696
I2
sS'redeem'
p5697
I2
sS'bit'
p5698
I3
sS'semi'
p5699
I4
sS'retake'
p5700
I4
sS'follows'
p5701
I1
sS'surging'
p5702
I5
sS'shudder'
p5703
I1
sS'gudong'
p5704
I1
sS'2,025'
p5705
I1
sS'delegation'
p5706
I4
sS'pricing'
p5707
I1
sS'30.that'
p5708
I1
sS'pronounced'
p5709
I1
sS'scale'
p5710
I13
sS'contacts'
p5711
I5
sS'decision'
p5712
I18
sS'91-day'
p5713
I1
sS'jingna'
p5714
I1
sS'eliminate'
p5715
I1
sS'commentator'
p5716
I1
sS'invade'
p5717
I3
sS'resolutely'
p5718
I2
sS'warburg.co'
p5719
I1
sS'300'
p5720
I7
sS'paribas'
p5721
I1
sS'continuing'
p5722
I5
sS'7.23'
p5723
I2
sS'goods'
p5724
I5
sS'169.50'
p5725
I1
sS'conciliatory'
p5726
I1
sS'tanshui'
p5727
I1
sS'750,000'
p5728
I2
sS'consequently'
p5729
I1
sS'pollution'
p5730
I9
sS'maelstrom'
p5731
I1
sS'warehouse.the'
p5732
I1
sS'xian'
p5733
I1
sS'nationality.even'
p5734
I1
sS'8,200'
p5735
I1
sS'dalai'
p5736
I26
sS'1.56'
p5737
I1
sS'1.54'
p5738
I2
sS'forward'
p5739
I9
sS'invite'
p5740
I2
sS'51.00'
p5741
I2
sS'ltd.the'
p5742
I1
sS'adjusting'
p5743
I1
sS'bitterly'
p5744
I1
sS'immigration'
p5745
I1
sS'hoped'
p5746
I8
sS'hopes'
p5747
I6
sS'subsidiary'
p5748
I8
sS'623'
p5749
I1
sS'zhu'
p5750
I3
sS'wenzhou'
p5751
I2
sS'concubines'
p5752
I6
sS'exploration'
p5753
I21
sS'planes'
p5754
I8
sS'autonomous'
p5755
I1
sS'constant'
p5756
I6
sS'24,130.april'
p5757
I1
sS'flow'
p5758
I2
sS'track.south'
p5759
I1
sS'engineering'
p5760
I3
sS'curb'
p5761
I5
sS'submarines.washington'
p5762
I1
sS'intensifying'
p5763
I1
sS'computerised'
p5764
I2
sS'pesticides'
p5765
I1
sS'monday.total'
p5766
I1
sS'accidental'
p5767
I1
sS'lend'
p5768
I3
sS'48.5'
p5769
I1
sS'prepared'
p5770
I12
sS'cater'
p5771
I1
sS'said.professor'
p5772
I2
sS'tomorrow.contracts'
p5773
I2
sS'rallied'
p5774
I3
sS'organisations.the'
p5775
I1
sS'vehicles'
p5776
I3
sS'bankers'
p5777
I11
sS'2002'
p5778
I1
sS'2000'
p5779
I8
sS'2006'
p5780
I6
sS'2005'
p5781
I1
sS'0.218'
p5782
I2
sS'reporters.de'
p5783
I1
sS'zagged'
p5784
I1
sS'0.211'
p5785
I2
sS'15,000'
p5786
I1
sS'breached'
p5787
I1
sS'vietnamese'
p5788
I18
sS'intensive'
p5789
I1
sS'8-1/2'
p5790
I1
sS'helps'
p5791
I1
sS'said.those'
p5792
I2
sS'70.00'
p5793
I2
sS'11,111'
p5794
I1
sS'automotive'
p5795
I5
sS'said.all'
p5796
I1
sS'putting'
p5797
I2
sS'arrange'
p5798
I2
sS'severely'
p5799
I2
sS'mid-1995.china'
p5800
I1
sS'blatter'
p5801
I1
sS'demonstrations'
p5802
I1
sS'layouts'
p5803
I1
sS'reconciliation'
p5804
I1
sS'chicago'
p5805
I6
sS'giving'
p5806
I10
sS'harvests'
p5807
I1
sS'exercise'
p5808
I1
sS'body'
p5809
I9
sS'exchange'
p5810
I48
sS'8.2951'
p5811
I1
sS'sino'
p5812
I27
sS'packing'
p5813
I1
sS'sing'
p5814
I1
sS'soymeal'
p5815
I3
sS'22.98'
p5816
I1
sS'widening'
p5817
I1
sS'7706'
p5818
I2
sS'koong'
p5819
I2
sS'38'
p5820
I2
sS'33'
p5821
I12
sS'caltex'
p5822
I1
sS'31'
p5823
I11
sS'30'
p5824
I65
sS'37'
p5825
I1
sS'36'
p5826
I1
sS'35'
p5827
I4
sS'34'
p5828
I2
sS'4.99'
p5829
I1
sS'erroneous.a'
p5830
I1
sS'malayan'
p5831
I1
sS'ashapura'
p5832
I2
sS'private'
p5833
I15
sS'measure.congress'
p5834
I1
sS'decrease'
p5835
I1
sS'privately'
p5836
I2
sS'thurston.polls'
p5837
I1
sS'resolutions'
p5838
I3
sS'policies.hong'
p5839
I1
sS'gateway'
p5840
I1
sS'chi'
p5841
I3
sS'hammered'
p5842
I1
sS'nobel'
p5843
I2
sS'24.76'
p5844
I1
sS'assailed'
p5845
I1
sS'upcoming'
p5846
I1
sS'exaggerrated'
p5847
I1
sS'2,257'
p5848
I1
sS'mawei'
p5849
I3
sS'train'
p5850
I3
sS'coast.officers'
p5851
I1
sS'iii'
p5852
I21
sS'account'
p5853
I3
sS'tag'
p5854
I1
sS'qinxue'
p5855
I1
sS'praise'
p5856
I2
sS'closing'
p5857
I7
sS'asked.villagers'
p5858
I1
sS'effectively'
p5859
I1
sS'reserves'
p5860
I6
sS'10.00'
p5861
I3
sS'10.05'
p5862
I1
sS'5.622'
p5863
I1
sS'lama'
p5864
I24
sS'democracy'
p5865
I31
sS'holds'
p5866
I7
sS'0.030'
p5867
I2
sS'afc'
p5868
I3
sS'regions'
p5869
I5
sS'varies'
p5870
I1
sS'forest'
p5871
I1
sS'said.but'
p5872
I8
sS'stock'
p5873
I38
sS'profile'
p5874
I8
sS'buildings'
p5875
I1
sS'locked'
p5876
I1
sS'waters'
p5877
I12
sS'collection'
p5878
I2
sS'dc'
p5879
I1
sS'dates.the'
p5880
I1
sS'fray'
p5881
I3
sS'ambiguous'
p5882
I4
sS'lines'
p5883
I8
sS'941'
p5884
I1
sS'chief'
p5885
I33
sS'bureau.zhang'
p5886
I2
sS'furious'
p5887
I1
sS'800,000'
p5888
I3
sS'institutional'
p5889
I8
sS'wedding'
p5890
I3
sS'there.the'
p5891
I1
sS'cautions'
p5892
I1
sS'agricultural'
p5893
I3
sS'industries'
p5894
I6
sS'lg'
p5895
I1
sS'negotiated'
p5896
I3
sS'le'
p5897
I4
sS'silkworm'
p5898
I2
sS'300,000'
p5899
I7
sS'lo'
p5900
I6
sS'li'
p5901
I17
sS'willing'
p5902
I1
sS'6.34'
p5903
I2
sS'staistical'
p5904
I1
sS'12.08'
p5905
I1
sS'16,500'
p5906
I1
sS'criminal'
p5907
I1
sS'friday.the'
p5908
I9
sS'greater'
p5909
I5
sS'dan'
p5910
I2
sS'dai'
p5911
I1
sS'mention'
p5912
I3
sS'cutting'
p5913
I1
sS'cornfor'
p5914
I1
sS'mandate'
p5915
I2
sS'insisting'
p5916
I1
sS'day'
p5917
I38
sS'strive'
p5918
I2
sS'straddling'
p5919
I1
sS'february'
p5920
I21
sS'airports'
p5921
I1
sS'warned'
p5922
I16
sS'identified'
p5923
I5
sS'1.090'
p5924
I2
sS'slipping'
p5925
I2
sS'proliferating'
p5926
I1
sS'liaoning'
p5927
I1
sS'friday.fujian'
p5928
I1
sS'programmes'
p5929
I1
sS'sexual'
p5930
I1
sS'260,000'
p5931
I1
sS'9.74china'
p5932
I1
sS'said.chongqing'
p5933
I1
sS'it.however'
p5934
I1
sS'defend'
p5935
I26
sS'15.937'
p5936
I2
sS'wholly'
p5937
I1
sS'ren'
p5938
I3
sS'electronics'
p5939
I7
sS'red'
p5940
I14
sS'tradeable'
p5941
I2
sS'franc'
p5942
I1
sS'588'
p5943
I1
sS'clarify'
p5944
I4
sS'quo'
p5945
I3
sS'lama.they'
p5946
I1
sS'valeo'
p5947
I6
sS'allies'
p5948
I2
sS'stearns'
p5949
I1
sS'conduct.the'
p5950
I1
sS'hinting'
p5951
I1
sS'jiong'
p5952
I1
sS'wednesday.it'
p5953
I1
sS'retain'
p5954
I4
sS'retail'
p5955
I7
sS'south'
p5956
I70
sS'plastics'
p5957
I5
sS'said.more'
p5958
I2
sS'embarrasses'
p5959
I1
sS'2,000'
p5960
I5
sS'sack'
p5961
I1
sS'strategic'
p5962
I1
sS'improvements'
p5963
I1
sS'38,825'
p5964
I1
sS'lagging'
p5965
I2
sS'reached'
p5966
I18
sS'warships'
p5967
I2
sS'unspecified'
p5968
I1
sS'pakistani'
p5969
I1
sS'tilelli'
p5970
I2
sS'gear'
p5971
I2
sS'7.42'
p5972
I2
sS'completed'
p5973
I13
sS'acquire'
p5974
I1
sS'7.47'
p5975
I3
sS'freedoms.it'
p5976
I1
sS'electing'
p5977
I1
sS'environmental'
p5978
I2
sS'completes'
p5979
I1
sS'33bp'
p5980
I1
sS'ipai'
p5981
I2
sS'politics'
p5982
I4
sS'asean'
p5983
I9
sS'sweden'
p5984
I1
sS'visited'
p5985
I2
sS'61,898'
p5986
I1
sS'provoke'
p5987
I1
sS'190.00'
p5988
I3
sS'comfortable'
p5989
I2
sS'38.3'
p5990
I2
sS'milion'
p5991
I1
sS'unlikely'
p5992
I5
sS'apparently'
p5993
I4
sS'returnees'
p5994
I5
sS'972.5'
p5995
I1
sS'min'
p5996
I2
sS'mia'
p5997
I1
sS'mid'
p5998
I5
sS'concerns'
p5999
I5
sS'unless'
p6000
I10
sS'resolutions.china'
p6001
I1
sS'propagate'
p6002
I1
sS'preliminary'
p6003
I3
sS'sedan'
p6004
I2
sS'capacity'
p6005
I25
sS'payment'
p6006
I3
sS'collateral'
p6007
I2
sS'request'
p6008
I9
sS'disease'
p6009
I11
sS'1,000'
p6010
I7
sS'rice.political'
p6011
I2
sS'continential'
p6012
I1
sS'normally'
p6013
I5
sS'recess'
p6014
I1
sS'charles'
p6015
I2
sS'rotating'
p6016
I1
sS'xiaoqi'
p6017
I1
sS'festooned'
p6018
I1
sS'staff'
p6019
I2
sS'220.16'
p6020
I1
sS'controls'
p6021
I3
sS'tonne.april'
p6022
I1
sS'communist'
p6023
I64
sS'a319'
p6024
I1
sS'equilibrium'
p6025
I1
sS'regularly'
p6026
I1
sS'beat'
p6027
I3
sS'5017'
p6028
I2
sS'bear'
p6029
I3
sS'bean'
p6030
I1
sS'spiritis'
p6031
I1
sS'timing'
p6032
I1
sS'areas'
p6033
I14
sS'362'
p6034
I1
sS'teams'
p6035
I1
sS'1.0705'
p6036
I2
sS'2792'
p6037
I1
sS'150-seat'
p6038
I1
sS'fixed'
p6039
I10
sS'experiences'
p6040
I1
sS'136'
p6041
I1
sS'exists'
p6042
I1
sS'national'
p6043
I42
sS'taiwanese'
p6044
I11
sS'jinhua'
p6045
I1
sS'mentioned'
p6046
I2
sS'enhanced'
p6047
I1
sS'refrained'
p6048
I1
sS'36.1'
p6049
I1
sS'awaits'
p6050
I1
sS'reform'
p6051
I6
sS'pattern'
p6052
I1
sS'kilcollin'
p6053
I1
sS'laureate'
p6054
I1
sS'36,000'
p6055
I3
sS'difficulties'
p6056
I5
sS'routine'
p6057
I1
sS'281,000'
p6058
I2
sS'progress'
p6059
I4
sS'colombian'
p6060
I1
sS'reprimand'
p6061
I1
sS'implementing'
p6062
I1
sS'yuan.shenyang'
p6063
I1
sS'festering'
p6064
I1
sS'joko'
p6065
I1
sS'freely'
p6066
I2
sS'taking'
p6067
I28
sS'equal'
p6068
I1
sS'attributed'
p6069
I4
sS'trips'
p6070
I1
sS'assure'
p6071
I4
sS'insidious'
p6072
I1
sS'swallow'
p6073
I1
sS'glorious'
p6074
I2
sS'balloons'
p6075
I2
sS'comment'
p6076
I13
sS'huang'
p6077
I5
sS'newstoom'
p6078
I1
sS'harpoon'
p6079
I4
sS'million.one'
p6080
I4
sS'details.the'
p6081
I2
sS'earning'
p6082
I1
sS'ad'
p6083
I1
sS'tuesday.local'
p6084
I1
sS'swimmer'
p6085
I1
sS'tremendous'
p6086
I1
sS'muddy'
p6087
I1
sS'mouthpiece'
p6088
I2
sS'downgraded'
p6089
I1
sS'330,000'
p6090
I1
sS'upbeat'
p6091
I2
sS'proposal'
p6092
I4
sS'states.exports'
p6093
I1
sS'connives'
p6094
I3
sS'stationed'
p6095
I6
sS'cos'
p6096
I1
sS'bulk'
p6097
I6
sS'finished'
p6098
I10
sS'390'
p6099
I1
sS'wartime'
p6100
I1
sS'bull'
p6101
I4
sS'general'
p6102
I21
sS'multi'
p6103
I4
sS'7-3'
p6104
I1
sS'edging'
p6105
I1
sS'malarial'
p6106
I1
sS'7-6'
p6107
I1
sS'value'
p6108
I14
sS'entrepreneurial'
p6109
I1
sS'tie.results'
p6110
I1
sS'flex'
p6111
I1
sS'chaotic'
p6112
I1
sS'dissent'
p6113
I1
sS'weighed'
p6114
I1
sS'arrangements'
p6115
I1
sS'claimed'
p6116
I2
sS'partner'
p6117
I4
sS'espousing'
p6118
I1
sS'begining'
p6119
I1
sS'watchful'
p6120
I1
sS'times.turnover'
p6121
I1
sS'administration'
p6122
I15
sS'defiant'
p6123
I1
sS'45kgs'
p6124
I1
sS'slammed'
p6125
I2
sS'said.tsann'
p6126
I2
sS'kong.but'
p6127
I1
sS'philippines.ramos'
p6128
I1
sS'injured'
p6129
I1
sS'tighten'
p6130
I1
sS'material'
p6131
I1
sS'73.186'
p6132
I2
sS'reporting'
p6133
I4
sS'tax.it'
p6134
I1
sS'9.67'
p6135
I1
sS'telephone.among'
p6136
I1
sS'judgment'
p6137
I1
sS'9.62'
p6138
I2
sS'tighter'
p6139
I2
sS'40.00'
p6140
I1
sS'insure'
p6141
I1
sS'paredes'
p6142
I1
sS'recourse'
p6143
I1
sS'may.lme'
p6144
I1
sS'weapon'
p6145
I2
sS'overshadowed'
p6146
I1
sS'thought'
p6147
I5
sS'sets'
p6148
I2
sS'position'
p6149
I12
sS'muscle'
p6150
I1
sS'soviet'
p6151
I1
sS'latest'
p6152
I21
sS'zhenhai'
p6153
I1
sS'analyst.of'
p6154
I1
sS'stores'
p6155
I5
sS'10.29'
p6156
I1
sS'guofang'
p6157
I8
sS'executive'
p6158
I12
sS'domestic'
p6159
I67
sS'standings'
p6160
I1
sS'11.425'
p6161
I1
sS'interim'
p6162
I3
sS'seats'
p6163
I4
sS'tough'
p6164
I12
sS'million.shanghai'
p6165
I1
sS'ads'
p6166
I1
sS'flee'
p6167
I3
sS'said.wang'
p6168
I2
sS'rebate'
p6169
I1
sS'add'
p6170
I1
sS'aruba'
p6171
I1
sS'sulphur.but'
p6172
I1
sS'citizen'
p6173
I2
sS'confusions'
p6174
I1
sS'adm'
p6175
I1
sS'ministry.an'
p6176
I1
sS'smart'
p6177
I1
sS'gmt'
p6178
I2
sS'resolved'
p6179
I4
sS'tests'
p6180
I6
sS'petrochemical'
p6181
I2
sS'frcd'
p6182
I2
sS'deployment'
p6183
I1
sS'displaced'
p6184
I1
sS'motorola'
p6185
I2
sS'like'
p6186
I11
sS'success'
p6187
I1
sS'vibrant'
p6188
I2
sS'admitted'
p6189
I6
sS'ozone'
p6190
I1
sS'journalist'
p6191
I1
sS'beijing.responding'
p6192
I1
sS'works'
p6193
I5
sS'shelf.china'
p6194
I2
sS'italian'
p6195
I5
sS'floodgates'
p6196
I1
sS'eased'
p6197
I1
sS'area.talks'
p6198
I1
sS'alive'
p6199
I1
sS'ideals'
p6200
I1
sS'constructively'
p6201
I1
sS'convey'
p6202
I1
sS'recommendation'
p6203
I1
sS'proper'
p6204
I1
sS'happens'
p6205
I2
sS'below.all'
p6206
I1
sS'restaurants.guests'
p6207
I1
sS'0.28'
p6208
I3
sS'lots.despite'
p6209
I1
sS'0.24'
p6210
I5
sS'0.27'
p6211
I3
sS'0.22'
p6212
I2
sS'0.23'
p6213
I4
sS'students'
p6214
I2
sS'marched'
p6215
I1
sS'masked'
p6216
I2
sS'bustling'
p6217
I3
sS'chains'
p6218
I1
sS'thinly'
p6219
I1
sS'noise'
p6220
I1
sS'1996.china'
p6221
I1
sS'pools'
p6222
I1
sS'host'
p6223
I3
sS'panel'
p6224
I1
sS'27,594'
p6225
I1
sS'actual'
p6226
I1
sS'22,690'
p6227
I1
sS'introduced'
p6228
I1
sS'18-day'
p6229
I3
sS'tackle'
p6230
I1
sS'guard'
p6231
I1
sS'ting.kung'
p6232
I2
sS'1987'
p6233
I1
sS'1984'
p6234
I1
sS'yorkers'
p6235
I1
sS'confident'
p6236
I12
sS'mcmillan'
p6237
I1
sS'39.7'
p6238
I1
sS'1989'
p6239
I8
sS'visit.the'
p6240
I1
sS'biggest'
p6241
I21
sS'chunk'
p6242
I1
sS'buy'
p6243
I21
sS'insurer'
p6244
I3
sS'bus'
p6245
I1
sS'brand'
p6246
I3
sS'565'
p6247
I1
sS'insured'
p6248
I2
sS'8.26'
p6249
I2
sS'photocopiers.hundreds'
p6250
I1
sS'regret.while'
p6251
I1
sS'glory'
p6252
I1
sS'wish'
p6253
I3
sS'breweries'
p6254
I1
sS'minutes'
p6255
I2
sS'skating'
p6256
I1
sS'time.he'
p6257
I1
sS'bills.share'
p6258
I2
sS'deaths'
p6259
I1
sS'15,300'
p6260
I1
sS'pie'
p6261
I1
sS'pig'
p6262
I1
sS'crusade'
p6263
I1
sS'shooting'
p6264
I1
sS'80'
p6265
I7
sS'48'
p6266
I5
sS'49'
p6267
I1
sS'46'
p6268
I1
sS'47'
p6269
I2
sS'44'
p6270
I10
sS'45'
p6271
I10
sS'claiming'
p6272
I1
sS'43'
p6273
I5
sS'virtual'
p6274
I3
sS'41'
p6275
I1
sS'tabulate'
p6276
I1
sS'ecological'
p6277
I1
sS'weaponry'
p6278
I1
sS'24,000'
p6279
I5
sS'workers.spread'
p6280
I1
sS'roundmatches'
p6281
I1
sS'resolution'
p6282
I15
sS'thursday.fuji'
p6283
I1
sS'deregulated'
p6284
I1
sS'accidents'
p6285
I4
sS'baked'
p6286
I1
sS'limited'
p6287
I6
sS'32.00'
p6288
I1
sS'facilities'
p6289
I8
sS'90,000-100,000'
p6290
I1
sS'july.called'
p6291
I1
sS'poorly'
p6292
I1
sS'1.17'
p6293
I1
sS'violate'
p6294
I1
sS'1.10'
p6295
I1
sS'paris'
p6296
I3
sS'345'
p6297
I1
sS'340'
p6298
I1
sS'regrets'
p6299
I1
sS'merchant'
p6300
I2
sS'risk'
p6301
I14
sS'rise'
p6302
I13
sS'china.he'
p6303
I1
sS'basis.industry'
p6304
I1
sS'jack'
p6305
I1
sS'reiterating'
p6306
I1
sS'school'
p6307
I1
sS'magnate'
p6308
I2
sS'6.86'
p6309
I1
sS'venue'
p6310
I2
sS'1day'
p6311
I4
sS'authorities.fujian'
p6312
I1
sS'1,573'
p6313
I1
sS'enjoy'
p6314
I2
sS'leaders'
p6315
I28
sS'disciplines'
p6316
I1
sS'lessen'
p6317
I1
sS'consistent'
p6318
I1
sS'guidelines'
p6319
I3
sS'estimates'
p6320
I3
sS'direct'
p6321
I36
sS'talks'
p6322
I54
sS'louder'
p6323
I1
sS'2.the'
p6324
I1
sS'estimated'
p6325
I14
sS'blue'
p6326
I4
sS'73.64'
p6327
I1
sS'centres.the'
p6328
I1
sS'selected'
p6329
I3
sS'profitability'
p6330
I1
sS'sulphurous'
p6331
I1
sS'sung'
p6332
I1
sS'kuo'
p6333
I3
sS'investment.taiwan'
p6334
I1
sS'intersts'
p6335
I1
sS'conduct'
p6336
I3
sS'supplier'
p6337
I2
sS'supplies'
p6338
I4
sS'seeks'
p6339
I1
sS'japura'
p6340
I1
sS'23,700.april'
p6341
I1
sS'licences'
p6342
I3
sS'hundreds'
p6343
I4
sS'pratt'
p6344
I1
sS'represented'
p6345
I2
sS'path'
p6346
I1
sS'property'
p6347
I13
sS'ventures'
p6348
I10
sS'leaves'
p6349
I2
sS'changed'
p6350
I5
sS'175.17'
p6351
I1
sS'analysts'
p6352
I31
sS'changes'
p6353
I5
sS'punishment'
p6354
I5
sS'julio'
p6355
I1
sS'wednesday.guangdong'
p6356
I1
sS'117.50'
p6357
I1
sS'visible'
p6358
I3
sS'kei'
p6359
I1
sS'smelter'
p6360
I9
sS'hospital'
p6361
I1
sS'hanoi'
p6362
I25
sS'asset'
p6363
I2
sS'spike'
p6364
I1
sS'limousine'
p6365
I1
sS'boomed'
p6366
I2
sS'ferrying'
p6367
I1
sS'incumbent'
p6368
I2
sS'support.as'
p6369
I1
sS'situation.differences'
p6370
I2
sS'hostile'
p6371
I1
sS'join'
p6372
I6
sS'cheapest'
p6373
I1
sS'jiaping'
p6374
I2
sS'shijiazhuang'
p6375
I1
sS'install'
p6376
I1
sS'mr'
p6377
I4
sS'bbc1'
p6378
I1
sS'1997.discussions'
p6379
I1
sS'shook'
p6380
I3
sS'loosen'
p6381
I1
sS'estate'
p6382
I9
sS'exile'
p6383
I5
sS'returnee'
p6384
I2
sS'attract'
p6385
I3
sS'guarantee'
p6386
I8
sS'ceremony'
p6387
I1
sS'end'
p6388
I55
sS'adjacent'
p6389
I1
sS'toxic'
p6390
I1
sS'widespread'
p6391
I2
sS'directorships'
p6392
I2
sS'badly'
p6393
I1
sS'lots.traders'
p6394
I2
sS'coffers'
p6395
I1
sS'lump'
p6396
I1
sS'jumping'
p6397
I4
sS'cement'
p6398
I1
sS'talks.he'
p6399
I1
sS'23.71'
p6400
I1
sS'amid'
p6401
I4
sS'acknowledged'
p6402
I4
sS'bator'
p6403
I2
sS'upside'
p6404
I2
sS'ultimate'
p6405
I1
sS'enter'
p6406
I6
sS'executed'
p6407
I5
sS'interpretation'
p6408
I1
sS'expects'
p6409
I5
sS'1,928'
p6410
I1
sS'isolation.still'
p6411
I1
sS'london'
p6412
I23
sS'huatai'
p6413
I1
sS'20.51'
p6414
I1
sS'7day'
p6415
I4
sS'digest'
p6416
I3
sS'fertiliser'
p6417
I1
sS'bottleneck'
p6418
I1
sS'expectations'
p6419
I13
sS'mongolia'
p6420
I8
sS'writing'
p6421
I1
sS'407'
p6422
I1
sS'403'
p6423
I1
sS'400'
p6424
I6
sS'withdrawn.drilling'
p6425
I1
sS'tourist'
p6426
I4
sS'astrologers.some'
p6427
I1
sS'aodong'
p6428
I1
sS'pokphand'
p6429
I1
sS'4039'
p6430
I1
sS'tourism'
p6431
I3
sS'30-year'
p6432
I1
sS'netherlands'
p6433
I3
sS'huanju'
p6434
I1
sS'herald'
p6435
I2
sS'affiliate'
p6436
I2
sS'victory'
p6437
I2
sS'lasting'
p6438
I1
sS'consolidate'
p6439
I8
sS'1,900'
p6440
I1
sS'signing'
p6441
I1
sS'600,000'
p6442
I1
sS'leftist'
p6443
I2
sS'celebrating'
p6444
I1
sS'hanged'
p6445
I1
sS'defences'
p6446
I5
sS'saturday'
p6447
I3
sS'15.07'
p6448
I2
sS'revisions'
p6449
I1
sS'percent.china'
p6450
I1
sS'stuer'
p6451
I1
sS'banning'
p6452
I1
sS'unspectacular'
p6453
I1
sS'got'
p6454
I1
sS'newly'
p6455
I11
sS'haggling'
p6456
I3
sS'independence'
p6457
I34
sS'market.the'
p6458
I3
sS'arizona'
p6459
I2
sS'rail'
p6460
I2
sS'free'
p6461
I18
sS'counterparts'
p6462
I3
sS'boosting'
p6463
I2
sS'freq'
p6464
I1
sS'wanted'
p6465
I12
sS'fret'
p6466
I1
sS'liberties'
p6467
I3
sS'ritual'
p6468
I1
sS'days'
p6469
I47
sS'priorities'
p6470
I1
sS'6.6940'
p6471
I2
sS'1.according'
p6472
I1
sS'smokers'
p6473
I1
sS'corp.amd'
p6474
I1
sS'rand'
p6475
I1
sS'industrial'
p6476
I24
sS'reunification.taiwan'
p6477
I1
sS'researcher'
p6478
I2
sS'primary'
p6479
I4
sS'rank'
p6480
I1
sS'hearing'
p6481
I1
sS'restrict'
p6482
I3
sS'relations'
p6483
I32
sS'sharpest'
p6484
I2
sS'77.00'
p6485
I1
sS'figures.but'
p6486
I2
sS'0.08'
p6487
I1
sS'400-425'
p6488
I1
sS'0.03'
p6489
I2
sS'0.01'
p6490
I1
sS'0.06'
p6491
I1
sS'0.07'
p6492
I4
sS'0.04'
p6493
I4
sS'0.05'
p6494
I1
sS'korea.britain'
p6495
I1
sS'abstentions'
p6496
I1
sS'percentage'
p6497
I5
sS'toe'
p6498
I1
sS'urban'
p6499
I1
sS'murder'
p6500
I1
sS'serve'
p6501
I6
sS'took'
p6502
I15
sS'negotiating'
p6503
I3
sS'close.trading'
p6504
I1
sS'western'
p6505
I12
sS'payments.the'
p6506
I1
sS'injected'
p6507
I1
sS'abandoning'
p6508
I2
sS'brushed'
p6509
I1
sS'tonkin'
p6510
I5
sS'immigrants'
p6511
I4
sS'czechs'
p6512
I2
sS'18.8'
p6513
I1
sS'details.communist'
p6514
I1
sS'fashion'
p6515
I1
sS'peng.boeing'
p6516
I1
sS'raj'
p6517
I1
sS'talking'
p6518
I3
sS'added.van'
p6519
I1
sS'insitutional'
p6520
I1
sS'hoyer'
p6521
I1
sS'regulate'
p6522
I3
sS'seminar'
p6523
I10
sS'relatively'
p6524
I7
sS'traditionally'
p6525
I1
sS'relayed'
p6526
I1
sS'1966'
p6527
I1
sS'1960'
p6528
I1
sS'isolated'
p6529
I1
sS'thorough'
p6530
I1
sS'oriented'
p6531
I1
sS'localities'
p6532
I1
sS'1949.beijing'
p6533
I1
sS'added.he'
p6534
I2
sS'2.95'
p6535
I3
sS'visionary'
p6536
I2
sS'province.formosa'
p6537
I1
sS'tibetan'
p6538
I4
sS'frontrunners'
p6539
I1
sS'specify.kao'
p6540
I1
sS'metal'
p6541
I18
sS'treaty'
p6542
I2
sS'48.4'
p6543
I4
sS'enterprise'
p6544
I4
sS'48.9'
p6545
I1
sS'section'
p6546
I2
sS'reductions'
p6547
I1
sS'random'
p6548
I1
sS'radio'
p6549
I5
sS'sources.for'
p6550
I1
sS'spite'
p6551
I1
sS'wednesday.valeo'
p6552
I1
sS'situations'
p6553
I1
sS'foundation.no'
p6554
I1
sS'stick.while'
p6555
I1
sS'542'
p6556
I5
sS'2847'
p6557
I1
sS'announce'
p6558
I7
sS'petroasia'
p6559
I1
sS'borrowed'
p6560
I1
sS'24,060'
p6561
I1
sS'monday.on'
p6562
I1
sS'hostility'
p6563
I1
sS'watch'
p6564
I1
sS'fluid'
p6565
I1
sS'shutting'
p6566
I1
sS'borrower'
p6567
I1
sS'despite'
p6568
I23
sS'report'
p6569
I37
sS'warrants.nickel'
p6570
I1
sS'countries'
p6571
I45
sS'century.politically'
p6572
I1
sS'plush'
p6573
I1
sS'twice'
p6574
I2
sS'enfranchised'
p6575
I1
sS'routes.the'
p6576
I1
sS'reports.based'
p6577
I1
sS'swept'
p6578
I2
sS'wrest'
p6579
I1
sS'liquor'
p6580
I4
sS'xinglong'
p6581
I7
sS'287,000'
p6582
I2
sS'resist'
p6583
I1
sS'a320s'
p6584
I1
sS'now.a'
p6585
I1
sS'disturbing'
p6586
I4
sS'rarity'
p6587
I3
sS'indonesians'
p6588
I1
sS'legislature.the'
p6589
I1
sS'3,402'
p6590
I1
sS'talks.north'
p6591
I1
sS'3,400'
p6592
I1
sS'temptation'
p6593
I5
sS'93,850'
p6594
I1
sS'3,408'
p6595
I2
sS'3,409'
p6596
I1
sS'7.87'
p6597
I1
sS'approach'
p6598
I4
sS'business.this'
p6599
I2
sS'weak'
p6600
I3
sS'weah'
p6601
I1
sS'33,000'
p6602
I1
sS'southeast'
p6603
I9
sS'censorship'
p6604
I1
sS'news'
p6605
I83
sS'293.08'
p6606
I1
sS'newt'
p6607
I13
sS'improve'
p6608
I16
sS'faced'
p6609
I5
sS'hours'
p6610
I6
sS'protect'
p6611
I3
sS'favourable'
p6612
I1
sS'facet'
p6613
I1
sS'merging'
p6614
I1
sS'games'
p6615
I20
sS'bet'
p6616
I1
sS'faces'
p6617
I1
sS'said.changan'
p6618
I2
sS'whampoa'
p6619
I1
sS'smuggled'
p6620
I1
sS'7,000-seat'
p6621
I2
sS'betting'
p6622
I2
sS'family.two'
p6623
I1
sS'epidemic'
p6624
I2
sS'bank.the'
p6625
I5
sS'trust'
p6626
I16
sS'conference'
p6627
I10
sS'jobless'
p6628
I1
sS'warehouses'
p6629
I6
sS'curries'
p6630
I1
sS'quickly'
p6631
I4
sS'submarine'
p6632
I1
sS'beer'
p6633
I3
sS'belongs'
p6634
I1
sS'expected'
p6635
I93
sS'drugs'
p6636
I3
sS'374.0'
p6637
I1
sS'republicans'
p6638
I4
sS'speeches'
p6639
I1
sS'enterprises'
p6640
I8
sS'catch'
p6641
I2
sS'50.180'
p6642
I1
sS'cracker'
p6643
I1
sS'n'
p6644
I4
sS'intimidatory'
p6645
I1
sS'wfp'
p6646
I1
sS'provocative'
p6647
I2
sS'1949.taipei'
p6648
I1
sS'experts'
p6649
I11
sS'30.36'
p6650
I2
sS'containing'
p6651
I1
sS'exportable'
p6652
I1
sS'thursday.only'
p6653
I1
sS'border'
p6654
I23
sS'landbase'
p6655
I1
sS'complex'
p6656
I1
sS'inventory'
p6657
I1
sS'kartman'
p6658
I1
sS'yung'
p6659
I2
sS'satellite'
p6660
I2
sS"won't"
p6661
I2
sS'war.beijing'
p6662
I2
sS'pick'
p6663
I1
sS'deflect'
p6664
I1
sS'fridays'
p6665
I2
sS'territory.an'
p6666
I1
sS'francophone'
p6667
I2
sS'insisted'
p6668
I1
sS'narrow'
p6669
I12
sS'shortly'
p6670
I2
sS'daqing'
p6671
I3
sS'council.the'
p6672
I1
sS'ocean'
p6673
I9
sS'23,780'
p6674
I1
sS'savings'
p6675
I1
sS'greatest'
p6676
I2
sS'detained'
p6677
I1
sS'mother'
p6678
I1
sS'joon'
p6679
I1
sS'proposed'
p6680
I19
sS'grades'
p6681
I1
sS'strenuously'
p6682
I1
sS'bhutan'
p6683
I1
sS'succeeeds'
p6684
I1
sS'technological'
p6685
I1
sS'clapping'
p6686
I1
sS'gpe'
p6687
I2
sS'gave'
p6688
I33
sS'casting'
p6689
I3
sS'advances'
p6690
I1
sS'upturn'
p6691
I1
sS'cultural'
p6692
I2
sS'tuesday.copper'
p6693
I1
sS'59'
p6694
I2
sS'soon.vietnam'
p6695
I1
sS'advanced'
p6696
I11
sS'exxon'
p6697
I3
sS'500.one'
p6698
I1
sS'58'
p6699
I1
sS'55'
p6700
I4
sS'54'
p6701
I4
sS'56'
p6702
I1
sS'51'
p6703
I2
sS'50'
p6704
I28
sS'52'
p6705
I1
sS'offices'
p6706
I5
sS'officer'
p6707
I6
sS'arbitrary'
p6708
I1
sS'hung'
p6709
I6
sS'review.many'
p6710
I1
sS'444.7'
p6711
I1
sS'successfully'
p6712
I4
sS'malaysia'
p6713
I5
sS'donald'
p6714
I1
sS'258.00'
p6715
I1
sS'meters'
p6716
I2
sS'election'
p6717
I14
sS'escape'
p6718
I1
sS'indirect'
p6719
I2
sS'reinsurer'
p6720
I1
sS'20.72'
p6721
I1
sS'icj'
p6722
I1
sS'establish'
p6723
I7
sS'cars.officials'
p6724
I1
sS'0.0545'
p6725
I1
sS'38.00'
p6726
I1
sS'38.02'
p6727
I1
sS'allocate'
p6728
I1
sS'420'
p6729
I1
sS'425'
p6730
I1
sS'christmas'
p6731
I1
sS'core'
p6732
I5
sS'coming.some'
p6733
I1
sS'sewing'
p6734
I1
sS'corn'
p6735
I2
sS'discount'
p6736
I2
sS'corp'
p6737
I35
sS'landowners'
p6738
I1
sS'qingdao'
p6739
I2
sS'libor.fees'
p6740
I1
sS'chuan'
p6741
I1
sS'session.the'
p6742
I1
sS'attacks'
p6743
I1
sS'22-29'
p6744
I1
sS'plunging'
p6745
I1
sS'distinct'
p6746
I1
sS'misleading'
p6747
I2
sS'ensure'
p6748
I14
sS'steadily'
p6749
I3
sS'sepp'
p6750
I1
sS'efforts'
p6751
I10
sS'said.explosions'
p6752
I1
sS'trafficker'
p6753
I1
sS'froze'
p6754
I1
sS'presence'
p6755
I13
sS'civil'
p6756
I35
sS'obtaining'
p6757
I2
sS'accommodate'
p6758
I1
sS'unification.although'
p6759
I1
sS'accomplishments'
p6760
I1
sS'donated'
p6761
I1
sS'coastal'
p6762
I5
sS'year.the'
p6763
I2
sS'indispensable'
p6764
I1
sS'stuck'
p6765
I1
sS'fought'
p6766
I6
sS'corp.he'
p6767
I2
sS'agreed.invitations'
p6768
I1
sS'head'
p6769
I16
sS'medium'
p6770
I7
sS'differences'
p6771
I13
sS'deny'
p6772
I2
sS'wireless'
p6773
I1
sS'manoeuvres'
p6774
I1
sS'removed'
p6775
I3
sS'manufacturing.the'
p6776
I1
sS'born'
p6777
I2
sS'bargain'
p6778
I1
sS'paging'
p6779
I3
sS'decorate'
p6780
I1
sS'country.china'
p6781
I1
sS'277.35'
p6782
I1
sS'southernmost'
p6783
I1
sS'trim'
p6784
I2
sS'wednesday.wei'
p6785
I1
sS'suspicions'
p6786
I1
sS'0.65'
p6787
I2
sS'14,797'
p6788
I1
sS'check'
p6789
I3
sS'regime'
p6790
I2
sS'services.ericsson'
p6791
I1
sS'said.for'
p6792
I1
sS'faithful'
p6793
I1
sS'yinggang'
p6794
I1
sS'report.china'
p6795
I1
sS'then.the'
p6796
I1
sS'tin'
p6797
I1
sS'setting'
p6798
I5
sS'papers'
p6799
I1
sS'depot'
p6800
I3
sS'1.877'
p6801
I2
sS'nv'
p6802
I2
sS'phoenix'
p6803
I1
sS'liquidate'
p6804
I2
sS'football'
p6805
I6
sS'rapeseed'
p6806
I2
sS'launch.next'
p6807
I1
sS'longer'
p6808
I8
sS'bullet'
p6809
I1
sS'vietnam'
p6810
I58
sS'backward'
p6811
I1
sS'remarkable'
p6812
I3
sS'saying.china'
p6813
I3
sS'brokerages'
p6814
I8
sS'rod'
p6815
I2
sS'focus'
p6816
I12
sS'deliveries'
p6817
I1
sS'leads'
p6818
I2
sS'asia.co'
p6819
I1
sS'row'
p6820
I10
sS'tranche.bank'
p6821
I1
sS'1949'
p6822
I29
sS'clarification'
p6823
I1
sS'contemplating'
p6824
I1
sS'environment'
p6825
I3
sS'courts.chinese'
p6826
I1
sS'charge'
p6827
I3
sS'promoting'
p6828
I5
sS'weakening'
p6829
I1
sS'161.27'
p6830
I2
sS'161.20'
p6831
I1
sS'summonses.china'
p6832
I1
sS'federation'
p6833
I2
sS'advantage'
p6834
I5
sS'denied'
p6835
I3
sS'sponsors'
p6836
I1
sS'tanks'
p6837
I2
sS'cook'
p6838
I2
sS'8.65'
p6839
I1
sS'8.66'
p6840
I1
sS'cool'
p6841
I2
sS'level'
p6842
I51
sS'philippines'
p6843
I21
sS'posts'
p6844
I2
sS'hawaii'
p6845
I1
sS'standards'
p6846
I21
sS'differential'
p6847
I2
sS'denounces'
p6848
I1
sS'65-8703080'
p6849
I1
sS'quick'
p6850
I4
sS'punctuating'
p6851
I1
sS'said.only'
p6852
I1
sS'mid-1998'
p6853
I1
sS'55.7'
p6854
I1
sS'says'
p6855
I39
sS'tougher'
p6856
I1
sS'trend'
p6857
I15
sS'said.despite'
p6858
I2
sS'mid-1995'
p6859
I4
sS'slowed'
p6860
I2
sS'prices.chinese'
p6861
I1
sS'port'
p6862
I17
sS'constitution'
p6863
I7
sS'impoverished.china'
p6864
I1
sS'spreading.chinese'
p6865
I1
sS'pleased'
p6866
I4
sS'lhasa'
p6867
I1
sS'goes'
p6868
I1
sS'reply'
p6869
I1
sS'jilted'
p6870
I1
sS'region.nigel'
p6871
I1
sS'evolved'
p6872
I1
sS'water'
p6873
I2
sS'lu'
p6874
I4
sS'company.china'
p6875
I1
sS'groups'
p6876
I6
sS'6-4'
p6877
I1
sS'6-2'
p6878
I1
sS'6-3'
p6879
I1
sS'added.airola'
p6880
I2
sS'6-1'
p6881
I1
sS'unidentified'
p6882
I1
sS'boast'
p6883
I1
sS'healthy'
p6884
I3
sS'arsenals.gujral'
p6885
I1
sS'stomachs'
p6886
I1
sS'denunciation'
p6887
I1
sS'navigation'
p6888
I3
sS'emerge'
p6889
I3
sS'soybeans'
p6890
I13
sS'67.5'
p6891
I1
sS'crisis'
p6892
I3
sS'say.late'
p6893
I1
sS'sports'
p6894
I5
sS'cinta'
p6895
I1
sS'memory'
p6896
I1
sS'australian'
p6897
I2
sS'ordinating'
p6898
I1
sS'today'
p6899
I14
sS'unwarranted'
p6900
I1
sS'permadi'
p6901
I1
sS'sessions'
p6902
I4
sS'cases'
p6903
I2
sS'wanda'
p6904
I1
sS'shares.in'
p6905
I2
sS'friday.amd'
p6906
I1
sS'thousands'
p6907
I2
sS'districts'
p6908
I1
sS'ferry'
p6909
I1
sS'numbers'
p6910
I3
sS'streak'
p6911
I1
sS'computerisation'
p6912
I1
sS'3,438'
p6913
I1
sS'figure'
p6914
I12
sS'satays'
p6915
I1
sS'business.paint'
p6916
I1
sS'unarmed'
p6917
I1
sS'stroke'
p6918
I2
sS'performed'
p6919
I1
sS'wednesday.total'
p6920
I1
sS'counting'
p6921
I1
sS'swedish'
p6922
I1
sS'requirements'
p6923
I2
sS'harmed'
p6924
I1
sS'said.demand'
p6925
I1
sS'1'
p6926
I84
sS'vital'
p6927
I3
sS'fourth'
p6928
I3
sS'plus'
p6929
I2
sS'subsidiaries'
p6930
I3
sS'text.in'
p6931
I1
sS'levy'
p6932
I1
sS'paramount'
p6933
I1
sS'huge'
p6934
I18
sS'2.395'
p6935
I1
sS'3.49'
p6936
I1
sS'onsold'
p6937
I2
sS'islamic'
p6938
I1
sS'tipped'
p6939
I1
sS'eighth'
p6940
I1
sS'homes.if'
p6941
I1
sS'branches'
p6942
I8
sS'liquid'
p6943
I1
sS'said.one'
p6944
I2
sS'inform'
p6945
I2
sS'representation'
p6946
I2
sS'changan'
p6947
I11
sS'exclusive'
p6948
I4
sS'15.26'
p6949
I1
sS'mgt'
p6950
I1
sS'midnight'
p6951
I14
sS'yuli'
p6952
I1
sS'2.4-million'
p6953
I1
sS'mistrusts'
p6954
I1
sS'motions'
p6955
I2
sS'westerners'
p6956
I1
sS'chengdu'
p6957
I3
sS'leases'
p6958
I1
sS'felicia'
p6959
I1
sS'spur'
p6960
I1
sS'organisation'
p6961
I1
sS'civic'
p6962
I2
sS'platform'
p6963
I2
sS'offers'
p6964
I3
sS'farmer'
p6965
I1
sS'standards.based'
p6966
I1
sS'countract'
p6967
I1
sS'happened'
p6968
I1
sS'commentary.china'
p6969
I1
sS'conversations'
p6970
I2
sS'radicals'
p6971
I1
sS'qualified'
p6972
I2
sS'feature'
p6973
I1
sS'weapons.north'
p6974
I1
sS'779.86'
p6975
I1
sS'term'
p6976
I52
sS'equality'
p6977
I1
sS'rendering'
p6978
I1
sS'desiged'
p6979
I1
sS'results.china'
p6980
I2
sS'realise'
p6981
I1
sS'individually'
p6982
I1
sS'weighted'
p6983
I10
sS'populated'
p6984
I2
sS'begun'
p6985
I6
sS'plans'
p6986
I32
sS'thurday.the'
p6987
I1
sS'factors'
p6988
I1
sS'profit'
p6989
I53
sS'tensions'
p6990
I3
sS'goodwin'
p6991
I1
sS'independence.president'
p6992
I1
sS'securites'
p6993
I1
sS'attracted'
p6994
I3
sS'lawmaker'
p6995
I3
sS'frills'
p6996
I1
sS'skillfully'
p6997
I2
sS'cloven'
p6998
I2
sS'software'
p6999
I2
sS'impose'
p7000
I1
sS'motion'
p7001
I10
sS'turn'
p7002
I10
sS'place'
p7003
I13
sS'swing'
p7004
I3
sS'waigaoqiao'
p7005
I2
sS'rayong'
p7006
I1
sS'origin'
p7007
I2
sS'suspend'
p7008
I1
sS'merrill'
p7009
I6
sS'revenue'
p7010
I5
sS'accorded'
p7011
I1
sS'symbolic'
p7012
I1
sS'parasols'
p7013
I1
sS'23,900'
p7014
I1
sS'details.new'
p7015
I1
sS'george'
p7016
I1
sS'millions'
p7017
I10
sS'airbus'
p7018
I17
sS'given'
p7019
I17
sS'necessarily'
p7020
I4
sS'iae'
p7021
I8
sS'trillion'
p7022
I3
sS'europe'
p7023
I4
sS'plastic'
p7024
I2
sS'returns'
p7025
I8
sS'45-55aluminium'
p7026
I1
sS'convention'
p7027
I3
sS'legally'
p7028
I1
sS'white'
p7029
I12
sS'modernisation'
p7030
I1
sS'exploring'
p7031
I1
sS'association.beijing'
p7032
I1
sS'releases'
p7033
I1
sS'cope'
p7034
I1
sS'season'
p7035
I12
sS'circulated'
p7036
I2
sS'hui'
p7037
I14
sS'alan'
p7038
I1
sS'released'
p7039
I11
sS'20day'
p7040
I4
sS'operates'
p7041
I2
sS'holder'
p7042
I2
sS'specify'
p7043
I2
sS'population'
p7044
I3
sS'wide'
p7045
I4
sS'require'
p7046
I1
sS'diplomatic'
p7047
I30
sS'year.in'
p7048
I4
sS'spokeswoman'
p7049
I3
sS'officials'
p7050
I92
sS'imminent.taiwan'
p7051
I1
sS'residency.wang'
p7052
I1
sS'refrigerator'
p7053
I1
sS'pre'
p7054
I6
sS'details.wong'
p7055
I1
sS'rene'
p7056
I1
sS'prc'
p7057
I1
sS'pro'
p7058
I20
sS'capacity.the'
p7059
I1
sS'sells'
p7060
I2
sS'thursday.total'
p7061
I1
sS'prosperity'
p7062
I3
sS'exploratory'
p7063
I5
sS'ideas'
p7064
I1
sS'emphasis'
p7065
I1
sS'blunt'
p7066
I3
sS'sure'
p7067
I3
sS'multiple'
p7068
I5
sS'betrayal'
p7069
I2
sS'council.india'
p7070
I1
sS'visitors'
p7071
I4
sS'hooved'
p7072
I2
sS'costs.tam'
p7073
I1
sS'14,408'
p7074
I1
sS'cleared'
p7075
I2
sS'considered'
p7076
I7
sS'jakarta'
p7077
I1
sS'adopt'
p7078
I2
sS'independence.white'
p7079
I2
sS'senior'
p7080
I22
sS'law.any'
p7081
I1
sS'allegations'
p7082
I1
sS'southwestern'
p7083
I5
sS'0.46'
p7084
I2
sS'11.658wednesday'
p7085
I1
sS'0.41'
p7086
I2
sS'gulf'
p7087
I5
sS'state'
p7088
I132
sS'crime'
p7089
I1
sS'wood'
p7090
I1
sS'believing'
p7091
I1
sS'44.1'
p7092
I4
sS'cautioned'
p7093
I2
sS'bourgeoning'
p7094
I1
sS'abernethy'
p7095
I1
sS'sse'
p7096
I2
sS'23,480'
p7097
I1
sS'hilley'
p7098
I2
sS'regarding'
p7099
I5
sS'aluminum'
p7100
I5
sS'floods'
p7101
I1
sS'barbaric'
p7102
I3
sS'embassy'
p7103
I3
sS'predicted'
p7104
I2
sS'yuan.may'
p7105
I1
sS'violated'
p7106
I2
sS'connections'
p7107
I3
sS'1921'
p7108
I14
sS'slashing'
p7109
I1
sS'obliging'
p7110
I2
sS'stanley'
p7111
I3
sS'insuring'
p7112
I1
sS'details.beijing'
p7113
I2
sS'voluntary'
p7114
I3
sS'farmers'
p7115
I7
sS'federal'
p7116
I2
sS'subsequent'
p7117
I1
sS'review'
p7118
I5
sS'circulating'
p7119
I2
sS'weapons'
p7120
I14
sS'outside'
p7121
I17
sS'surfaced'
p7122
I1
sS'arrival'
p7123
I2
sS'rumours'
p7124
I3
sS'queueing'
p7125
I1
sS'bills.about'
p7126
I1
sS'population.amnesty'
p7127
I1
sS'cities'
p7128
I8
sS'come'
p7129
I18
sS'reaction'
p7130
I2
sS'manager.this'
p7131
I1
sS'said.by'
p7132
I1
sS'successes'
p7133
I1
sS'region'
p7134
I45
sS'cafes'
p7135
I1
sS'quiet'
p7136
I9
sS'contract'
p7137
I41
sS'senator'
p7138
I1
sS'railway'
p7139
I3
sS'deported'
p7140
I1
sS'duty'
p7141
I4
sS'pakistan'
p7142
I2
sS'colony'
p7143
I17
sS'3.56'
p7144
I1
sS"d'etre"
p7145
I1
sS'60'
p7146
I5
sS'61'
p7147
I1
sS'62'
p7148
I2
sS'63'
p7149
I1
sS'65'
p7150
I1
sS'approval'
p7151
I24
sS'68'
p7152
I2
sS'poll'
p7153
I3
sS'late'
p7154
I30
sS'didier'
p7155
I2
sS'howard'
p7156
I2
sS'home.he'
p7157
I1
sS'travel.wang'
p7158
I1
sS'consultancy'
p7159
I2
sS'declining'
p7160
I3
sS'peaceful'
p7161
I15
sS'helicopter'
p7162
I1
sS'reuters.from'
p7163
I2
sS'hardly'
p7164
I1
sS'500'
p7165
I8
sS'engine'
p7166
I9
sS'direction'
p7167
I5
sS'30.there'
p7168
I1
sS'andrew'
p7169
I1
sS'50,078'
p7170
I1
sS'minister'
p7171
I32
sS'tokio'
p7172
I1
sS'andrea'
p7173
I2
sS'irrelevant'
p7174
I1
sS'spirit'
p7175
I2
sS'case'
p7176
I10
sS'own.chiang'
p7177
I1
sS'cash'
p7178
I11
sS'premature'
p7179
I1
sS'2.48'
p7180
I1
sS'said.taiwan'
p7181
I6
sS'formosa'
p7182
I8
sS'shops'
p7183
I2
sS'colleague'
p7184
I1
sS'stabilising'
p7185
I1
sS'telecoms'
p7186
I1
sS'coupled'
p7187
I1
sS'kyuma'
p7188
I1
sS'telephone'
p7189
I11
sS'dissident'
p7190
I5
sS'profit.the'
p7191
I1
sS'refinery'
p7192
I2
sS'7.04'
p7193
I1
sS'refiners'
p7194
I6
sS'shopkeeper'
p7195
I2
sS'firms.one'
p7196
I1
sS'days.taiwan'
p7197
I1
sS'reminded'
p7198
I1
sS'3,447'
p7199
I1
sS'3,444'
p7200
I1
sS'3,445'
p7201
I2
sS'wednesday.but'
p7202
I1
sS'achieved.zhao'
p7203
I1
sS'manila'
p7204
I9
sS'intrusive.the'
p7205
I1
sS'reminder'
p7206
I1
sS'insurers'
p7207
I7
sS'events'
p7208
I1
sS'bulletin.the'
p7209
I2
sS'hermit'
p7210
I1
sS'week'
p7211
I58
sS'booths'
p7212
I1
sS'tactical'
p7213
I1
sS'producers'
p7214
I5
sS'submarines'
p7215
I2
sS'delicate'
p7216
I1
sS'2,372'
p7217
I1
sS'60-member'
p7218
I1
sS'vowed'
p7219
I6
sS'3,500'
p7220
I1
sS'shares.on'
p7221
I2
sS'eucalyptus'
p7222
I1
sS'pledging'
p7223
I2
sS'bodied'
p7224
I1
sS'relief'
p7225
I2
sS'components'
p7226
I4
sS'inability'
p7227
I2
sS'model'
p7228
I7
sS'reward'
p7229
I2
sS'researchers'
p7230
I1
sS'guided'
p7231
I1
sS'percent.industry'
p7232
I1
sS'actions'
p7233
I7
sS'violent'
p7234
I3
sS'kill'
p7235
I3
sS'kilo'
p7236
I1
sS'differentiation'
p7237
I1
sS'polish'
p7238
I1
sS'773.8'
p7239
I2
sS'announcement'
p7240
I3
sS"we've"
p7241
I3
sS'tellus'
p7242
I4
sS'30,000-bpd'
p7243
I1
sS'shrine'
p7244
I1
sS'bloc'
p7245
I1
sS'tuesday.trade'
p7246
I1
sS'flashing'
p7247
I1
sS'disrupt'
p7248
I1
sS'tuesday'
p7249
I77
sS'scheduled'
p7250
I11
sS'shearer'
p7251
I1
sS'said.airbus'
p7252
I1
sS'inflation'
p7253
I8
sS'democracy.taiwan'
p7254
I1
sS'confined'
p7255
I1
sS'accepted'
p7256
I4
sS'patrick'
p7257
I1
sS'down.real'
p7258
I1
sS'65-870-3093'
p7259
I1
sS'reduced'
p7260
I1
sS'burdens'
p7261
I1
sS'cetes'
p7262
I2
sS'said.technical'
p7263
I1
sS'threats.china'
p7264
I1
sS'competition'
p7265
I7
sS'shortcoming'
p7266
I2
sS'table'
p7267
I3
sS'monday.the'
p7268
I1
sS'provided'
p7269
I1
sS'slice'
p7270
I2
sS'mood'
p7271
I6
sS'stops'
p7272
I2
sS'provides'
p7273
I1
sS'freed'
p7274
I2
sS'calmed'
p7275
I1
sS'metropolis'
p7276
I3
sS'banks.the'
p7277
I1
sS'ok'
p7278
I1
sS'discussed'
p7279
I4
sS'charoen'
p7280
I1
sS'mutually'
p7281
I1
sS'visit.differences'
p7282
I1
sS'stand'
p7283
I4
sS'sichuan.a'
p7284
I1
sS'tariffs'
p7285
I1
sS'body.some'
p7286
I1
sS'amber'
p7287
I1
sS'guofang.the'
p7288
I1
sS'jian'
p7289
I3
sS'reactions'
p7290
I1
sS'communication'
p7291
I2
sS'11.100'
p7292
I1
sS'harm'
p7293
I1
sS'accounts'
p7294
I6
sS'susanti'
p7295
I1
sS'begged'
p7296
I1
sS'feudal'
p7297
I1
sS'show.the'
p7298
I1
sS'alleged'
p7299
I3
sS'overstaffed'
p7300
I2
sS'strict'
p7301
I2
sS'expatriate'
p7302
I1
sS'energy'
p7303
I4
sS'751'
p7304
I1
sS'fundamentals'
p7305
I9
sS'regard'
p7306
I7
sS'jun'
p7307
I1
sS'896.67'
p7308
I2
sS'cabinet'
p7309
I11
sS'promote'
p7310
I2
sS'faster'
p7311
I7
sS'applying'
p7312
I1
sS'ballot.beijing'
p7313
I1
sS'wholesale'
p7314
I1
sS'grass'
p7315
I1
sS'strongly'
p7316
I4
sS'20.37'
p7317
I1
sS'23,920'
p7318
I1
sS'toiled'
p7319
I1
sS'britain'
p7320
I27
sS'harvest'
p7321
I1
sS'week.in'
p7322
I1
sS'said.arms'
p7323
I1
sS'bishop'
p7324
I1
sS'4.7'
p7325
I1
sS'4.1'
p7326
I3
sS'4.0'
p7327
I3
sS'4.2'
p7328
I2
sS'piracy'
p7329
I3
sS'metalcastings'
p7330
I1
sS'swords'
p7331
I1
sS'4.8'
p7332
I6
sS'insurance'
p7333
I46
sS'rubber'
p7334
I13
sS'bookrunner'
p7335
I3
sS'5'
p7336
I14
sS'50-60'
p7337
I1
sS'hellfire'
p7338
I1
sS'month.airbus'
p7339
I1
sS'briefly'
p7340
I3
sS'separate'
p7341
I7
sS'points.shenyang'
p7342
I1
sS'includes'
p7343
I5
sS'recognise'
p7344
I8
sS'included'
p7345
I8
sS'stocks'
p7346
I12
sS'booked'
p7347
I5
sS'bilateral'
p7348
I15
sS'calls'
p7349
I5
sS'wife'
p7350
I6
sS'invest'
p7351
I3
sS'directors'
p7352
I6
sS'taiyuan'
p7353
I1
sS'missouri'
p7354
I1
sS'chinese'
p7355
I245
sS'lack'
p7356
I8
sS'jingyi'
p7357
I1
sS'follow'
p7358
I3
sS'settlement'
p7359
I8
sS'decisions'
p7360
I3
sS'synthetic'
p7361
I1
sS'glimpse'
p7362
I2
sS'behave.they'
p7363
I1
sS'diplomacy'
p7364
I1
sS'opportunities'
p7365
I6
sS'lawmakers'
p7366
I3
sS'defuse'
p7367
I1
sS'activities'
p7368
I5
sS'fax'
p7369
I12
sS'woman'
p7370
I3
sS'worse'
p7371
I2
sS'song'
p7372
I1
sS'far'
p7373
I34
sS'alternatives'
p7374
I2
sS'sons'
p7375
I1
sS'fan'
p7376
I3
sS'sony'
p7377
I2
sS'department.hoan'
p7378
I1
sS'rule.under'
p7379
I1
sS'list'
p7380
I14
sS'programme'
p7381
I4
sS'95.00'
p7382
I4
sS'employing'
p7383
I1
sS'tel'
p7384
I2
sS'escalation'
p7385
I2
sS'tea'
p7386
I1
sS'breakers'
p7387
I2
sS'derivatives@reuters.com'
p7388
I1
sS'rate'
p7389
I55
sS'design'
p7390
I2
sS'shangling'
p7391
I2
sS'nbd'
p7392
I1
sS'imported'
p7393
I5
sS'sub'
p7394
I1
sS'deeply'
p7395
I3
sS'brief'
p7396
I4
sS'crush'
p7397
I1
sS'said.turnover'
p7398
I2
sS'importer'
p7399
I2
sS'version'
p7400
I3
sS'racing'
p7401
I1
sS'idealism'
p7402
I1
sS'condensed'
p7403
I1
sS'neng'
p7404
I3
sS'behaviour'
p7405
I1
sS'toed'
p7406
I1
sS'attack.but'
p7407
I1
sS'chongqing'
p7408
I18
sS'naval'
p7409
I6
sS'difficulty'
p7410
I1
sS'allows'
p7411
I5
sS'extremes'
p7412
I1
sS'options'
p7413
I3
sS'invesco'
p7414
I5
sS'members'
p7415
I28
sS'suddenly'
p7416
I2
sS'appliances'
p7417
I4
sS'residency'
p7418
I5
sS'proceed'
p7419
I1
sS'colony.under'
p7420
I1
sS'denominated'
p7421
I1
sS'flowered'
p7422
I2
sS'management.the'
p7423
I1
sS'permanently'
p7424
I1
sS'branded'
p7425
I2
sS'markets'
p7426
I61
sS'13-point'
p7427
I1
sS'minor'
p7428
I2
sS'flat'
p7429
I8
sS'knows'
p7430
I1
sS'flag'
p7431
I5
sS'basically'
p7432
I3
sS'known'
p7433
I7
sS'glad'
p7434
I1
sS'wrestled'
p7435
I1
sS'debates'
p7436
I5
sS'period.politics'
p7437
I1
sS'policemen'
p7438
I1
sS'wintering'
p7439
I1
sS'protestors'
p7440
I1
sS'seaports'
p7441
I1
sS'division'
p7442
I5
sS'1996.the'
p7443
I3
sS'hourlong'
p7444
I1
sS'pong'
p7445
I1
sS'china.after'
p7446
I1
sS'shanxi'
p7447
I3
sS'terrestrial'
p7448
I1
sS'5.1'
p7449
I1
sS'court'
p7450
I7
sS'5.5'
p7451
I2
sS'5.7'
p7452
I1
sS'ordinance'
p7453
I1
sS'breaking'
p7454
I2
sS'markets.singapore'
p7455
I1
sS'951.8'
p7456
I1
sS'ha.he'
p7457
I1
sS'619'
p7458
I1
sS'4,165'
p7459
I1
sS'reflect'
p7460
I1
sS'prospecting'
p7461
I1
sS'nanchang'
p7462
I1
sS'residents.hot'
p7463
I1
sS'schroders'
p7464
I3
sS'short'
p7465
I48
sS'liang'
p7466
I1
sS'cooperatives'
p7467
I5
sS'prefers'
p7468
I1
sS'departure'
p7469
I3
sS'tsan'
p7470
I1
sS'65-85'
p7471
I1
sS'shore'
p7472
I1
sS'1,619.38'
p7473
I1
sS'specifying'
p7474
I1
sS'zieleniec'
p7475
I1
sS'retaliate'
p7476
I1
sS'balloon'
p7477
I1
sS'turnover'
p7478
I44
sS'subcontinent.singapore'
p7479
I1
sS'subcontract'
p7480
I1
sS'guangzhou.china'
p7481
I1
sS'copper'
p7482
I28
sS'september'
p7483
I10
sS'developed'
p7484
I3
sS'mission'
p7485
I2
sS'1.92'
p7486
I1
sS'inquiries'
p7487
I2
sS'developer'
p7488
I4
sS'style'
p7489
I4
sS'clashed'
p7490
I3
sS'assaulting'
p7491
I1
sS'parts'
p7492
I9
sS'argentina'
p7493
I1
sS'soccer'
p7494
I5
sS'return'
p7495
I13
sS'sucking'
p7496
I2
sS'framework'
p7497
I1
sS'respiratory'
p7498
I1
sS'milestone'
p7499
I1
sS'communities'
p7500
I2
sS'2,600'
p7501
I1
sS'bigger'
p7502
I1
sS'0430'
p7503
I1
sS'commiteee'
p7504
I1
sS'1995.it'
p7505
I1
sS'friendship'
p7506
I8
sS'nicotine'
p7507
I2
sS'weight'
p7508
I2
sS'generation'
p7509
I2
sS'fixture'
p7510
I1
sS'expect'
p7511
I16
sS'undertake'
p7512
I1
sS'170,000'
p7513
I1
sS'retrenchments'
p7514
I2
sS'health'
p7515
I1
sS'8.2970.the'
p7516
I1
sS'benjamin'
p7517
I1
sS'hailing'
p7518
I3
sS'friday'
p7519
I55
sS'differ'
p7520
I1
sS'3.05'
p7521
I2
sS'games.the'
p7522
I1
sS'organising'
p7523
I1
sS'to.china'
p7524
I1
sS'generate'
p7525
I1
sS'guest'
p7526
I7
sS'fiat'
p7527
I1
sS'capital.the'
p7528
I1
sS'11,600'
p7529
I2
sS'passages.ting'
p7530
I1
sS'threat'
p7531
I14
sS'fallen'
p7532
I4
sS'feed'
p7533
I7
sS'unhealthy'
p7534
I1
sS'feel'
p7535
I9
sS'radical'
p7536
I2
sS'pork'
p7537
I1
sS'sympathy'
p7538
I2
sS'sailor'
p7539
I2
sS'revolution'
p7540
I1
sS'fees'
p7541
I5
sS'slower'
p7542
I2
sS'story'
p7543
I2
sS'automobile'
p7544
I8
sS'financed'
p7545
I1
sS'figures.in'
p7546
I1
sS'regulation'
p7547
I1
sS'f-16'
p7548
I2
sS'store'
p7549
I5
sS'headache'
p7550
I1
sS'oversupply'
p7551
I1
sS'pains'
p7552
I1
sS'exploded'
p7553
I1
sS'hotel'
p7554
I1
sS'13.92'
p7555
I1
sS'optical'
p7556
I1
sS'19.state'
p7557
I1
sS'inaugurated'
p7558
I1
sS'king'
p7559
I2
sS'kind'
p7560
I5
sS'31.61'
p7561
I1
sS'double'
p7562
I5
sS'aims'
p7563
I2
sS'architect'
p7564
I1
sS'risks'
p7565
I7
sS'299.84'
p7566
I1
sS'risky'
p7567
I2
sS'corp.the'
p7568
I1
sS'outstanding'
p7569
I3
sS'strengthen'
p7570
I3
sS'imports'
p7571
I21
sS'alike'
p7572
I1
sS'cleaned'
p7573
I1
sS'co.the'
p7574
I2
sS'miracle.he'
p7575
I1
sS'chairman'
p7576
I12
sS'hutchison'
p7577
I2
sS'subscribers.this'
p7578
I1
sS'777'
p7579
I1
sS'added'
p7580
I22
sS'electric'
p7581
I16
sS'rebuffed'
p7582
I1
sS'measures'
p7583
I13
sS'reach'
p7584
I11
sS'react'
p7585
I1
sS'75'
p7586
I8
sS'74'
p7587
I1
sS'73'
p7588
I3
sS'72'
p7589
I1
sS'70'
p7590
I12
sS'prestige'
p7591
I2
sS'achievement'
p7592
I3
sS'350corn'
p7593
I1
sS'dealers'
p7594
I8
sS'coincides'
p7595
I1
sS'traditional'
p7596
I3
sS'ingots'
p7597
I8
sS'institutions'
p7598
I15
sS'1995.last'
p7599
I1
sS'memorandum'
p7600
I1
sS'2.980'
p7601
I1
sS'costing'
p7602
I2
sS'aggravate'
p7603
I3
sS'securing'
p7604
I1
sS'starters'
p7605
I1
sS'soon.in'
p7606
I1
sS'founding'
p7607
I3
sS'gains'
p7608
I20
sS'212-859-1646'
p7609
I1
sS'whistle'
p7610
I1
sS'5,000'
p7611
I4
sS'fastest'
p7612
I3
sS'ningbo.it'
p7613
I1
sS'grievances'
p7614
I5
sS'budapest'
p7615
I1
sS'appeal'
p7616
I3
sS'statelessness'
p7617
I1
sS'activity'
p7618
I1
sS'wrote'
p7619
I1
sS'dump'
p7620
I1
sS'achieved'
p7621
I2
sS'30day'
p7622
I4
sS'intelligence'
p7623
I2
sS'27south'
p7624
I1
sS'2.8'
p7625
I2
sS'points.shanghai'
p7626
I4
sS'wednesday.one'
p7627
I1
sS'78-point'
p7628
I1
sS'2.0'
p7629
I3
sS'arm'
p7630
I11
sS'2.5'
p7631
I7
sS'threats'
p7632
I1
sS'there.cohen'
p7633
I1
sS'nailed'
p7634
I1
sS'dismantling'
p7635
I1
sS'various'
p7636
I1
sS'plywood'
p7637
I2
sS'consecutive'
p7638
I1
sS'cancelling'
p7639
I1
sS'korea'
p7640
I51
sS'recently'
p7641
I12
sS'creating'
p7642
I1
sS'initially'
p7643
I1
sS'sold'
p7644
I9
sS'sole'
p7645
I6
sS'succeed'
p7646
I1
sS'importers'
p7647
I1
sS'opposition'
p7648
I3
sS'winterthur'
p7649
I1
sS'40,497'
p7650
I1
sS'said.minmetals'
p7651
I1
sS'redemptions'
p7652
I2
sS'timevillage'
p7653
I1
sS'15.89'
p7654
I2
sS'finds'
p7655
I1
sS'flies'
p7656
I1
sS'guts'
p7657
I1
sS'reasons'
p7658
I2
sS'village'
p7659
I12
sS'bolster'
p7660
I1
sS'decline'
p7661
I1
sS'shares.real'
p7662
I1
sS'25-35zinc'
p7663
I1
sS'pt'
p7664
I1
sS'incomes'
p7665
I1
sS'political'
p7666
I65
sS'strategy'
p7667
I5
sS'pc'
p7668
I4
sS'reduction'
p7669
I2
sS'supplying'
p7670
I1
sS'flight'
p7671
I1
sS'1950s'
p7672
I1
sS'algeria'
p7673
I1
sS'879.4'
p7674
I1
sS'brokers'
p7675
I25
sS'demand'
p7676
I35
sS'plants'
p7677
I9
sS'georgia'
p7678
I1
sS'advocating'
p7679
I1
sS'noticeable'
p7680
I1
sS'29.61'
p7681
I1
sS'said.real'
p7682
I1
sS'4.233'
p7683
I2
sS'batch'
p7684
I2
sS'evaluated'
p7685
I1
sS'19.1'
p7686
I1
sS'antithesis'
p7687
I1
sS'said.however'
p7688
I4
sS'rig'
p7689
I43
sS'11.291'
p7690
I2
sS'ample'
p7691
I2
sS'vietnam.china'
p7692
I1
sS'widely'
p7693
I3
sS'9'
p7694
I9
sS'160,000'
p7695
I1
sS'higher'
p7696
I23
sS'arrives'
p7697
I3
sS'8.80'
p7698
I2
sS'8.87'
p7699
I1
sS'flows'
p7700
I1
sS'protesters'
p7701
I2
sS'flown'
p7702
I2
sS'moving'
p7703
I12
sS'robust'
p7704
I2
sS'built'
p7705
I6
sS'lower'
p7706
I20
sS'million.gucci'
p7707
I1
sS'future.some'
p7708
I1
sS'dared'
p7709
I1
sS'0.374'
p7710
I2
sS'underreported'
p7711
I1
sS'1,580'
p7712
I2
sS'compressor'
p7713
I2
sS'4,493'
p7714
I1
sS'tabled'
p7715
I1
sS'competitive'
p7716
I3
sS'immediately'
p7717
I7
sS'profitable'
p7718
I2
sS'blossoming'
p7719
I1
sS'advisers'
p7720
I1
sS'workers'
p7721
I13
sS'exclusively'
p7722
I2
sS'zulueta'
p7723
I3
sS'hsin'
p7724
I1
sS'rights.an'
p7725
I1
sS'2.19'
p7726
I1
sS'162.25'
p7727
I2
sS'tormented'
p7728
I1
sS'violations'
p7729
I1
sS'2.13'
p7730
I1
sS'build'
p7731
I9
sS'customers'
p7732
I12
sS'senkui'
p7733
I1
sS'mainlanders'
p7734
I1
sS'9.10'
p7735
I1
sS'moody'
p7736
I2
sS'democratically'
p7737
I1
sS'hague.the'
p7738
I1
sS'335.14'
p7739
I1
sS'commanders'
p7740
I1
sS'separately'
p7741
I1
sS'essential'
p7742
I1
sS'hinted'
p7743
I1
sS'16,300.combined'
p7744
I1
sS'3.6'
p7745
I3
sS'understood'
p7746
I2
sS'litter'
p7747
I1
sS'3.5'
p7748
I3
sS'3.0'
p7749
I1
sS'3.1'
p7750
I2
sS'newsletter'
p7751
I7
sS'ackerly'
p7752
I2
sS'gradually'
p7753
I7
sS'jining'
p7754
I1
sS'anne'
p7755
I1
sS'tuesday.siazon'
p7756
I1
sS'nasal'
p7757
I1
sS'martin'
p7758
I1
sS'refused'
p7759
I2
sS'0900'
p7760
I1
sS'intense'
p7761
I1
sS'powerplants'
p7762
I1
sS'unconfirmed'
p7763
I2
sS'asserting'
p7764
I1
sS'117.4'
p7765
I1
sS'entrepreneurs'
p7766
I1
sS'firing'
p7767
I2
sS'trader.he'
p7768
I1
sS'range'
p7769
I13
sS'womens'
p7770
I1
sS'youthful'
p7771
I1
sS'66-year'
p7772
I1
sS'election.officials'
p7773
I1
sS'taipei.officials'
p7774
I1
sS'11.572thursday'
p7775
I1
sS'drifted'
p7776
I1
sS'intraday'
p7777
I18
sS'sonny'
p7778
I2
sS'redoubt.in'
p7779
I1
sS'question'
p7780
I3
sS'fast'
p7781
I19
sS'said.chavalit'
p7782
I1
sS"we're"
p7783
I2
sS'sections'
p7784
I2
sS'oilseeds'
p7785
I2
sS'mundane'
p7786
I1
sS'plunge'
p7787
I1
sS'imperialism.the'
p7788
I1
sS'comfort.trains'
p7789
I1
sS'criteria'
p7790
I1
sS'cloth'
p7791
I1
sS'repeatedly'
p7792
I8
sS'filed'
p7793
I2
sS'raising'
p7794
I4
sS'friday.zhang'
p7795
I1
sS'patriot'
p7796
I3
sS'fries'
p7797
I2
sS'barring'
p7798
I1
sS'fluctuations'
p7799
I2
sS'fried'
p7800
I1
sS'called'
p7801
I11
sS'shandong'
p7802
I2
sS'said.many'
p7803
I1
sS'associated'
p7804
I1
sS'chibor'
p7805
I4
sS'stick'
p7806
I2
sS'warning'
p7807
I3
sS'rally'
p7808
I1
sS'handover.the'
p7809
I2
sS'shangahi'
p7810
I1
sS'16,150'
p7811
I2
sS'16,400'
p7812
I1
sS'rains'
p7813
I2
sS'peace'
p7814
I11
sS'shenbao'
p7815
I2
sS'3.25'
p7816
I2
sS'3.24'
p7817
I1
sS'income'
p7818
I22
sS'880.7'
p7819
I1
sS'mcdonnell'
p7820
I2
sS'university.the'
p7821
I1
sS'mock'
p7822
I1
sS'dictating'
p7823
I1
sS'users'
p7824
I1
sS'problems'
p7825
I24
sS'helping'
p7826
I2
sS'generated'
p7827
I2
sS'389,200'
p7828
I1
sS'allowing'
p7829
I8
sS'posters'
p7830
I1
sS'rightful'
p7831
I1
sS'vice'
p7832
I23
sS'policymaker'
p7833
I1
sS'so.the'
p7834
I1
sS'foundry'
p7835
I2
sS'departments'
p7836
I3
sS'dragged'
p7837
I2
sS'talks.the'
p7838
I1
sS'joining'
p7839
I2
sS'issued'
p7840
I18
sS'resistance'
p7841
I3
sS'cheung'
p7842
I2
sS'fog'
p7843
I1
sS'contributions'
p7844
I2
sS'issues'
p7845
I28
sS'issuer'
p7846
I1
sS'management.in'
p7847
I1
sS'spector'
p7848
I5
sS'leung'
p7849
I4
sS'shanghai'
p7850
I185
sS'dissidents'
p7851
I2
sS'languages'
p7852
I1
sS'stable'
p7853
I12
sS'breach'
p7854
I3
sS'include'
p7855
I8
sS'abode'
p7856
I9
sS'seized'
p7857
I2
sS'mainstream'
p7858
I1
sS'neighbourly'
p7859
I1
sS'712'
p7860
I1
sS'710'
p7861
I2
sS'electron'
p7862
I2
sS'wishes'
p7863
I3
sS'materialise'
p7864
I1
sS'1,305.726'
p7865
I2
sS'mianly'
p7866
I1
sS'polyester'
p7867
I2
sS'note.peregrine'
p7868
I1
sS'notes'
p7869
I8
sS'deals'
p7870
I3
sS'demonstrated'
p7871
I1
sS'polling'
p7872
I2
sS'dealt'
p7873
I1
sS'noted'
p7874
I8
sS'49.9'
p7875
I2
sS'11.089'
p7876
I2
sS'concluded'
p7877
I2
sS'cap'
p7878
I1
sS'sensation'
p7879
I1
sS'concludes'
p7880
I1
sS'acid'
p7881
I4
sS'makers'
p7882
I5
sS'universities'
p7883
I1
sS'unavailable'
p7884
I1
sS'concessions'
p7885
I2
sS'waiting'
p7886
I7
sS'capital'
p7887
I35
sS'territory.but'
p7888
I1
sS'degree'
p7889
I8
sS'pushing'
p7890
I5
sS'categorically'
p7891
I2
sS'desired'
p7892
I1
sS'added.the'
p7893
I1
sS'yuancompany'
p7894
I6
sS'scrapped'
p7895
I1
sS'ukraine'
p7896
I2
sS'bangkok'
p7897
I2
sS'larger'
p7898
I5
sS'leaving'
p7899
I6
sS'helpers'
p7900
I1
sS'mountainous'
p7901
I1
sS'deputy'
p7902
I15
sS'egypt'
p7903
I1
sS'app'
p7904
I1
sS'subsidary'
p7905
I1
sS'performer'
p7906
I3
sS'apply'
p7907
I3
sS'boasts'
p7908
I2
sS'use'
p7909
I31
sS'fee'
p7910
I1
sS'consumption'
p7911
I2
sS'expanding'
p7912
I2
sS'timetable'
p7913
I2
sS'chip'
p7914
I8
sS'sort'
p7915
I1
sS'parliament'
p7916
I8
sS'journalists'
p7917
I7
sS'equity'
p7918
I2
sS'handover.many'
p7919
I1
sS'infection'
p7920
I1
sS'cooperate'
p7921
I2
sS'women'
p7922
I11
sS'topic'
p7923
I1
sS'bulletin.under'
p7924
I1
sS'weighting'
p7925
I2
sS'getting'
p7926
I5
sS'hua'
p7927
I1
sS'posing'
p7928
I1
sS'1,300'
p7929
I5
sS'dropped'
p7930
I7
sS'0.8'
p7931
I1
sS'tap'
p7932
I1
sS'0.2'
p7933
I1
sS'tax'
p7934
I40
sS'carrot'
p7935
I2
sS'urged'
p7936
I16
sS'tam'
p7937
I4
sS'tan'
p7938
I21
sS'rape'
p7939
I4
sS'said.three'
p7940
I1
sS'united'
p7941
I81
sS'siu'
p7942
I3
sS'handover'
p7943
I30
sS'inaugural'
p7944
I2
sS'said.turmoil'
p7945
I1
sS'traders'
p7946
I70
sS'camilla'
p7947
I1
sS'slamming'
p7948
I2
sS'instead'
p7949
I2
sS'goldsmith'
p7950
I1
sS'panic'
p7951
I1
sS'parliamentary'
p7952
I1
sS'6ml'
p7953
I2
sS'tacs'
p7954
I3
sS'discomfort'
p7955
I1
sS'ethnic'
p7956
I4
sS'purely'
p7957
I1
sS'telefonos'
p7958
I1
sS'light'
p7959
I7
sS'76.00'
p7960
I2
sS'interrupted'
p7961
I1
sS'manganese'
p7962
I1
sS'74.00'
p7963
I1
sS'met.wang'
p7964
I1
sS'banyan'
p7965
I1
sS'saturated'
p7966
I1
sS'ouput'
p7967
I1
sS'reeling'
p7968
I7
sS'encouraged'
p7969
I5
sS'130'
p7970
I3
sS'137'
p7971
I2
sS'looks'
p7972
I2
sS'138'
p7973
I1
sS'countracts'
p7974
I1
sS'boosts'
p7975
I1
sS'ships'
p7976
I3
sS'permanent'
p7977
I14
sS'choose'
p7978
I4
sS'covered'
p7979
I2
sS'holiday'
p7980
I5
sS'defining'
p7981
I1
sS'pending'
p7982
I5
sS'agnecy'
p7983
I1
sS'violating'
p7984
I1
sS'crash'
p7985
I2
sS'crs'
p7986
I1
sS'said.he'
p7987
I7
sS'practice'
p7988
I1
sS'adversely'
p7989
I1
sS'invitations'
p7990
I1
sS'republican'
p7991
I8
sS'investor'
p7992
I5
sS'fled'
p7993
I9
sS'successor'
p7994
I1
sS'landings'
p7995
I1
sS'search'
p7996
I2
sS'tran'
p7997
I2
sS'23,390'
p7998
I1
sS'cocoon'
p7999
I1
sS'0.355'
p8000
I1
sS'bills'
p8001
I3
sS'added.china'
p8002
I1
sS'armies'
p8003
I3
sS'hyun'
p8004
I1
sS'related'
p8005
I4
sS'remove'
p8006
I1
sS'zaire'
p8007
I2
sS'86'
p8008
I2
sS'87'
p8009
I2
sS'84'
p8010
I1
sS'respects'
p8011
I1
sS'2.37'
p8012
I1
sS'sentiment'
p8013
I22
sS'frontier'
p8014
I4
sS'disarray'
p8015
I1
sS'chaos'
p8016
I2
sS'performs'
p8017
I1
sS'fengchao'
p8018
I3
sS'yankee'
p8019
I1
sS'supports'
p8020
I6
sS'retakes'
p8021
I1
sS'bulletin.in'
p8022
I1
sS'2.52'
p8023
I1
sS'off.hong'
p8024
I1
sS'maintains'
p8025
I5
sS'york'
p8026
I17
sS'van'
p8027
I2
sS'natwest'
p8028
I1
sS'comrade'
p8029
I1
sS'investment.chiang'
p8030
I1
sS'lagged'
p8031
I2
sS'7.31'
p8032
I1
sS'12.420'
p8033
I2
sS'again.richardson'
p8034
I1
sS'destinations'
p8035
I3
sS"doesn't"
p8036
I2
sS'252.48'
p8037
I1
sS'crossings.local'
p8038
I1
sS'hengdo'
p8039
I1
sS'168.50'
p8040
I1
sS'priority'
p8041
I6
sS'anaemic'
p8042
I1
sS'3084'
p8043
I1
sS'siam'
p8044
I1
sS'questions.on'
p8045
I1
sS'shelf'
p8046
I4
sS'reversed'
p8047
I1
sS'113-nation'
p8048
I1
sS'regards'
p8049
I8
sS'july'
p8050
I55
sS'institution'
p8051
I2
sS'leniently'
p8052
I1
sS'commodity'
p8053
I3
sS'isolation'
p8054
I1
sS'riches'
p8055
I1
sS'limiting'
p8056
I2
sS'34.25'
p8057
I1
sS'denmark'
p8058
I3
sS'1.4'
p8059
I2
sS'1.5'
p8060
I3
sS'1.6'
p8061
I6
sS'1.7'
p8062
I3
sS'1.0'
p8063
I2
sS'1.1'
p8064
I3
sS'1.2'
p8065
I7
sS'1.3'
p8066
I2
sS'cohen'
p8067
I5
sS'1.8'
p8068
I2
sS'1.9'
p8069
I4
sS'said.chinese'
p8070
I5
sS'mogul'
p8071
I1
sS'alerted'
p8072
I1
sS'mongolian'
p8073
I1
sS'linked'
p8074
I6
sS'catholic'
p8075
I1
sS'daojiong'
p8076
I1
sS'fengxian'
p8077
I1
sS'agency'
p8078
I26
sS'1995.military'
p8079
I1
sS'clash'
p8080
I1
sS'centre'
p8081
I18
sS'petrol'
p8082
I8
sS'india.amnesty'
p8083
I1
sS'12.the'
p8084
I1
sS'class'
p8085
I2
sS'volume'
p8086
I73
sS'7,017'
p8087
I1
sS'11.658turnover'
p8088
I1
sS'haikou'
p8089
I2
sS'32.94'
p8090
I1
sS'32.97'
p8091
I1
sS'dent'
p8092
I1
sS'looked'
p8093
I1
sS'mid-1980s'
p8094
I2
sS'deng'
p8095
I3
sS'goals'
p8096
I1
sS'february.hwang'
p8097
I1
sS'chances'
p8098
I1
sS'agreed'
p8099
I35
sS'eccleston'
p8100
I5
sS'69.00'
p8101
I1
sS'planning'
p8102
I15
sS'fear'
p8103
I6
sS'97.6'
p8104
I1
sS'debate'
p8105
I6
sS'spurring'
p8106
I1
sS'highest'
p8107
I5
sS'443,000'
p8108
I2
sS'exacerbating'
p8109
I2
sS'16,175'
p8110
I1
sS'candidates'
p8111
I1
sS'bogged'
p8112
I2
sS'chiyoda'
p8113
I2
sS'wuhu'
p8114
I2
sS'local'
p8115
I62
sS'cuba'
p8116
I2
sS'mainly'
p8117
I8
sS'total.but'
p8118
I1
sS'ones'
p8119
I7
sS'words'
p8120
I4
sS'chips'
p8121
I2
sS'married'
p8122
I2
sS'elaborating.a'
p8123
I1
sS'affluent'
p8124
I2
sS'abuse.while'
p8125
I1
sS'view'
p8126
I8
sS'available'
p8127
I5
sS'requirement'
p8128
I1
sS'12.192'
p8129
I1
sS'acquired'
p8130
I1
sS'turbulent'
p8131
I1
sS'philippines.hong'
p8132
I1
sS'merits'
p8133
I1
sS'reports.but'
p8134
I1
sS'1,331.130'
p8135
I2
sS'gajah'
p8136
I1
sS'closer'
p8137
I5
sS'closes'
p8138
I1
sS'televised'
p8139
I1
sS'talks.china'
p8140
I1
sS'arguably'
p8141
I1
sS'superb'
p8142
I1
sS'targeted'
p8143
I3
sS'closed'
p8144
I27
sS'crude'
p8145
I7
sS'stories'
p8146
I18
sS'trial.zhou'
p8147
I1
sS'bought'
p8148
I6
sS'ability'
p8149
I2
sS'opening'
p8150
I11
sS'gunships'
p8151
I1
sS'agencies'
p8152
I2
sS'job'
p8153
I2
sS'demonstrate'
p8154
I1
sS'west.another'
p8155
I1
sS'swift'
p8156
I1
sS'23,510.combined'
p8157
I1
sS'memento'
p8158
I1
sS'april'
p8159
I57
sS'grain'
p8160
I31
sS'rumoured'
p8161
I1
sS'said.nichimen'
p8162
I1
sS'safely'
p8163
I1
sS'unclear'
p8164
I3
sS'wall'
p8165
I3
sS'packaging'
p8166
I1
sS'122.00'
p8167
I2
sS'respect'
p8168
I5
sS'zinc'
p8169
I38
sS'withdrawn'
p8170
I2
sS'unhappiness'
p8171
I1
sS'provinces'
p8172
I4
sS'charts'
p8173
I3
sS'outflow'
p8174
I1
sS'agreements'
p8175
I3
sS'737'
p8176
I1
sS'mike'
p8177
I2
sS'nickel'
p8178
I1
sS'proudest'
p8179
I1
sS'sufficient'
p8180
I3
sS'overture'
p8181
I1
sS'ensuring'
p8182
I2
sS'capacity.sun'
p8183
I1
sS'accepted.the'
p8184
I1
sS'tangible'
p8185
I1
sS'55-75'
p8186
I1
sS'overturn'
p8187
I3
sS'present'
p8188
I11
sS'meeting.it'
p8189
I1
sS'said.president'
p8190
I1
sS'irate'
p8191
I2
sS'choices'
p8192
I1
sS'hovering'
p8193
I2
sS'madeleine'
p8194
I1
sS'1997.taiwan'
p8195
I1
sS'demand.chinese'
p8196
I1
sS'visit.clinton'
p8197
I1
sS'3,360'
p8198
I2
sS'3,365'
p8199
I1
sS'privileges'
p8200
I2
sS'buddhist'
p8201
I2
sS'cross'
p8202
I13
sS'unite'
p8203
I1
sS'member'
p8204
I10
sS'cariplo'
p8205
I1
sS'largest'
p8206
I12
sS'units'
p8207
I13
sS'gets'
p8208
I1
sS'lumbering'
p8209
I1
sS'difficult'
p8210
I7
sS'slave'
p8211
I1
sS'week.taipei'
p8212
I1
sS'1.60'
p8213
I2
sS'mutual'
p8214
I3
sS'territory.communist'
p8215
I1
sS'student'
p8216
I4
sS'premiers'
p8217
I1
sS'acompany'
p8218
I1
sS'fighting'
p8219
I3
sS'erfangji'
p8220
I4
sS'english'
p8221
I2
sS'thursday.under'
p8222
I1
sS'undertaken'
p8223
I1
sS'breaker'
p8224
I1
sS'realised'
p8225
I1
sS'tuesday.the'
p8226
I10
sS'engines.he'
p8227
I1
sS'excessive'
p8228
I1
sS'obtain'
p8229
I1
sS'mfn'
p8230
I9
sS'peace.asked'
p8231
I2
sS'464.02'
p8232
I2
sS'tck'
p8233
I3
sS'rocked'
p8234
I3
sS'525.7'
p8235
I1
sS'consume'
p8236
I1
sS'rapid'
p8237
I4
sS'console'
p8238
I1
sS'point'
p8239
I7
sS'sky'
p8240
I3
sS'capabilities'
p8241
I1
sS'hall'
p8242
I1
sS'attractive'
p8243
I2
sS'sparking'
p8244
I2
sS'enact'
p8245
I2
sS'paracel'
p8246
I5
sS'provisions'
p8247
I2
sS'reporters.taiwan'
p8248
I1
sS'execute'
p8249
I1
sS'ridden'
p8250
I1
sS'know'
p8251
I5
sS'press'
p8252
I10
sS'force.he'
p8253
I1
sS'showing'
p8254
I3
sS'helpful'
p8255
I1
sS'loser'
p8256
I6
sS'loses'
p8257
I1
sS'29-year'
p8258
I1
sS'james'
p8259
I2
sS'starred'
p8260
I1
sS'exceed'
p8261
I2
sS'smoothly'
p8262
I1
sS'searching'
p8263
I1
sS'115'
p8264
I1
sS'114'
p8265
I1
sS'growth'
p8266
I31
sS'export'
p8267
I10
sS'110'
p8268
I5
sS'sinochem'
p8269
I2
sS'118'
p8270
I1
sS'platform.the'
p8271
I1
sS'policy.beijing'
p8272
I1
sS'lead'
p8273
I23
sS'leaded'
p8274
I1
sS'mines'
p8275
I5
sS'leap'
p8276
I1
sS'leader'
p8277
I19
sS'ripped'
p8278
I1
sS'nationalities'
p8279
I1
sS'mite'
p8280
I1
sS'rare'
p8281
I2
sS'carried'
p8282
I11
sS'linger'
p8283
I2
sS'dazhong'
p8284
I4
sS'him.organisers'
p8285
I1
sS'shipping'
p8286
I45
sS'surge'
p8287
I3
sS'16,700'
p8288
I2
sS'carrier'
p8289
I3
sS'presidium'
p8290
I1
sS'urges'
p8291
I1
sS'transactions.eight'
p8292
I1
sS'meteorologists'
p8293
I2
sS'trilogy'
p8294
I1
sS'wilderness'
p8295
I1
sS'said.taipei'
p8296
I1
sS'warrants'
p8297
I2
sS'weather'
p8298
I6
sS'promise'
p8299
I1
sS'registration'
p8300
I2
sS'fired'
p8301
I5
sS'convicted'
p8302
I1
sS'sabre'
p8303
I1
sS'taipei.gingrich'
p8304
I1
sS'transfer'
p8305
I5
sS'faithfully'
p8306
I1
sS'continental'
p8307
I5
sS'intention'
p8308
I2
sS'breeding'
p8309
I4
sS'triggered'
p8310
I5
sS"i've"
p8311
I2
sS'funds'
p8312
I15
sS'bigamy'
p8313
I2
sS'clampdown'
p8314
I1
sS'squeeze'
p8315
I2
sS'chekiang'
p8316
I1
sS'15.860'
p8317
I1
sS'tactics'
p8318
I1
sS'another.rather'
p8319
I1
sS'protesting'
p8320
I1
sS'120.05'
p8321
I1
sS'yanbian'
p8322
I1
sS'record'
p8323
I12
sS'ruling'
p8324
I7
sS'1,260/65'
p8325
I1
sS'200,000'
p8326
I2
sS'8.172'
p8327
I1
sS'team.the'
p8328
I1
sS'heralding'
p8329
I1
sS'intimidating'
p8330
I3
sS'inadequate'
p8331
I1
sS'3,371'
p8332
I1
sS'resumption'
p8333
I2
sS'erdos'
p8334
I2
sS'trotting'
p8335
I1
sS'guofang.gingrich'
p8336
I1
sS'diplomat'
p8337
I5
sS'percent'
p8338
I250
sS'book'
p8339
I1
sS'boom'
p8340
I3
sS'branch'
p8341
I7
sS'illegally'
p8342
I2
sS'kinds'
p8343
I2
sS'june'
p8344
I44
sS'jung'
p8345
I1
sS'this.the'
p8346
I1
sS'elaborate.under'
p8347
I1
sS'29.9'
p8348
I1
sS'tonnes'
p8349
I94
sS'incurred'
p8350
I1
sS'ranks'
p8351
I1
sS'jewel'
p8352
I1
sS'volumes'
p8353
I2
sS'ideological'
p8354
I6
sS'richardson'
p8355
I3
s.