(dp0
S'blacklisting.the'
p1
I1
sS'chile'
p2
I1
sS'arrieta'
p3
I4
sS'desirable'
p4
I1
sS'facilities'
p5
I2
sS'protest'
p6
I3
sS'sleep'
p7
I1
sS'controversial'
p8
I1
sS'2,200'
p9
I1
sS'captain'
p10
I3
sS'increase'
p11
I3
sS'pedro'
p12
I2
sS'calculate'
p13
I1
sS'granting'
p14
I1
sS'electricity'
p15
I2
sS'contained'
p16
I1
sS'frechette'
p17
I2
sS'14-year'
p18
I2
sS'worth'
p19
I5
sS'pact'
p20
I1
sS'risk'
p21
I4
sS'regional'
p22
I9
sS'intriguing'
p23
I1
sS'reforms'
p24
I1
sS'vastly'
p25
I1
sS'exporters'
p26
I1
sS'16,796.64'
p27
I1
sS'magnate'
p28
I1
sS'greenbacks'
p29
I1
sS'cmi'
p30
I1
sS'companies'
p31
I4
sS'wednesday'
p32
I13
sS'cross.the'
p33
I2
sS'mopped'
p34
I1
sS'pavorando'
p35
I1
sS'heading'
p36
I3
sS'whirlwind'
p37
I1
sS'enjoy'
p38
I1
sS'uraba.but'
p39
I2
sS'force'
p40
I17
sS'leaders'
p41
I2
sS'estimates'
p42
I1
sS'japanese'
p43
I16
sS'surrounding'
p44
I1
sS'likely'
p45
I2
sS'273'
p46
I1
sS'navy.colombia'
p47
I1
sS'278'
p48
I1
sS'available'
p49
I1
sS'cesar'
p50
I4
sS'prisons'
p51
I8
sS'wednesday.uraba'
p52
I1
sS'panama'
p53
I1
sS'cooking'
p54
I1
sS'supplied'
p55
I1
sS'spokesman'
p56
I16
sS'petro'
p57
I1
sS'19-julio'
p58
I1
sS'toll'
p59
I2
sS'supplier'
p60
I1
sS'supplies'
p61
I3
sS'net'
p62
I2
sS'reluctant'
p63
I1
sS'usage.under'
p64
I1
sS'told'
p65
I20
sS'friday.luz'
p66
I1
sS'dispatched'
p67
I1
sS'reporter'
p68
I1
sS'men'
p69
I7
sS'richest'
p70
I1
sS'drew'
p71
I1
sS'hundreds'
p72
I3
sS'conglomerate'
p73
I3
sS'met'
p74
I1
sS'109'
p75
I1
sS'said.colombia'
p76
I1
sS'governing'
p77
I1
sS'affiliated'
p78
I1
sS'100'
p79
I3
sS'obtained'
p80
I1
sS'ventures'
p81
I1
sS'items'
p82
I1
sS'changed'
p83
I2
sS'envoy'
p84
I1
sS'0.32'
p85
I1
sS'reports'
p86
I6
sS'continued.bogota'
p87
I1
sS'permit'
p88
I1
sS'military'
p89
I14
sS"i'm"
p90
I1
sS'postponed'
p91
I1
sS'punishment'
p92
I1
sS'criticism'
p93
I2
sS'ambulances'
p94
I1
sS'divide'
p95
I1
sS'campaign'
p96
I2
sS'replace'
p97
I2
sS'unitary'
p98
I1
sS'opportunities'
p99
I1
sS'actions'
p100
I1
sS'cocaine'
p101
I3
sS'opponents'
p102
I1
sS'plot'
p103
I1
sS'conditions.the'
p104
I2
sS'army'
p105
I67
sS'played'
p106
I1
sS'arms'
p107
I7
sS'sintramaritimo'
p108
I1
sS'1,000'
p109
I1
sS'cali'
p110
I6
sS'mediate'
p111
I1
sS'europe.for'
p112
I1
sS'calm'
p113
I1
sS'strike'
p114
I8
sS'slaughtered'
p115
I1
sS'boomed'
p116
I1
sS'evening'
p117
I3
sS'successful'
p118
I1
sS'award'
p119
I1
sS'hurt'
p120
I1
sS'warn'
p121
I1
sS'phone'
p122
I10
sS'shelters'
p123
I3
sS'charged'
p124
I1
sS'robbing'
p125
I1
sS'90'
p126
I1
sS'95'
p127
I1
sS'squad'
p128
I2
sS'shoot'
p129
I5
sS'1990'
p130
I1
sS'1995'
p131
I3
sS'1997'
p132
I8
sS'1996'
p133
I6
sS'mm'
p134
I1
sS'1998'
p135
I1
sS'work'
p136
I4
sS'prisoners.if'
p137
I1
sS'cardenas'
p138
I1
sS'carmen'
p139
I1
sS'grenade'
p140
I2
sS'gloria'
p141
I1
sS'phrase'
p142
I1
sS'orejuela'
p143
I1
sS'unmarked'
p144
I1
sS'indicated'
p145
I1
sS'9-victor'
p146
I1
sS'28,000'
p147
I1
sS'household'
p148
I1
sS'550'
p149
I4
sS'motivated'
p150
I1
sS'indicates'
p151
I2
sS'want'
p152
I6
sS'attract'
p153
I1
sS'advancing'
p154
I1
sS'guarantee'
p155
I1
sS'provincial'
p156
I7
sS'end'
p157
I13
sS'recovery'
p158
I1
sS'keen'
p159
I1
sS'inhabitants'
p160
I1
sS'damage'
p161
I2
sS'volume.bavaria'
p162
I1
sS'becerra'
p163
I1
sS'interview'
p164
I2
sS'faulty'
p165
I1
sS'beach'
p166
I1
sS'quintero'
p167
I2
sS'fever'
p168
I2
sS'beauty'
p169
I1
sS'coined'
p170
I1
sS'earlier'
p171
I5
sS'containing'
p172
I1
sS'demanding'
p173
I3
sS'bombarded'
p174
I1
sS'arce'
p175
I1
sS'51-year'
p176
I1
sS'lax'
p177
I2
sS'lay'
p178
I1
sS'destined'
p179
I1
sS'project.conoco'
p180
I1
sS'president'
p181
I4
sS'law'
p182
I5
sS'extortion'
p183
I1
sS'purchase'
p184
I1
sS'retail'
p185
I1
sS'elusive'
p186
I1
sS'amid'
p187
I9
sS'amaya'
p188
I4
sS'unpunished'
p189
I2
sS'3,607'
p190
I1
sS'jungle'
p191
I8
sS'enter'
p192
I4
sS'1,076.66'
p193
I1
sS'operate'
p194
I1
sS'order'
p195
I5
sS'backdrop'
p196
I1
sS'operations'
p197
I4
sS'36-hour'
p198
I1
sS'office'
p199
I3
sS'telecom'
p200
I1
sS'parra'
p201
I1
sS'fedesarrollo'
p202
I1
sS'expects'
p203
I1
sS'6.3'
p204
I1
sS'japan'
p205
I7
sS'12.9'
p206
I1
sS'12.8'
p207
I1
sS'mayor'
p208
I8
sS'said.more'
p209
I2
sS'position'
p210
I2
sS'10.4'
p211
I1
sS'personal'
p212
I1
sS'striking'
p213
I1
sS'expectations'
p214
I1
sS'destroyed'
p215
I1
sS'production'
p216
I3
sS'potentially'
p217
I1
sS'weeks'
p218
I5
sS'strength'
p219
I1
sS'eventually'
p220
I1
sS'coffee'
p221
I14
sS'tuesday.the'
p222
I1
sS'prevented'
p223
I1
sS'break'
p224
I1
sS'ernesto'
p225
I2
sS'bank'
p226
I6
sS'structural'
p227
I1
sS'represents'
p228
I1
sS'supplies.moreno'
p229
I1
sS'sympathizers.in'
p230
I1
sS'1.07'
p231
I1
sS'arrested'
p232
I5
sS'said.last'
p233
I1
sS'armoured'
p234
I1
sS'went'
p235
I5
sS'decreasing'
p236
I2
sS'374'
p237
I1
sS'carlos'
p238
I10
sS'lifted'
p239
I1
sS'financial'
p240
I2
sS'edgardo'
p241
I1
sS'series'
p242
I3
sS'crimes'
p243
I2
sS'solution'
p244
I2
sS'wednesday.more'
p245
I2
sS'trading'
p246
I2
sS'2,500'
p247
I4
sS'navy'
p248
I1
sS'network'
p249
I3
sS'restricted'
p250
I1
sS'vessels'
p251
I1
sS'1,063.35'
p252
I1
sS'1996/97'
p253
I1
sS'laid'
p254
I1
sS'banning'
p255
I1
sS'newly'
p256
I1
sS'venezuela'
p257
I3
sS'sliding'
p258
I1
sS'1,061.4'
p259
I1
sS'given'
p260
I2
sS'free'
p261
I3
sS'standard'
p262
I1
sS'detecting'
p263
I1
sS'cordons'
p264
I2
sS'created'
p265
I1
sS'refugee'
p266
I3
sS'games.paraguay'
p267
I1
sS'days'
p268
I3
sS'shipped'
p269
I1
sS'lozano'
p270
I1
sS'10-carlos'
p271
I1
sS'1970s'
p272
I1
sS'overcrowding.another'
p273
I2
sS'moving'
p274
I1
sS'programme'
p275
I1
sS'industrial'
p276
I4
sS'kidnappings.but'
p277
I1
sS'grade'
p278
I1
sS'synonymous'
p279
I1
sS'encouraging'
p280
I1
sS'rank'
p281
I1
sS'reporters.justice'
p282
I1
sS'656'
p283
I1
sS'service'
p284
I8
sS'rejects'
p285
I1
sS'0.06'
p286
I1
sS'cemento'
p287
I1
sS'chief.he'
p288
I1
sS'manual.last'
p289
I1
sS'bitter'
p290
I2
sS'plummeted'
p291
I1
sS'urban'
p292
I1
sS'murder'
p293
I1
sS'mutata'
p294
I12
sS'fanatical'
p295
I1
sS'relative'
p296
I1
sS'villages'
p297
I3
sS'took'
p298
I6
sS'western'
p299
I3
sS'kidnaps'
p300
I1
sS'target'
p301
I3
sS'rampage'
p302
I2
sS'guillermo'
p303
I5
sS'outlaw'
p304
I1
sS'second'
p305
I5
sS'nations'
p306
I1
sS'project'
p307
I3
sS'street'
p308
I2
sS'powers'
p309
I1
sS'acquisition'
p310
I1
sS'palace'
p311
I1
sS'500,000'
p312
I2
sS'anybody'
p313
I1
sS'talking'
p314
I1
sS'thursday.japanese'
p315
I1
sS'seen'
p316
I3
sS'forced'
p317
I10
sS'estimated'
p318
I5
sS'1969'
p319
I1
sS'laden'
p320
I1
sS'thoroughly'
p321
I1
sS'isolated'
p322
I1
sS'area.a'
p323
I1
sS'rome'
p324
I1
sS'forces'
p325
I17
sS'rides'
p326
I1
sS'shipments'
p327
I1
sS'exactly'
p328
I1
sS'transactions'
p329
I2
sS'medellin.the'
p330
I1
sS'mondragon'
p331
I2
sS'victoria'
p332
I2
sS'extending'
p333
I1
sS'involving'
p334
I1
sS'letter'
p335
I1
sS'entry'
p336
I1
sS'grave'
p337
I1
sS'consumers'
p338
I1
sS'shootout.police'
p339
I1
sS'points'
p340
I3
sS'enterprise'
p341
I2
sS'consumer'
p342
I1
sS'responded'
p343
I1
sS'came'
p344
I1
sS'saying'
p345
I2
sS'sanctuary'
p346
I1
sS'bomb'
p347
I8
sS'bajo'
p348
I1
sS'queen'
p349
I1
sS'ending'
p350
I1
sS'helicopters.figures'
p351
I1
sS'attempts'
p352
I1
sS'radio'
p353
I1
sS'asia'
p354
I3
sS'earth'
p355
I3
sS'damming'
p356
I1
sS'judges'
p357
I1
sS'just'
p358
I13
sS'peasants'
p359
I11
sS'sugar'
p360
I1
sS'added.interior'
p361
I1
sS'rich'
p362
I4
sS'pavarando'
p363
I4
sS'rice'
p364
I1
sS'jailed'
p365
I3
sS'predecessor'
p366
I1
sS'antioqueno'
p367
I4
sS'exports'
p368
I1
sS'stop'
p369
I1
sS'13'
p370
I6
sS'coast'
p371
I6
sS'new'
p372
I14
sS'report'
p373
I7
sS'14'
p374
I3
sS'hall'
p375
I1
sS'earn'
p376
I2
sS'countries'
p377
I4
sS'dupont'
p378
I1
sS'twice'
p379
I2
sS'war.the'
p380
I1
sS'18'
p381
I2
sS'ban'
p382
I4
sS'automatic'
p383
I1
sS'mandatory'
p384
I1
sS'swept'
p385
I1
sS'decided'
p386
I1
sS'result'
p387
I4
sS'exile.his'
p388
I1
sS'best'
p389
I3
sS'subject'
p390
I1
sS'brazil'
p391
I3
sS'said'
p392
I147
sS'capacity'
p393
I1
sS'interdiction'
p394
I1
sS'score'
p395
I2
sS'cooperation'
p396
I1
sS'hopefully'
p397
I1
sS'drawn'
p398
I2
sS'discovery'
p399
I1
sS'accord'
p400
I2
sS'terms'
p401
I8
sS'extend'
p402
I1
sS'jose'
p403
I7
sS'handful'
p404
I2
sS'ibomed'
p405
I4
sS'southeast'
p406
I3
sS'certification.colombia'
p407
I1
sS'news'
p408
I2
sS'debt'
p409
I3
sS'mozzo'
p410
I8
sS'improve'
p411
I1
sS'received'
p412
I5
sS'reported'
p413
I11
sS'country'
p414
I13
sS'ill'
p415
I1
sS'demanded'
p416
I2
sS'players'
p417
I4
sS'erupted'
p418
I2
sS'games'
p419
I1
sS'faces'
p420
I1
sS'recertify'
p421
I1
sS'asked'
p422
I2
sS'tough'
p423
I1
sS'appeared'
p424
I1
sS'height'
p425
I1
sS'hygiene'
p426
I2
sS'massive'
p427
I1
sS'initiative'
p428
I1
sS'wider'
p429
I1
sS'report.levels'
p430
I1
sS'telecommunications'
p431
I6
sS'maurico'
p432
I1
sS'conference'
p433
I1
sS'2207'
p434
I1
sS'union'
p435
I10
sS'dusting'
p436
I1
sS'criticised'
p437
I2
sS'tiny'
p438
I1
sS'quickly'
p439
I1
sS'commission'
p440
I2
sS'116'
p441
I1
sS'expected'
p442
I3
sS'basin'
p443
I6
sS'life'
p444
I2
sS'9,400.1.demand'
p445
I1
sS'families'
p446
I4
sS'trial.the'
p447
I1
sS'attacked'
p448
I3
sS'drugs'
p449
I1
sS'worker'
p450
I2
sS'900'
p451
I1
sS'0.15'
p452
I1
sS'lift'
p453
I3
sS'0.13'
p454
I1
sS'child'
p455
I1
sS'fifa'
p456
I1
sS'3-catalino'
p457
I1
sS'tank'
p458
I1
sS'administrative'
p459
I2
sS'america.samper'
p460
I1
sS'castro'
p461
I1
sS'air'
p462
I2
sS'near'
p463
I3
sS'aid'
p464
I16
sS'murders'
p465
I1
sS'launched'
p466
I1
sS'seven'
p467
I4
sS'said.venezuela'
p468
I1
sS'mexico'
p469
I1
sS'cano'
p470
I1
sS'dumped'
p471
I2
sS'covenas'
p472
I1
sS'jail.in'
p473
I1
sS'exile'
p474
I1
sS'march'
p475
I8
sS'80,000'
p476
I3
sS'grown'
p477
I1
sS'confirmed'
p478
I3
sS'waging'
p479
I5
sS'suggest'
p480
I1
sS'make'
p481
I2
sS'plated'
p482
I1
sS'asprilla'
p483
I9
sS'split'
p484
I1
sS'said.an'
p485
I2
sS'week.several'
p486
I1
sS'independent'
p487
I2
sS'leftist'
p488
I17
sS'traffickers.in'
p489
I1
sS'1,061.8'
p490
I2
sS'governors'
p491
I1
sS'swell'
p492
I1
sS'published'
p493
I1
sS'1,061.2'
p494
I2
sS'hand'
p495
I1
sS'tide.interior'
p496
I1
sS'hectares'
p497
I1
sS'stages.but'
p498
I1
sS'protected'
p499
I2
sS'blamed'
p500
I1
sS'walkie'
p501
I1
sS'faustino'
p502
I3
sS'humble'
p503
I1
sS'7-antony'
p504
I1
sS'1971'
p505
I3
sS'team.about'
p506
I1
sS'epl'
p507
I3
sS'contact'
p508
I2
sS'claims'
p509
I3
sS'800'
p510
I2
sS'40,000standings'
p511
I1
sS'added.traders'
p512
I1
sS'left'
p513
I2
sS'proposed'
p514
I1
sS'sentence'
p515
I1
sS'fighters'
p516
I2
sS'transporting'
p517
I1
sS'human'
p518
I12
sS'yes'
p519
I1
sS'previous'
p520
I2
sS'nicolas'
p521
I2
sS'adding'
p522
I3
sS'buyers'
p523
I1
sS'eln'
p524
I3
sS'hills'
p525
I1
sS'disappearances'
p526
I5
sS'assassination'
p527
I1
sS'spread'
p528
I4
sS'board'
p529
I2
sS'prison'
p530
I29
sS'1,063.5'
p531
I1
sS'disadvantage'
p532
I1
sS'1,063.1'
p533
I1
sS'gave'
p534
I1
sS'police.since'
p535
I1
sS'possible'
p536
I2
sS'threats.the'
p537
I1
sS'13-jose'
p538
I1
sS'highly'
p539
I1
sS'apart'
p540
I1
sS'swelled'
p541
I2
sS'blacklisted'
p542
I1
sS'hunt'
p543
I3
sS'51'
p544
I4
sS'avila'
p545
I2
sS'specific'
p546
I2
sS'dynamited'
p547
I1
sS'530'
p548
I1
sS'security'
p549
I20
sS'starvation'
p550
I1
sS'right'
p551
I11
sS'old'
p552
I7
sS'crowd'
p553
I1
sS'people'
p554
I35
sS'dead'
p555
I8
sS'enciso'
p556
I1
sS'meters'
p557
I1
sS'rise'
p558
I7
sS'3,320'
p559
I1
sS'jurisdiction.part'
p560
I1
sS'securities'
p561
I2
sS'total'
p562
I6
sS'combat'
p563
I1
sS'scandals.in'
p564
I1
sS'soto'
p565
I3
sS'normal'
p566
I2
sS'america.conoco'
p567
I1
sS'comments'
p568
I1
sS'asking'
p569
I1
sS'denied'
p570
I2
sS'ecopetrol'
p571
I4
sS'convict'
p572
I2
sS'participation'
p573
I1
sS'brawl'
p574
I2
sS'night'
p575
I2
sS'buenaventura'
p576
I3
sS'disappeared'
p577
I1
sS'criminals'
p578
I3
sS'shifting'
p579
I1
sS'losing'
p580
I1
sS'brokerage'
p581
I1
sS'post'
p582
I2
sS'super'
p583
I1
sS'chapter'
p584
I1
sS'benches'
p585
I1
sS'attacks'
p586
I3
sS'1-farid'
p587
I1
sS'dollars'
p588
I2
sS'citizens'
p589
I2
sS'assault'
p590
I1
sS'gallego'
p591
I1
sS'afternoon'
p592
I1
sS'logistical'
p593
I2
sS'end.dealers'
p594
I1
sS'islands'
p595
I2
sS'efforts'
p596
I2
sS'slightly'
p597
I1
sS'automatically'
p598
I1
sS'trafficker'
p599
I1
sS'raised'
p600
I3
sS'presence'
p601
I6
sS'prisoners'
p602
I16
sS'son'
p603
I1
sS'prices.but'
p604
I1
sS'knee'
p605
I1
sS'81st'
p606
I1
sS'1990s'
p607
I2
sS'region.but'
p608
I1
sS'conglomerate.over'
p609
I1
sS'foothold'
p610
I1
sS'deal'
p611
I5
sS'bolivia'
p612
I1
sS'support'
p613
I2
sS'initial'
p614
I2
sS'legislation'
p615
I2
sS'fight'
p616
I1
sS'quiet'
p617
I1
sS'editor'
p618
I1
sS'way'
p619
I6
sS'factions'
p620
I2
sS'bonett'
p621
I4
sS'war'
p622
I10
sS'launching'
p623
I1
sS'region.many'
p624
I1
sS'head'
p625
I7
sS'offering'
p626
I1
sS'offer'
p627
I3
sS'elderly'
p628
I1
sS'approval'
p629
I2
sS'removed'
p630
I1
sS'true'
p631
I1
sS'analyst'
p632
I1
sS'mutata.army'
p633
I1
sS'tuesday.at'
p634
I2
sS'cell.earlier'
p635
I1
sS'inside'
p636
I3
sS'staged'
p637
I3
sS'maximum'
p638
I2
sS'peso'
p639
I15
sS'pesos'
p640
I9
sS'smashed'
p641
I1
sS'sticks'
p642
I1
sS'covert'
p643
I1
sS'tournament'
p644
I1
sS'panama.the'
p645
I2
sS'covers'
p646
I3
sS'evidence'
p647
I2
sS'device.regional'
p648
I1
sS'britain.an'
p649
I1
sS'exist'
p650
I1
sS'0.65'
p651
I1
sS'ramirez'
p652
I1
sS'apartado'
p653
I5
sS'check'
p654
I1
sS'physical'
p655
I1
sS'palestinian'
p656
I3
sS'marxist'
p657
I5
sS'quota'
p658
I1
sS'stake'
p659
I1
sS'role'
p660
I1
sS'holding'
p661
I5
sS'papers'
p662
I1
sS'warehouse'
p663
I2
sS'rivarola'
p664
I1
sS'operators'
p665
I3
sS'scored'
p666
I2
sS'brothers'
p667
I1
sS'mulling'
p668
I1
sS'7944'
p669
I16
sS'fell'
p670
I3
sS'modelo'
p671
I5
sS'exported'
p672
I1
sS'establish'
p673
I1
sS'northwest.in'
p674
I1
sS'authorities'
p675
I5
sS'died'
p676
I11
sS'billion'
p677
I19
sS'7,850'
p678
I1
sS'domingo'
p679
I3
sS'longer'
p680
I1
sS'bullet'
p681
I2
sS'area.relations'
p682
I1
sS'packets'
p683
I1
sS'daily'
p684
I3
sS'time'
p685
I5
sS'profits'
p686
I1
sS'panama.right'
p687
I1
sS'guerrillas.many'
p688
I1
sS'coach'
p689
I1
sS'managed'
p690
I2
sS'chain'
p691
I1
sS'rob'
p692
I1
sS'excellent'
p693
I1
sS'bombed'
p694
I2
sS'mile'
p695
I1
sS'oso'
p696
I1
sS'assailants'
p697
I1
sS'battle'
p698
I1
sS'remarkably'
p699
I1
sS'zone'
p700
I2
sS'certification'
p701
I1
sS'editors'
p702
I2
sS'0'
p703
I1
sS'charge'
p704
I2
sS'barrancabermeja'
p705
I3
sS'terror'
p706
I3
sS'division'
p707
I2
sS'myles'
p708
I1
sS'federation'
p709
I6
sS'broadly'
p710
I1
sS'burelli'
p711
I1
sS'spate'
p712
I2
sS'1note'
p713
I1
sS'plantain'
p714
I1
sS'word'
p715
I2
sS'little'
p716
I1
sS'minute'
p717
I2
sS'esperanza'
p718
I1
sS'presented'
p719
I1
sS'did'
p720
I9
sS'die'
p721
I1
sS'rights'
p722
I9
sS'accidentally'
p723
I3
sS'standards'
p724
I1
sS'leave'
p725
I4
sS'1999'
p726
I1
sS'16,664.28'
p727
I1
sS'infrance'
p728
I1
sS'team'
p729
I4
sS'diarrhoea'
p730
I1
sS'prevent'
p731
I1
sS'revolution'
p732
I1
sS'says'
p733
I2
sS'independiente.gomez'
p734
I1
sS'trend'
p735
I1
sS'said.despite'
p736
I1
sS'discover'
p737
I1
sS'months.in'
p738
I1
sS'cost'
p739
I2
sS'patient'
p740
I1
sS'targets'
p741
I1
sS'cargo'
p742
I3
sS'boats'
p743
I1
sS'decade.another'
p744
I1
sS'contracted'
p745
I1
sS'shares'
p746
I2
sS'current'
p747
I5
sS'525'
p748
I1
sS'drilling.the'
p749
I1
sS'marketing'
p750
I1
sS'international'
p751
I19
sS'0.41'
p752
I1
sS'boost'
p753
I3
sS'explosion'
p754
I1
sS'electrica'
p755
I2
sS'water'
p756
I1
sS'groups'
p757
I11
sS'refused'
p758
I2
sS'sending'
p759
I2
sS'unidentified'
p760
I1
sS'comptroller'
p761
I2
sS'battling'
p762
I1
sS'institute'
p763
I4
sS'jungles'
p764
I4
sS'trial'
p765
I3
sS'substituted'
p766
I2
sS'patriotic'
p767
I1
sS'14-leonel'
p768
I1
sS'rafael'
p769
I1
sS'influx'
p770
I1
sS'aristides'
p771
I1
sS'teenage'
p772
I1
sS'santa'
p773
I1
sS'extra'
p774
I1
sS'merely'
p775
I1
sS'prefer'
p776
I1
sS'bloody'
p777
I1
sS'paralyzed'
p778
I1
sS'rarely'
p779
I2
sS'crisis'
p780
I4
sS'market'
p781
I3
sS'terminal'
p782
I1
sS'undergone'
p783
I1
sS'mid-1960s'
p784
I1
sS'troops'
p785
I1
sS'working'
p786
I2
sS'prove'
p787
I1
sS'congress.the'
p788
I1
sS'angry'
p789
I1
sS'visit'
p790
I2
sS'intense'
p791
I3
sS'blasted'
p792
I2
sS'centavos'
p793
I2
sS'bases'
p794
I1
sS'peru'
p795
I3
sS'unconfirmed'
p796
I1
sS'today'
p797
I1
sS'riot'
p798
I8
sS'chocolate'
p799
I1
sS'fixed'
p800
I1
sS'plantations'
p801
I3
sS'cases'
p802
I3
sS'effort'
p803
I3
sS'fly'
p804
I1
sS'involve'
p805
I1
sS'car'
p806
I3
sS'ibb'
p807
I4
sS'believes'
p808
I2
sS'flagship'
p809
I1
sS'incidents'
p810
I2
sS'reports.the'
p811
I2
sS'following'
p812
I5
sS'making'
p813
I7
sS'arrive'
p814
I2
sS'heart'
p815
I1
sS'months'
p816
I2
sS'figure'
p817
I1
sS'uruguay'
p818
I1
sS'december'
p819
I1
sS'arauqita'
p820
I1
sS'1980s'
p821
I1
sS'heard'
p822
I1
sS'dropped'
p823
I4
sS'allowed'
p824
I3
sS'231'
p825
I1
sS'inflows'
p826
I1
sS'burgeoning'
p827
I3
sS'monitoring'
p828
I1
sS'bonds'
p829
I1
sS'1'
p830
I7
sS'fourth'
p831
I1
sS'affected.frechette'
p832
I1
sS'economy'
p833
I3
sS'product'
p834
I2
sS'142'
p835
I1
sS'140'
p836
I1
sS'huge'
p837
I2
sS'southern'
p838
I1
sS'149'
p839
I1
sS'fueled'
p840
I1
sS'membership'
p841
I1
sS'designed'
p842
I3
sS'0.75'
p843
I1
sS'0.74'
p844
I1
sS'improving'
p845
I1
sS'colombia.the'
p846
I1
sS'0.79'
p847
I1
sS'data'
p848
I1
sS'grow'
p849
I4
sS'man'
p850
I1
sS'ombudsman'
p851
I5
sS'remember'
p852
I2
sS'6th'
p853
I1
sS'jail'
p854
I36
sS'sa'
p855
I1
sS'6.45'
p856
I1
sS'pipe'
p857
I1
sS'seeing'
p858
I1
sS'30.aristizabal'
p859
I1
sS'mainly'
p860
I1
sS'years'
p861
I9
sS'stability'
p862
I3
sS'ended'
p863
I2
sS'pitch'
p864
I1
sS'crisis.renteria'
p865
I1
sS'blocked'
p866
I2
sS'police'
p867
I32
sS'torn'
p868
I9
sS'suspicion'
p869
I1
sS'policy'
p870
I3
sS'suspension'
p871
I2
sS'colombia.in'
p872
I1
sS'main'
p873
I9
sS'conoco'
p874
I1
sS'5.56'
p875
I1
sS'non'
p876
I1
sS'qualifier'
p877
I2
sS'civilian'
p878
I1
sS'card.chilavert'
p879
I1
sS'undisclosed'
p880
I2
sS'nation'
p881
I2
sS'1991'
p882
I2
sS'overpowering'
p883
I1
sS'hamilton'
p884
I1
sS'subscribers'
p885
I1
sS'half'
p886
I4
sS'panama.there'
p887
I2
sS'killed'
p888
I8
sS'developments'
p889
I1
sS'term'
p890
I5
sS'january'
p891
I4
sS'drop'
p892
I1
sS'paramilitaries'
p893
I6
sS'office.interconexion'
p894
I1
sS'el'
p895
I2
sS'unproductive'
p896
I1
sS'fired'
p897
I4
sS'treacherous'
p898
I6
sS'balanced'
p899
I1
sS'fires'
p900
I4
sS'entering'
p901
I2
sS'year'
p902
I37
sS'distributor'
p903
I1
sS'girl'
p904
I2
sS'morning'
p905
I3
sS'gamarra'
p906
I3
sS'neighbourhood'
p907
I1
sS'gonzalez'
p908
I1
sS'living'
p909
I1
sS'shown'
p910
I3
sS'opened'
p911
I5
sS'space'
p912
I1
sS'tensions'
p913
I2
sS'celso'
p914
I1
sS'hastily'
p915
I2
sS'looking'
p916
I8
sS'seriously'
p917
I1
sS'investigation'
p918
I1
sS'40,000-strong'
p919
I1
sS'internet'
p920
I2
sS'formula'
p921
I1
sS'1.95'
p922
I1
sS'inevitably'
p923
I1
sS'creating'
p924
I1
sS'hefty'
p925
I1
sS'million'
p926
I27
sS'mechanisms'
p927
I1
sS'pumping'
p928
I1
sS'possibility'
p929
I4
sS'lucrative'
p930
I1
sS'rebel'
p931
I5
sS'record.more'
p932
I1
sS'remainder'
p933
I1
sS'card'
p934
I1
sS'care'
p935
I1
sS'training'
p936
I9
sS'paraguay.problems'
p937
I1
sS'ministry'
p938
I3
sS'said.serpa'
p939
I1
sS'british'
p940
I6
sS'turn'
p941
I1
sS'place'
p942
I3
sS'aboard'
p943
I1
sS'dead.a'
p944
I1
sS'routes'
p945
I3
sS'think'
p946
I2
sS'teammates'
p947
I1
sS'incident.gomez'
p948
I1
sS'8-harold'
p949
I1
sS'surviving'
p950
I1
sS'fleeing'
p951
I5
sS'7,680'
p952
I1
sS'conglomerates.bogota'
p953
I1
sS'municipality'
p954
I1
sS'comprised'
p955
I1
sS'specifically'
p956
I1
sS'suspended'
p957
I1
sS'comprises'
p958
I1
sS'impossible'
p959
I1
sS'open'
p960
I3
sS'size'
p961
I1
sS'city'
p962
I5
sS'otero'
p963
I2
sS'cunas'
p964
I1
sS'plastic'
p965
I1
sS'97,000'
p966
I1
sS'indicate'
p967
I2
sS'year.this'
p968
I1
sS'2'
p969
I10
sS'draft'
p970
I1
sS'terrifying'
p971
I1
sS'friend'
p972
I1
sS'bloodshed'
p973
I1
sS'mining'
p974
I2
sS'inefficient'
p975
I2
sS'cope'
p976
I1
sS'moscow'
p977
I1
sS'montenegro'
p978
I1
sS'inmates'
p979
I24
sS'attempt'
p980
I1
sS'copy'
p981
I1
sS'interbank'
p982
I3
sS'11'
p983
I5
sS'10'
p984
I15
sS'television'
p985
I1
sS'12'
p986
I11
sS'15'
p987
I11
sS'colombians'
p988
I3
sS'17'
p989
I1
sS'16'
p990
I1
sS'19'
p991
I1
sS'rival'
p992
I1
sS'require'
p993
I1
sS'transferred'
p994
I1
sS'spokeswoman'
p995
I20
sS'accused'
p996
I4
sS'days.the'
p997
I1
sS'colombiano'
p998
I1
sS'lowest'
p999
I1
sS'illness'
p1000
I1
sS'sao'
p1001
I1
sS'san'
p1002
I1
sS'investors'
p1003
I2
sS'remained'
p1004
I3
sS'revolt'
p1005
I1
sS'pro'
p1006
I1
sS'turned'
p1007
I1
sS'tuesday.colombia'
p1008
I2
sS'say'
p1009
I14
sS'medellin.supermarket'
p1010
I1
sS'bavaria'
p1011
I5
sS'form'
p1012
I2
sS'exploratory'
p1013
I1
sS'consortium'
p1014
I1
sS'equipment'
p1015
I2
sS'potential'
p1016
I1
sS'year.superintendent'
p1017
I1
sS'interior'
p1018
I3
sS'beirut'
p1019
I2
sS'channel'
p1020
I1
sS'200'
p1021
I2
sS'begin'
p1022
I2
sS'pain'
p1023
I1
sS'cordoba'
p1024
I3
sS'track'
p1025
I1
sS'price'
p1026
I8
sS'ambulance'
p1027
I1
sS'falls'
p1028
I3
sS'20-julio'
p1029
I1
sS'donation'
p1030
I1
sS'puma'
p1031
I1
sS'successive'
p1032
I1
sS'pais'
p1033
I1
sS'america'
p1034
I3
sS'considered'
p1035
I1
sS'maoist'
p1036
I1
sS'average'
p1037
I9
sS'later'
p1038
I2
sS'steady'
p1039
I1
sS'drive'
p1040
I1
sS'wing'
p1041
I14
sS'massacres'
p1042
I1
sS'trafficking'
p1043
I7
sS'senior'
p1044
I2
sS'30,000'
p1045
I2
sS'typically'
p1046
I1
sS'liquidity'
p1047
I1
sS'laws'
p1048
I2
sS'crisis.their'
p1049
I1
sS'walking'
p1050
I3
sS'antioquia'
p1051
I4
sS'victims.human'
p1052
I1
sS'german'
p1053
I1
sS'adolfo'
p1054
I1
sS'ecopetrol.last'
p1055
I1
sS'1,400-mile'
p1056
I1
sS'tuesday.dock'
p1057
I1
sS'corner'
p1058
I1
sS'10.13'
p1059
I1
sS'fifth'
p1060
I1
sS'ground'
p1061
I2
sS'whereabouts'
p1062
I1
sS'gulf'
p1063
I1
sS'3'
p1064
I6
sS'betterrelations'
p1065
I1
sS'crime'
p1066
I3
sS'liberation'
p1067
I4
sS'equipped'
p1068
I1
sS'stain'
p1069
I1
sS'congressional'
p1070
I1
sS'contracts'
p1071
I1
sS'condemning'
p1072
I1
sS'evening.a'
p1073
I1
sS'multimillion'
p1074
I1
sS'killers'
p1075
I1
sS'nearly'
p1076
I2
sS'progress'
p1077
I1
sS'arauca'
p1078
I6
sS'installed'
p1079
I1
sS'gen'
p1080
I8
sS'resource'
p1081
I4
sS'duran'
p1082
I1
sS'1-jose'
p1083
I1
sS'7,300'
p1084
I1
sS'worried'
p1085
I2
sS'miles'
p1086
I2
sS'predicted'
p1087
I1
sS'discussing'
p1088
I2
sS'worrying'
p1089
I3
sS'declared'
p1090
I2
sS'violated'
p1091
I1
sS'committed'
p1092
I1
sS'multinationals'
p1093
I2
sS'heavy'
p1094
I1
sS'exploded.reyes'
p1095
I1
sS'group.with'
p1096
I1
sS'israeli'
p1097
I4
sS'detect'
p1098
I1
sS'compounds'
p1099
I1
sS'ways'
p1100
I1
sS'valledupar.col'
p1101
I1
sS'commitments'
p1102
I1
sS'forecast'
p1103
I3
sS'weapons'
p1104
I4
sS'outside'
p1105
I2
sS'inappropriately'
p1106
I1
sS'infrastructure'
p1107
I4
sS'august'
p1108
I1
sS'26'
p1109
I1
sS'killing'
p1110
I1
sS'rapidly'
p1111
I1
sS'impromptu'
p1112
I1
sS'lopez'
p1113
I1
sS'785'
p1114
I1
sS'javier'
p1115
I8
sS'libya'
p1116
I3
sS'region'
p1117
I20
sS'trades'
p1118
I3
sS'hours'
p1119
I1
sS'according'
p1120
I3
sS'contract'
p1121
I2
sS'enabling'
p1122
I1
sS's'
p1123
I8
sS'sindacato'
p1124
I1
sS'holders'
p1125
I1
sS'bourdier'
p1126
I1
sS'comes'
p1127
I1
sS'nearby'
p1128
I3
sS'21.63'
p1129
I1
sS'105,000'
p1130
I1
sS'period'
p1131
I4
sS'60'
p1132
I2
sS'slain'
p1133
I1
sS'tanks.in'
p1134
I1
sS'anti'
p1135
I8
sS'67'
p1136
I1
sS'polo'
p1137
I1
sS'ordered'
p1138
I5
sS'charismatic'
p1139
I1
sS'boat'
p1140
I2
sS'better'
p1141
I5
sS'unusual'
p1142
I1
sS'come'
p1143
I5
sS'locally'
p1144
I1
sS'markedly'
p1145
I1
sS'punished'
p1146
I1
sS'combined'
p1147
I1
sS'6-mauricio'
p1148
I1
sS'peaceful'
p1149
I1
sS'helicopter'
p1150
I5
sS'500'
p1151
I2
sS'shortages'
p1152
I1
sS'andres'
p1153
I2
sS'offered'
p1154
I3
sS'formed'
p1155
I3
sS'dramatic'
p1156
I1
sS'minister'
p1157
I15
sS'suspected'
p1158
I7
sS'hidden'
p1159
I1
sS'paying'
p1160
I1
sS'superintendency'
p1161
I1
sS'truck.but'
p1162
I1
sS'mount'
p1163
I1
sS'single'
p1164
I1
sS'ongoing'
p1165
I1
sS'specialises'
p1166
I2
sS'newspaper'
p1167
I4
sS'situation'
p1168
I8
sS'antony'
p1169
I1
sS'trader'
p1170
I4
sS'field.the'
p1171
I1
sS'coupled'
p1172
I1
sS'surveying'
p1173
I1
sS'telephone'
p1174
I2
sS'commander'
p1175
I7
sS'middle'
p1176
I1
sS'pressing'
p1177
I1
sS'attributed'
p1178
I1
sS'87th'
p1179
I1
sS'traffickers'
p1180
I2
sS'13.5'
p1181
I2
sS'fame'
p1182
I1
sS'movements'
p1183
I2
sS'bags'
p1184
I4
sS'par'
p1185
I1
sS'granted'
p1186
I2
sS'speech'
p1187
I1
sS'stepped'
p1188
I1
sS'document'
p1189
I1
sS'perafan'
p1190
I4
sS'week'
p1191
I10
sS'oil'
p1192
I10
sS'edged'
p1193
I2
sS'director'
p1194
I4
sS'running'
p1195
I6
sS'fruit'
p1196
I2
sS'driven'
p1197
I1
sS'constitutional'
p1198
I2
sS'relief'
p1199
I1
sS'said.a'
p1200
I2
sS'deported'
p1201
I1
sS'bodies'
p1202
I2
sS'overcrowding'
p1203
I6
sS'gdp'
p1204
I2
sS'money'
p1205
I5
sS'adjustments'
p1206
I1
sS'rest'
p1207
I1
sS'ngos'
p1208
I1
sS'pariah'
p1209
I1
sS'kill'
p1210
I1
sS'rebels.bedoya'
p1211
I1
sS'darien'
p1212
I1
sS'halfway'
p1213
I1
sS'announcement'
p1214
I1
sS'renewed'
p1215
I2
sS'dipped'
p1216
I4
sS'rose'
p1217
I16
sS'geological'
p1218
I1
sS'chilavert'
p1219
I6
sS'subversion'
p1220
I1
sS'1,400'
p1221
I2
sS'4'
p1222
I9
sS'halftime'
p1223
I1
sS'disrupt'
p1224
I2
sS'571'
p1225
I16
sS'scheduled'
p1226
I3
sS'valledupar.the'
p1227
I2
sS'laundering'
p1228
I4
sS'early'
p1229
I5
sS'inflation'
p1230
I3
sS'grid'
p1231
I1
sS'mob'
p1232
I2
sS'acute'
p1233
I1
sS'fortune'
p1234
I1
sS'medellin'
p1235
I24
sS'pounds'
p1236
I1
sS'alejo'
p1237
I1
sS'lightning'
p1238
I1
sS'annually'
p1239
I1
sS'moreno'
p1240
I2
sS'served'
p1241
I1
sS'bolivia.both'
p1242
I1
sS'backlash.frechette'
p1243
I1
sS'superintendent'
p1244
I1
sS'madrid'
p1245
I1
sS'lebanon'
p1246
I3
sS'pacific'
p1247
I1
sS'monday.the'
p1248
I2
sS'scandals'
p1249
I1
sS'caribbean'
p1250
I4
sS'confirm'
p1251
I2
sS'conservative'
p1252
I1
sS'critical'
p1253
I1
sS'runaway'
p1254
I1
sS'freed'
p1255
I1
sS'power'
p1256
I6
sS'manufactured'
p1257
I1
sS'strained'
p1258
I2
sS'broker'
p1259
I2
sS'pregnant.a'
p1260
I1
sS'aide'
p1261
I1
sS'londono'
p1262
I4
sS'central'
p1263
I8
sS'package'
p1264
I3
sS'industry'
p1265
I4
sS'violence'
p1266
I17
sS'generated'
p1267
I1
sS'thousands'
p1268
I2
sS'8.9'
p1269
I1
sS'stand'
p1270
I3
sS'latrines'
p1271
I1
sS'invested'
p1272
I1
sS'barrels'
p1273
I3
sS'outlook'
p1274
I2
sS'scorer'
p1275
I1
sS'image'
p1276
I1
sS'780-km'
p1277
I1
sS'accounts'
p1278
I1
sS'lively'
p1279
I1
sS'determine'
p1280
I1
sS'strip'
p1281
I1
sS'watchdog'
p1282
I1
sS'week.bogota'
p1283
I1
sS'wildfire'
p1284
I1
sS'workers.the'
p1285
I1
sS'gunfight'
p1286
I1
sS'area'
p1287
I10
sS'stoppage'
p1288
I1
sS'colombia.information'
p1289
I1
sS'alleged'
p1290
I3
sS'los'
p1291
I1
sS'low'
p1292
I5
sS'lot'
p1293
I2
sS'brazilian'
p1294
I1
sS'g-3'
p1295
I1
sS'valencia'
p1296
I6
sS'sale'
p1297
I1
sS'osaka'
p1298
I1
sS'passports'
p1299
I1
sS'municipalities'
p1300
I1
sS'750'
p1301
I1
sS'756'
p1302
I1
sS'smuggling'
p1303
I4
sS'inflaming'
p1304
I1
sS'striker'
p1305
I1
sS'wednesday.the'
p1306
I3
sS'trying'
p1307
I4
sS"they're"
p1308
I4
sS'october'
p1309
I2
sS"wasn't"
p1310
I1
sS'18.93'
p1311
I1
sS'freddy'
p1312
I2
sS'miguel'
p1313
I1
sS'adriana'
p1314
I1
sS'abuses'
p1315
I1
sS'manuel'
p1316
I4
sS'politically'
p1317
I1
sS'strongly'
p1318
I1
sS'gone'
p1319
I1
sS'certain'
p1320
I2
sS'totaling'
p1321
I1
sS'moved'
p1322
I1
sS'sales'
p1323
I1
sS'said.some'
p1324
I1
sS'general'
p1325
I2
sS'britain'
p1326
I3
sS'tuesday.samper'
p1327
I1
sS'file'
p1328
I1
sS'importing'
p1329
I2
sS'politics'
p1330
I1
sS'4.5'
p1331
I1
sS'strikers'
p1332
I2
sS'personnel'
p1333
I1
sS'narcotics'
p1334
I1
sS'neighbouring'
p1335
I4
sS'5'
p1336
I3
sS'apartado.in'
p1337
I1
sS'medellin.cement'
p1338
I1
sS'thousand'
p1339
I1
sS'2007'
p1340
I2
sS'poor'
p1341
I2
sS'requested'
p1342
I1
sS'4,000'
p1343
I2
sS'congress'
p1344
I6
sS'detainees'
p1345
I1
sS'finale'
p1346
I1
sS'important'
p1347
I2
sS'bullets'
p1348
I3
sS'included'
p1349
I2
sS'grupo'
p1350
I1
sS'stocks'
p1351
I5
sS'conclusive'
p1352
I1
sS'fiscal'
p1353
I4
sS'bulk'
p1354
I1
sS'remote'
p1355
I2
sS'assets'
p1356
I1
sS'calls'
p1357
I1
sS'wife'
p1358
I2
sS'invest'
p1359
I2
sS'directors'
p1360
I1
sS'passed'
p1361
I1
sS'mass'
p1362
I3
sS'nelson'
p1363
I1
sS'doubted'
p1364
I1
sS'overseas'
p1365
I2
sS'detonating'
p1366
I1
sS'starting'
p1367
I1
sS'waiver'
p1368
I1
sS'represent'
p1369
I1
sS'forget'
p1370
I1
sS'grassroots'
p1371
I1
sS'caused'
p1372
I1
sS'hands'
p1373
I3
sS'lack'
p1374
I3
sS'dollar'
p1375
I8
sS'month'
p1376
I10
sS'founded'
p1377
I3
sS'forged'
p1378
I1
sS'follow'
p1379
I2
sS'fixtures'
p1380
I1
sS'children'
p1381
I6
sS'correa'
p1382
I4
sS'carpet'
p1383
I1
sS'limon'
p1384
I1
sS'sticks.police'
p1385
I1
sS'7,649'
p1386
I1
sS'tv'
p1387
I2
sS'pledged'
p1388
I2
sS'players.paraguay'
p1389
I1
sS'thursday'
p1390
I10
sS'riots'
p1391
I4
sS'derlis'
p1392
I2
sS'rwanda'
p1393
I1
sS'alvarez'
p1394
I2
sS'alberto'
p1395
I1
sS'meeting.villamizar'
p1396
I1
sS'dominated'
p1397
I2
sS'region.more'
p1398
I1
sS'libertad'
p1399
I1
sS'activities'
p1400
I1
sS'decertification'
p1401
I1
sS'woman'
p1402
I1
sS'7'
p1403
I1
sS'far'
p1404
I6
sS'1,500'
p1405
I5
sS'3,606'
p1406
I2
sS'seedbed'
p1407
I1
sS'worst'
p1408
I4
sS'decide'
p1409
I1
sS'fall'
p1410
I2
sS'leonidas'
p1411
I1
sS'aristizabal'
p1412
I5
sS'cable'
p1413
I2
sS'list'
p1414
I1
sS'joined'
p1415
I3
sS'large'
p1416
I2
sS'small'
p1417
I2
sS'sank'
p1418
I2
sS'magdalena'
p1419
I1
sS'quicker'
p1420
I1
sS'3.11'
p1421
I1
sS'penalties'
p1422
I1
sS'onshore'
p1423
I1
sS'cash'
p1424
I1
sS'past'
p1425
I2
sS'rate'
p1426
I3
sS'temper.the'
p1427
I1
sS'25-year'
p1428
I2
sS'investment'
p1429
I5
sS'material'
p1430
I1
sS'defence'
p1431
I7
sS'stood'
p1432
I2
sS'risen'
p1433
I1
sS'nightsticks'
p1434
I1
sS'usuriaga'
p1435
I2
sS'diaz'
p1436
I1
sS'blundered'
p1437
I1
sS'public'
p1438
I1
sS'movement'
p1439
I4
sS'multinational'
p1440
I1
sS'malaria'
p1441
I2
sS'behaviour'
p1442
I1
sS'tracks'
p1443
I6
sS'disastrous'
p1444
I1
sS'operating'
p1445
I4
sS'investigating'
p1446
I1
sS'step.dealers'
p1447
I1
sS'strong'
p1448
I2
sS'cars'
p1449
I1
sS'search'
p1450
I1
sS'ahead'
p1451
I2
sS'inspired'
p1452
I1
sS'7,320'
p1453
I1
sS'experience'
p1454
I3
sS'9559'
p1455
I1
sS'said.gross'
p1456
I1
sS'social'
p1457
I9
sS'action'
p1458
I1
sS'followed'
p1459
I2
sS'retroactive'
p1460
I1
sS'vie'
p1461
I1
sS'cowardly'
p1462
I1
sS'megwatts'
p1463
I1
sS'aimed'
p1464
I2
sS'gunmen'
p1465
I2
sS'armed'
p1466
I16
sS'ntc'
p1467
I1
sS'legislator'
p1468
I1
sS'shareholders'
p1469
I2
sS'attendance'
p1470
I1
sS'ridding'
p1471
I1
sS'finally'
p1472
I1
sS'shotguns'
p1473
I1
sS'6'
p1474
I3
sS'taken'
p1475
I4
sS'bonillo'
p1476
I1
sS'markets'
p1477
I5
sS'turbo'
p1478
I1
sS'company'
p1479
I12
sS'tuesday.extraditables'
p1480
I1
sS'particular'
p1481
I2
sS'sleeping'
p1482
I1
sS'producing'
p1483
I1
sS'town'
p1484
I5
sS'spillage'
p1485
I1
sS'hour'
p1486
I1
sS'added.sintramaritimo'
p1487
I1
sS'policemen'
p1488
I1
sS'accumulated'
p1489
I1
sS'guards'
p1490
I21
sS'remain'
p1491
I1
sS'del'
p1492
I2
sS'budgets'
p1493
I1
sS'abandon'
p1494
I4
sS'adalberto'
p1495
I2
sS'history'
p1496
I2
sS'740'
p1497
I1
sS'rodriguez'
p1498
I3
sS'share'
p1499
I3
sS'states'
p1500
I6
sS'bosses.but'
p1501
I1
sS'minimum'
p1502
I2
sS'purchased'
p1503
I1
sS'partner'
p1504
I1
sS'sharp'
p1505
I2
sS'cases.just'
p1506
I1
sS'robinson'
p1507
I1
sS'string'
p1508
I3
sS'information'
p1509
I2
sS'decides'
p1510
I1
sS'court'
p1511
I3
sS'goal'
p1512
I2
sS'speedboat'
p1513
I1
sS'dismissed'
p1514
I1
sS'group.colombia'
p1515
I1
sS'constructed'
p1516
I1
sS'reyes'
p1517
I1
sS'said.multiple'
p1518
I1
sS'horacio'
p1519
I5
sS'tried'
p1520
I1
sS'610'
p1521
I16
sS'minds'
p1522
I1
sS'revolutionizing'
p1523
I1
sS'blood'
p1524
I1
sS'coming'
p1525
I3
sS'response'
p1526
I2
sS'short'
p1527
I2
sS'percent.the'
p1528
I1
sS'conglomerates'
p1529
I1
sS'coal'
p1530
I3
sS'grande'
p1531
I1
sS'banks'
p1532
I2
sS'paz'
p1533
I1
sS'left.colombia'
p1534
I1
sS'rifles'
p1535
I6
sS'mexican'
p1536
I1
sS'help'
p1537
I4
sS'september'
p1538
I1
sS'developed'
p1539
I1
sS'soon'
p1540
I2
sS'trade'
p1541
I7
sS'held'
p1542
I2
sS'embassy'
p1543
I8
sS'committee'
p1544
I1
sS'1.99'
p1545
I1
sS'currrent'
p1546
I1
sS'wilmer'
p1547
I2
sS'comment.the'
p1548
I1
sS'level'
p1549
I2
sS'25'
p1550
I1
sS'1996.critics'
p1551
I1
sS'20'
p1552
I3
sS'solving'
p1553
I1
sS'late'
p1554
I2
sS'thursday.the'
p1555
I2
sS'territorial'
p1556
I2
sS'reuters'
p1557
I11
sS'annual'
p1558
I3
sS'argentina'
p1559
I3
sS'soccer'
p1560
I2
sS'ally'
p1561
I2
sS'good'
p1562
I3
sS'return'
p1563
I5
sS'food'
p1564
I12
sS'propose'
p1565
I1
sS'medellin.banco'
p1566
I1
sS'said.at'
p1567
I1
sS'waged'
p1568
I4
sS'friday.net'
p1569
I1
sS'walls'
p1570
I3
sS'21-pedro'
p1571
I1
sS'compound'
p1572
I5
sS'communities'
p1573
I4
sS'association'
p1574
I1
sS'growing'
p1575
I1
sS'huddle'
p1576
I1
sS'decertified'
p1577
I1
sS'imprisoned'
p1578
I1
sS'assemblies'
p1579
I1
sS'policeman'
p1580
I1
sS'tear'
p1581
I3
sS'ports'
p1582
I1
sS'inpec'
p1583
I5
sS'maturana'
p1584
I1
sS'clamp'
p1585
I1
sS'guaduales'
p1586
I1
sS'states.washington'
p1587
I1
sS'generation'
p1588
I1
sS'house'
p1589
I2
sS'energy'
p1590
I4
sS'afternoon.it'
p1591
I1
sS'40,000'
p1592
I2
sS'brother'
p1593
I1
sS'kidnapping'
p1594
I3
sS'undertake'
p1595
I1
sS'army.sources'
p1596
I1
sS'organised'
p1597
I1
sS'operation'
p1598
I4
sS'event'
p1599
I1
sS'170,000'
p1600
I1
sS'try'
p1601
I1
sS'1,190'
p1602
I1
sS'surrounded'
p1603
I3
sS'health'
p1604
I3
sS'shipment'
p1605
I1
sS'refugees.the'
p1606
I1
sS'housed'
p1607
I1
sS'dirt'
p1608
I1
sS'3.02'
p1609
I1
sS'friday'
p1610
I8
sS'houses'
p1611
I2
sS'qualify'
p1612
I3
sS'picota'
p1613
I5
sS'members'
p1614
I13
sS'imagine'
p1615
I1
sS'backed'
p1616
I3
sS'rises'
p1617
I1
sS'revolutionary'
p1618
I8
sS'producers'
p1619
I1
sS'benefits'
p1620
I1
sS'launch'
p1621
I2
sS'villamizar'
p1622
I1
sS'american'
p1623
I4
sS'expecting'
p1624
I1
sS'threat'
p1625
I1
sS'dockers'
p1626
I2
sS'major'
p1627
I1
sS'consultations'
p1628
I1
sS'feel'
p1629
I2
sS'number'
p1630
I5
sS'13,000'
p1631
I1
sS'colombia'
p1632
I110
sS'pablo'
p1633
I2
sS'wages'
p1634
I1
sS'leading'
p1635
I4
sS'tougher'
p1636
I1
sS'revive'
p1637
I1
sS'180'
p1638
I3
sS'statement'
p1639
I3
sS'banana'
p1640
I14
sS'ecuador'
p1641
I2
sS'summit'
p1642
I1
sS'selling'
p1643
I1
sS'option'
p1644
I1
sS'exploded'
p1645
I4
sS'immediate'
p1646
I1
sS'doctors'
p1647
I2
sS'alvaro'
p1648
I3
sS'financing'
p1649
I1
sS'grew'
p1650
I1
sS'10-roberto'
p1651
I1
sS'levels'
p1652
I4
sS'onwednesday.scorersparaguay'
p1653
I1
sS'10.64'
p1654
I1
sS'suspicious'
p1655
I2
sS'1,091.74'
p1656
I1
sS'paltry'
p1657
I1
sS'karl'
p1658
I4
sS'sell'
p1659
I2
sS'158.4'
p1660
I1
sS'built'
p1661
I2
sS'self'
p1662
I2
sS'officers'
p1663
I1
sS'port'
p1664
I6
sS'majority'
p1665
I1
sS'internal'
p1666
I6
sS'build'
p1667
I2
sS'maintain'
p1668
I1
sS'1.05'
p1669
I1
sS'province'
p1670
I12
sS'play'
p1671
I3
sS'added'
p1672
I2
sS'electric'
p1673
I1
sS'approves'
p1674
I1
sS'hostages.a'
p1675
I1
sS'reach'
p1676
I1
sS'chart'
p1677
I1
sS'unceremoniously'
p1678
I1
sS'15-osmar'
p1679
I1
sS'75'
p1680
I1
sS'73'
p1681
I1
sS'plan'
p1682
I7
sS'significant'
p1683
I1
sS'70'
p1684
I1
sS'services'
p1685
I3
sS'said.regional'
p1686
I1
sS'approved'
p1687
I2
sS'reward'
p1688
I1
sS'kg'
p1689
I1
sS'dealers'
p1690
I1
sS'clear'
p1691
I1
sS'mediation'
p1692
I1
sS'km'
p1693
I4
sS'barred'
p1694
I1
sS'usual'
p1695
I1
sS'institutions'
p1696
I1
sS'2.02'
p1697
I1
sS'sector'
p1698
I4
sS'rebels'
p1699
I16
sS'disturbances'
p1700
I3
sS'6-year'
p1701
I1
sS'scorched'
p1702
I3
sS'15-harles'
p1703
I1
sS'session'
p1704
I3
sS'businesses'
p1705
I2
sS'defender'
p1706
I1
sS'230,000-volt'
p1707
I1
sS'choco'
p1708
I9
sS'88th'
p1709
I1
sS'access'
p1710
I1
sS'giant'
p1711
I4
sS'believe'
p1712
I2
sS'northern'
p1713
I4
sS'justice'
p1714
I4
sS'offensive'
p1715
I3
sS'distributed'
p1716
I3
sS'19th'
p1717
I1
sS'penalty'
p1718
I3
sS'failed'
p1719
I2
sS'kidnap'
p1720
I3
sS'hardened'
p1721
I1
sS'unconstitutional'
p1722
I1
sS'hit'
p1723
I4
sS'cholera'
p1724
I1
sS'hydroelectric'
p1725
I1
sS'trees'
p1726
I1
sS'swing'
p1727
I1
sS'5,000'
p1728
I1
sS'preparing'
p1729
I2
sS'reporters'
p1730
I7
sS'showed'
p1731
I2
sS'1991.intelligence'
p1732
I1
sS'investigate'
p1733
I2
sS'soldiers.he'
p1734
I1
sS'common'
p1735
I3
sS'river'
p1736
I4
sS'mapana'
p1737
I1
sS'900,000'
p1738
I5
sS'set'
p1739
I2
sS'intelligence'
p1740
I11
sS'activists'
p1741
I2
sS'persuade'
p1742
I2
sS'defense'
p1743
I1
sS'aims'
p1744
I2
sS'sea'
p1745
I1
sS'close'
p1746
I7
sS'2.1'
p1747
I2
sS'forthcoming'
p1748
I1
sS'2.7'
p1749
I1
sS'arm'
p1750
I1
sS'declined'
p1751
I4
sS'2.4'
p1752
I1
sS'interview.otero'
p1753
I1
sS'threats'
p1754
I9
sS'wednesday.there'
p1755
I1
sS'muted'
p1756
I1
sS'currently'
p1757
I3
sS'powerhouse'
p1758
I1
sS'strafed'
p1759
I1
sS'unions'
p1760
I1
sS'won'
p1761
I3
sS'probably'
p1762
I2
sS'conditions'
p1763
I7
sS'corruption'
p1764
I2
sS'europe'
p1765
I2
sS'streamlining.earlier'
p1766
I1
sS'latin'
p1767
I3
sS'recently'
p1768
I1
sS'cabrera'
p1769
I2
sS'missing'
p1770
I1
sS'initially'
p1771
I2
sS'brewing'
p1772
I3
sS'confiscated'
p1773
I1
sS'incident'
p1774
I5
sS'death'
p1775
I8
sS'hardline'
p1776
I3
sS'gladys'
p1777
I1
sS'defunct'
p1778
I3
sS'improved'
p1779
I3
sS'salaqui'
p1780
I6
sS'foreign'
p1781
I24
sS'1.67'
p1782
I1
sS'intercept'
p1783
I1
sS'newsdesk'
p1784
I1
sS"we've"
p1785
I1
sS'added.the'
p1786
I3
sS'1.68'
p1787
I1
sS'load'
p1788
I1
sS'clashing'
p1789
I1
sS'headed'
p1790
I1
sS'cuts'
p1791
I1
sS'allegiance'
p1792
I1
sS'community'
p1793
I1
sS'agents'
p1794
I1
sS'village'
p1795
I7
sS'vessel'
p1796
I1
sS'gmd'
p1797
I1
sS'confiscating'
p1798
I1
sS'belt'
p1799
I2
sS'raise'
p1800
I1
sS'again.until'
p1801
I1
sS'create'
p1802
I9
sS'political'
p1803
I6
sS'strategy'
p1804
I3
sS'convicted'
p1805
I6
sS'dropping'
p1806
I1
sS'said.the'
p1807
I18
sS'assassinated'
p1808
I1
sS'meeting'
p1809
I2
sS'walter'
p1810
I1
sS'firm'
p1811
I1
sS'repayments'
p1812
I1
sS'boy'
p1813
I4
sS'gas'
p1814
I4
sS'gap'
p1815
I1
sS'fund'
p1816
I1
sS'lives'
p1817
I1
sS'barranquilla'
p1818
I1
sS'demand'
p1819
I4
sS'prices'
p1820
I6
sS'resisted'
p1821
I1
sS'towns'
p1822
I6
sS'plants'
p1823
I1
sS'bermudez'
p1824
I1
sS'river.tuesday'
p1825
I1
sS'look'
p1826
I3
sS'7,180'
p1827
I1
sS'high.government'
p1828
I1
sS'12-mile'
p1829
I1
sS'budget'
p1830
I4
sS'governor'
p1831
I3
sS'receive'
p1832
I1
sS'parachutes'
p1833
I2
sS'replaced'
p1834
I1
sS'match'
p1835
I2
sS'abroad.the'
p1836
I1
sS'fleet'
p1837
I1
sS'defeats.asprilla'
p1838
I1
sS'grip'
p1839
I1
sS'pound'
p1840
I1
sS'rio'
p1841
I9
sS'chase'
p1842
I1
sS'4.69'
p1843
I1
sS'cascabel'
p1844
I1
sS'grant'
p1845
I3
sS'government'
p1846
I28
sS'cholera.the'
p1847
I1
sS'widely'
p1848
I1
sS'9'
p1849
I12
sS'crammed'
p1850
I1
sS'yucca'
p1851
I1
sS'conflict'
p1852
I3
sS'higher'
p1853
I2
sS'development'
p1854
I3
sS'used'
p1855
I1
sS'temporary'
p1856
I1
sS'mountain'
p1857
I1
sS'899'
p1858
I1
sS'negotiate'
p1859
I2
sS'cement'
p1860
I1
sS'alert'
p1861
I2
sS'moment'
p1862
I1
sS'flown'
p1863
I1
sS'arrived'
p1864
I4
sS'recent'
p1865
I8
sS'lower'
p1866
I1
sS'task'
p1867
I3
sS'spent'
p1868
I5
sS'concrete'
p1869
I2
sS'galeano'
p1870
I1
sS'14,000'
p1871
I1
sS'y'
p1872
I1
sS'organization'
p1873
I1
sS'jails.three'
p1874
I1
sS'worldwide.asprilla'
p1875
I1
sS'spend'
p1876
I1
sS'prevention'
p1877
I1
sS'hijacks'
p1878
I2
sS'ambassador'
p1879
I5
sS'palace.if'
p1880
I1
sS'60-kg'
p1881
I2
sS'competitive'
p1882
I1
sS'guasdualito'
p1883
I1
sS'arrests'
p1884
I1
sS'pregnant.the'
p1885
I1
sS'world'
p1886
I9
sS'injuries'
p1887
I1
sS'wage'
p1888
I2
sS'pimiento'
p1889
I1
sS'cut'
p1890
I4
sS'cup'
p1891
I5
sS'workers'
p1892
I9
sS'source'
p1893
I10
sS'causing'
p1894
I1
sS'location'
p1895
I2
sS'snap'
p1896
I2
sS'2.15'
p1897
I1
sS'guarantees'
p1898
I2
sS'easter'
p1899
I5
sS'remaining'
p1900
I1
sS'victims'
p1901
I1
sS'emergency'
p1902
I10
sS'demands'
p1903
I6
sS'bid'
p1904
I9
sS'jails.colombia'
p1905
I1
sS'1989since'
p1906
I1
sS'suffering'
p1907
I1
sS'wings'
p1908
I1
sS'projects'
p1909
I1
sS'formal'
p1910
I1
sS'paramilitary'
p1911
I8
sS'imposed'
p1912
I1
sS'shaped'
p1913
I1
sS'chorus'
p1914
I1
sS'communications'
p1915
I1
sS'continue'
p1916
I2
sS'indication'
p1917
I1
sS'weekend.the'
p1918
I1
sS'ivan'
p1919
I1
sS'nacional'
p1920
I1
sS'disorder'
p1921
I2
sS'essential'
p1922
I2
sS'channelled'
p1923
I1
sS'absolutely'
p1924
I1
sS'creation'
p1925
I1
sS'delegation'
p1926
I2
sS'economic'
p1927
I4
sS'mideast'
p1928
I5
sS'69,000'
p1929
I1
sS'3.8'
p1930
I2
sS'scale'
p1931
I2
sS'jewelry'
p1932
I1
sS'decision'
p1933
I2
sS'3,240'
p1934
I1
sS'jail.a'
p1935
I1
sS'conditionally'
p1936
I1
sS'capos'
p1937
I1
sS'beleaguered'
p1938
I1
sS'measures'
p1939
I1
sS'run'
p1940
I6
sS'300'
p1941
I1
sS'continuing'
p1942
I3
sS'agreement'
p1943
I4
sS'rue'
p1944
I1
sS'step'
p1945
I1
sS'wells'
p1946
I1
sS'hostages'
p1947
I12
sS'output'
p1948
I2
sS'santo'
p1949
I3
sS'leonel'
p1950
I1
sS'abroad'
p1951
I2
sS'analysing'
p1952
I1
sS'pipeline'
p1953
I3
sS'said.about'
p1954
I1
sS'justo'
p1955
I1
sS'sindicato'
p1956
I3
sS'drama'
p1957
I2
sS'recalling'
p1958
I1
sS'range'
p1959
I4
sS'regular'
p1960
I2
sS'sponsored'
p1961
I2
sS'repair'
p1962
I1
sS'12,000'
p1963
I2
sS'clinton'
p1964
I1
sS'nonsense'
p1965
I1
sS'ministers'
p1966
I1
sS'm-19'
p1967
I2
sS'16,673.66'
p1968
I1
sS'friday.nobody'
p1969
I1
sS'intraday'
p1970
I5
sS'statistics'
p1971
I2
sS'spending'
p1972
I6
sS'long'
p1973
I9
sS'occupy'
p1974
I2
sS'1.56'
p1975
I1
sS"we're"
p1976
I5
sS'1.55'
p1977
I1
sS'1,440'
p1978
I1
sS'mountains'
p1979
I1
sS'chilavert.teams'
p1980
I1
sS'game'
p1981
I3
sS'competition'
p1982
I1
sS'hopes'
p1983
I1
sS'subsidiary'
p1984
I2
sS'line'
p1985
I1
sS'considerable'
p1986
I2
sS'posted'
p1987
I1
sS'consist'
p1988
I1
sS'liberty'
p1989
I6
sS'apartado.diarrhoea'
p1990
I1
sS'exploration'
p1991
I3
sS'planes'
p1992
I1
sS'called'
p1993
I6
sS'bell'
p1994
I1
sS'aerial'
p1995
I5
sS'influence'
p1996
I1
sS'jail.provincial'
p1997
I1
sS'home'
p1998
I11
sS'said.it'
p1999
I1
sS'amounts'
p2000
I2
sS'7,199'
p2001
I1
sS'tito'
p2002
I1
sS'peace'
p2003
I8
sS'3.23'
p2004
I1
sS'67,000'
p2005
I1
sS'department'
p2006
I6
sS'said.traders'
p2007
I1
sS'goalsfor'
p2008
I1
sS'ferried'
p2009
I1
sS'users'
p2010
I1
sS'gross'
p2011
I2
sS'lashing'
p2012
I1
sS'problems'
p2013
I3
sS'resign'
p2014
I1
sS'prepared'
p2015
I2
sS'regulations'
p2016
I1
sS'meaning'
p2017
I2
sS'posters'
p2018
I3
sS'restrained'
p2019
I1
sS'ago'
p2020
I1
sS'land'
p2021
I1
sS'bedoya'
p2022
I3
sS'age'
p2023
I1
sS'vehicles'
p2024
I1
sS'2001'
p2025
I1
sS'confederation'
p2026
I1
sS'fresh'
p2027
I3
sS'requires'
p2028
I1
sS'having'
p2029
I1
sS'evenly'
p2030
I1
sS'issued'
p2031
I4
sS'sarabia'
p2032
I1
sS'results'
p2033
I1
sS'bars.the'
p2034
I1
sS'operations.other'
p2035
I1
sS'winds'
p2036
I1
sS'graves'
p2037
I1
sS'dissidents'
p2038
I1
sS'send'
p2039
I1
sS'cash.dealers'
p2040
I1
sS'include'
p2041
I6
sS'sent'
p2042
I7
sS'50-percent'
p2043
I2
sS'confirmation'
p2044
I1
sS'seized'
p2045
I8
sS'yegros'
p2046
I1
sS'organizations'
p2047
I1
sS'unbeaten'
p2048
I1
sS'minero'
p2049
I1
sS'cellular'
p2050
I2
sS'490-mile'
p2051
I1
sS'wipe'
p2052
I3
sS'entire'
p2053
I2
sS'transmission'
p2054
I1
sS'positions'
p2055
I2
sS'exploded.chronic'
p2056
I1
sS'deals'
p2057
I2
sS'extraditing'
p2058
I1
sS'avoiding'
p2059
I1
sS'originally'
p2060
I1
sS'bavaria.bogota'
p2061
I1
sS'solutions'
p2062
I1
sS'interconexion'
p2063
I1
sS'bogota'
p2064
I55
sS'crop'
p2065
I3
sS'rivers'
p2066
I1
sS'recruitment'
p2067
I1
sS'video'
p2068
I2
sS'decrees'
p2069
I1
sS'cartel'
p2070
I4
sS'growers'
p2071
I4
sS'victor'
p2072
I3
sS'index'
p2073
I11
sS'plays'
p2074
I2
sS'unavailable'
p2075
I3
sS'concessions'
p2076
I2
sS'cell'
p2077
I3
sS'waiting'
p2078
I3
sS'capital'
p2079
I2
sS'firms'
p2080
I1
sS'body'
p2081
I1
sS'catholic'
p2082
I1
sS'mauricio'
p2083
I3
sS'led'
p2084
I9
sS'estates'
p2085
I2
sS'stance'
p2086
I1
sS'commercial'
p2087
I1
sS'believed'
p2088
I4
sS'333,250'
p2089
I1
sS'let'
p2090
I2
sS'meet'
p2091
I3
sS'339,875'
p2092
I1
sS'luis'
p2093
I7
sS'asuncion'
p2094
I1
sS'cartagena'
p2095
I1
sS'great'
p2096
I1
sS'technical'
p2097
I1
sS'involved'
p2098
I2
sS'31'
p2099
I1
sS'30'
p2100
I3
sS'oversold'
p2101
I1
sS'leaving'
p2102
I1
sS'defeat'
p2103
I1
sS'residents'
p2104
I1
sS'4.92'
p2105
I1
sS'maker'
p2106
I2
sS'0.9'
p2107
I1
sS'named'
p2108
I3
sS'deputy'
p2109
I4
sS'win'
p2110
I1
sS'offset'
p2111
I1
sS'330'
p2112
I1
sS'private'
p2113
I6
sS'serna'
p2114
I3
sS'faces.players'
p2115
I1
sS'names'
p2116
I1
sS'apply'
p2117
I1
sS'tools'
p2118
I1
sS'4.78'
p2119
I1
sS'use'
p2120
I2
sS'gainers'
p2121
I1
sS'mendoza'
p2122
I1
sS'remains'
p2123
I1
sS'illegal'
p2124
I3
sS'chocolates'
p2125
I1
sS'attrition'
p2126
I1
sS'hammered'
p2127
I1
sS'mobilisation'
p2128
I2
sS'doubling'
p2129
I1
sS'hydro'
p2130
I1
sS'gaula'
p2131
I1
sS'arauquita'
p2132
I2
sS'sarmiento'
p2133
I1
sS'formally'
p2134
I1
sS'journalists'
p2135
I5
sS'started'
p2136
I7
sS'later.the'
p2137
I1
sS'occurred'
p2138
I1
sS'carrying'
p2139
I5
sS'8'
p2140
I3
sS'9.89'
p2141
I1
sS'harvest'
p2142
I2
sS'women'
p2143
I9
sS'sanctions'
p2144
I1
sS'4-hugo'
p2145
I1
sS'strategically'
p2146
I2
sS'drill'
p2147
I1
sS'fulfill'
p2148
I1
sS'1986.colombia'
p2149
I1
sS'control'
p2150
I10
sS'slid'
p2151
I1
sS'patrol'
p2152
I4
sS'links'
p2153
I5
sS'tax'
p2154
I2
sS'1,080.1'
p2155
I1
sS'0.6'
p2156
I1
sS'high'
p2157
I14
sS'reserves'
p2158
I6
sS'sought'
p2159
I2
sS'enrique'
p2160
I1
sS'thursday.he'
p2161
I1
sS'years.the'
p2162
I1
sS'united'
p2163
I7
sS'jails'
p2164
I6
sS'reuter'
p2165
I5
sS'traders'
p2166
I5
sS'located'
p2167
I1
sS'responsibilities'
p2168
I1
sS'said.but'
p2169
I1
sS'instead'
p2170
I1
sS'samper'
p2171
I6
sS'stock'
p2172
I5
sS'cobwebs'
p2173
I1
sS'blocks'
p2174
I2
sS'farc'
p2175
I16
sS'ayala'
p2176
I1
sS'waters'
p2177
I2
sS'tied'
p2178
I1
sS'rations'
p2179
I1
sS'ties'
p2180
I1
sS'cuartas'
p2181
I3
sS'manpower'
p2182
I1
sS'light'
p2183
I1
sS'lines'
p2184
I5
sS'budge'
p2185
I1
sS'chief'
p2186
I3
sS'allow'
p2187
I2
sS'cadenalco'
p2188
I1
sS'pardo'
p2189
I1
sS'bancoquia'
p2190
I3
sS'neglect'
p2191
I1
sS'revoke'
p2192
I1
sS'despite'
p2193
I2
sS'produced'
p2194
I1
sS'including'
p2195
I10
sS'135'
p2196
I1
sS'perfect'
p2197
I1
sS'helicopters'
p2198
I2
sS'2.84'
p2199
I1
sS'la'
p2200
I11
sS'300,000'
p2201
I1
sS'guerrilla'
p2202
I19
sS'acres'
p2203
I1
sS'thieves'
p2204
I2
sS'puerto'
p2205
I1
sS'8.87'
p2206
I1
sS'criminal'
p2207
I1
sS'minutes.during'
p2208
I1
sS'friday.the'
p2209
I1
sS'renteria'
p2210
I4
sS'greater'
p2211
I1
sS'said.he'
p2212
I4
sS'practice'
p2213
I1
sS'flew'
p2214
I2
sS'mention'
p2215
I1
sS'cutting'
p2216
I1
sS'das'
p2217
I8
sS'flee'
p2218
I2
sS'fled'
p2219
I5
sS'presidential'
p2220
I2
sS'february'
p2221
I8
sS'urge'
p2222
I1
sS'high.the'
p2223
I1
sS'shortage'
p2224
I1
sS'pools'
p2225
I1
sS'4-carlos'
p2226
I1
sS'3,000'
p2227
I4
sS'tents'
p2228
I5
sS'380'
p2229
I1
sS'related'
p2230
I1
sS'rojas'
p2231
I1
sS'disturbances.u.s'
p2232
I1
sS'89'
p2233
I1
sS'incensed'
p2234
I1
sS'80'
p2235
I3
sS'goalkeeper'
p2236
I2
sS'tabulate'
p2237
I1
sS'85'
p2238
I1
sS'empires'
p2239
I1
sS'bag'
p2240
I1
sS'armor'
p2241
I1
sS'defend'
p2242
I2
sS'500,000-volt'
p2243
I1
sS'rev'
p2244
I1
sS'chaos'
p2245
I3
sS'1,062.3'
p2246
I1
sS'1,062.5'
p2247
I1
sS'1,062.6'
p2248
I1
sS'1,062.7'
p2249
I1
sS'1,062.9'
p2250
I1
sS'cause'
p2251
I1
sS'red'
p2252
I28
sS'harold'
p2253
I1
sS'release'
p2254
I1
sS'completely'
p2255
I1
sS'york'
p2256
I2
sS'conflicts'
p2257
I3
sS'business'
p2258
I2
sS'resumed'
p2259
I1
sS'0.72'
p2260
I1
sS'route'
p2261
I2
sS'times'
p2262
I4
sS'illicit'
p2263
I1
sS'allied'
p2264
I3
sS'qualifying'
p2265
I1
sS'receding'
p2266
I1
sS'housing'
p2267
I1
sS'south'
p2268
I5
sS'jurists'
p2269
I1
sS'boyaca'
p2270
I1
sS'succeeds'
p2271
I1
sS'2,000'
p2272
I7
sS'gang'
p2273
I2
sS'scene'
p2274
I2
sS'owned'
p2275
I1
sS'strategic'
p2276
I2
sS'facility'
p2277
I1
sS'date'
p2278
I1
sS'uribe'
p2279
I4
sS'reached'
p2280
I1
sS'ordering'
p2281
I5
sS'revealed'
p2282
I1
sS'relations'
p2283
I3
sS'inmate'
p2284
I2
sS'attack'
p2285
I8
sS'3-alexis'
p2286
I1
sS'sergeant'
p2287
I1
sS'travelled'
p2288
I1
sS'final'
p2289
I1
sS'2-1'
p2290
I3
sS'pumarejo'
p2291
I1
sS'acquire'
p2292
I1
sS'hernan'
p2293
I2
sS'argos'
p2294
I1
sS'farid'
p2295
I1
sS'elite'
p2296
I1
sS'deportivo'
p2297
I1
sS'colleagues'
p2298
I1
sS'penhaul'
p2299
I4
sS'3,350'
p2300
I1
sS'things'
p2301
I1
sS'boring'
p2302
I1
sS'days.in'
p2303
I1
sS'submitted'
p2304
I1
sS'claim'
p2305
I1
sS'2.8'
p2306
I1
sS'stricter'
p2307
I1
sS'providing'
p2308
I1
sS'1.5'
p2309
I1
sS'bogota.but'
p2310
I1
sS'false'
p2311
I2
sS'1.1'
p2312
I1
sS'1.2'
p2313
I1
sS'unchanged'
p2314
I2
sS'partnership'
p2315
I1
sS'1.8'
p2316
I1
sS'speculative'
p2317
I1
sS'tide'
p2318
I3
sS'alerted'
p2319
I1
sS'border'
p2320
I10
sS'linked'
p2321
I1
sS'abelardo'
p2322
I1
sS'rotor'
p2323
I1
sS'smallest'
p2324
I1
sS'agency'
p2325
I2
sS'able'
p2326
I3
sS'mid'
p2327
I1
sS'relatives'
p2328
I2
sS'2.5'
p2329
I1
sS'plantation'
p2330
I1
sS'truck'
p2331
I2
sS'embroiled'
p2332
I1
sS'clash'
p2333
I1
sS'centre'
p2334
I3
sS'figure.cardenas'
p2335
I1
sS'jorge'
p2336
I2
sS'demise'
p2337
I1
sS'prisoner'
p2338
I4
sS'camped'
p2339
I2
sS'tolima.gomez'
p2340
I1
sS'consequences'
p2341
I1
sS'neighboring'
p2342
I1
sS'visiting'
p2343
I1
sS'disease'
p2344
I2
sS'face'
p2345
I10
sS'looked'
p2346
I1
sS'capita'
p2347
I1
sS'absurd'
p2348
I1
sS'acuna'
p2349
I1
sS'wounded'
p2350
I2
sS'street.brewing'
p2351
I1
sS'fact'
p2352
I1
sS'gain'
p2353
I1
sS'emerging'
p2354
I1
sS'chances'
p2355
I1
sS'escobar'
p2356
I3
sS'airlift'
p2357
I1
sS'bring'
p2358
I1
sS'valenciano'
p2359
I1
sS'planning'
p2360
I1
sS'6,100'
p2361
I1
sS'soldiers'
p2362
I9
sS'fear'
p2363
I2
sS'asylum'
p2364
I1
sS'debate'
p2365
I1
sS'decade'
p2366
I6
sS'staff'
p2367
I2
sS'rito'
p2368
I1
sS'based'
p2369
I7
sS'2,200-km'
p2370
I1
sS'earned'
p2371
I1
sS'winner'
p2372
I1
sS'pickup'
p2373
I1
sS'controls'
p2374
I4
sS'jan'
p2375
I1
sS'bombings'
p2376
I4
sS'local'
p2377
I6
sS'hope'
p2378
I7
sS'loss'
p2379
I1
sS'cuba'
p2380
I2
sS'beat'
p2381
I2
sS'familiar'
p2382
I1
sS'overall'
p2383
I1
sS'maritime'
p2384
I1
sS'joint'
p2385
I3
sS'bean'
p2386
I1
sS'exchanges'
p2387
I1
sS'areas'
p2388
I1
sS'teams'
p2389
I2
sS'valderrama'
p2390
I3
sS'gerardo'
p2391
I1
sS'strengthened'
p2392
I1
sS'accuses'
p2393
I1
sS'constructing'
p2394
I1
sS'exists'
p2395
I1
sS'national'
p2396
I19
sS'shake'
p2397
I1
sS'counternarcotics'
p2398
I2
sS'roque'
p2399
I1
sS'officials'
p2400
I12
sS'operated'
p2401
I1
sS'awaits'
p2402
I1
sS'miel'
p2403
I2
sS'placed'
p2404
I1
sS'16,595.81'
p2405
I1
sS'luz'
p2406
I2
sS'mexicano'
p2407
I1
sS'targeted'
p2408
I1
sS'state'
p2409
I12
sS'convince'
p2410
I1
sS'closed'
p2411
I2
sS'horrible'
p2412
I1
sS'crude'
p2413
I2
sS'chairmen'
p2414
I1
sS'colombian'
p2415
I35
sS'dirty'
p2416
I1
sS'explosive'
p2417
I1
sS'ability'
p2418
I1
sS'agencies'
p2419
I1
sS'tobias'
p2420
I1
sS'indiscriminate'
p2421
I5
sS'day'
p2422
I3
sS'key'
p2423
I6
sS'squads'
p2424
I4
sS'extraditables'
p2425
I2
sS'inextricably'
p2426
I1
sS'uraba.the'
p2427
I1
sS'epidemics'
p2428
I2
sS'freely'
p2429
I1
sS'taking'
p2430
I1
sS'shigenobu'
p2431
I5
sS'drug'
p2432
I20
sS'april'
p2433
I7
sS'figures'
p2434
I2
sS'728'
p2435
I1
sS'kinds'
p2436
I1
sS'commando'
p2437
I1
sS'grounds'
p2438
I2
sS'comment'
p2439
I2
sS'diplomats'
p2440
I1
sS'wall'
p2441
I3
sS'tuesday'
p2442
I8
sS'galils'
p2443
I1
sS'laws.the'
p2444
I1
sS'allocated'
p2445
I1
sS'labor'
p2446
I2
sS'fusako'
p2447
I4
sS'provinces'
p2448
I3
sS'powered'
p2449
I1
sS'addition'
p2450
I5
sS'andean'
p2451
I1
sS'kingpin'
p2452
I1
sS'sufficient'
p2453
I1
sS'rincon'
p2454
I2
sS'apure'
p2455
I2
sS'pressure.but'
p2456
I1
sS'guerrillas'
p2457
I49
sS'tense'
p2458
I1
sS'kicks'
p2459
I1
sS'consecutive'
p2460
I1
sS'overturn'
p2461
I1
sS'present'
p2462
I4
sS'programme.across'
p2463
I1
sS'homes'
p2464
I9
sS'troubled'
p2465
I1
sS'abandoned'
p2466
I1
sS'intimidate'
p2467
I1
sS'means'
p2468
I1
sS'extradition'
p2469
I7
sS'owns'
p2470
I1
sS'break.dockers'
p2471
I1
sS'group'
p2472
I13
sS'2-francisco'
p2473
I1
sS'lush'
p2474
I1
sS'bystanders'
p2475
I1
sS'optimistic'
p2476
I1
sS'watched'
p2477
I1
sS'claimed'
p2478
I1
sS'rodrigo'
p2479
I1
sS'finance'
p2480
I1
sS'capture'
p2481
I1
sS'education'
p2482
I1
sS'newsroom'
p2483
I16
sS'juan'
p2484
I4
sS'administration'
p2485
I1
sS'cross'
p2486
I8
sS'hijackings'
p2487
I1
sS'paulo'
p2488
I1
sS'parts'
p2489
I3
sS'northwest'
p2490
I11
sS'geographical'
p2491
I1
sS'largest'
p2492
I3
sS'party'
p2493
I1
sS'terrorism'
p2494
I1
sS'difficult'
p2495
I1
sS'injured'
p2496
I9
sS'ball'
p2497
I1
sS'1-0'
p2498
I1
sS'appearances'
p2499
I1
sS'effect'
p2500
I2
sS'3,321'
p2501
I1
sS'forecasts'
p2502
I2
sS'frequently'
p2503
I2
sS'valledupar'
p2504
I8
sS'kidnappings'
p2505
I4
sS'center'
p2506
I2
sS'neftali'
p2507
I1
sS'fighting'
p2508
I9
sS'col'
p2509
I1
sS'352'
p2510
I1
sS'interpol'
p2511
I4
sS'undertaken'
p2512
I1
sS'soviet'
p2513
I1
sS'latest'
p2514
I5
sS'16-derlis'
p2515
I1
sS'restore'
p2516
I2
sS'45'
p2517
I1
sS'bananas'
p2518
I4
sS'heavily'
p2519
I1
sS'percent'
p2520
I46
sS'wealthy'
p2521
I1
sS'domestic'
p2522
I4
sS'sources'
p2523
I3
sS'125-kg'
p2524
I1
sS'rocked'
p2525
I2
sS'rescue'
p2526
I2
sS'spells'
p2527
I1
sS'inversismica'
p2528
I1
sS'trafficking.she'
p2529
I1
sS'7,000'
p2530
I5
sS'point'
p2531
I2
sS'17-richard'
p2532
I1
sS'deposits'
p2533
I1
sS'discuss'
p2534
I1
sS'arrest'
p2535
I1
sS'crack'
p2536
I1
sS'morgue'
p2537
I1
sS'kick'
p2538
I1
sS'increased'
p2539
I1
sS'fate'
p2540
I2
sS'disappearance'
p2541
I1
sS'companies.representatives'
p2542
I1
sS'sintrainagro'
p2543
I3
sS'increases'
p2544
I2
sS'historic'
p2545
I3
sS'know'
p2546
I3
sS'supervise'
p2547
I1
sS'press'
p2548
I4
sS'immediately'
p2549
I1
sS'desarrollo'
p2550
I1
sS'displaced'
p2551
I9
sS'like'
p2552
I3
sS'lost'
p2553
I3
sS'porous'
p2554
I1
sS'fernando'
p2555
I1
sS'admitted'
p2556
I4
sS'gangsters'
p2557
I1
sS'journalist'
p2558
I1
sS'materialized'
p2559
I1
sS'refugees'
p2560
I15
sS'gaining'
p2561
I1
sS'unable'
p2562
I3
sS'scared'
p2563
I1
sS'church'
p2564
I2
sS'melee'
p2565
I1
sS'growth'
p2566
I4
sS'peru.the'
p2567
I1
sS'empire'
p2568
I1
sS'lead'
p2569
I3
sS'esp'
p2570
I1
sS'avoid'
p2571
I1
sS'mines'
p2572
I1
sS'banadex'
p2573
I1
sS'bosses'
p2574
I2
sS'leader'
p2575
I10
sS'aid.the'
p2576
I1
sS'regain'
p2577
I1
sS'serpa'
p2578
I6
sS'poverty'
p2579
I2
sS'paper'
p2580
I1
sS'pressure'
p2581
I1
sS'murdered'
p2582
I1
sS'pasto'
p2583
I1
sS'paraguayan'
p2584
I1
sS'preventative'
p2585
I1
sS'stage'
p2586
I2
sS'gained'
p2587
I3
sS'jam'
p2588
I1
sS'rationing'
p2589
I2
sS'araquita'
p2590
I1
sS'carried'
p2591
I8
sS'spilled'
p2592
I1
sS'disturbance.a'
p2593
I1
sS'albeiro'
p2594
I1
sS'gainer'
p2595
I1
sS'tomb'
p2596
I1
sS'introduced'
p2597
I3
sS'pistols'
p2598
I4
sS'letters'
p2599
I2
sS'previously'
p2600
I1
sS'million.the'
p2601
I1
sS'warrants'
p2602
I1
sS'washington'
p2603
I4
sS'areas.the'
p2604
I1
sS'chronic'
p2605
I2
sS'guard'
p2606
I2
sS'colombians.the'
p2607
I1
sS'banco'
p2608
I4
sS'mere'
p2609
I1
sS'1985'
p2610
I1
sS'2.57'
p2611
I1
sS'additional'
p2612
I2
sS'texaco'
p2613
I2
sS'12-year'
p2614
I1
sS'outline'
p2615
I1
sS'1988'
p2616
I1
sS'1989'
p2617
I2
sS'biggest'
p2618
I2
sS'dynamite'
p2619
I1
sS'venezuelan'
p2620
I5
sS'9.3'
p2621
I1
sS'building'
p2622
I2
sS'buy'
p2623
I1
sS'funds'
p2624
I6
sS'abductions'
p2625
I1
sS'rioted'
p2626
I5
sS'volume'
p2627
I3
sS'construction'
p2628
I1
sS'goals'
p2629
I3
sS'larger'
p2630
I1
sS'highest'
p2631
I3
sS'entered'
p2632
I1
sS'bilateral'
p2633
I1
sS'territory'
p2634
I1
sS'tactics'
p2635
I3
sS'society'
p2636
I1
sS'wish'
p2637
I1
sS'official'
p2638
I10
sS'signed'
p2639
I3
sS'record'
p2640
I1
sS'converted'
p2641
I1
sS'limit'
p2642
I3
sS'ruling'
p2643
I2
sS'200,000'
p2644
I1
sS'problem'
p2645
I4
sS'minutes'
p2646
I1
sS'display'
p2647
I1
sS'urging'
p2648
I1
sS'unfolding'
p2649
I1
sS'begun'
p2650
I1
sS'deaths'
p2651
I2
sS'contribute'
p2652
I1
sS'providencia'
p2653
I2
sS'3,200'
p2654
I1
sS'highlighted'
p2655
I1
sS'uraba'
p2656
I23
sS'paraguay'
p2657
I11
sS'rightwing'
p2658
I1
sS'shooting'
p2659
I6
sS'proceeds'
p2660
I1
sS'month.the'
p2661
I1
sS'mutual'
p2662
I1
sS'compared'
p2663
I7
sS'47'
p2664
I1
sS'eastern'
p2665
I1
sS'claiming'
p2666
I1
sS'40'
p2667
I2
sS'details'
p2668
I3
sS'talkie'
p2669
I1
sS'factions.the'
p2670
I1
sS'convicts'
p2671
I4
sS'1,069.68'
p2672
I1
sS'francisco'
p2673
I1
sS'star'
p2674
I1
sS'monday'
p2675
I5
sS'monday.in'
p2676
I1
sS'conditions.but'
p2677
I1
sS'risked'
p2678
I1
sS'equalising'
p2679
I1
sS'pumps'
p2680
I1
sS'tonnes'
p2681
I1
sS'seismic'
p2682
I2
sS'repeal'
p2683
I1
sS'bombardments'
p2684
I6
sS'using'
p2685
I2
sS'ranks'
p2686
I1
sS'rule'
p2687
I1
sS'hikes'
p2688
I1
sS'craft'
p2689
I1
sS'volumes'
p2690
I1
sS'212-859-1610'
p2691
I1
sS'stated.between'
p2692
I1
s.