(dp0
S'entity.daman'
p1
I1
sS'development.luxembourg'
p2
I1
sS'hanging'
p3
I1
sS'cyprus'
p4
I8
sS'looking'
p5
I8
sS'granting'
p6
I2
sS'eligible'
p7
I4
sS'electricity'
p8
I3
sS'97/0027'
p9
I1
sS'1998.wednesday'
p10
I2
sS'regional'
p11
I12
sS'bild'
p12
I3
sS'bringing'
p13
I4
sS'broiler'
p14
I1
sS'wednesday'
p15
I71
sS'centre.brussels'
p16
I1
sS'pasqual'
p17
I2
sS'hague'
p18
I12
sS'immunities'
p19
I1
sS'commented'
p20
I2
sS'charter'
p21
I3
sS'diht'
p22
I2
sS'frankfurt.but'
p23
I1
sS'raija'
p24
I2
sS'second'
p25
I26
sS'mosiek'
p26
I3
sS'milled'
p27
I2
sS'5.83553'
p28
I1
sS'contributed'
p29
I1
sS'increasing'
p30
I5
sS'pioneering'
p31
I1
sS'specialist'
p32
I1
sS'avert'
p33
I4
sS'reporter'
p34
I2
sS'avery'
p35
I4
sS'reported'
p36
I4
sS'china'
p37
I3
sS'cyclical'
p38
I5
sS'substance'
p39
I1
sS'climbed'
p40
I2
sS'reports'
p41
I31
sS'0.711470'
p42
I1
sS'military'
p43
I2
sS"i'm"
p44
I3
sS'0.090'
p45
I1
sS'golden'
p46
I3
sS'0.093'
p47
I2
sS'0.097'
p48
I1
sS'criticise'
p49
I1
sS'replace'
p50
I4
sS'brought'
p51
I5
sS'specificaly'
p52
I1
sS'unit'
p53
I8
sS'opponents'
p54
I1
sS'performance.german'
p55
I1
sS'distortions'
p56
I1
sS'strike'
p57
I3
sS'france.fischler'
p58
I1
sS'calculator'
p59
I5
sS'suffocated'
p60
I2
sS'0.899'
p61
I1
sS'0.679'
p62
I1
sS'mired'
p63
I1
sS'relax'
p64
I2
sS'successful'
p65
I4
sS'brings'
p66
I1
sS'hurt'
p67
I4
sS'99'
p68
I1
sS'ng0s'
p69
I2
sS'90'
p70
I3
sS'hole'
p71
I3
sS'hold'
p72
I36
sS'95'
p73
I2
sS'94'
p74
I2
sS'97'
p75
I13
sS'circumstances'
p76
I4
sS'locked'
p77
I2
sS'pursue'
p78
I3
sS'ryutaro'
p79
I1
sS'dangers.salzburg'
p80
I2
sS'differ.washington'
p81
I2
sS'revenues'
p82
I1
sS'example'
p83
I2
sS'household'
p84
I1
sS'escudos'
p85
I1
sS'currency'
p86
I134
sS'reviewing'
p87
I1
sS'want'
p88
I8
sS'travel'
p89
I2
sS'feature'
p90
I2
sS'machine'
p91
I1
sS'methodology'
p92
I2
sS'significance'
p93
I2
sS'place'
p94
I11
sS'november.the'
p95
I1
sS'invitation'
p96
I10
sS'wrong'
p97
I1
sS'types'
p98
I5
sS'effective'
p99
I3
sS'helsinki'
p100
I10
sS'wins'
p101
I5
sS'shipowners'
p102
I1
sS'pangalos'
p103
I3
sS'signatories'
p104
I1
sS'baggage'
p105
I1
sS'2-12'
p106
I2
sS'keeps'
p107
I2
sS'democratic'
p108
I5
sS'wing'
p109
I3
sS'wine'
p110
I2
sS'origin'
p111
I2
sS'netherlandscommission'
p112
I1
sS'40.3191'
p113
I1
sS'welcomed'
p114
I7
sS'varietiesproposal'
p115
I1
sS'vary'
p116
I1
sS'government.european'
p117
I1
sS'barclays'
p118
I4
sS'changes.the'
p119
I1
sS'mabeg'
p120
I1
sS'fit'
p121
I2
sS'lifeline'
p122
I1
sS'1999.it'
p123
I1
sS'wales'
p124
I5
sS'easier'
p125
I5
sS'effects'
p126
I20
sS'competitiveness'
p127
I13
sS'barton'
p128
I7
sS'skills'
p129
I1
sS'simplified'
p130
I1
sS'preceded'
p131
I1
sS'financial'
p132
I24
sS'woes'
p133
I1
sS'series'
p134
I2
sS'250,000'
p135
I1
sS'substantially'
p136
I3
sS'whit'
p137
I2
sS'stabilised'
p138
I1
sS'120,000'
p139
I1
sS'table.on'
p140
I1
sS'1.95282'
p141
I1
sS'schmidbauer'
p142
I3
sS'said.exporters'
p143
I2
sS'encourage'
p144
I11
sS'adapt'
p145
I3
sS'abroad.barring'
p146
I1
sS'sme'
p147
I2
sS'engineer'
p148
I1
sS'dsb'
p149
I4
sS'foundation'
p150
I9
sS'dagens'
p151
I1
sS'context.the'
p152
I1
sS'encountering'
p153
I2
sS'estimate'
p154
I5
sS'cornerstone'
p155
I1
sS'currency.he'
p156
I1
sS'shipper'
p157
I2
sS'productscommission'
p158
I1
sS'shipped'
p159
I1
sS'106/04'
p160
I1
sS'106/05'
p161
I1
sS'106/06'
p162
I1
sS'106/07'
p163
I1
sS'nigel'
p164
I2
sS'106/01'
p165
I1
sS'106/02'
p166
I1
sS'106/03'
p167
I1
sS'vitro'
p168
I2
sS'millers'
p169
I7
sS'dti'
p170
I9
sS'171'
p171
I16
sS'170'
p172
I4
sS'said.kohl'
p173
I1
sS'service'
p174
I13
sS'similarly'
p175
I1
sS'needed'
p176
I14
sS'euro'
p177
I84
sS'bitter'
p178
I5
sS'ranging'
p179
I3
sS'danish'
p180
I12
sS'geneva'
p181
I3
sS'convention'
p182
I18
sS'3luxembourg'
p183
I2
sS'0.461'
p184
I2
sS'showed'
p185
I14
sS'outlaw'
p186
I1
sS'straight.the'
p187
I1
sS'nations'
p188
I18
sS'project'
p189
I17
sS'skimmed'
p190
I1
sS'feeling'
p191
I4
sS'acquisition'
p192
I2
sS'boston'
p193
I1
sS'wealth'
p194
I1
sS'antagonistic'
p195
I1
sS'increment'
p196
I2
sS'plans.the'
p197
I2
sS'affairs'
p198
I63
sS'kisangani.kabila'
p199
I1
sS'2.70'
p200
I2
sS'responsible'
p201
I3
sS'79/112/eec'
p202
I1
sS'recommended'
p203
I1
sS'causing'
p204
I2
sS'104/08'
p205
I1
sS'104/09'
p206
I1
sS'104/06'
p207
I1
sS'104/07'
p208
I1
sS'104/04'
p209
I1
sS'104/05'
p210
I1
sS'104/02'
p211
I1
sS'appreciates'
p212
I2
sS'104/01'
p213
I1
sS'shipments'
p214
I34
sS'said.private'
p215
I1
sS'shall'
p216
I3
sS'looming'
p217
I2
sS'swiss'
p218
I3
sS'mouth'
p219
I1
sS'organization'
p220
I6
sS'etane'
p221
I1
sS'episode'
p222
I1
sS'10-crown'
p223
I1
sS'marseille.air'
p224
I1
sS'professor'
p225
I5
sS'camp'
p226
I4
sS'tech'
p227
I2
sS'70/156/eec'
p228
I4
sS'came'
p229
I6
sS'saying'
p230
I22
sS'reactor'
p231
I2
sS'meetings'
p232
I3
sS'meetings.the'
p233
I2
sS'participate'
p234
I4
sS'hungary'
p235
I7
sS'lafontaine'
p236
I4
sS'busy'
p237
I1
sS'zaireans'
p238
I1
sS'ruggiero'
p239
I3
sS'rice'
p240
I17
sS'rica'
p241
I8
sS'581/97'
p242
I1
sS'agreementdecision'
p243
I1
sS'plath'
p244
I3
sS'pocket'
p245
I1
sS'altogether'
p246
I2
sS'year.if'
p247
I1
sS'dipping'
p248
I1
sS'adherence'
p249
I3
sS'respond'
p250
I1
sS'blew'
p251
I6
sS'idiosyncracies'
p252
I1
sS'mandatory'
p253
I2
sS'clarified'
p254
I1
sS'unexpectedly'
p255
I3
sS'result'
p256
I4
sS'fail'
p257
I2
sS'best'
p258
I6
sS'report.the'
p259
I2
sS'lots'
p260
I2
sS'subsidies.the'
p261
I1
sS'soon.he'
p262
I2
sS'pressures'
p263
I4
sS'glasgow'
p264
I1
sS'wage'
p265
I8
sS'nationwide'
p266
I2
sS'nature'
p267
I4
sS'96/0052'
p268
I1
sS'authorizing'
p269
I15
sS'cut'
p270
I25
sS'extent'
p271
I7
sS'debt'
p272
I20
sS'wto'
p273
I17
sS'may.european'
p274
I1
sS'country'
p275
I36
sS'cup'
p276
I1
sS'demanded'
p277
I1
sS'stuttgart'
p278
I2
sS'pehkonen'
p279
I2
sS'planned'
p280
I27
sS'votes.labour'
p281
I2
sS'587/97'
p282
I1
sS'federalism'
p283
I1
sS'adapted'
p284
I1
sS'asked'
p285
I7
sS'start.the'
p286
I2
sS'fudged'
p287
I6
sS'2nd'
p288
I3
sS'leaders.prime'
p289
I1
sS'organisational'
p290
I1
sS'added.all'
p291
I1
sS'matti'
p292
I1
sS'signals'
p293
I2
sS'union'
p294
I216
sS'criticised'
p295
I5
sS'subsidy'
p296
I11
sS'104'
p297
I6
sS'wulf'
p298
I3
sS'life'
p299
I3
sS'eastern'
p300
I24
sS'worker'
p301
I11
sS'chile'
p302
I2
sS'doubts'
p303
I13
sS'worked'
p304
I3
sS'conditions.ministers'
p305
I1
sS'commerce'
p306
I20
sS'presidency'
p307
I31
sS'administrative'
p308
I9
sS'organisers'
p309
I1
sS'gerhard'
p310
I1
sS'europremature'
p311
I2
sS'levies'
p312
I1
sS'played'
p313
I3
sS'0.076'
p314
I2
sS'0.070'
p315
I3
sS'washington.this'
p316
I1
sS'player'
p317
I1
sS'treaty.germany'
p318
I1
sS'week.norway'
p319
I1
sS'trusted'
p320
I1
sS'hong'
p321
I3
sS'things'
p322
I9
sS'cumulative'
p323
I2
sS'165.571'
p324
I3
sS'lambraki'
p325
I3
sS'17.02.97dfl'
p326
I3
sS'split'
p327
I1
sS'european'
p328
I646
sS'fairly'
p329
I7
sS'0.613'
p330
I1
sS'josef'
p331
I1
sS'workforce'
p332
I2
sS'hectares'
p333
I2
sS'09.03.97uk'
p334
I3
sS'josep'
p335
I3
sS'5.74'
p336
I1
sS'look.the'
p337
I1
sS'21luxembourg'
p338
I2
sS'6.02811'
p339
I3
sS'2002.denmark'
p340
I1
sS'academic'
p341
I3
sS'589/97'
p342
I1
sS'corporate'
p343
I6
sS'plaque'
p344
I2
sS'opinions'
p345
I4
sS'0.091'
p346
I2
sS'distribute'
p347
I1
sS'differences.dutch'
p348
I1
sS'plight'
p349
I1
sS'rushing'
p350
I1
sS'previous'
p351
I6
sS'enters'
p352
I3
sS'ham'
p353
I4
sS'fraga'
p354
I3
sS'macdonald'
p355
I1
sS'topical'
p356
I13
sS'easy'
p357
I2
sS'east'
p358
I23
sS'synchronisation'
p359
I2
sS'survival'
p360
I2
sS'disagreement'
p361
I3
sS'possible'
p362
I27
sS'said.so'
p363
I1
sS'firmer'
p364
I1
sS'possibly'
p365
I126
sS'poses'
p366
I2
sS'desire'
p367
I4
sS'13.7452'
p368
I1
sS'seaside'
p369
I4
sS'steps'
p370
I6
sS'gmt.brussels'
p371
I1
sS'beneficial'
p372
I1
sS'right'
p373
I35
sS'old'
p374
I6
sS'crowd'
p375
I1
sS'people'
p376
I25
sS'czech'
p377
I3
sS'crown'
p378
I6
sS'consultants'
p379
I1
sS'8520'
p380
I2
sS'fob'
p381
I6
sS'indication'
p382
I1
sS'dental'
p383
I2
sS'shifting'
p384
I1
sS'speech.aides'
p385
I2
sS'dollars'
p386
I19
sS'citizens'
p387
I3
sS'organisms.wednesday'
p388
I1
sS'165/tonne'
p389
I1
sS'palestinians'
p390
I2
sS'slightly'
p391
I6
sS'raised'
p392
I3
sS'statements'
p393
I7
sS'87/102/eec'
p394
I3
sS'beings'
p395
I1
sS'raises'
p396
I1
sS'wrap'
p397
I4
sS'reducing'
p398
I3
sS'health.kiely'
p399
I1
sS'panorama'
p400
I1
sS'support'
p401
I35
sS'resulted'
p402
I1
sS'kalanke'
p403
I4
sS'launching'
p404
I1
sS'happy'
p405
I5
sS'offer'
p406
I5
sS'leiden'
p407
I2
sS'hemisphere'
p408
I4
sS'safeguard'
p409
I3
sS'inside'
p410
I4
sS'morning'
p411
I1
sS'lays'
p412
I2
sS'accelerate'
p413
I1
sS'cutbacks'
p414
I1
sS'adopt'
p415
I3
sS'liberal'
p416
I2
sS'154'
p417
I2
sS'negotiations'
p418
I53
sS'eventual'
p419
I1
sS'crowns'
p420
I1
sS'geographically'
p421
I1
sS'role'
p422
I10
sS'roll'
p423
I2
sS'3brussels'
p424
I4
sS'intend'
p425
I4
sS'schuman'
p426
I4
sS'said.thursday'
p427
I1
sS'rolling'
p428
I1
sS'friedhelm'
p429
I1
sS'dogma'
p430
I1
sS'64-year'
p431
I1
sS'0.442'
p432
I2
sS'time'
p433
I65
sS'push'
p434
I6
sS'peacock'
p435
I1
sS'chain'
p436
I2
sS'ost'
p437
I2
sS'eu.drazek'
p438
I1
sS'jordan.thursday'
p439
I2
sS'1.16173'
p440
I1
sS'finish'
p441
I2
sS'93'
p442
I2
sS'states.paul'
p443
I1
sS'92'
p444
I4
sS'812'
p445
I2
sS'96'
p446
I1
sS'pursuant'
p447
I2
sS'consolidation'
p448
I1
sS'spate'
p449
I1
sS'choice'
p450
I2
sS'stays'
p451
I1
sS'fifths'
p452
I1
sS'0.917'
p453
I1
sS'minute'
p454
I1
sS'fisheries.brussels'
p455
I1
sS'1.492'
p456
I2
sS'tear'
p457
I2
sS'leave'
p458
I2
sS'solved'
p459
I1
sS'settle'
p460
I8
sS'team'
p461
I1
sS'speculation'
p462
I10
sS'prevent'
p463
I6
sS'telfort'
p464
I1
sS'findings'
p465
I1
sS'prediction'
p466
I1
sS'steaks'
p467
I2
sS'1999/2000'
p468
I1
sS'1.722'
p469
I1
sS'current'
p470
I18
sS'falling'
p471
I7
sS'boost'
p472
I9
sS'demand.but'
p473
I1
sS'paribas'
p474
I3
sS'jury'
p475
I1
sS'goma'
p476
I1
sS'endorse'
p477
I1
sS'lange'
p478
I3
sS'agreement'
p479
I76
sS'yards'
p480
I5
sS'address'
p481
I5
sS'statement.he'
p482
I2
sS'benson'
p483
I2
sS'passengers'
p484
I1
sS'23brussels'
p485
I2
sS'isue'
p486
I1
sS'financiere'
p487
I1
sS'sawn'
p488
I4
sS'580/97'
p489
I1
sS'studies'
p490
I13
sS'ipc'
p491
I2
sS'tasks'
p492
I1
sS'confidentiality'
p493
I1
sS'prefer'
p494
I1
sS'europol'
p495
I3
sS'586/97'
p496
I1
sS'forefront'
p497
I1
sS'flagging'
p498
I2
sS'working'
p499
I21
sS'koniklijke'
p500
I1
sS'positive'
p501
I5
sS'altener'
p502
I1
sS'70/220/eec'
p503
I4
sS'opposed'
p504
I9
sS'97/0063'
p505
I1
sS'introducing'
p506
I2
sS'afford'
p507
I2
sS'apparent'
p508
I1
sS'cookouts'
p509
I1
sS'europe.lufthansa'
p510
I2
sS'behalf'
p511
I2
sS'honey'
p512
I2
sS'valued'
p513
I1
sS'originally'
p514
I4
sS'facilitating'
p515
I2
sS'abortion'
p516
I3
sS'believes'
p517
I1
sS'undertakings.italy'
p518
I2
sS'values'
p519
I5
sS'believed'
p520
I7
sS'candidates.the'
p521
I2
sS'flirtations'
p522
I2
sS'202-898-8300'
p523
I2
sS'panel.the'
p524
I1
sS'22brussels'
p525
I8
sS'unveiled'
p526
I1
sS'allowed'
p527
I13
sS'234'
p528
I2
sS'235'
p529
I4
sS'230'
p530
I5
sS'evidently'
p531
I1
sS'monitoring'
p532
I9
sS'winter'
p533
I5
sS'divided'
p534
I3
sS'25/97'
p535
I1
sS'optimal'
p536
I2
sS'269.99'
p537
I1
sS'restitutions'
p538
I3
sS'landmark'
p539
I1
sS'spot'
p540
I1
sS'applications'
p541
I2
sS'lidy'
p542
I2
sS'date'
p543
I31
sS'data'
p544
I16
sS'campaign.elaborating'
p545
I2
sS'bournoville'
p546
I1
sS'stress'
p547
I4
sS'natural'
p548
I5
sS'varieties'
p549
I1
sS'sectors'
p550
I9
sS'time.the'
p551
I1
sS'st'
p552
I3
sS'se'
p553
I1
sS'publish'
p554
I1
sS'unacceptable'
p555
I3
sS'kong'
p556
I4
sS'course'
p557
I10
sS'588/97'
p558
I1
sS'experiments'
p559
I3
sS'lybrand'
p560
I1
sS'tendency'
p561
I1
sS'overhaul'
p562
I3
sS'internationally'
p563
I1
sS'jim'
p564
I2
sS'hot'
p565
I1
sS'5387'
p566
I2
sS'indigenous'
p567
I4
sS'records'
p568
I1
sS'voting.but'
p569
I1
sS'drilling'
p570
I2
sS'symposium'
p571
I1
sS'arriving'
p572
I2
sS'maintaining'
p573
I1
sS'shouted'
p574
I3
sS'revert'
p575
I2
sS'establishing'
p576
I21
sS'0.056'
p577
I2
sS'1400/1200'
p578
I2
sS'0.053'
p579
I1
sS'carcases'
p580
I1
sS'quarter'
p581
I12
sS'square'
p582
I7
sS'honduras'
p583
I4
sS'3888.strasbourg'
p584
I3
sS'revised'
p585
I5
sS'added.eu'
p586
I1
sS'bovine'
p587
I6
sS'breakthrough'
p588
I1
sS'5.16558'
p589
I1
sS'entering'
p590
I5
sS'0.630'
p591
I1
sS'contained'
p592
I1
sS'09.03.97esc'
p593
I3
sS'0.636'
p594
I1
sS'internet'
p595
I1
sS'ble'
p596
I2
sS'formula'
p597
I1
sS'algirdas'
p598
I1
sS'57.thursday'
p599
I2
sS'canete'
p600
I3
sS'cultor'
p601
I6
sS'curbs'
p602
I5
sS'million'
p603
I79
sS'possibility'
p604
I8
sS'quite'
p605
I3
sS'complicated'
p606
I2
sS'said.up'
p607
I1
sS'training'
p608
I15
sS'traffic.venice'
p609
I2
sS'modest'
p610
I1
sS'punt'
p611
I3
sS'aboard'
p612
I1
sS'routes'
p613
I6
sS'1200/1000'
p614
I6
sS'clause'
p615
I1
sS'specifically'
p616
I4
sS'spanish'
p617
I8
sS'vote'
p618
I9
sS'open'
p619
I23
sS'city'
p620
I4
sS'structured'
p621
I2
sS'indicate'
p622
I1
sS'2'
p623
I32
sS'draft'
p624
I22
sS'consumption.brussels'
p625
I2
sS'1991-1992.it'
p626
I1
sS'shoppers'
p627
I1
sS'kariola.kariola'
p628
I2
sS'structures'
p629
I2
sS'lingering'
p630
I1
sS'currency.lafontaine'
p631
I1
sS'ealdh'
p632
I2
sS'slashed'
p633
I2
sS'rieth'
p634
I2
sS'meetings.goldthwait'
p635
I1
sS'eias'
p636
I2
sS'eurosceptic'
p637
I1
sS'meat.u.s'
p638
I2
sS'affairs.coll'
p639
I1
sS'russia'
p640
I13
sS'slashing'
p641
I1
sS'10-16'
p642
I2
sS'royalties'
p643
I3
sS'turned'
p644
I2
sS'deutsche'
p645
I6
sS'prestigious'
p646
I1
sS'say'
p647
I21
sS'saw'
p648
I6
sS'invite'
p649
I2
sS'european.the'
p650
I2
sS'aside'
p651
I7
sS'instructed'
p652
I1
sS'note'
p653
I9
sS'soybeans.europabio'
p654
I3
sS'wanting'
p655
I5
sS'coincide'
p656
I2
sS'concern'
p657
I16
sS'altered'
p658
I12
sS'opposite'
p659
I3
sS'1500/1300'
p660
I4
sS'printed'
p661
I8
sS'zavliaris'
p662
I2
sS'1900/1700'
p663
I12
sS'average'
p664
I10
sS'drive'
p665
I5
sS'managing'
p666
I4
sS'axe'
p667
I1
sS'atlantic'
p668
I12
sS'15.the'
p669
I1
sS'liquidity'
p670
I2
sS'laws'
p671
I30
sS'wynn'
p672
I4
sS'surplus'
p673
I1
sS'goodscommission'
p674
I1
sS'said.drazek'
p675
I1
sS'sarlis'
p676
I2
sS'aggressive'
p677
I9
sS'fibre'
p678
I2
sS'slow'
p679
I3
sS'annually.the'
p680
I2
sS'readmission'
p681
I1
sS'liberation'
p682
I1
sS'going'
p683
I22
sS'attends.leiden'
p684
I1
sS'congressional'
p685
I1
sS'dispute'
p686
I22
sS'inuit'
p687
I4
sS'awaiting'
p688
I1
sS'prime'
p689
I19
sS'talks.some'
p690
I1
sS'1999.since'
p691
I1
sS'46-8-700'
p692
I4
sS'worried'
p693
I7
sS'16th'
p694
I2
sS'vision'
p695
I2
sS'budding'
p696
I1
sS'sites'
p697
I1
sS'bureau'
p698
I10
sS'affecting'
p699
I4
sS'higher.eu'
p700
I1
sS'jobs'
p701
I21
sS'screen'
p702
I3
sS'supermarket'
p703
I1
sS'bonino'
p704
I8
sS'gnss'
p705
I2
sS'awards'
p706
I1
sS'vartiainen'
p707
I3
sS'spark'
p708
I1
sS'0.936'
p709
I1
sS'undermine'
p710
I1
sS'concentrated'
p711
I1
sS'residence'
p712
I1
sS's'
p713
I36
sS"can't"
p714
I4
sS'13.7398'
p715
I1
sS'statement.greenpeace'
p716
I4
sS'twin'
p717
I1
sS'anti'
p718
I18
sS'1.749'
p719
I1
sS'west'
p720
I6
sS'airlines'
p721
I13
sS'combined'
p722
I4
sS'renewables'
p723
I3
sS'wants'
p724
I7
sS'enable'
p725
I2
sS'18amsterdam'
p726
I2
sS'thousand'
p727
I1
sS'polls'
p728
I7
sS'single'
p729
I112
sS'formalise'
p730
I1
sS'policies'
p731
I19
sS'newspaper'
p732
I5
sS'situation'
p733
I25
sS'1111.the'
p734
I1
sS'said.germany'
p735
I1
sS'blak'
p736
I3
sS'13.7'
p737
I1
sS'technology'
p738
I17
sS'threatens'
p739
I4
sS'surveillance'
p740
I4
sS'holiday.friday'
p741
I2
sS'1530/1330'
p742
I2
sS'2332/92'
p743
I1
sS'sterling'
p744
I13
sS'edged'
p745
I1
sS'singapore'
p746
I6
sS'boosted'
p747
I3
sS'tolar'
p748
I2
sS'1st-half'
p749
I1
sS'renewable'
p750
I1
sS'costa'
p751
I8
sS'60,000'
p752
I1
sS'costs'
p753
I16
sS'dimension'
p754
I4
sS'gdp'
p755
I18
sS'summer'
p756
I7
sS'sanctuary.greenpeace'
p757
I1
sS'customers.the'
p758
I3
sS'218'
p759
I3
sS'ngos'
p760
I2
sS'recycled'
p761
I2
sS'fateful'
p762
I2
sS'weekly'
p763
I22
sS'instrument'
p764
I1
sS'said.export'
p765
I1
sS'ip/97/258'
p766
I1
sS'ip/97/256'
p767
I1
sS'structural'
p768
I13
sS'ip/97/253'
p769
I1
sS'skies'
p770
I8
sS'aspects'
p771
I10
sS'5740.monday'
p772
I2
sS'144.804'
p773
I1
sS'world'
p774
I52
sS'postal'
p775
I2
sS'markets.waigel'
p776
I1
sS'responisbility'
p777
I1
sS'consumption.wednesday'
p778
I2
sS'unsubsidised'
p779
I1
sS'inter'
p780
I13
sS'liechtenstein.refunds'
p781
I1
sS'satisfactory'
p782
I1
sS'daman'
p783
I4
sS'conditional'
p784
I2
sS'lebanon'
p785
I7
sS'supplementary'
p786
I2
sS'165.530'
p787
I1
sS'69'
p788
I4
sS'inflexibility'
p789
I1
sS'warrantable'
p790
I1
sS'dimensions'
p791
I5
sS'tobago'
p792
I7
sS'moslem'
p793
I1
sS'nations.the'
p794
I1
sS'conference.he'
p795
I1
sS'gmt.following'
p796
I1
sS'dresden'
p797
I1
sS'scientific'
p798
I5
sS'4brussels'
p799
I2
sS'ration'
p800
I1
sS'sales.the'
p801
I1
sS'leadership'
p802
I1
sS'thailand'
p803
I1
sS'11brussels'
p804
I3
sS'feedingstuffscommission'
p805
I1
sS'origins'
p806
I1
sS'package'
p807
I5
sS'industry'
p808
I107
sS'0.033'
p809
I2
sS'0.030'
p810
I1
sS'acp'
p811
I5
sS'act'
p812
I1
sS'0.038'
p813
I1
sS'bond'
p814
I8
sS'flawed'
p815
I1
sS'image'
p816
I1
sS'derogating'
p817
I15
sS'homeless'
p818
I2
sS'parties'
p819
I7
sS'sides'
p820
I23
sS'myths'
p821
I2
sS'13brussels'
p822
I2
sS'267,000'
p823
I1
sS'complete'
p824
I4
sS'noted.danish'
p825
I1
sS'brain'
p826
I3
sS'elimination'
p827
I1
sS'castello'
p828
I3
sS'technologies'
p829
I1
sS'buying'
p830
I2
sS'rush'
p831
I5
sS'october'
p832
I45
sS'monopoly'
p833
I1
sS'reasoned'
p834
I1
sS'89/552/eec'
p835
I2
sS'1588/94'
p836
I1
sS'politically'
p837
I1
sS'agree'
p838
I11
sS'detailed'
p839
I2
sS'ag'
p840
I7
sS'exhausted'
p841
I1
sS'certain'
p842
I60
sS'ao'
p843
I1
sS'1994.but'
p844
I1
sS'allay'
p845
I1
sS'cream'
p846
I1
sS'idrac'
p847
I1
sS'socrates'
p848
I2
sS'vocational'
p849
I4
sS'abolish'
p850
I5
sS'tight'
p851
I6
sS'2001'
p852
I1
sS'incomprehensible'
p853
I1
sS'congress'
p854
I12
sS'annex'
p855
I4
sS'seriousness'
p856
I1
sS'groot'
p857
I2
sS'adam'
p858
I3
sS'2.850'
p859
I1
sS'consider'
p860
I10
sS'caused'
p861
I6
sS'welfare'
p862
I9
sS'g-24'
p863
I2
sS'tv'
p864
I2
sS'standards.affected'
p865
I3
sS'alvarez'
p866
I5
sS'rulingunder'
p867
I1
sS'pilot'
p868
I1
sS'0.747'
p869
I1
sS'appointment'
p870
I2
sS'returned'
p871
I1
sS'2.6-million'
p872
I1
sS'specialised'
p873
I2
sS'0.442330'
p874
I1
sS'said.russian'
p875
I1
sS'jenkki'
p876
I2
sS'condition'
p877
I7
sS'17th'
p878
I4
sS'venezuela'
p879
I4
sS'laying'
p880
I12
sS'joined'
p881
I6
sS'large'
p882
I8
sS'scrapping'
p883
I2
sS'adjust'
p884
I5
sS'small'
p885
I16
sS'maggie'
p886
I1
sS'191'
p887
I2
sS'fuerst'
p888
I1
sS'past'
p889
I9
sS'discriminated'
p890
I1
sS'aereement'
p891
I2
sS'postponent'
p892
I1
sS'pass'
p893
I3
sS'provan'
p894
I2
sS'investment'
p895
I26
sS'clock'
p896
I1
sS'disruptions'
p897
I6
sS'section'
p898
I1
sS'40.3344'
p899
I1
sS'undecided'
p900
I3
sS'scientists'
p901
I4
sS'contrast'
p902
I3
sS'hours'
p903
I1
sS'mastella'
p904
I1
sS'november'
p905
I47
sS'8.88891'
p906
I1
sS'experience'
p907
I4
sS'prior'
p908
I7
sS'communitycommission'
p909
I1
sS'social'
p910
I68
sS'action'
p911
I64
sS'now.but'
p912
I2
sS'240'
p913
I1
sS'followed'
p914
I11
sS'acheive'
p915
I1
sS'2711.brussels'
p916
I3
sS'pulls'
p917
I1
sS'5luxembourg'
p918
I2
sS'intensive'
p919
I1
sS'silva'
p920
I1
sS'objectives'
p921
I9
sS'schedule.ministers'
p922
I2
sS'6'
p923
I9
sS'0.951'
p924
I2
sS'substances'
p925
I7
sS'company'
p926
I12
sS'foundations'
p927
I1
sS'objections'
p928
I8
sS'bedford'
p929
I1
sS'keeping'
p930
I4
sS'5223'
p931
I1
sS'science'
p932
I9
sS'sent'
p933
I5
sS'morgan'
p934
I5
sS'routes.normal'
p935
I1
sS'changeover'
p936
I1
sS'added.currently'
p937
I1
sS'prompt'
p938
I3
sS'impacts'
p939
I2
sS'gallop'
p940
I1
sS'subsidisation'
p941
I1
sS'accept'
p942
I22
sS'states'
p943
I146
sS'fiercely'
p944
I1
sS'sense'
p945
I3
sS'scheduled.hoelgaard'
p946
I2
sS'huge'
p947
I8
sS'87/1'
p948
I1
sS'equities'
p949
I1
sS'dismissed'
p950
I3
sS'earnings'
p951
I2
sS'plant'
p952
I4
sS'plans'
p953
I34
sS'countryside'
p954
I1
sS'stoiber'
p955
I3
sS'entrepreneurship'
p956
I3
sS'maltese'
p957
I2
sS'appealed'
p958
I1
sS'lanka'
p959
I1
sS'erbakan'
p960
I3
sS'said.all'
p961
I1
sS'refuse'
p962
I2
sS'broadcasting'
p963
I4
sS'replied'
p964
I1
sS'mexican'
p965
I5
sS'trade'
p966
I138
sS'paper'
p967
I25
sS'signs'
p968
I3
sS'rapidly'
p969
I2
sS'rights.last'
p970
I1
sS'ruining'
p971
I1
sS'tentatively'
p972
I1
sS'shetland'
p973
I1
sS'propose'
p974
I3
sS'rosalind'
p975
I1
sS'march.at'
p976
I1
sS'years.compare'
p977
I1
sS'tuesday.but'
p978
I2
sS'8.83274'
p979
I3
sS'status'
p980
I2
sS'country.in'
p981
I1
sS'england'
p982
I3
sS'reduce'
p983
I6
sS'slowdown'
p984
I2
sS'jellies'
p985
I2
sS'9strasbourg'
p986
I2
sS'7.43775'
p987
I1
sS'operation'
p988
I6
sS'really'
p989
I2
sS'criteria.after'
p990
I2
sS'evangelos'
p991
I1
sS'7luxembourg'
p992
I2
sS'mattered'
p993
I2
sS'research'
p994
I35
sS'commission.a'
p995
I1
sS'ministerial'
p996
I11
sS'occurs'
p997
I1
sS'2.040'
p998
I1
sS'belief'
p999
I1
sS'risen'
p1000
I1
sS'qualify'
p1001
I14
sS'arable'
p1002
I2
sS'imagine'
p1003
I3
sS'rises'
p1004
I3
sS'44.329'
p1005
I1
sS'director'
p1006
I9
sS'owners'
p1007
I1
sS'retained'
p1008
I1
sS'8.86172'
p1009
I1
sS'macroeconomic'
p1010
I1
sS'afternoon'
p1011
I2
sS'june.michel'
p1012
I1
sS'marfil'
p1013
I3
sS'december.although'
p1014
I2
sS'major'
p1015
I27
sS'protectionist'
p1016
I3
sS'number'
p1017
I12
sS'acceptence'
p1018
I1
sS'protectionism'
p1019
I1
sS'differ'
p1020
I2
sS'heads'
p1021
I7
sS'introduction'
p1022
I6
sS'50.wednesday'
p1023
I2
sS'brittan'
p1024
I7
sS'saint'
p1025
I2
sS'said.premature'
p1026
I2
sS'subsidise'
p1027
I2
sS'payments.lemmel'
p1028
I1
sS'elaboration'
p1029
I1
sS'1.591'
p1030
I1
sS'interviewed'
p1031
I1
sS'immediate'
p1032
I2
sS'appreciation'
p1033
I3
sS'disease.brussels'
p1034
I1
sS'zeul'
p1035
I2
sS'rain'
p1036
I1
sS'rampant'
p1037
I2
sS'1.95444'
p1038
I1
sS'16amsterdam'
p1039
I2
sS'determines'
p1040
I1
sS'nikolaus'
p1041
I3
sS'0982.berlin'
p1042
I3
sS'determined'
p1043
I7
sS'fishermen'
p1044
I5
sS'0.011'
p1045
I1
sS'0.012'
p1046
I2
sS'0.543'
p1047
I2
sS'penedos'
p1048
I1
sS'organisations'
p1049
I4
sS'protocol.stung'
p1050
I1
sS'sell'
p1051
I7
sS'bjerregaard'
p1052
I8
sS'self'
p1053
I1
sS'internal'
p1054
I14
sS'directives'
p1055
I6
sS'euromanagement'
p1056
I4
sS'absorbtion'
p1057
I1
sS'play'
p1058
I9
sS'newspaper.the'
p1059
I1
sS'said.a'
p1060
I1
sS'unused'
p1061
I2
sS'plan'
p1062
I12
sS'singled'
p1063
I1
sS'cover'
p1064
I6
sS'researchers'
p1065
I1
sS'recession.ironically'
p1066
I2
sS'97/207/ec'
p1067
I1
sS'25-29'
p1068
I1
sS'goldthwait'
p1069
I5
sS'session'
p1070
I66
sS'freight'
p1071
I1
sS'entity'
p1072
I1
sS'impact'
p1073
I34
sS'rwanda.u.n'
p1074
I1
sS'indicator'
p1075
I2
sS'parliament.spain'
p1076
I1
sS'contrary.arentz'
p1077
I1
sS'failed'
p1078
I22
sS'bastion'
p1079
I3
sS'condon'
p1080
I2
sS'factor'
p1081
I8
sS'banned'
p1082
I7
sS'76/769/eec'
p1083
I4
sS'preparing'
p1084
I6
sS'closely'
p1085
I3
sS'reporters'
p1086
I14
sS'behaviour.she'
p1087
I2
sS'crs'
p1088
I3
sS'banking'
p1089
I7
sS'said.according'
p1090
I1
sS'approaching'
p1091
I2
sS'set'
p1092
I51
sS'1.95206'
p1093
I1
sS'313'
p1094
I1
sS'sex'
p1095
I7
sS'said.within'
p1096
I1
sS'sea'
p1097
I16
sS'sem'
p1098
I2
sS'outward'
p1099
I1
sS'unsettling'
p1100
I2
sS'currently'
p1101
I8
sS'1156.thursday'
p1102
I2
sS'rejecting'
p1103
I1
sS'pickup'
p1104
I3
sS'respectively'
p1105
I2
sS'15th'
p1106
I2
sS'available'
p1107
I17
sS'drugs.the'
p1108
I2
sS'europa'
p1109
I5
sS'postponement'
p1110
I4
sS'respondents'
p1111
I5
sS'prospects'
p1112
I5
sS'improved'
p1113
I4
sS'connection'
p1114
I4
sS'voith'
p1115
I4
sS'let'
p1116
I11
sS'approve'
p1117
I8
sS'90/220'
p1118
I1
sS'acted'
p1119
I4
sS'community'
p1120
I59
sS'agents'
p1121
I3
sS'scottish'
p1122
I4
sS'indefinite'
p1123
I1
sS'monthly'
p1124
I10
sS'initiation'
p1125
I1
sS'carelie'
p1126
I1
sS'firm'
p1127
I5
sS'said.bjeregaard'
p1128
I2
sS'wednesday.earlier'
p1129
I1
sS'me97/3.4'
p1130
I1
sS'miert'
p1131
I2
sS'7928'
p1132
I3
sS'fund'
p1133
I7
sS'representative'
p1134
I5
sS'handling'
p1135
I5
sS'uncertain'
p1136
I1
sS'judicial'
p1137
I1
sS'reliable'
p1138
I2
sS'expanded'
p1139
I14
sS'88/599/eec'
p1140
I2
sS'budget'
p1141
I38
sS'receive'
p1142
I2
sS'1.as'
p1143
I2
sS'radio.calling'
p1144
I1
sS'error'
p1145
I2
sS'scheduled'
p1146
I17
sS'pound'
p1147
I16
sS'hoping'
p1148
I3
sS'37'
p1149
I3
sS'von'
p1150
I2
sS'binding'
p1151
I2
sS'triple'
p1152
I1
sS'resurrect'
p1153
I1
sS'shorter'
p1154
I1
sS'jobs.hermann'
p1155
I1
sS'resulting'
p1156
I1
sS'summit.if'
p1157
I2
sS'chances.europe'
p1158
I1
sS'levels'
p1159
I21
sS'17brussels'
p1160
I4
sS'necessity'
p1161
I3
sS'recent'
p1162
I23
sS'restored.the'
p1163
I2
sS'businesses.well'
p1164
I1
sS'liaison'
p1165
I1
sS'clearance'
p1166
I5
sS'knp'
p1167
I2
sS'occidentale'
p1168
I1
sS'named'
p1169
I2
sS'militiamen'
p1170
I1
sS'8brussels'
p1171
I2
sS'eagerly'
p1172
I1
sS'entry.latvia'
p1173
I1
sS'sheepmeat'
p1174
I1
sS'conclusions'
p1175
I8
sS'admission'
p1176
I1
sS'andorra'
p1177
I4
sS'rights.athens'
p1178
I1
sS'location'
p1179
I3
sS'relevance'
p1180
I16
sS'input'
p1181
I1
sS'surprised'
p1182
I1
sS'emergency'
p1183
I1
sS'demands'
p1184
I4
sS'couple'
p1185
I7
sS'curbs.industry'
p1186
I1
sS'cottrell'
p1187
I1
sS'413/97'
p1188
I1
sS'suffering'
p1189
I2
sS'projects'
p1190
I3
sS'formal'
p1191
I9
sS'imposed'
p1192
I8
sS'104/03'
p1193
I1
sS'consensus'
p1194
I3
sS'communications'
p1195
I6
sS'continue'
p1196
I23
sS'yields'
p1197
I1
sS'election.the'
p1198
I1
sS'ivan'
p1199
I1
sS'suppliers'
p1200
I2
sS'reelection'
p1201
I2
sS'methods'
p1202
I22
sS'sheraton'
p1203
I3
sS'spring'
p1204
I3
sS'8682'
p1205
I1
sS'mighty'
p1206
I1
sS'sight'
p1207
I1
sS'vilnius'
p1208
I1
sS'steinbrueck'
p1209
I2
sS'preocess'
p1210
I1
sS'veterinary'
p1211
I30
sS'agoprobability'
p1212
I1
sS'departures.ground'
p1213
I1
sS'slovenia'
p1214
I2
sS'dating'
p1215
I1
sS'moment.both'
p1216
I1
sS'ba'
p1217
I2
sS'bi'
p1218
I1
sS'bt'
p1219
I8
sS'relating'
p1220
I45
sS'dilution'
p1221
I1
sS'wildlife'
p1222
I5
sS'blackburn'
p1223
I1
sS'2930/986'
p1224
I2
sS'clinton'
p1225
I2
sS'america.but'
p1226
I1
sS'doubters'
p1227
I2
sS'appropriate'
p1228
I7
sS'1997-1998.strasbourg'
p1229
I2
sS'selected'
p1230
I1
sS'primarily'
p1231
I3
sS'cecop'
p1232
I6
sS'spending'
p1233
I10
sS'bargaining'
p1234
I2
sS'submit'
p1235
I1
sS'deutschemark'
p1236
I4
sS'quantityproposal'
p1237
I1
sS'considerably'
p1238
I1
sS'jewish'
p1239
I3
sS'cologne'
p1240
I2
sS'vowing'
p1241
I1
sS'talks.strasbourg'
p1242
I2
sS'link'
p1243
I9
sS'pacific'
p1244
I6
sS'ling'
p1245
I1
sS'line'
p1246
I16
sS'considerable'
p1247
I3
sS'cif'
p1248
I2
sS'cis'
p1249
I1
sS'morocco'
p1250
I3
sS'midday'
p1251
I6
sS'uk'
p1252
I22
sS'retaliatory'
p1253
I1
sS'reconcile'
p1254
I2
sS'influence'
p1255
I2
sS'diverse'
p1256
I2
sS'fixing'
p1257
I33
sS'uranium'
p1258
I1
sS'957'
p1259
I3
sS'said.traders'
p1260
I1
sS'demirel'
p1261
I1
sS'elements'
p1262
I3
sS'sided'
p1263
I2
sS'lufthansa'
p1264
I7
sS'maxium'
p1265
I1
sS'technologies.the'
p1266
I1
sS'swaps'
p1267
I1
sS'ago'
p1268
I10
sS'0.566'
p1269
I1
sS'land'
p1270
I4
sS'0.563'
p1271
I2
sS'age'
p1272
I2
sS'0.568'
p1273
I2
sS'summit'
p1274
I23
sS'12.13'
p1275
I1
sS'differences.turkey'
p1276
I1
sS'fresh'
p1277
I5
sS'having'
p1278
I6
sS'unitas.the'
p1279
I1
sS'said.analysts'
p1280
I2
sS'partial'
p1281
I3
sS'incorporate'
p1282
I1
sS'arentz'
p1283
I2
sS'informally'
p1284
I2
sS'results'
p1285
I8
sS'existing'
p1286
I2
sS'bva'
p1287
I1
sS'407.3'
p1288
I1
sS'luxembourg'
p1289
I23
sS'shrugged'
p1290
I2
sS'0.690'
p1291
I1
sS'0.691'
p1292
I1
sS'turkish'
p1293
I10
sS'harvest'
p1294
I5
sS'concerned'
p1295
I5
sS'young'
p1296
I3
sS'year.chirac'
p1297
I1
sS'resources'
p1298
I4
sS'jurisdiction'
p1299
I1
sS'torture'
p1300
I3
sS'continues'
p1301
I1
sS'97/215/ec'
p1302
I1
sS'petitions'
p1303
I1
sS'animals'
p1304
I5
sS'continued'
p1305
I1
sS'categories'
p1306
I3
sS'timely'
p1307
I2
sS'northwestern'
p1308
I1
sS'f'
p1309
I1
sS'fewer'
p1310
I1
sS'anxious'
p1311
I2
sS'race'
p1312
I2
sS'thursday.but'
p1313
I2
sS'logistics'
p1314
I2
sS'farmers.a'
p1315
I1
sS'pledge'
p1316
I1
sS'597'
p1317
I2
sS'tunisian'
p1318
I4
sS'mediterranean'
p1319
I25
sS'scuart'
p1320
I2
sS'season.on'
p1321
I1
sS'environment.daman'
p1322
I1
sS'licenses'
p1323
I2
sS'assembly'
p1324
I3
sS'odd'
p1325
I2
sS'0.328'
p1326
I2
sS'directive'
p1327
I169
sS'dollar.britain'
p1328
I2
sS'expressed'
p1329
I5
sS'laxity'
p1330
I1
sS'consistently'
p1331
I1
sS'progess'
p1332
I1
sS'firms'
p1333
I7
sS'lea'
p1334
I4
sS'scepticism'
p1335
I2
sS'led'
p1336
I10
sS'logbooks'
p1337
I2
sS'gathered'
p1338
I4
sS'len'
p1339
I1
sS'delivering'
p1340
I2
sS'poverty'
p1341
I3
sS'directive.tuesday'
p1342
I1
sS'licence'
p1343
I6
sS'great'
p1344
I7
sS'technical'
p1345
I17
sS'involved'
p1346
I3
sS'rehabilitation'
p1347
I1
sS'survey'
p1348
I17
sS'derby'
p1349
I4
sS'opinion'
p1350
I16
sS'residents'
p1351
I1
sS'maker'
p1352
I1
sS'involves'
p1353
I2
sS'complying'
p1354
I1
sS'toole'
p1355
I1
sS'331'
p1356
I6
sS'emu.following'
p1357
I1
sS'standing'
p1358
I8
sS'confidence'
p1359
I11
sS'cheered'
p1360
I3
sS'certificate'
p1361
I3
sS'illegal'
p1362
I1
sS'whipping'
p1363
I1
sS'ministers'
p1364
I61
sS'memo/97/33'
p1365
I1
sS'doubt'
p1366
I5
sS'memo/97/37'
p1367
I1
sS'memo/97/36'
p1368
I1
sS'maasetricht'
p1369
I1
sS'memo/97/34'
p1370
I1
sS'doubling'
p1371
I2
sS'year.csu'
p1372
I1
sS'41.6'
p1373
I1
sS'occurred'
p1374
I7
sS'dealings'
p1375
I4
sS'carrying'
p1376
I2
sS'sharply'
p1377
I7
sS'central'
p1378
I32
sS'customer'
p1379
I1
sS'lannoye'
p1380
I3
sS'practicing'
p1381
I2
sS'challenge'
p1382
I6
sS'1.42'
p1383
I2
sS'weaker'
p1384
I4
sS'bent'
p1385
I2
sS'process'
p1386
I30
sS'lock'
p1387
I1
sS'slim'
p1388
I3
sS'purposes'
p1389
I3
sS'high'
p1390
I28
sS'slip'
p1391
I1
sS'blvd'
p1392
I2
sS'thursday.he'
p1393
I1
sS'weaken'
p1394
I5
sS'destroying'
p1395
I1
sS'reuter'
p1396
I21
sS'delay'
p1397
I23
sS'animal'
p1398
I23
sS'visas'
p1399
I1
sS'establishment'
p1400
I3
sS'countries.the'
p1401
I2
sS'await'
p1402
I1
sS'halted'
p1403
I10
sS'weighed'
p1404
I1
sS'205.899'
p1405
I1
sS'ties'
p1406
I3
sS'efficiently'
p1407
I3
sS'fellman'
p1408
I2
sS'communityproposal'
p1409
I1
sS'nickel'
p1410
I6
sS'counter'
p1411
I3
sS'tutsis'
p1412
I1
sS'commodities'
p1413
I3
sS'nancy'
p1414
I2
sS'alloy'
p1415
I1
sS'65,000'
p1416
I1
sS'producer'
p1417
I1
sS'produces'
p1418
I2
sS'produced'
p1419
I5
sS'1997.european'
p1420
I1
sS'circumstances.the'
p1421
I1
sS'chosen'
p1422
I2
sS'meantime'
p1423
I3
sS'instruments'
p1424
I3
sS'designs'
p1425
I2
sS'3075.brussels'
p1426
I2
sS'outlined'
p1427
I2
sS'empirica'
p1428
I3
sS'disrupted'
p1429
I4
sS'cusi'
p1430
I3
sS'stabilise'
p1431
I1
sS'previously.the'
p1432
I1
sS'transparent'
p1433
I1
sS'fragmented'
p1434
I4
sS'said.european'
p1435
I2
sS'recapitalised'
p1436
I1
sS'165.305'
p1437
I1
sS'oppostion'
p1438
I1
sS'said.korean'
p1439
I2
sS'3.072'
p1440
I1
sS'5111.monday'
p1441
I2
sS'shortage'
p1442
I4
sS'accounts'
p1443
I7
sS'doing'
p1444
I5
sS'societe'
p1445
I2
sS'1600/1400'
p1446
I3
sS'society'
p1447
I9
sS'agriculture'
p1448
I37
sS'0.738845'
p1449
I1
sS'fundamentally'
p1450
I2
sS'rigging'
p1451
I1
sS'favours'
p1452
I1
sS'evacuation'
p1453
I2
sS'1998proposal'
p1454
I1
sS'burke'
p1455
I1
sS'6851fax'
p1456
I3
sS'grilled'
p1457
I1
sS'loomed'
p1458
I1
sS'ignominious'
p1459
I2
sS'regulatory'
p1460
I3
sS'steering'
p1461
I2
sS'ratification'
p1462
I8
sS'stoppage'
p1463
I1
sS'ueapme'
p1464
I2
sS'owned'
p1465
I4
sS'popularity.many'
p1466
I2
sS'starker'
p1467
I2
sS'buoyed'
p1468
I1
sS'legislative'
p1469
I3
sS'sharon'
p1470
I3
sS'7717'
p1471
I1
sS'engva'
p1472
I4
sS'94/58/ec'
p1473
I2
sS'painful'
p1474
I3
sS'interests'
p1475
I31
sS'enforcement'
p1476
I1
sS'stomach'
p1477
I2
sS'agreements.the'
p1478
I1
sS'12brussels'
p1479
I2
sS'colleagues'
p1480
I2
sS'briefing'
p1481
I13
sS'stricter'
p1482
I2
sS'accusing'
p1483
I1
sS'stopovers'
p1484
I2
sS'partnership'
p1485
I16
sS'friday.de'
p1486
I1
sS'clearly'
p1487
I3
sS'viewed'
p1488
I1
sS'prohibits'
p1489
I1
sS'documents'
p1490
I7
sS'ministeries'
p1491
I2
sS'mills'
p1492
I1
sS'hesitations'
p1493
I1
sS'mechanism'
p1494
I9
sS'korean'
p1495
I15
sS'injunctions'
p1496
I3
sS'persistence'
p1497
I1
sS'allow'
p1498
I28
sS'conclave'
p1499
I4
sS'thought.active'
p1500
I1
sS'carcasses'
p1501
I2
sS'594/97'
p1502
I1
sS'stronger'
p1503
I3
sS'face'
p1504
I7
sS'2121.tuesday'
p1505
I3
sS'mechanical'
p1506
I2
sS'engineering.lgew'
p1507
I1
sS'fact'
p1508
I8
sS'brazauskas'
p1509
I1
sS'turkey.brussels'
p1510
I2
sS'1.886'
p1511
I1
sS'bring'
p1512
I11
sS'down.this'
p1513
I2
sS'asylum'
p1514
I3
sS'economist'
p1515
I14
sS'brink'
p1516
I2
sS'decade'
p1517
I4
sS'principal'
p1518
I1
sS'terminal'
p1519
I1
sS'riding'
p1520
I1
sS'190.5'
p1521
I1
sS'hope'
p1522
I6
sS'meant'
p1523
I7
sS'bonds'
p1524
I3
sS'producers.but'
p1525
I1
sS'holidays.sunday'
p1526
I2
sS'91,200'
p1527
I3
sS'molasses'
p1528
I6
sS'exchanges'
p1529
I1
sS'182,500'
p1530
I1
sS'positivesession'
p1531
I1
sS'vessels.luxembourg'
p1532
I2
sS'committees'
p1533
I2
sS'denmark'
p1534
I9
sS'taxes'
p1535
I17
sS'haris'
p1536
I1
sS'rein'
p1537
I2
sS'776'
p1538
I1
sS'december.germany'
p1539
I1
sS'guessing'
p1540
I1
sS'temporarily'
p1541
I2
sS'agricultural'
p1542
I10
sS'bidders'
p1543
I1
sS'packed'
p1544
I2
sS'179.220'
p1545
I1
sS'extend'
p1546
I5
sS'nuclear'
p1547
I4
sS'partisan'
p1548
I2
sS'49-228-26097150'
p1549
I1
sS'ends'
p1550
I4
sS'explosive'
p1551
I2
sS'dogging'
p1552
I1
sS'belinda'
p1553
I1
sS'ets'
p1554
I1
sS'juhana'
p1555
I1
sS'invited'
p1556
I1
sS'deficits'
p1557
I19
sS'drug'
p1558
I8
sS'figures'
p1559
I7
sS'said.currently'
p1560
I1
sS'cl'
p1561
I3
sS'573'
p1562
I1
sS'reconstitution'
p1563
I1
sS'escudo'
p1564
I2
sS'clash'
p1565
I4
sS'allocated'
p1566
I2
sS'5432'
p1567
I3
sS'silvio'
p1568
I1
sS'midland'
p1569
I2
sS'quotas'
p1570
I6
sS'plants.eu'
p1571
I1
sS'29luxembourg'
p1572
I2
sS'waste'
p1573
I2
sS'13.7529'
p1574
I3
sS'13.7521'
p1575
I1
sS'coherence'
p1576
I2
sS'neighbour'
p1577
I2
sS'atlanto'
p1578
I2
sS'spain'
p1579
I17
sS'tonne'
p1580
I38
sS'rates.reliable'
p1581
I2
sS'3100.thursday'
p1582
I2
sS'unlabelled'
p1583
I3
sS'britains'
p1584
I3
sS'adminstration'
p1585
I2
sS'vi'
p1586
I1
sS'delaying'
p1587
I3
sS'site'
p1588
I1
sS'optimistic'
p1589
I2
sS'politics'
p1590
I4
sS'waigel'
p1591
I8
sS'turnover.and'
p1592
I1
sS'nerb'
p1593
I2
sS'newsroom'
p1594
I57
sS'intra'
p1595
I2
sS'309.432'
p1596
I1
sS'codecision'
p1597
I6
sS'importance.brussels'
p1598
I2
sS'outbreak'
p1599
I4
sS'terrorism'
p1600
I1
sS'repercussions'
p1601
I1
sS'phb'
p1602
I1
sS'forecasts'
p1603
I2
sS'1.67452'
p1604
I1
sS'198.202'
p1605
I3
sS'said.earlier'
p1606
I1
sS'colour'
p1607
I2
sS'indonesia'
p1608
I1
sS'k.3'
p1609
I1
sS'356'
p1610
I2
sS'7.75'
p1611
I2
sS'christos'
p1612
I1
sS'uncertain.only'
p1613
I1
sS'diversify'
p1614
I3
sS'0902.friday'
p1615
I2
sS'13no'
p1616
I1
sS'newest'
p1617
I1
sS'february.the'
p1618
I1
sS'softening'
p1619
I3
sS'sided.to'
p1620
I1
sS'predicts'
p1621
I1
sS'tansu'
p1622
I2
sS'1997/98'
p1623
I9
sS'paul'
p1624
I9
sS'matsushita'
p1625
I3
sS'generous'
p1626
I1
sS'valid'
p1627
I2
sS'cosmetics'
p1628
I3
sS'weu'
p1629
I1
sS'igc'
p1630
I11
sS'incomprensible'
p1631
I1
sS'straddling'
p1632
I2
sS'increased'
p1633
I9
sS'government'
p1634
I56
sS'chancellor'
p1635
I15
sS'86/362/eec'
p1636
I1
sS'increases'
p1637
I4
sS'desk'
p1638
I2
sS'belgium'
p1639
I15
sS'emma'
p1640
I3
sS'finnish'
p1641
I34
sS'criss'
p1642
I2
sS'3821/85'
p1643
I2
sS'replacement'
p1644
I1
sS'amendment'
p1645
I8
sS'carcinogens'
p1646
I5
sS'indications'
p1647
I2
sS'liquidation'
p1648
I1
sS'choosing'
p1649
I3
sS'ballot'
p1650
I1
sS'recognition'
p1651
I12
sS'contested'
p1652
I1
sS'avoid'
p1653
I7
sS'does'
p1654
I19
sS'borschette'
p1655
I1
sS'schedule'
p1656
I9
sS'selecting'
p1657
I1
sS'70,000'
p1658
I1
sS'pressure'
p1659
I17
sS'accompanied'
p1660
I4
sS'mathies'
p1661
I3
sS'yearcommission'
p1662
I2
sS'loans'
p1663
I4
sS'stage'
p1664
I21
sS'1100/0900'
p1665
I4
sS'life.it'
p1666
I2
sS'5573for'
p1667
I3
sS'seeds'
p1668
I4
sS'revise'
p1669
I2
sS'executives'
p1670
I4
sS'burma'
p1671
I2
sS'alliance'
p1672
I7
sS'letters'
p1673
I1
sS'suited'
p1674
I1
sS'unfavourable'
p1675
I1
sS'catherine'
p1676
I1
sS'commitment'
p1677
I8
sS'wineproposal'
p1678
I1
sS'assess'
p1679
I3
sS'erect'
p1680
I2
sS'prefixed'
p1681
I1
sS'mere'
p1682
I1
sS'spots'
p1683
I1
sS'0.715'
p1684
I1
sS'recognised'
p1685
I4
sS'slovakia'
p1686
I1
sS'9.2'
p1687
I1
sS'9.3'
p1688
I1
sS'function'
p1689
I2
sS'building'
p1690
I9
sS'577/97'
p1691
I1
sS'capacities.it'
p1692
I1
sS'construction'
p1693
I4
sS'convergence'
p1694
I27
sS'places'
p1695
I5
sS'official'
p1696
I65
sS'june.monday'
p1697
I2
sS'positions.it'
p1698
I2
sS'convince'
p1699
I2
sS'thursday.chambliss'
p1700
I1
sS'problem'
p1701
I19
sS'irish'
p1702
I5
sS'contribute'
p1703
I1
sS'slowing'
p1704
I2
sS'bloc.countries'
p1705
I2
sS'meetings.strasbourg'
p1706
I2
sS'benelux'
p1707
I1
sS'deeper'
p1708
I1
sS'tonnes.most'
p1709
I1
sS'compared'
p1710
I14
sS'ecofin'
p1711
I20
sS'19luxembourg'
p1712
I2
sS'pace.nor'
p1713
I2
sS'compares'
p1714
I1
sS'details'
p1715
I3
sS'part.fudging'
p1716
I1
sS'haferkamp'
p1717
I3
sS'acidification'
p1718
I2
sS'doubted'
p1719
I4
sS'monday'
p1720
I34
sS'chance'
p1721
I14
sS'25.00'
p1722
I1
sS'exposure'
p1723
I6
sS'rule'
p1724
I1
sS'compete'
p1725
I3
sS'plan.spain'
p1726
I1
sS'consolidated'
p1727
I1
sS'copy'
p1728
I2
sS'outlining'
p1729
I1
sS'coopers'
p1730
I1
sS'aeroports'
p1731
I1
sS'controversial'
p1732
I5
sS'oldest'
p1733
I1
sS'votes'
p1734
I12
sS'8787.salzburg'
p1735
I1
sS'groundwork'
p1736
I1
sS'neighbours'
p1737
I1
sS'voted'
p1738
I2
sS'worth'
p1739
I33
sS'perishable'
p1740
I1
sS'distort'
p1741
I2
sS'other.drazek'
p1742
I1
sS'blanked'
p1743
I1
sS'exporters'
p1744
I12
sS'monsanto'
p1745
I6
sS'595/97'
p1746
I1
sS'robles'
p1747
I3
sS'299'
p1748
I2
sS'abolishing'
p1749
I1
sS'undercover'
p1750
I4
sS'phones'
p1751
I1
sS'ornstein'
p1752
I4
sS'approximation'
p1753
I14
sS'aeronautica'
p1754
I4
sS'rouen'
p1755
I3
sS'rigorous'
p1756
I1
sS'council.whether'
p1757
I1
sS'refrained'
p1758
I1
sS'established'
p1759
I3
sS'deliberate'
p1760
I2
sS'churches'
p1761
I1
sS'officially'
p1762
I3
sS'consisting'
p1763
I4
sS'told'
p1764
I63
sS'synthetic'
p1765
I1
sS'chaotic'
p1766
I1
sS'conglomerate'
p1767
I1
sS'protection'
p1768
I27
sS'feedstuffs'
p1769
I2
sS'obtained'
p1770
I5
sS'12palermo'
p1771
I3
sS'items'
p1772
I7
sS'study'
p1773
I10
sS'envoy'
p1774
I2
sS'smoke'
p1775
I2
sS'stressed'
p1776
I9
sS'postponed'
p1777
I6
sS'said.jospin'
p1778
I1
sS'secure'
p1779
I2
sS'marianne'
p1780
I2
sS'angrily'
p1781
I2
sS'highly'
p1782
I3
sS'29.03.97dkr'
p1783
I3
sS'thursday'
p1784
I82
sS'18brussels'
p1785
I2
sS'total'
p1786
I18
sS'aftonbladet.the'
p1787
I1
sS'palestinian'
p1788
I2
sS'196.414'
p1789
I1
sS'coins'
p1790
I7
sS'negative'
p1791
I9
sS'added.kok'
p1792
I2
sS'3478/92'
p1793
I1
sS'20-seat'
p1794
I1
sS'award'
p1795
I6
sS'aware'
p1796
I1
sS'kohl'
p1797
I31
sS'tariff'
p1798
I6
sS'blocking'
p1799
I3
sS'1991'
p1800
I2
sS'1990'
p1801
I3
sS'1993'
p1802
I2
sS'1992'
p1803
I6
sS'1995'
p1804
I19
sS'1994'
p1805
I5
sS'1997'
p1806
I105
sS'permits'
p1807
I1
sS'1999'
p1808
I55
sS'1998'
p1809
I30
sS'work'
p1810
I33
sS'turkey.nato'
p1811
I1
sS'era'
p1812
I1
sS'erc'
p1813
I1
sS'erm'
p1814
I14
sS'telecom.franco'
p1815
I1
sS'weeks.the'
p1816
I1
sS'dahl'
p1817
I1
sS'india'
p1818
I1
sS'552'
p1819
I3
sS'8.32'
p1820
I1
sS'22,000'
p1821
I2
sS'2.19828'
p1822
I1
sS'said.sweden'
p1823
I1
sS'recovery'
p1824
I9
sS'carriers'
p1825
I6
sS'provide'
p1826
I8
sS'13.99'
p1827
I1
sS'interview'
p1828
I16
sS'offshore'
p1829
I2
sS'fever'
p1830
I1
sS'earlier'
p1831
I16
sS'customs'
p1832
I4
sS'techsnabexport'
p1833
I1
sS'sold.joining'
p1834
I1
sS'law'
p1835
I12
sS'correctives'
p1836
I1
sS'supermarkets'
p1837
I3
sS'greek'
p1838
I9
sS'green'
p1839
I15
sS'order'
p1840
I21
sS'interamerican'
p1841
I3
sS'1973.93'
p1842
I3
sS'office'
p1843
I10
sS'meeting.strasbourg'
p1844
I1
sS'6.0'
p1845
I2
sS'japan'
p1846
I24
sS'mayor'
p1847
I2
sS'available.wednesday'
p1848
I10
sS'highlights'
p1849
I6
sS'50,000'
p1850
I1
sS'production'
p1851
I27
sS'gmt.daman'
p1852
I1
sS'13.7509'
p1853
I1
sS'versus'
p1854
I4
sS'eventually'
p1855
I1
sS'coffee'
p1856
I2
sS'affected'
p1857
I5
sS'bans'
p1858
I5
sS'conference.the'
p1859
I4
sS'notice.in'
p1860
I1
sS'safe'
p1861
I4
sS'break'
p1862
I1
sS'band'
p1863
I2
sS'heike'
p1864
I1
sS'598/97'
p1865
I1
sS'bank'
p1866
I33
sS'1.00'
p1867
I2
sS'tampering'
p1868
I2
sS'shepperd'
p1869
I6
sS'reasonably'
p1870
I1
sS'classified'
p1871
I1
sS'l'
p1872
I1
sS'reasonable'
p1873
I4
sS'370'
p1874
I1
sS'375'
p1875
I1
sS'schemes'
p1876
I1
sS'dumping'
p1877
I12
sS'1.68041'
p1878
I1
sS'extrajudicial'
p1879
I1
sS'network'
p1880
I11
sS'diesel'
p1881
I3
sS'vessels'
p1882
I5
sS'moratinos'
p1883
I3
sS'1996/97'
p1884
I4
sS'oskar'
p1885
I2
sS'veto'
p1886
I2
sS'qualifications'
p1887
I3
sS'standard'
p1888
I6
sS'disputes'
p1889
I6
sS'estevez'
p1890
I3
sS'meat.the'
p1891
I1
sS'created'
p1892
I3
sS'refugee'
p1893
I1
sS'here.stoiber'
p1894
I1
sS'baltic'
p1895
I9
sS'benchmarking'
p1896
I3
sS'2/97'
p1897
I1
sS'9030.strasbourg'
p1898
I3
sS'97/206/ec'
p1899
I1
sS'creators.its'
p1900
I1
sS'electronic'
p1901
I18
sS'confectionery'
p1902
I2
sS'hedging'
p1903
I1
sS'sidewind'
p1904
I4
sS"o'toole"
p1905
I1
sS'3.310'
p1906
I2
sS'approximately'
p1907
I2
sS'koskela'
p1908
I3
sS'rates'
p1909
I48
sS'76/207/eec'
p1910
I4
sS'said.second'
p1911
I1
sS'john'
p1912
I4
sS'40th'
p1913
I1
sS'damaging'
p1914
I1
sS'rejected'
p1915
I8
sS'wastes'
p1916
I2
sS'10brussels'
p1917
I8
sS'cereal'
p1918
I4
sS'1936.70'
p1919
I1
sS'mercy'
p1920
I1
sS'fuelled'
p1921
I2
sS'target'
p1922
I6
sS'rate'
p1923
I45
sS'historical'
p1924
I1
sS'minus'
p1925
I1
sS'500,000'
p1926
I2
sS'contents'
p1927
I10
sS'3.780'
p1928
I1
sS'forced'
p1929
I11
sS'strength'
p1930
I1
sS'genuine'
p1931
I1
sS'criteria.turkey'
p1932
I1
sS'magnus'
p1933
I1
sS'subjects'
p1934
I19
sS'forces'
p1935
I2
sS'1997-2001'
p1936
I1
sS'circles'
p1937
I1
sS'conference.finance'
p1938
I1
sS'400,000'
p1939
I2
sS'iceland'
p1940
I2
sS'involving'
p1941
I11
sS'germany'
p1942
I66
sS'phase'
p1943
I5
sS'cereol'
p1944
I1
sS'germans'
p1945
I5
sS'consumers'
p1946
I21
sS'enshrined'
p1947
I1
sS'voting'
p1948
I3
sS'responded'
p1949
I4
sS'fitted'
p1950
I1
sS'ham.under'
p1951
I2
sS'7.5'
p1952
I1
sS'implementation'
p1953
I10
sS'guidance'
p1954
I4
sS'jiminez'
p1955
I3
sS'discretionary'
p1956
I1
sS'pursuing'
p1957
I1
sS'adequate'
p1958
I4
sS'steel'
p1959
I10
sS'survey.germany'
p1960
I1
sS'di'
p1961
I4
sS'dg'
p1962
I3
sS'nasty'
p1963
I1
sS'moment.hoelgaard'
p1964
I1
sS'uncertain.women'
p1965
I1
sS'covering'
p1966
I3
sS'emi'
p1967
I12
sS'97/122/ec'
p1968
I1
sS'emu'
p1969
I251
sS'capitalised'
p1970
I1
sS'95/2/ec'
p1971
I1
sS'412'
p1972
I2
sS'insurgents'
p1973
I2
sS'fall.but'
p1974
I2
sS'secretary'
p1975
I12
sS'uninhabited'
p1976
I1
sS'103/06'
p1977
I1
sS'7.44634'
p1978
I1
sS'depends'
p1979
I3
sS'cattle'
p1980
I3
sS'discussions'
p1981
I24
sS'techniques'
p1982
I2
sS'subsidies.traders'
p1983
I1
sS'away'
p1984
I1
sS'sweden'
p1985
I33
sS'bracing'
p1986
I1
sS'cooperation'
p1987
I59
sS'r&d'
p1988
I1
sS'drawn'
p1989
I2
sS'accord'
p1990
I11
sS'terms'
p1991
I16
sS'handful'
p1992
I2
sS'unfold'
p1993
I1
sS'foes'
p1994
I2
sS'1998.the'
p1995
I1
sS'cow'
p1996
I18
sS'vallelersundi'
p1997
I3
sS'mercosur'
p1998
I3
sS'cod'
p1999
I4
sS'ecus.that'
p2000
I1
sS'requests'
p2001
I3
sS'com'
p2002
I11
sS'tough'
p2003
I8
sS'excess'
p2004
I1
sS'thierry'
p2005
I4
sS'schedule.german'
p2006
I1
sS'tony'
p2007
I9
sS'zeitung.commerzbank'
p2008
I1
sS'telecommunications'
p2009
I12
sS'7.79665'
p2010
I1
sS'nomura'
p2011
I1
sS'condemned'
p2012
I1
sS'sachs'
p2013
I3
sS'accentuate'
p2014
I1
sS'flexible'
p2015
I2
sS'duties'
p2016
I3
sS'concerning'
p2017
I50
sS'm.912'
p2018
I1
sS'1997/98proposal'
p2019
I1
sS'applied'
p2020
I4
sS'90/88/eec'
p2021
I3
sS'competition.the'
p2022
I1
sS'air'
p2023
I30
sS'aim'
p2024
I5
sS"l'europe"
p2025
I3
sS'aid'
p2026
I44
sS'voice'
p2027
I3
sS'launched'
p2028
I9
sS'cons'
p2029
I4
sS'sousa'
p2030
I1
sS'dumped'
p2031
I1
sS'patent'
p2032
I1
sS'authorise'
p2033
I1
sS'wheel'
p2034
I2
sS'independent'
p2035
I5
sS'emphasise'
p2036
I1
sS'nil'
p2037
I1
sS'rail'
p2038
I3
sS'counterparts'
p2039
I1
sS'hand'
p2040
I6
sS'norwegian'
p2041
I14
sS'hans'
p2042
I10
sS'blamed'
p2043
I1
sS'kept'
p2044
I1
sS'2000.the'
p2045
I1
sS'scenario'
p2046
I2
sS'1978'
p2047
I5
sS'1976'
p2048
I2
sS'1974'
p2049
I1
sS'epp'
p2050
I4
sS'options'
p2051
I8
sS'contact'
p2052
I76
sS'centres'
p2053
I2
sS'camps'
p2054
I4
sS'quoted'
p2055
I3
sS'thanks'
p2056
I2
sS'sabbatical'
p2057
I1
sS'jose'
p2058
I5
sS'markka.the'
p2059
I2
sS'unique'
p2060
I3
sS'timetable.but'
p2061
I1
sS'1979'
p2062
I1
sS'spread'
p2063
I6
sS'further.this'
p2064
I1
sS'board'
p2065
I7
sS'decision.in'
p2066
I1
sS'fares'
p2067
I6
sS'troika'
p2068
I3
sS'said.authorities'
p2069
I1
sS'arab'
p2070
I9
sS'fusion'
p2071
I2
sS'unification'
p2072
I3
sS'unfounded'
p2073
I2
sS'retreat'
p2074
I2
sS'disadvantage'
p2075
I4
sS'utilisation'
p2076
I2
sS'537'
p2077
I3
sS'added.in'
p2078
I1
sS'1.36'
p2079
I2
sS'bosnians.brussels'
p2080
I1
sS'security'
p2081
I15
sS'portuguese'
p2082
I6
sS'ways'
p2083
I2
sS'korea'
p2084
I14
sS'understand'
p2085
I5
sS'6.57598'
p2086
I1
sS'high.while'
p2087
I2
sS'585/97'
p2088
I1
sS'comments'
p2089
I5
sS'denied'
p2090
I4
sS'participation'
p2091
I12
sS'emu.almost'
p2092
I1
sS'marketing'
p2093
I20
sS'restructuring'
p2094
I6
sS'plc'
p2095
I1
sS'peer'
p2096
I2
sS'post'
p2097
I5
sS'maastricht'
p2098
I37
sS'months'
p2099
I16
sS'15-16.coll'
p2100
I2
sS'horizon'
p2101
I2
sS'jacques'
p2102
I1
sS'3286/94'
p2103
I1
sS'considerations'
p2104
I2
sS'wasting'
p2105
I3
sS'float'
p2106
I1
sS'profession'
p2107
I2
sS'bound'
p2108
I2
sS'balances'
p2109
I1
sS'jewsih'
p2110
I1
sS'found.major'
p2111
I1
sS'capped'
p2112
I1
sS'formidable'
p2113
I10
sS'conciliation'
p2114
I5
sS'legislation'
p2115
I9
sS'fight'
p2116
I19
sS'agreement.the'
p2117
I1
sS'conservation'
p2118
I17
sS'way'
p2119
I22
sS'accords'
p2120
I2
sS'war'
p2121
I18
sS'lowest'
p2122
I5
sS'visit.strasbourg'
p2123
I2
sS'sundry'
p2124
I2
sS'true'
p2125
I2
sS'responding'
p2126
I1
sS'maximum'
p2127
I15
sS'anew'
p2128
I1
sS'stranded'
p2129
I1
sS'83/189/eec'
p2130
I2
sS'moore'
p2131
I3
sS'evidence'
p2132
I5
sS'expertise'
p2133
I1
sS'promised'
p2134
I5
sS'0930/0730'
p2135
I1
sS'dying'
p2136
I1
sS'stake'
p2137
I3
sS'2.19788'
p2138
I1
sS'negotiators'
p2139
I7
sS'rwandan'
p2140
I2
sS'test'
p2141
I4
sS'husked'
p2142
I1
sS'brothers'
p2143
I1
sS'scheduled.if'
p2144
I1
sS'juices'
p2145
I2
sS'welcome'
p2146
I2
sS'convincing'
p2147
I2
sS'palestininan'
p2148
I2
sS'balloon'
p2149
I1
sS'fulfilled.the'
p2150
I1
sS'interval'
p2151
I1
sS'governed'
p2152
I1
sS'cohesion'
p2153
I3
sS'disruption.the'
p2154
I1
sS'precedent'
p2155
I1
sS'basically'
p2156
I1
sS'2115/77'
p2157
I2
sS'concept'
p2158
I3
sS'diplomacy'
p2159
I2
sS'global'
p2160
I15
sS'switches'
p2161
I2
sS'supplement'
p2162
I3
sS'battle'
p2163
I1
sS'certainly'
p2164
I6
sS'terron'
p2165
I3
sS'zone'
p2166
I2
sS'19.this'
p2167
I1
sS'division'
p2168
I4
sS'reported.the'
p2169
I1
sS'protective'
p2170
I2
sS'hannah'
p2171
I3
sS'woolly'
p2172
I1
sS'entries'
p2173
I2
sS'trouble'
p2174
I1
sS'perceived'
p2175
I6
sS'presented'
p2176
I4
sS'gum'
p2177
I4
sS'p'
p2178
I1
sS'gerstbrein'
p2179
I1
sS'governing'
p2180
I1
sS'4252/88'
p2181
I1
sS'29.03.97dra'
p2182
I3
sS'1030/0730'
p2183
I1
sS'cost'
p2184
I8
sS'9brussels'
p2185
I3
sS'acrimonious'
p2186
I2
sS'appear'
p2187
I1
sS'surive'
p2188
I1
sS'assistance'
p2189
I5
sS'shares'
p2190
I3
sS'uniform'
p2191
I2
sS'0.584379'
p2192
I1
sS'shared'
p2193
I1
sS'1017'
p2194
I4
sS'satisfy'
p2195
I1
sS'collateral'
p2196
I1
sS'inauguration'
p2197
I1
sS'genes'
p2198
I3
sS'ebner'
p2199
I3
sS'appears'
p2200
I3
sS'change'
p2201
I27
sS'sending'
p2202
I1
sS'incoming'
p2203
I7
sS'precursor'
p2204
I2
sS'tonnethe'
p2205
I1
sS'franklin'
p2206
I2
sS'endangers'
p2207
I1
sS'matrimonial'
p2208
I1
sS'regardless'
p2209
I4
sS'extra'
p2210
I4
sS'yearsproposal'
p2211
I1
sS'marked'
p2212
I1
sS'consumers.industry'
p2213
I2
sS'9luxembourg'
p2214
I4
sS'market'
p2215
I115
sS'forecasting.talk'
p2216
I1
sS'jan'
p2217
I2
sS'prove'
p2218
I6
sS'live'
p2219
I6
sS'commissioner'
p2220
I63
sS'towers'
p2221
I2
sS'commissioned'
p2222
I1
sS'597/97'
p2223
I1
sS'organizations'
p2224
I3
sS'ibj'
p2225
I1
sS'car'
p2226
I2
sS'incidents'
p2227
I1
sS'totalled'
p2228
I1
sS'trans'
p2229
I5
sS'stimulating'
p2230
I1
sS'december'
p2231
I48
sS'subsidies'
p2232
I24
sS'1980s'
p2233
I2
sS'heard'
p2234
I1
sS'deadline.the'
p2235
I1
sS'spd'
p2236
I9
sS'occur'
p2237
I1
sS'restitution'
p2238
I3
sS'discussion'
p2239
I5
sS'means'
p2240
I6
sS'wheat.uppermost'
p2241
I1
sS'write'
p2242
I1
sS'beat'
p2243
I5
sS'criterion'
p2244
I1
sS'godparents'
p2245
I1
sS'1430/1230'
p2246
I1
sS'economy'
p2247
I45
sS'product'
p2248
I18
sS'kellett'
p2249
I1
sS'said.asked'
p2250
I6
sS'escalate'
p2251
I7
sS'southern'
p2252
I3
sS'residues'
p2253
I4
sS'produce'
p2254
I5
sS'0.77'
p2255
I2
sS'0.75'
p2256
I3
sS'islands'
p2257
I1
sS'108,565'
p2258
I1
sS'drastic'
p2259
I1
sS'said.assessing'
p2260
I1
sS'lifting'
p2261
I2
sS'3/97'
p2262
I1
sS'brussel'
p2263
I2
sS'futures'
p2264
I2
sS'24luxembourg'
p2265
I2
sS'progressively'
p2266
I1
sS'idiosyncratic'
p2267
I2
sS'typical'
p2268
I1
sS'greenpeace'
p2269
I14
sS'displayed'
p2270
I8
sS'ended'
p2271
I5
sS'coll'
p2272
I4
sS'statistical'
p2273
I2
sS'cola'
p2274
I1
sS'3795'
p2275
I2
sS'metla'
p2276
I1
sS'reacting'
p2277
I1
sS'wednesday.briefing'
p2278
I1
sS'disguise'
p2279
I2
sS'norway'
p2280
I12
sS'non'
p2281
I30
sS'halt'
p2282
I16
sS'concessions.the'
p2283
I2
sS'introduce'
p2284
I15
sS'today.briefing'
p2285
I1
sS'half'
p2286
I9
sS'sweetener'
p2287
I8
sS'expedite'
p2288
I1
sS'4.047'
p2289
I1
sS'4.045'
p2290
I1
sS'january'
p2291
I34
sS'drop'
p2292
I4
sS'stockholm'
p2293
I5
sS'entirely'
p2294
I1
sS'en'
p2295
I2
sS'significantly'
p2296
I4
sS'cairo'
p2297
I1
sS'sugars'
p2298
I2
sS'ec'
p2299
I87
sS'challenges'
p2300
I2
sS'elections.kohl'
p2301
I1
sS'ex'
p2302
I1
sS'year'
p2303
I79
sS'eu'
p2304
I477
sS'et'
p2305
I1
sS'happen'
p2306
I8
sS'ep'
p2307
I73
sS'8.75'
p2308
I1
sS'shown'
p2309
I3
sS'accomplish'
p2310
I1
sS'opened'
p2311
I4
sS'space'
p2312
I1
sS'herve'
p2313
I1
sS'increase'
p2314
I18
sS'opener'
p2315
I1
sS'rational'
p2316
I1
sS'receiving'
p2317
I1
sS'viable'
p2318
I2
sS'shows'
p2319
I4
sS'25.but'
p2320
I1
sS'584/97'
p2321
I1
sS'cars'
p2322
I2
sS'diagnostic'
p2323
I2
sS'advantages'
p2324
I2
sS'rebel'
p2325
I1
sS'obligation'
p2326
I1
sS'marine'
p2327
I3
sS'lme'
p2328
I2
sS'care'
p2329
I2
sS'transition'
p2330
I3
sS'wednesday.a'
p2331
I3
sS'british'
p2332
I96
sS'industrialised'
p2333
I2
sS'product.the'
p2334
I2
sS'promotion'
p2335
I8
sS'1994-1997'
p2336
I2
sS'blind'
p2337
I1
sS'romania'
p2338
I1
sS'flying'
p2339
I1
sS'toulouse'
p2340
I2
sS'omitted'
p2341
I2
sS'variables'
p2342
I1
sS'tender.some'
p2343
I1
sS'directly'
p2344
I1
sS'impossible'
p2345
I5
sS'message'
p2346
I2
sS'forwarding'
p2347
I2
sS'tomorrow'
p2348
I1
sS'size'
p2349
I1
sS'sheet'
p2350
I1
sS'them.he'
p2351
I1
sS'93/16'
p2352
I2
sS'taxation'
p2353
I4
sS'subsidies.russia'
p2354
I1
sS'eliminated'
p2355
I1
sS'television'
p2356
I12
sS'transferred'
p2357
I2
sS'optimism'
p2358
I1
sS'liffe'
p2359
I1
sS'monopolies'
p2360
I1
sS'196.335'
p2361
I1
sS'dubai.israeli'
p2362
I1
sS'196.338'
p2363
I1
sS'andrius'
p2364
I1
sS'remained'
p2365
I5
sS'correction'
p2366
I1
sS'premier'
p2367
I2
sS'punctually'
p2368
I1
sS'slap'
p2369
I1
sS'jove'
p2370
I3
sS'anger'
p2371
I1
sS'recover'
p2372
I1
sS'authority.the'
p2373
I1
sS'manufacturers'
p2374
I6
sS'equipment'
p2375
I7
sS'objective'
p2376
I3
sS'deus'
p2377
I2
sS'authorising'
p2378
I4
sS'begin'
p2379
I11
sS'price'
p2380
I38
sS'5.15389'
p2381
I1
sS'lehne'
p2382
I3
sS'undertakings'
p2383
I2
sS'america'
p2384
I1
sS'forever'
p2385
I1
sS'implications'
p2386
I3
sS'1.glickman'
p2387
I1
sS'streamline'
p2388
I1
sS'ecas'
p2389
I2
sS'dispersed'
p2390
I1
sS'typically'
p2391
I4
sS'german'
p2392
I60
sS'25middelburg'
p2393
I1
sS'tonnage'
p2394
I6
sS'excerpts'
p2395
I1
sS'fifth'
p2396
I7
sS'ground'
p2397
I5
sS'annually.sparking'
p2398
I1
sS'said.hoelgaard'
p2399
I1
sS'ratio'
p2400
I4
sS'adolf'
p2401
I1
sS'proportion'
p2402
I6
sS'apply.standing'
p2403
I1
sS'settelement'
p2404
I1
sS'truly'
p2405
I2
sS'celebrate'
p2406
I1
sS'm.896'
p2407
I1
sS'm.891'
p2408
I1
sS'wholesalers.wednesday'
p2409
I3
sS'union.finance'
p2410
I1
sS'bulgaria'
p2411
I3
sS'salomon'
p2412
I1
sS'physically'
p2413
I1
sS'kiely'
p2414
I13
sS'elected'
p2415
I4
sS'actively'
p2416
I1
sS'unwin.thursday'
p2417
I2
sS'europeans'
p2418
I5
sS'israeli'
p2419
I2
sS'tackling'
p2420
I1
sS'wijers'
p2421
I2
sS'seekers'
p2422
I1
sS'materials'
p2423
I1
sS'colours'
p2424
I1
sS'bioindustries'
p2425
I3
sS'3'
p2426
I31
sS'complexion'
p2427
I4
sS'import'
p2428
I24
sS'notice'
p2429
I15
sS'competiting'
p2430
I1
sS'style'
p2431
I1
sS'blame'
p2432
I2
sS'ready.france'
p2433
I1
sS'article'
p2434
I28
sS'1000/0800'
p2435
I13
sS'passenger'
p2436
I3
sS'96/0164'
p2437
I2
sS'kisangani'
p2438
I4
sS'comes'
p2439
I3
sS'150'
p2440
I5
sS'overview'
p2441
I2
sS'learning'
p2442
I3
sS'proved'
p2443
I2
sS'differed.u.s'
p2444
I1
sS'cares'
p2445
I1
sS'absence'
p2446
I8
sS'systems'
p2447
I9
sS'krona'
p2448
I4
sS'krone'
p2449
I4
sS'restrictions'
p2450
I12
sS'pesticide'
p2451
I4
sS'observers'
p2452
I1
sS'external'
p2453
I8
sS'stems'
p2454
I1
sS'realities'
p2455
I6
sS'4-6'
p2456
I2
sS'developing'
p2457
I5
sS'accommodating'
p2458
I2
sS'eia'
p2459
I2
sS'crowley'
p2460
I5
sS'eib'
p2461
I2
sS'transactions'
p2462
I2
sS'sorghum'
p2463
I1
sS'official.russian'
p2464
I1
sS'embrace'
p2465
I1
sS'handled'
p2466
I1
sS'media'
p2467
I1
sS'angered'
p2468
I1
sS'document'
p2469
I19
sS'partcommission'
p2470
I1
sS'rules.the'
p2471
I1
sS'fruit'
p2472
I12
sS'complained'
p2473
I4
sS'8080'
p2474
I1
sS'charges'
p2475
I7
sS'yevgeny'
p2476
I3
sS'32nd'
p2477
I1
sS'severe'
p2478
I1
sS'puree'
p2479
I2
sS'coordinate'
p2480
I1
sS'ccd'
p2481
I1
sS'charged'
p2482
I2
sS'77'
p2483
I3
sS'livestock'
p2484
I1
sS'valuable'
p2485
I1
sS'sweeping'
p2486
I1
sS'cambodia'
p2487
I1
sS'touch'
p2488
I2
sS'suleyman'
p2489
I1
sS'speed'
p2490
I1
sS'renewed'
p2491
I2
sS'euros'
p2492
I3
sS'thinking'
p2493
I2
sS'conclude'
p2494
I5
sS'improvement'
p2495
I3
sS'treatment'
p2496
I5
sS'574/72'
p2497
I2
sS'republic'
p2498
I10
sS'participative'
p2499
I3
sS'disproportionate'
p2500
I3
sS'real'
p2501
I9
sS'laundering'
p2502
I1
sS'20brussels'
p2503
I4
sS'rules'
p2504
I52
sS'stung'
p2505
I1
sS'psg'
p2506
I1
sS'early'
p2507
I22
sS'campos'
p2508
I3
sS'unwrought'
p2509
I2
sS'using'
p2510
I4
sS'amr'
p2511
I3
sS'ruled'
p2512
I1
sS'pounds'
p2513
I4
sS'collective'
p2514
I7
sS'conference.wieczorek'
p2515
I1
sS'annually'
p2516
I5
sS'benefit'
p2517
I5
sS'97/212/ec'
p2518
I1
sS'output'
p2519
I7
sS'downward'
p2520
I2
sS'endorsed'
p2521
I2
sS'bellamy'
p2522
I1
sS'eddie'
p2523
I2
sS'recorded'
p2524
I1
sS'said.eu'
p2525
I2
sS'conservative'
p2526
I11
sS'deficit'
p2527
I19
sS'landmines'
p2528
I2
sS'comment.last'
p2529
I1
sS'wheat'
p2530
I36
sS'77/388/eec'
p2531
I15
sS'available.tuesday'
p2532
I4
sS'sixth'
p2533
I15
sS'equivalent'
p2534
I6
sS'strained'
p2535
I1
sS'1933'
p2536
I1
sS'fractured'
p2537
I1
sS'throw'
p2538
I1
sS'brighton'
p2539
I1
sS'comparison'
p2540
I2
sS'guarantees.strasbourg'
p2541
I2
sS'federation.but'
p2542
I2
sS'sri'
p2543
I1
sS'alleviated'
p2544
I1
sS'8.88067'
p2545
I1
sS'poultry.asked'
p2546
I1
sS'outlook'
p2547
I2
sS'protests'
p2548
I4
sS'inclusion'
p2549
I3
sS'1999.kohl'
p2550
I1
sS'shipbuilding'
p2551
I14
sS'available.milan'
p2552
I2
sS'europe.but'
p2553
I2
sS'shrinking'
p2554
I1
sS'intervention'
p2555
I19
sS'bronwyn'
p2556
I1
sS'forwarded'
p2557
I1
sS'prepare'
p2558
I5
sS'area'
p2559
I24
sS'assumed'
p2560
I1
sS'feuding'
p2561
I1
sS'start'
p2562
I78
sS'low'
p2563
I13
sS'lot'
p2564
I1
sS'assumes'
p2565
I1
sS'delayed'
p2566
I6
sS'wednesday.the'
p2567
I4
sS'trying'
p2568
I7
sS'irreversible'
p2569
I1
sS'fraud'
p2570
I6
sS'circulation'
p2571
I1
sS'5/9'
p2572
I1
sS'lawfully'
p2573
I2
sS'miguel'
p2574
I1
sS'u.s.the'
p2575
I1
sS'0.444'
p2576
I1
sS'600'
p2577
I1
sS'subdue'
p2578
I2
sS'company.fuel'
p2579
I1
sS'moved'
p2580
I3
sS'sales'
p2581
I9
sS'ojala'
p2582
I3
sS'orderbook'
p2583
I1
sS'moves'
p2584
I17
sS'93/37'
p2585
I2
sS'93/36'
p2586
I2
sS'credibility'
p2587
I5
sS'storage'
p2588
I2
sS'93/38'
p2589
I2
sS'intercontinental'
p2590
I3
sS'terminating'
p2591
I1
sS'forcing'
p2592
I4
sS'council.provisional'
p2593
I33
sS'poor'
p2594
I3
sS'1230/1030'
p2595
I1
sS'preconditions'
p2596
I2
sS'peak'
p2597
I1
sS'unattractive'
p2598
I1
sS'tuesday.hoelgaard'
p2599
I2
sS'fiscal'
p2600
I7
sS'bulk'
p2601
I1
sS'restored'
p2602
I2
sS'196.317'
p2603
I1
sS'precondition'
p2604
I1
sS'codification'
p2605
I2
sS'149389'
p2606
I1
sS'6666'
p2607
I3
sS'monti'
p2608
I7
sS'month'
p2609
I26
sS'slimming'
p2610
I1
sS'unrest'
p2611
I5
sS'deadline'
p2612
I15
sS'viability'
p2613
I3
sS'13,800'
p2614
I1
sS'economists.also'
p2615
I1
sS'referring'
p2616
I3
sS'pledged'
p2617
I4
sS'equivalence'
p2618
I1
sS'0930'
p2619
I1
sS'differ.hoelgaard'
p2620
I1
sS'equivalency'
p2621
I23
sS'dominated'
p2622
I1
sS'resounding'
p2623
I1
sS'confidential'
p2624
I1
sS'2.144'
p2625
I1
sS'multi'
p2626
I3
sS'balancing'
p2627
I1
sS'minded'
p2628
I1
sS'decide'
p2629
I9
sS'1994.european'
p2630
I1
sS'prohibitions'
p2631
I2
sS'whole.as'
p2632
I1
sS'reaffirming'
p2633
I1
sS'year.british'
p2634
I2
sS'opting'
p2635
I2
sS'enhancement'
p2636
I1
sS'1989-1994'
p2637
I1
sS'hamper'
p2638
I1
sS'penalise'
p2639
I3
sS'91,000'
p2640
I1
sS'tussle'
p2641
I1
sS'3911.brussels'
p2642
I2
sS'witnessed'
p2643
I1
sS'1.50268'
p2644
I1
sS'certificates'
p2645
I11
sS'friday'
p2646
I37
sS'modify'
p2647
I1
sS'75,000'
p2648
I1
sS'vegetablescommission'
p2649
I3
sS'tracks'
p2650
I2
sS'arthuis'
p2651
I3
sS'encephalopathies'
p2652
I2
sS'strong'
p2653
I19
sS'eurodac'
p2654
I1
sS'report.germany'
p2655
I1
sS'lome'
p2656
I5
sS'ahead'
p2657
I21
sS'inspired'
p2658
I3
sS'losses'
p2659
I1
sS'advertising'
p2660
I1
sS'family'
p2661
I1
sS'requiring'
p2662
I1
sS'maystadt'
p2663
I2
sS'aimed'
p2664
I4
sS'zeitung'
p2665
I1
sS'huis'
p2666
I3
sS'conventional'
p2667
I2
sS'takes'
p2668
I4
sS'saxony'
p2669
I1
sS'probabilities'
p2670
I1
sS'0.792'
p2671
I1
sS'oecd'
p2672
I14
sS'taken'
p2673
I31
sS'authorization'
p2674
I1
sS'chestnut'
p2675
I2
sS'lowering'
p2676
I1
sS'european.lufthansa'
p2677
I1
sS'regrettable'
p2678
I5
sS'vagnorius'
p2679
I1
sS'broke'
p2680
I2
sS'institute.the'
p2681
I1
sS'producing'
p2682
I1
sS'87/012/eec'
p2683
I3
sS'coalition'
p2684
I1
sS'xylitol'
p2685
I15
sS'xylitor'
p2686
I1
sS'budgets'
p2687
I2
sS'yemen'
p2688
I4
sS'history'
p2689
I1
sS'743'
p2690
I1
sS'europe-1'
p2691
I1
sS'tenor'
p2692
I2
sS'pushed'
p2693
I1
sS'monday.clashes'
p2694
I1
sS'exclude'
p2695
I1
sS'lacks'
p2696
I1
sS'species'
p2697
I2
sS'firmly'
p2698
I1
sS'processors'
p2699
I3
sS'chops'
p2700
I2
sS'1999.britain'
p2701
I3
sS'utilize'
p2702
I1
sS'ratified'
p2703
I5
sS'foreseen'
p2704
I1
sS'foresees'
p2705
I1
sS'robilant'
p2706
I4
sS'reject'
p2707
I1
sS'controversially'
p2708
I2
sS'tried'
p2709
I1
sS'26luxembourg'
p2710
I2
sS'derived'
p2711
I3
sS'finality'
p2712
I1
sS'inconceivable'
p2713
I1
sS'compulsory'
p2714
I2
sS'economy.the'
p2715
I1
sS'4/9'
p2716
I2
sS'documentation'
p2717
I2
sS'dread'
p2718
I1
sS'deterioration'
p2719
I1
sS'banks'
p2720
I4
sS'egg'
p2721
I7
sS'rue'
p2722
I2
sS'denominating'
p2723
I1
sS'help'
p2724
I21
sS'progressing'
p2725
I1
sS'soon'
p2726
I13
sS'jelved'
p2727
I3
sS'held'
p2728
I16
sS'committee'
p2729
I59
sS'committed'
p2730
I6
sS'helm'
p2731
I2
sS'highlighted'
p2732
I2
sS'actually'
p2733
I7
sS'territorial'
p2734
I2
sS'disclosed'
p2735
I1
sS'differed'
p2736
I1
sS'founders'
p2737
I1
sS'lira'
p2738
I7
sS'lire'
p2739
I2
sS'gmos'
p2740
I9
sS'curtis'
p2741
I1
sS'rwe'
p2742
I1
sS'food'
p2743
I30
sS'1997-1999'
p2744
I4
sS'foot'
p2745
I1
sS'paule'
p2746
I1
sS'desperately'
p2747
I1
sS'ifs'
p2748
I2
sS'450,000'
p2749
I3
sS'fully'
p2750
I9
sS"isn't"
p2751
I2
sS'predatory'
p2752
I1
sS'heavy'
p2753
I7
sS'neil'
p2754
I2
sS'term.calls'
p2755
I1
sS'40.3225'
p2756
I3
sS'talisman'
p2757
I1
sS'97/203/ec'
p2758
I1
sS'event'
p2759
I1
sS'u.s.although'
p2760
I2
sS'robert'
p2761
I4
sS'temporary'
p2762
I5
sS'douglas'
p2763
I1
sS'safety'
p2764
I35
sS'7'
p2765
I8
sS'issue'
p2766
I44
sS'said.given'
p2767
I1
sS'issue.it'
p2768
I1
sS'houses'
p2769
I2
sS'reason'
p2770
I12
sS'base'
p2771
I6
sS'ask'
p2772
I7
sS'revolutionary'
p2773
I1
sS'unresolved'
p2774
I2
sS'yearproposal'
p2775
I8
sS'launch'
p2776
I17
sS'persuading'
p2777
I1
sS'american'
p2778
I29
sS'expecting'
p2779
I1
sS'businessmen'
p2780
I4
sS'syria'
p2781
I1
sS'undergo'
p2782
I1
sS'consultations'
p2783
I4
sS'probability'
p2784
I8
sS'reflected'
p2785
I2
sS'dominating'
p2786
I2
sS'horse'
p2787
I2
sS'station'
p2788
I1
sS'nigeria'
p2789
I2
sS'scheme'
p2790
I4
sS'banana'
p2791
I1
sS'selling'
p2792
I8
sS'aamulehti'
p2793
I3
sS'jordan'
p2794
I5
sS'authors'
p2795
I1
sS'norms'
p2796
I1
sS'sign'
p2797
I19
sS'ogata'
p2798
I1
sS'financing'
p2799
I9
sS'stg'
p2800
I3
sS'165.461'
p2801
I1
sS'scandinavian'
p2802
I3
sS'autumn'
p2803
I1
sS'tunis'
p2804
I3
sS'ecuador'
p2805
I4
sS'procedural'
p2806
I1
sS'charlotte'
p2807
I1
sS'1.680'
p2808
I1
sS'alongside'
p2809
I2
sS'says.apart'
p2810
I1
sS'substantial'
p2811
I1
sS'concentration'
p2812
I7
sS'kari'
p2813
I1
sS'macao'
p2814
I1
sS'vulnerable'
p2815
I5
sS'option'
p2816
I10
sS'lie'
p2817
I3
sS'u.s'
p2818
I2
sS'patterns'
p2819
I1
sS'essentially'
p2820
I1
sS'scotland'
p2821
I1
sS'auctioneer'
p2822
I1
sS'labour'
p2823
I50
sS'applauded'
p2824
I4
sS'club'
p2825
I1
sS'13.97'
p2826
I1
sS'approves'
p2827
I3
sS'quota'
p2828
I2
sS'sponsored'
p2829
I1
sS'eaten'
p2830
I2
sS'approved'
p2831
I16
sS'mobile'
p2832
I1
sS'performances'
p2833
I1
sS'clear'
p2834
I22
sS'equivalency.hoelgaard'
p2835
I1
sS'drawing'
p2836
I1
sS'0.161'
p2837
I1
sS'5109'
p2838
I1
sS'effectbfr'
p2839
I3
sS'usual'
p2840
I1
sS'2.00'
p2841
I1
sS'tenex'
p2842
I4
sS'phenomenon'
p2843
I2
sS'caries'
p2844
I2
sS'multilateral'
p2845
I3
sS'restructure'
p2846
I1
sS'completion'
p2847
I3
sS'northern'
p2848
I5
sS'justice'
p2849
I12
sS'emu.converging'
p2850
I1
sS'flights'
p2851
I8
sS'surveyed'
p2852
I2
sS'pretty'
p2853
I1
sS'dominant'
p2854
I5
sS'domestic'
p2855
I37
sS'haacp'
p2856
I2
sS'trees'
p2857
I2
sS'3/3'
p2858
I1
sS'grew'
p2859
I2
sS'3/9'
p2860
I2
sS'intensify'
p2861
I1
sS'catches'
p2862
I2
sS'sacrificed'
p2863
I2
sS'persist.the'
p2864
I2
sS'celebrates'
p2865
I2
sS'101.83'
p2866
I1
sS'power.the'
p2867
I1
sS'sacrifices'
p2868
I1
sS'recommendations'
p2869
I8
sS'switzerland'
p2870
I7
sS'hobbled'
p2871
I1
sS'1998.french'
p2872
I1
sS'environment.european'
p2873
I1
sS'26-oct'
p2874
I2
sS'papoutsis.drawn'
p2875
I1
sS'kilos'
p2876
I1
sS'culture'
p2877
I12
sS'sidetracked'
p2878
I1
sS'totalling'
p2879
I1
sS'bethlehem'
p2880
I1
sS'plummeted'
p2881
I1
sS'mediators'
p2882
I3
sS'close'
p2883
I8
sS'bulgaria.brussels'
p2884
I1
sS'join.some'
p2885
I1
sS'won'
p2886
I4
sS'semicon'
p2887
I1
sS'probably'
p2888
I15
sS'conditions'
p2889
I28
sS'jerusalem.ministers'
p2890
I1
sS'missing'
p2891
I1
sS'understanding'
p2892
I1
sS'hardline'
p2893
I1
sS'said.that'
p2894
I1
sS'electricidade'
p2895
I1
sS"wouldn't"
p2896
I3
sS'sensitive'
p2897
I1
sS'buzz'
p2898
I1
sS'liked'
p2899
I1
sS'headed'
p2900
I4
sS'subsidised'
p2901
I3
sS'01.02.95skr'
p2902
I3
sS'importers.u.s'
p2903
I2
sS'27brussels'
p2904
I3
sS'lecturers'
p2905
I2
sS'described'
p2906
I3
sS'stamp'
p2907
I1
sS'exert'
p2908
I1
sS'friday.they'
p2909
I1
sS'collected'
p2910
I2
sS'threaten'
p2911
I5
sS'territory'
p2912
I2
sS'speech/97/75'
p2913
I1
sS'dialogue'
p2914
I11
sS'lived'
p2915
I3
sS'partly'
p2916
I6
sS'deter'
p2917
I1
sS'determination'
p2918
I7
sS'bidding'
p2919
I4
sS'pact'
p2920
I5
sS'look'
p2921
I10
sS'6.58174'
p2922
I1
sS'socialist'
p2923
I1
sS'canadian'
p2924
I2
sS'governor'
p2925
I2
sS'pace'
p2926
I4
sS'fleet'
p2927
I4
sS'guide'
p2928
I1
sS'uncompromising'
p2929
I2
sS'voters'
p2930
I6
sS'funded'
p2931
I1
sS'official.on'
p2932
I1
sS'0.713901'
p2933
I1
sS'1.16683'
p2934
I1
sS'ready'
p2935
I4
sS'56.78'
p2936
I1
sS'belong'
p2937
I1
sS'members.the'
p2938
I1
sS'makeshift'
p2939
I1
sS'kilogramme'
p2940
I2
sS'karl'
p2941
I5
sS'grand'
p2942
I1
sS'1800/1600'
p2943
I5
sS'sham'
p2944
I1
sS'used'
p2945
I20
sS'lawyers'
p2946
I2
sS'ratings'
p2947
I2
sS'10-seat'
p2948
I1
sS'blair'
p2949
I29
sS'skills.the'
p2950
I1
sS'uses'
p2951
I3
sS'005'
p2952
I1
sS'brussels'
p2953
I64
sS'differ.on'
p2954
I1
sS'15.3'
p2955
I1
sS'15.5'
p2956
I1
sS'older'
p2957
I2
sS'sector.brussels'
p2958
I2
sS'12-month'
p2959
I1
sS'poland'
p2960
I6
sS'grind'
p2961
I1
sS'95/0154'
p2962
I1
sS'4.145'
p2963
I1
sS'weakest'
p2964
I1
sS'coup'
p2965
I1
sS'20luxembourg'
p2966
I2
sS'settlements'
p2967
I1
sS'said.bost'
p2968
I1
sS'quarters'
p2969
I2
sS'stockbuilding'
p2970
I1
sS'useful'
p2971
I1
sS'taiwan'
p2972
I5
sS'informal'
p2973
I29
sS'guaranteed'
p2974
I4
sS'questioned'
p2975
I5
sS'decontamination'
p2976
I4
sS'guarantees'
p2977
I3
sS'remaining'
p2978
I1
sS'benefits.finland'
p2979
I1
sS'rate.sterling'
p2980
I2
sS'march'
p2981
I67
sS'lacking'
p2982
I1
sS'showing'
p2983
I6
sS'game'
p2984
I6
sS'sorbitol'
p2985
I2
sS'damage'
p2986
I4
sS'excluding'
p2987
I1
sS'pillar'
p2988
I1
sS'eep'
p2989
I1
sS'popular'
p2990
I4
sS'eea'
p2991
I25
sS'eec'
p2992
I16
sS'brakes'
p2993
I1
sS'creation'
p2994
I12
sS'markku'
p2995
I2
sS'urgent'
p2996
I19
sS'economic'
p2997
I147
sS'markka'
p2998
I13
sS'production.the'
p2999
I2
sS'delivered'
p3000
I5
sS'93/12/eec'
p3001
I2
sS'commitments.the'
p3002
I1
sS'slash'
p3003
I1
sS'run'
p3004
I11
sS'autumn.asbrink'
p3005
I1
sS'processing'
p3006
I8
sS'rebates'
p3007
I1
sS'2/9'
p3008
I2
sS'575/97'
p3009
I1
sS'redundancies'
p3010
I4
sS'erm2'
p3011
I3
sS'cgt'
p3012
I2
sS'franco'
p3013
I7
sS'faith'
p3014
I3
sS'block'
p3015
I13
sS'seeing'
p3016
I8
sS'70'
p3017
I4
sS'15.but'
p3018
I2
sS'alison'
p3019
I1
sS'statistics'
p3020
I1
sS'bangladesh'
p3021
I1
sS'japan.in'
p3022
I1
sS'79'
p3023
I1
sS'manufacture'
p3024
I3
sS'reiterated'
p3025
I7
sS'properly'
p3026
I2
sS'47,838'
p3027
I1
sS'scope'
p3028
I3
sS'russian'
p3029
I15
sS'collapses'
p3030
I2
sS'mineral'
p3031
I1
sS'restarted'
p3032
I3
sS'570/88'
p3033
I1
sS'stumbling'
p3034
I1
sS'week.one'
p3035
I1
sS'heterogeneous'
p3036
I1
sS'similar'
p3037
I16
sS'policy.the'
p3038
I1
sS'said.in'
p3039
I6
sS'adults'
p3040
I1
sS'assets.it'
p3041
I1
sS'metals'
p3042
I3
sS'97/214/ec'
p3043
I1
sS'said.it'
p3044
I4
sS'1892'
p3045
I2
sS'straitjacket'
p3046
I2
sS'theodoros'
p3047
I1
sS'amounts'
p3048
I2
sS'fears'
p3049
I3
sS'application'
p3050
I12
sS'politicians'
p3051
I4
sS'transport'
p3052
I41
sS'department'
p3053
I26
sS'plans.germany'
p3054
I1
sS'draw'
p3055
I3
sS'discriminatory.france'
p3056
I1
sS'calculating'
p3057
I1
sS'visits'
p3058
I2
sS'regulations'
p3059
I23
sS'structure'
p3060
I7
sS'revamped'
p3061
I5
sS'topco'
p3062
I1
sS'e'
p3063
I5
sS'practically'
p3064
I1
sS'tubes'
p3065
I2
sS'required'
p3066
I3
sS'resolving'
p3067
I3
sS'neighbouring'
p3068
I1
sS'huelsbeck'
p3069
I2
sS'requires'
p3070
I3
sS'helped'
p3071
I1
sS'proposition'
p3072
I4
sS'euro.jelved'
p3073
I1
sS'meeting.sweden'
p3074
I1
sS'expelling'
p3075
I1
sS'excluded'
p3076
I3
sS'rtl'
p3077
I1
sS'fraud.but'
p3078
I1
sS'g7'
p3079
I8
sS'1998.but'
p3080
I1
sS'assuming'
p3081
I1
sS'acreage'
p3082
I2
sS'positions'
p3083
I3
sS'button'
p3084
I1
sS'michael'
p3085
I2
sS'2.29'
p3086
I2
sS'2.22'
p3087
I2
sS'inspection'
p3088
I68
sS'2.25'
p3089
I2
sS'compensated'
p3090
I2
sS'picked'
p3091
I2
sS'pornography'
p3092
I2
sS'zairean'
p3093
I1
sS'auspices'
p3094
I1
sS'brokered'
p3095
I4
sS'unilateral'
p3096
I1
sS'exacerbate'
p3097
I1
sS'brunei'
p3098
I1
sS'stance'
p3099
I4
sS'commercial'
p3100
I5
sS'following'
p3101
I30
sS'focused'
p3102
I4
sS'enterprising'
p3103
I1
sS'showed.financial'
p3104
I1
sS'99/96'
p3105
I1
sS'withdrawing'
p3106
I3
sS'97/222/ec'
p3107
I1
sS'standards.the'
p3108
I2
sS'products'
p3109
I86
sS'1530'
p3110
I1
sS'utveggio'
p3111
I3
sS'gene'
p3112
I12
sS'examining'
p3113
I2
sS'addresses'
p3114
I3
sS'danger'
p3115
I4
sS'win'
p3116
I3
sS'wim'
p3117
I4
sS'manage'
p3118
I1
sS'austria'
p3119
I7
sS'4.74'
p3120
I4
sS'16-17'
p3121
I2
sS'michel'
p3122
I3
sS'announced'
p3123
I15
sS'remains'
p3124
I5
sS'adequacy'
p3125
I3
sS'predict'
p3126
I1
sS'myra'
p3127
I1
sS'vehicle'
p3128
I7
sS'jonathan'
p3129
I2
sS'historically'
p3130
I5
sS'reflects'
p3131
I3
sS'belgian'
p3132
I6
sS'least.orly'
p3133
I1
sS'formally'
p3134
I2
sS'started'
p3135
I5
sS'benchmark'
p3136
I3
sS'israelis'
p3137
I1
sS'agent'
p3138
I2
sS'mealcommission'
p3139
I1
sS'appointed'
p3140
I4
sS'announcing'
p3141
I3
sS'recession'
p3142
I2
sS'5.79553'
p3143
I1
sS'servants'
p3144
I2
sS'meet'
p3145
I61
sS'conformity'
p3146
I1
sS'control'
p3147
I19
sS'beijing'
p3148
I2
sS'links'
p3149
I1
sS'sought'
p3150
I7
sS'hit'
p3151
I2
sS'years.the'
p3152
I1
sS'guarantees.romania'
p3153
I1
sS'arrangement'
p3154
I1
sS'167.31'
p3155
I2
sS'frontiers'
p3156
I7
sS'fare'
p3157
I2
sS'farm'
p3158
I42
sS'12luxembourg'
p3159
I8
sS'chiefs'
p3160
I1
sS'12-13'
p3161
I2
sS'xenophobia'
p3162
I2
sS'said.economists'
p3163
I1
sS'bakery'
p3164
I2
sS'advocates'
p3165
I2
sS'agenda'
p3166
I175
sS'fastest'
p3167
I1
sS'centrist'
p3168
I1
sS'minimising'
p3169
I1
sS'byproducts'
p3170
I2
sS'combinations'
p3171
I1
sS'including'
p3172
I24
sS'2.092'
p3173
I1
sS'masses'
p3174
I5
sS'lithuania'
p3175
I5
sS'gmt.spokeswoman'
p3176
I1
sS'koreans'
p3177
I1
sS'auto'
p3178
I4
sS'sweets'
p3179
I6
sS'hands'
p3180
I2
sS'emphasises'
p3181
I1
sS'500.efer'
p3182
I1
sS'thursday.nato'
p3183
I1
sS'university'
p3184
I7
sS'crossing'
p3185
I2
sS'nationals'
p3186
I3
sS'0.645'
p3187
I1
sS'704'
p3188
I1
sS'700'
p3189
I1
sS'703'
p3190
I2
sS'constitute'
p3191
I2
sS'differ.the'
p3192
I2
sS'measure'
p3193
I20
sS'separating'
p3194
I1
sS'margins'
p3195
I6
sS'2.19947'
p3196
I1
sS'special'
p3197
I5
sS'skop'
p3198
I3
sS'multiannual'
p3199
I5
sS'unlawful'
p3200
I2
sS'islamist'
p3201
I1
sS'meeting.provisional'
p3202
I2
sS'holiday.tuesday'
p3203
I4
sS'airport.the'
p3204
I1
sS'cause'
p3205
I3
sS'achievements'
p3206
I1
sS'torres'
p3207
I4
sS'ecb'
p3208
I3
sS'wines'
p3209
I3
sS'products.greenpeace'
p3210
I1
sS'completely'
p3211
I2
sS'conservatives'
p3212
I14
sS'chatham'
p3213
I3
sS'20,000'
p3214
I1
sS'17.02.97dmk'
p3215
I3
sS'sustainability'
p3216
I2
sS'determining'
p3217
I3
sS'route'
p3218
I3
sS'times'
p3219
I7
sS'counterpart'
p3220
I3
sS'keen'
p3221
I4
sS'timed'
p3222
I1
sS'berlusconi'
p3223
I1
sS'mad'
p3224
I18
sS'softer'
p3225
I1
sS'prospective'
p3226
I1
sS'fading'
p3227
I1
sS'powerful'
p3228
I1
sS'improving'
p3229
I5
sS'congo'
p3230
I1
sS'flows'
p3231
I2
sS'precisely'
p3232
I2
sS'quality'
p3233
I13
sS'hiding'
p3234
I2
sS'management'
p3235
I23
sS'privacy'
p3236
I4
sS'revealed'
p3237
I1
sS'relations'
p3238
I38
sS'pronk'
p3239
I2
sS'attack'
p3240
I2
sS'0490.brussels'
p3241
I1
sS'banque'
p3242
I2
sS'final'
p3243
I25
sS'prone'
p3244
I2
sS'exactly'
p3245
I4
sS'kuraku'
p3246
I2
sS'rsb'
p3247
I3
sS'1.68495'
p3248
I1
sS'5740.sunday'
p3249
I1
sS'309.989'
p3250
I1
sS'launch.the'
p3251
I1
sS'submitted'
p3252
I7
sS'states.france'
p3253
I1
sS'flynn'
p3254
I2
sS'providing'
p3255
I2
sS'descriptions'
p3256
I1
sS'enforced'
p3257
I1
sS'unchanged'
p3258
I3
sS'kellet'
p3259
I2
sS'tender.eu'
p3260
I1
sS'need'
p3261
I25
sS'eu.under'
p3262
I1
sS'assurances'
p3263
I1
sS'able'
p3264
I26
sS'purchasing'
p3265
I2
sS'arm'
p3266
I3
sS'issuing'
p3267
I2
sS'2.5'
p3268
I3
sS'emu.ministers'
p3269
I2
sS'fuels'
p3270
I7
sS'position.the'
p3271
I1
sS'expires'
p3272
I1
sS'2.249'
p3273
I2
sS'demise'
p3274
I3
sS'eurocentric'
p3275
I2
sS'achilles'
p3276
I1
sS'companies.guenter'
p3277
I2
sS'harmonization'
p3278
I15
sS'8leiden'
p3279
I1
sS'proceedings'
p3280
I2
sS'impact.administration'
p3281
I1
sS'holstein'
p3282
I2
sS'bordeaux'
p3283
I1
sS'recently.but'
p3284
I2
sS'emerging'
p3285
I3
sS'portugal.franco'
p3286
I1
sS'partners'
p3287
I10
sS'forex'
p3288
I2
sS'based'
p3289
I33
sS'earned'
p3290
I2
sS'ngo'
p3291
I1
sS'hopeful'
p3292
I1
sS"won't"
p3293
I1
sS'finalised'
p3294
I2
sS'fuel'
p3295
I4
sS'achieve'
p3296
I9
sS'5146'
p3297
I3
sS'overall'
p3298
I3
sS'maritime'
p3299
I6
sS'120'
p3300
I1
sS'joint'
p3301
I38
sS'122'
p3302
I1
sS'legitimate'
p3303
I1
sS'joins'
p3304
I2
sS'2876841'
p3305
I4
sS'buyer'
p3306
I1
sS'years'
p3307
I33
sS'procedures'
p3308
I23
sS'partner.the'
p3309
I1
sS'165.422'
p3310
I1
sS'evolution'
p3311
I2
sS'available.maastricht'
p3312
I2
sS'saidon'
p3313
I1
sS'shy'
p3314
I1
sS'wogau'
p3315
I2
sS'processed'
p3316
I1
sS'contain'
p3317
I6
sS'albania'
p3318
I8
sS'aegean'
p3319
I3
sS'hardwood'
p3320
I1
sS'halving'
p3321
I1
sS'7950'
p3322
I1
sS'freeze'
p3323
I2
sS'argued'
p3324
I4
sS'officials'
p3325
I61
sS'yugoslavia'
p3326
I7
sS'powder'
p3327
I1
sS'placed'
p3328
I1
sS'asbrink'
p3329
I10
sS'written'
p3330
I4
sS'luc'
p3331
I3
sS'0.439'
p3332
I1
sS'tens'
p3333
I1
sS'0.432'
p3334
I1
sS'outsiders'
p3335
I1
sS'0.431'
p3336
I1
sS'85,500'
p3337
I1
sS'importance'
p3338
I18
sS'efficiency'
p3339
I4
sS'key'
p3340
I23
sS'disproportionately'
p3341
I2
sS'precious'
p3342
I2
sS'hits'
p3343
I2
sS'limits'
p3344
I3
sS'spectra'
p3345
I1
sS'minds'
p3346
I1
sS'strains'
p3347
I2
sS'tutsi'
p3348
I1
sS'15amsterdam'
p3349
I2
sS'behaviour'
p3350
I1
sS'jersey'
p3351
I3
sS'diplomats'
p3352
I4
sS'budgetary'
p3353
I6
sS'tuesday'
p3354
I70
sS'jewellery.it'
p3355
I1
sS'adding'
p3356
I11
sS'vilkancas'
p3357
I1
sS'addition'
p3358
I7
sS'discrimination'
p3359
I10
sS'cent'
p3360
I1
sS'roenigk'
p3361
I1
sS'minimise'
p3362
I3
sS'senses'
p3363
I1
sS'diversity'
p3364
I2
sS'league'
p3365
I5
sS'pinheiro'
p3366
I2
sS'netanyahu'
p3367
I3
sS'expenditure'
p3368
I1
sS'ecare'
p3369
I6
sS'smoking'
p3370
I4
sS'harder'
p3371
I3
sS'dieter'
p3372
I2
sS'tonnes.french'
p3373
I1
sS'taltavull'
p3374
I1
sS'examined'
p3375
I1
sS'statement.instead'
p3376
I1
sS'began'
p3377
I3
sS'captivated'
p3378
I1
sS'parts'
p3379
I1
sS'speaker'
p3380
I2
sS'party'
p3381
I31
sS"l'investissement"
p3382
I1
sS'planting'
p3383
I1
sS'1-3'
p3384
I2
sS'effect'
p3385
I25
sS'poultry.washington'
p3386
I1
sS'nation'
p3387
I1
sS'91/449/eec'
p3388
I1
sS'poultry'
p3389
I81
sS'particultar'
p3390
I2
sS'obstacles'
p3391
I11
sS'welt'
p3392
I3
sS'bertini.aid'
p3393
I1
sS'restore'
p3394
I3
sS'increasingly'
p3395
I3
sS'42'
p3396
I1
sS'sources'
p3397
I18
sS'treatycommission'
p3398
I1
sS'distant'
p3399
I1
sS'97/c'
p3400
I33
sS'added.but'
p3401
I2
sS'coordination'
p3402
I2
sS'14luxembourg'
p3403
I4
sS'reaffirmation'
p3404
I1
sS'bloc.britain'
p3405
I2
sS'nato'
p3406
I12
sS'unpredictability'
p3407
I3
sS'marmalades'
p3408
I2
sS'accomodate'
p3409
I2
sS'97160'
p3410
I1
sS'adoption.eu'
p3411
I1
sS'1300/1100'
p3412
I3
sS'munich'
p3413
I1
sS'fats'
p3414
I1
sS'260'
p3415
I2
sS'guaranteed.in'
p3416
I2
sS'unseen'
p3417
I2
sS'immediately'
p3418
I8
sS'prominent'
p3419
I2
sS'loss'
p3420
I3
sS'necessary'
p3421
I10
sS'portugal.the'
p3422
I2
sS'candy'
p3423
I2
sS'sized'
p3424
I1
sS'roth'
p3425
I6
sS'payments'
p3426
I5
sS'lose'
p3427
I3
sS'september.the'
p3428
I1
sS'refugees'
p3429
I13
sS'page'
p3430
I16
sS'bonjean'
p3431
I1
sS'985'
p3432
I3
sS'home'
p3433
I17
sS'peter'
p3434
I5
sS'agpm'
p3435
I2
sS'competitor'
p3436
I3
sS'economy.sterling'
p3437
I2
sS'naturalisation'
p3438
I1
sS'broad'
p3439
I10
sS'overlap'
p3440
I1
sS'opinion.the'
p3441
I1
sS'0.087'
p3442
I1
sS'indicated'
p3443
I3
sS'reaching'
p3444
I1
sS'journal'
p3445
I11
sS'monetary'
p3446
I100
sS'expansion'
p3447
I4
sS'offset'
p3448
I2
sS'freedom'
p3449
I9
sS'recognized'
p3450
I3
sS'compatible'
p3451
I1
sS'friday.in'
p3452
I3
sS'recognizes'
p3453
I1
sS'equally'
p3454
I1
sS'previously'
p3455
I4
sS'washington'
p3456
I42
sS'cocoa'
p3457
I2
sS'artists'
p3458
I3
sS'accused'
p3459
I6
sS'additional'
p3460
I2
sS'noticed'
p3461
I2
sS'14strasbourg'
p3462
I2
sS'north'
p3463
I5
sS'103/09'
p3464
I1
sS'103/08'
p3465
I1
sS'103/07'
p3466
I1
sS'bilaterally.drazek'
p3467
I2
sS'103/05'
p3468
I1
sS'103/04'
p3469
I1
sS'103/03'
p3470
I1
sS'103/02'
p3471
I1
sS'103/01'
p3472
I1
sS'neutral'
p3473
I2
sS'gain'
p3474
I3
sS'highest'
p3475
I4
sS'signed'
p3476
I4
sS'limit'
p3477
I5
sS'seinosuke'
p3478
I1
sS'piece'
p3479
I1
sS'display'
p3480
I2
sS'korhonen'
p3481
I4
sS'devise'
p3482
I1
sS'reservations'
p3483
I1
sS'twist'
p3484
I2
sS'erik'
p3485
I4
sS'penni'
p3486
I2
sS'month.the'
p3487
I4
sS'98.75'
p3488
I1
sS'ingredients'
p3489
I2
sS'offensive'
p3490
I1
sS'fledgling'
p3491
I1
sS'5brussels'
p3492
I2
sS'newspaper.responding'
p3493
I2
sS'gonzalez'
p3494
I6
sS'sadako'
p3495
I1
sS'stay'
p3496
I3
sS'petrakis'
p3497
I1
sS'target.kohl'
p3498
I1
sS'portion'
p3499
I1
sS'harvest.the'
p3500
I1
sS'lives'
p3501
I2
sS'validation'
p3502
I1
sS'frankfurt'
p3503
I13
sS'simpson'
p3504
I3
sS'mackerel'
p3505
I4
sS'dynamic'
p3506
I4
sS'plenary'
p3507
I48
sS'uzbekistan'
p3508
I1
sS'protest'
p3509
I2
sS'asian'
p3510
I2
sS'aides'
p3511
I2
sS'consists'
p3512
I2
sS'fredrik'
p3513
I1
sS'membership.a'
p3514
I1
sS'segments'
p3515
I1
sS'disability'
p3516
I3
sS'pensions'
p3517
I1
sS'swap'
p3518
I1
sS'characterised'
p3519
I1
sS'sway'
p3520
I1
sS'emerged'
p3521
I1
sS'said.there'
p3522
I1
sS'void'
p3523
I1
sS'railways'
p3524
I4
sS'suggesting'
p3525
I1
sS'44.180'
p3526
I1
sS'reforms'
p3527
I12
sS'affect'
p3528
I7
sS'alpine'
p3529
I3
sS'1999.he'
p3530
I2
sS'crops'
p3531
I8
sS'kastanidis'
p3532
I2
sS'companies'
p3533
I40
sS'solution'
p3534
I1
sS'subsidising'
p3535
I2
sS'naturalise'
p3536
I1
sS'enhance'
p3537
I3
sS'unifying'
p3538
I1
sS'heading'
p3539
I3
sS'bevan'
p3540
I4
sS'favoured'
p3541
I3
sS'said.uk'
p3542
I1
sS'force'
p3543
I14
sS'japanese'
p3544
I9
sS'likely'
p3545
I20
sS'citizenship.after'
p3546
I1
sS'implemented'
p3547
I3
sS'neo'
p3548
I1
sS'panama'
p3549
I8
sS'asia'
p3550
I2
sS'spokesman'
p3551
I38
sS'alavanos'
p3552
I3
sS'increases.countries'
p3553
I1
sS'foodstuffs'
p3554
I3
sS'new'
p3555
I142
sS'probe.siemens'
p3556
I1
sS'med'
p3557
I3
sS'01.tuesday'
p3558
I2
sS'boesch'
p3559
I3
sS'romano'
p3560
I1
sS'men'
p3561
I9
sS'drew'
p3562
I2
sS'met'
p3563
I8
sS'mep'
p3564
I4
sS'active'
p3565
I6
sS'100'
p3566
I29
sS'interpret'
p3567
I2
sS'dry'
p3568
I1
sS'jams'
p3569
I2
sS'economics'
p3570
I7
sS'ignoring'
p3571
I1
sS'credit'
p3572
I10
sS'adopting'
p3573
I12
sS'myanmar'
p3574
I2
sS'mobility'
p3575
I4
sS'objectively'
p3576
I2
sS'hutus'
p3577
I2
sS'soybean'
p3578
I3
sS'labyrinthine'
p3579
I1
sS'counts'
p3580
I1
sS'schilling'
p3581
I2
sS'honourary'
p3582
I1
sS'calm'
p3583
I2
sS'tell'
p3584
I1
sS'supporters'
p3585
I1
sS'wary'
p3586
I4
sS'schroeder'
p3587
I1
sS'leasing'
p3588
I1
sS'6800'
p3589
I2
sS'disruption'
p3590
I1
sS'97/221/ec'
p3591
I1
sS'adult'
p3592
I1
sS'aligned'
p3593
I2
sS'room'
p3594
I8
sS'rights'
p3595
I29
sS'jeopardised'
p3596
I1
sS'exceptions'
p3597
I2
sS'1948.34'
p3598
I1
sS'business.having'
p3599
I1
sS'round.greenpeace'
p3600
I1
sS'assent'
p3601
I6
sS'involve'
p3602
I5
sS'10,000'
p3603
I2
sS'foods'
p3604
I2
sS'cursory'
p3605
I1
sS'loathe'
p3606
I1
sS'trade.the'
p3607
I2
sS'countries.monday'
p3608
I2
sS'mcneil'
p3609
I1
sS'pedersen'
p3610
I3
sS'margallo'
p3611
I3
sS'answer'
p3612
I3
sS'massive'
p3613
I2
sS'minority'
p3614
I5
sS'replacing'
p3615
I2
sS'lithuanian'
p3616
I1
sS'president'
p3617
I28
sS'purchase'
p3618
I1
sS'attempt'
p3619
I6
sS'2030/1830'
p3620
I1
sS'274.5'
p3621
I1
sS'maintain'
p3622
I2
sS'frequent'
p3623
I1
sS'operate'
p3624
I4
sS'operations'
p3625
I2
sS'shipbuilders'
p3626
I11
sS'1.59854'
p3627
I1
sS'10.8'
p3628
I1
sS'better'
p3629
I13
sS'weeks'
p3630
I23
sS'overcome'
p3631
I3
sS'belarus'
p3632
I3
sS'unemployed'
p3633
I1
sS'work.strasbourg'
p3634
I1
sS'inclusive.1998birmingham'
p3635
I2
sS'2155.saturday'
p3636
I2
sS'meat'
p3637
I141
sS'bonn'
p3638
I11
sS'discipline'
p3639
I1
sS'went'
p3640
I3
sS'mean'
p3641
I14
sS'russia.scheveningen'
p3642
I1
sS'principles'
p3643
I1
sS'aide'
p3644
I2
sS'milan'
p3645
I1
sS'arrives'
p3646
I2
sS'trading'
p3647
I10
sS'lgew'
p3648
I1
sS'aids'
p3649
I2
sS'extract'
p3650
I1
sS'contend'
p3651
I1
sS'6784'
p3652
I1
sS'crucial'
p3653
I6
sS'duin.maastricht'
p3654
I3
sS'content'
p3655
I3
sS'right.britain'
p3656
I1
sS'me97/2.4'
p3657
I1
sS'sluggish'
p3658
I5
sS'turning'
p3659
I2
sS'resume'
p3660
I5
sS'245'
p3661
I4
sS'247'
p3662
I1
sS'101,800'
p3663
I2
sS'struggle'
p3664
I1
sS'902.50'
p3665
I2
sS'242'
p3666
I2
sS'm.833'
p3667
I1
sS'infratest'
p3668
I1
sS'sfax'
p3669
I1
sS'starts'
p3670
I1
sS'professions'
p3671
I2
sS'leila'
p3672
I1
sS'signature'
p3673
I11
sS'moving'
p3674
I6
sS'citizens.many'
p3675
I1
sS'economists'
p3676
I15
sS'grade'
p3677
I1
sS'31.98'
p3678
I1
sS'thereof'
p3679
I1
sS'downside'
p3680
I1
sS'current4'
p3681
I1
sS'ditch'
p3682
I3
sS'agra'
p3683
I4
sS'strasbourg'
p3684
I3
sS'0.740039'
p3685
I1
sS'amsterdam'
p3686
I21
sS'disqualifications'
p3687
I1
sS'decentralised'
p3688
I4
sS'0.067'
p3689
I1
sS'0.066'
p3690
I2
sS'somewhat'
p3691
I2
sS'requisite'
p3692
I2
sS'people.monday'
p3693
I2
sS'begins'
p3694
I2
sS'4.124'
p3695
I2
sS'soonest'
p3696
I2
sS'database'
p3697
I3
sS'preparation'
p3698
I19
sS'matter'
p3699
I7
sS'gernot'
p3700
I1
sS'jeopardise'
p3701
I2
sS'mini'
p3702
I17
sS'sees'
p3703
I4
sS'modern'
p3704
I2
sS'mind'
p3705
I1
sS'0.606'
p3706
I1
sS'seed'
p3707
I2
sS'1999.die'
p3708
I1
sS'seen'
p3709
I22
sS'seek'
p3710
I8
sS'cheer'
p3711
I1
sS'1.95431'
p3712
I3
sS'cpmmunity'
p3713
I1
sS'assocation'
p3714
I1
sS'irrigated'
p3715
I3
sS'marin'
p3716
I5
sS'mario'
p3717
I3
sS'regular'
p3718
I4
sS'markets.the'
p3719
I1
sS'marie'
p3720
I1
sS'weeks.goldthwait'
p3721
I1
sS'maria'
p3722
I4
sS'zealand'
p3723
I6
sS'broadcast'
p3724
I2
sS'don'
p3725
I1
sS'0.740711'
p3726
I1
sS'alarm'
p3727
I1
sS'm'
p3728
I1
sS'competitors'
p3729
I9
sS'points'
p3730
I10
sS'principle'
p3731
I14
sS'consumer'
p3732
I35
sS'consumes'
p3733
I1
sS'amending'
p3734
I48
sS'ambassador'
p3735
I1
sS'probe'
p3736
I9
sS'ending'
p3737
I1
sS'implying'
p3738
I1
sS'attempts'
p3739
I1
sS'thirds'
p3740
I2
sS'308.684'
p3741
I1
sS'judges'
p3742
I2
sS'dampening'
p3743
I2
sS'judgments'
p3744
I1
sS'cripple'
p3745
I1
sS'sugar'
p3746
I12
sS'judged'
p3747
I3
sS'integrate'
p3748
I1
sS'wearing'
p3749
I1
sS'monica'
p3750
I2
sS'exports'
p3751
I58
sS'conduct'
p3752
I1
sS'stop'
p3753
I10
sS'coast'
p3754
I1
sS'christopher'
p3755
I3
sS'reviewed'
p3756
I1
sS'comply'
p3757
I6
sS'peseta'
p3758
I2
sS'17'
p3759
I31
sS'fields'
p3760
I2
sS'bad'
p3761
I2
sS'ban'
p3762
I13
sS'said.u.s'
p3763
I1
sS'decides'
p3764
I1
sS'1980s.russia'
p3765
I1
sS'reference'
p3766
I9
sS'testing'
p3767
I6
sS'decided'
p3768
I10
sS'encephalopathy'
p3769
I3
sS'midst'
p3770
I2
sS'subject'
p3771
I3
sS'brazil'
p3772
I5
sS'said'
p3773
I595
sS'runs'
p3774
I1
sS'inappropriate'
p3775
I3
sS'europabio'
p3776
I2
sS'scrap'
p3777
I2
sS'artificial'
p3778
I1
sS'97/211/ec'
p3779
I1
sS'future'
p3780
I32
sS'greece.a'
p3781
I1
sS'harvard'
p3782
I2
sS'unemployment.continental'
p3783
I2
sS'suggested'
p3784
I2
sS'glacomo'
p3785
I2
sS'resistant'
p3786
I6
sS'deregulation'
p3787
I11
sS'uncertainty'
p3788
I4
sS'prefabricated'
p3789
I1
sS'ernst'
p3790
I1
sS'appeared'
p3791
I4
sS'hygiene'
p3792
I6
sS'said.on'
p3793
I1
sS'initiative'
p3794
I5
sS'path'
p3795
I3
sS'recognises'
p3796
I2
sS'basis'
p3797
I15
sS'referendum'
p3798
I14
sS'tiny'
p3799
I3
sS'177.42'
p3800
I1
sS'commission'
p3801
I307
sS'trigger'
p3802
I4
sS'basic'
p3803
I4
sS'entered'
p3804
I2
sS'gerry'
p3805
I2
sS'mcj'
p3806
I2
sS'quantities'
p3807
I3
sS'sdbo'
p3808
I6
sS'aviation'
p3809
I8
sS'166'
p3810
I1
sS'167'
p3811
I1
sS'160'
p3812
I1
sS'14brussels'
p3813
I2
sS'lionel'
p3814
I1
sS'affirm'
p3815
I1
sS'economies'
p3816
I10
sS'spontaneously'
p3817
I2
sS'ugly'
p3818
I1
sS'near'
p3819
I4
sS'suppose'
p3820
I1
sS'358-9-680'
p3821
I10
sS'balance'
p3822
I5
sS'employees'
p3823
I4
sS'chilling'
p3824
I2
sS'seven'
p3825
I9
sS'cane'
p3826
I3
sS'mexico'
p3827
I14
sS'iv'
p3828
I12
sS'ii'
p3829
I4
sS'euthanasia'
p3830
I3
sS'1997.tuesday'
p3831
I2
sS'80,000'
p3832
I1
sS'disappear'
p3833
I1
sS'amended'
p3834
I17
sS'grown'
p3835
I7
sS'belle'
p3836
I1
sS'make'
p3837
I35
sS'speculating'
p3838
I1
sS'potentially'
p3839
I5
sS'unfortunate'
p3840
I1
sS'points.elsewhere'
p3841
I1
sS'generale'
p3842
I1
sS'meets'
p3843
I11
sS'said.major'
p3844
I1
sS'01.10.96ir'
p3845
I3
sS'palacio'
p3846
I6
sS'eisma'
p3847
I3
sS'potentials'
p3848
I2
sS'opportunity'
p3849
I7
sS'butter'
p3850
I4
sS'9522.valetta'
p3851
I2
sS'programs'
p3852
I1
sS'settled'
p3853
I2
sS'failing'
p3854
I4
sS'unconcerned'
p3855
I1
sS'rome'
p3856
I3
sS'euopean'
p3857
I2
sS'conflict'
p3858
I4
sS'congres'
p3859
I1
sS'claims'
p3860
I3
sS'800'
p3861
I1
sS'investments'
p3862
I1
sS'left'
p3863
I8
sS'space.florence'
p3864
I2
sS'protocol'
p3865
I7
sS'just'
p3866
I33
sS'yen'
p3867
I8
sS'sporting'
p3868
I2
sS'europeancommunity'
p3869
I3
sS'unfair'
p3870
I4
sS'assigned'
p3871
I2
sS'fighters'
p3872
I1
sS'human'
p3873
I26
sS'yes'
p3874
I5
sS'round.the'
p3875
I1
sS'candidate'
p3876
I2
sS'devaluation'
p3877
I4
sS'regarded'
p3878
I2
sS'royal'
p3879
I3
sS'monitoring.the'
p3880
I1
sS'save'
p3881
I4
sS'opt'
p3882
I3
sS'so.sweden'
p3883
I1
sS'whichever'
p3884
I2
sS'background'
p3885
I3
sS'destroy'
p3886
I1
sS'dignity'
p3887
I3
sS'1996.however'
p3888
I1
sS'signal'
p3889
I5
sS'5700.saturday'
p3890
I3
sS'greenland'
p3891
I2
sS'dean'
p3892
I1
sS'deal'
p3893
I22
sS'elderly'
p3894
I1
sS'caledonian'
p3895
I1
sS'invoice'
p3896
I1
sS'148987'
p3897
I1
sS'rulesunder'
p3898
I1
sS'glance'
p3899
I1
sS'separately'
p3900
I2
sS'tracked'
p3901
I2
sS'notification'
p3902
I4
sS'outspoken'
p3903
I2
sS'track'
p3904
I8
sS'1998/99'
p3905
I2
sS'ecus'
p3906
I49
sS'bold'
p3907
I2
sS'sifo'
p3908
I1
sS'predicting'
p3909
I1
sS'efer'
p3910
I3
sS'said.this'
p3911
I3
sS'codified'
p3912
I2
sS'tyres'
p3913
I2
sS'chilean'
p3914
I3
sS'data.dale'
p3915
I1
sS'operates'
p3916
I4
sS'55/96'
p3917
I1
sS'magazine'
p3918
I2
sS'noordwijk'
p3919
I20
sS'made.an'
p3920
I1
sS'automatically'
p3921
I1
sS'managers'
p3922
I3
sS'amounted'
p3923
I1
sS'lies'
p3924
I4
sS'44.89'
p3925
I1
sS'1990s'
p3926
I4
sS'day.saturday'
p3927
I2
sS'weathered'
p3928
I2
sS'available.friday'
p3929
I4
sS'initial'
p3930
I1
sS'6762'
p3931
I1
sS'28brussels'
p3932
I1
sS'0.442048'
p3933
I1
sS'bolivia'
p3934
I4
sS'breadlines'
p3935
I1
sS'bert'
p3936
I1
sS'm.855'
p3937
I1
sS'form'
p3938
I9
sS'landing'
p3939
I4
sS'failure'
p3940
I5
sS'229'
p3941
I2
sS'228'
p3942
I4
sS'227'
p3943
I1
sS'approval'
p3944
I6
sS'surrender'
p3945
I2
sS'analyst'
p3946
I6
sS'especially'
p3947
I7
sS'stages'
p3948
I1
sS'originating'
p3949
I3
sS'currency.the'
p3950
I1
sS'strengthening'
p3951
I6
sS'67,500'
p3952
I1
sS'covers'
p3953
I1
sS'sale'
p3954
I8
sS'ship'
p3955
I3
sS'marking'
p3956
I1
sS'06.05.96new'
p3957
I1
sS'agreeing'
p3958
I6
sS'generally'
p3959
I2
sS'broek'
p3960
I11
sS'handicap'
p3961
I1
sS'felt'
p3962
I1
sS'24.07.95ffr'
p3963
I3
sS'fell'
p3964
I10
sS'exported'
p3965
I2
sS'authorities'
p3966
I3
sS'transfers'
p3967
I3
sS'weekend'
p3968
I9
sS'billion'
p3969
I16
sS'england.aides'
p3970
I2
sS'30,000'
p3971
I1
sS'happening'
p3972
I2
sS'pseudo'
p3973
I2
sS'daily'
p3974
I8
sS'premiums'
p3975
I2
sS'ip/97/264'
p3976
I1
sS'profits'
p3977
I4
sS'managed'
p3978
I2
sS'time.analysts'
p3979
I3
sS'manager'
p3980
I5
sS'5.62'
p3981
I1
sS'5.67'
p3982
I1
sS'milk'
p3983
I13
sS'said.electronic'
p3984
I1
sS'21st'
p3985
I2
sS'depend'
p3986
I1
sS'father'
p3987
I1
sS'answered'
p3988
I1
sS'finally'
p3989
I2
sS'praised'
p3990
I1
sS'swoop'
p3991
I2
sS'marks'
p3992
I11
sS'adviser'
p3993
I7
sS'word'
p3994
I1
sS'magps'
p3995
I4
sS'governments'
p3996
I8
sS'did'
p3997
I23
sS'die'
p3998
I6
sS'1996'
p3999
I29
sS'proposals'
p4000
I15
sS'iter'
p4001
I2
sS'radio.the'
p4002
I1
sS'item'
p4003
I65
sS'4211.friday'
p4004
I2
sS'diw'
p4005
I2
sS'round'
p4006
I12
sS'olympic'
p4007
I4
sS'months.in'
p4008
I2
sS'583/97'
p4009
I1
sS'targets'
p4010
I9
sS'adds'
p4011
I2
sS'troops'
p4012
I1
sS'elections.thursday'
p4013
I2
sS'favour'
p4014
I11
sS'10-point'
p4015
I1
sS'suspect'
p4016
I1
sS'international'
p4017
I51
sS'quinn.german'
p4018
I2
sS'1.68433'
p4019
I1
sS'transportation'
p4020
I1
sS'french'
p4021
I39
sS'congestion'
p4022
I2
sS'600/97'
p4023
I1
sS'wait'
p4024
I7
sS'box'
p4025
I2
sS'said.lufthansa'
p4026
I2
sS'institute'
p4027
I40
sS'shift'
p4028
I1
sS'step'
p4029
I7
sS'exploitation'
p4030
I1
sS'1997.kohl'
p4031
I1
sS'40.3140'
p4032
I1
sS'14.99'
p4033
I2
sS'merely'
p4034
I2
sS'flexibility'
p4035
I9
sS'licensing'
p4036
I5
sS'ailing'
p4037
I2
sS'performance.the'
p4038
I1
sS'transplant'
p4039
I2
sS'everybody'
p4040
I1
sS'hoelgaard'
p4041
I14
sS'visit'
p4042
I9
sS'monitors.lgsw'
p4043
I1
sS'france'
p4044
I68
sS'scenarios'
p4045
I2
sS'peru'
p4046
I4
sS'francs'
p4047
I13
sS'nicosia'
p4048
I2
sS'preserving'
p4049
I1
sS'acceptable'
p4050
I5
sS'bayerische'
p4051
I1
sS'4,00'
p4052
I1
sS'said.yamaichi'
p4053
I2
sS'olive'
p4054
I10
sS'amelia'
p4055
I4
sS'effort'
p4056
I7
sS'fly'
p4057
I2
sS'rotational'
p4058
I2
sS'avoiding'
p4059
I1
sS'growing'
p4060
I14
sS'making'
p4061
I19
sS'arrive'
p4062
I2
sS'claim'
p4063
I1
sS'uruguay'
p4064
I6
sS'lobbying'
p4065
I4
sS'report.lufthansa'
p4066
I2
sS'flouting'
p4067
I1
sS'sample'
p4068
I1
sS'90/642/eec'
p4069
I1
sS'council'
p4070
I377
sS'spanning'
p4071
I1
sS'courts.turkish'
p4072
I1
sS'burgeoning'
p4073
I1
sS'pine'
p4074
I1
sS'chemical'
p4075
I3
sS'sunday'
p4076
I7
sS'inputs'
p4077
I3
sS'staying'
p4078
I3
sS'army.but'
p4079
I1
sS'helmut'
p4080
I10
sS'membership'
p4081
I42
sS'designed'
p4082
I10
sS'grow'
p4083
I3
sS'pressuring'
p4084
I1
sS'16,000'
p4085
I1
sS'14,526'
p4086
I1
sS'maybe'
p4087
I1
sS'borrowing'
p4088
I2
sS'switch'
p4089
I2
sS'busvine'
p4090
I1
sS'african'
p4091
I8
sS'omer'
p4092
I2
sS'talk'
p4093
I2
sS'gatwick'
p4094
I1
sS'gradual'
p4095
I2
sS'pointed'
p4096
I2
sS'shaky'
p4097
I1
sS'wishing'
p4098
I2
sS'argues'
p4099
I4
sS'stability'
p4100
I9
sS'cuts'
p4101
I10
sS'differs'
p4102
I1
sS'0.459'
p4103
I1
sS'group'
p4104
I72
sS'monitor'
p4105
I1
sS'interesting'
p4106
I2
sS'listing'
p4107
I1
sS'policy'
p4108
I75
sS'mail'
p4109
I8
sS'main'
p4110
I34
sS'finance'
p4111
I49
sS'views'
p4112
I5
sS'result.hoelgaard'
p4113
I1
sS'killer'
p4114
I1
sS'1000/0900'
p4115
I1
sS'aspirations'
p4116
I1
sS'developments'
p4117
I8
sS'finalise'
p4118
I2
sS'86/363/eec'
p4119
I1
sS'poll.austria'
p4120
I1
sS'success.top'
p4121
I1
sS'thursday.an'
p4122
I1
sS'820'
p4123
I1
sS'schemes.italy'
p4124
I1
sS'baudis.bonn'
p4125
I1
sS'conventions'
p4126
I1
sS'manifesto'
p4127
I15
sS'speculators'
p4128
I2
sS'0.909'
p4129
I1
sS'friday.duties'
p4130
I1
sS'24brussels'
p4131
I6
sS'reform.the'
p4132
I1
sS'carlisle'
p4133
I1
sS'canada'
p4134
I6
sS'living'
p4135
I3
sS'interference'
p4136
I1
sS'saturday.france'
p4137
I1
sS'said.once'
p4138
I2
sS'nominal'
p4139
I2
sS'gallup'
p4140
I2
sS'dutch'
p4141
I54
sS'lag'
p4142
I1
sS'hefty'
p4143
I1
sS'mechanisms'
p4144
I1
sS'thameslink'
p4145
I3
sS'1111.toulouse'
p4146
I1
sS'advance'
p4147
I9
sS'language'
p4148
I1
sS'ministry'
p4149
I17
sS'1.733'
p4150
I1
sS'thing'
p4151
I2
sS'think'
p4152
I14
sS'waited'
p4153
I1
sS'osnabruecker'
p4154
I1
sS'cheese'
p4155
I2
sS'seeds.fischler'
p4156
I1
sS'fleeing'
p4157
I1
sS'tuesday.although'
p4158
I1
sS'americans'
p4159
I2
sS'fast'
p4160
I11
sS'suspended'
p4161
I2
sS'carry'
p4162
I3
sS'corporations'
p4163
I2
sS'singling'
p4164
I2
sS'interchange'
p4165
I1
sS'little'
p4166
I10
sS'modernise'
p4167
I1
sS'gradin'
p4168
I1
sS'consultation'
p4169
I9
sS'speaking'
p4170
I1
sS'inefficient'
p4171
I2
sS'moscow'
p4172
I6
sS'buts'
p4173
I2
sS'slim.on'
p4174
I1
sS'11'
p4175
I33
sS'10'
p4176
I26
sS'13'
p4177
I15
sS'12'
p4178
I10
sS'15'
p4179
I45
sS'14'
p4180
I14
sS'sailing'
p4181
I2
sS'16'
p4182
I24
sS'19'
p4183
I16
sS'18'
p4184
I18
sS'browning'
p4185
I1
sS'orgy'
p4186
I2
sS'venture'
p4187
I8
sS'350,000'
p4188
I1
sS'topics'
p4189
I8
sS'dash'
p4190
I1
sS'winding'
p4191
I1
sS'pastry'
p4192
I1
sS'unaltered'
p4193
I1
sS'voiced'
p4194
I2
sS'occupied'
p4195
I1
sS'july.the'
p4196
I2
sS'kevin'
p4197
I1
sS'speakers'
p4198
I10
sS'bavaria'
p4199
I1
sS'efficient'
p4200
I4
sS'2317/95'
p4201
I1
sS'potential'
p4202
I8
sS'interior'
p4203
I2
sS'performance'
p4204
I2
sS'600,000'
p4205
I2
sS'glickman'
p4206
I14
sS'solidity'
p4207
I2
sS'normal'
p4208
I2
sS'arguing'
p4209
I2
sS'decreasing'
p4210
I1
sS'paid'
p4211
I8
sS'sheets'
p4212
I2
sS'complaints'
p4213
I3
sS'commerzbank'
p4214
I3
sS'profitabilty'
p4215
I1
sS'refunds'
p4216
I17
sS'fisheries'
p4217
I32
sS'ip/97/268'
p4218
I1
sS'ip/97/263'
p4219
I1
sS'ip/97/260'
p4220
I1
sS'ip/97/261'
p4221
I1
sS'ip/97/266'
p4222
I1
sS'ip/97/267'
p4223
I1
sS'combatting'
p4224
I4
sS'ip/97/265'
p4225
I1
sS'precise'
p4226
I3
sS'shot'
p4227
I3
sS'certification'
p4228
I5
sS'accession'
p4229
I9
sS'representatives'
p4230
I7
sS'label'
p4231
I6
sS'165.605'
p4232
I1
sS'added.erm2'
p4233
I1
sS'1030/0830'
p4234
I1
sS'manoeuvre'
p4235
I4
sS'treasury'
p4236
I1
sS'sectorcommission'
p4237
I3
sS'pegged'
p4238
I1
sS'awareness'
p4239
I4
sS'present.britain'
p4240
I2
sS'cuurency'
p4241
I1
sS'hungarian'
p4242
I2
sS'contracts'
p4243
I4
sS'ruairi'
p4244
I2
sS'employers'
p4245
I1
sS'nearly'
p4246
I7
sS'secondary'
p4247
I3
sS'awaited'
p4248
I3
sS'summary'
p4249
I1
sS'miles'
p4250
I3
sS'lyddon'
p4251
I3
sS'milling'
p4252
I3
sS'innovative'
p4253
I2
sS'seat'
p4254
I1
sS'relative'
p4255
I4
sS'june.the'
p4256
I1
sS'declares'
p4257
I1
sS'8.80732'
p4258
I1
sS'forecast'
p4259
I10
sS'0.021'
p4260
I3
sS'0.020'
p4261
I2
sS'0.023'
p4262
I1
sS'0.025'
p4263
I2
sS'0.029'
p4264
I1
sS'0.028'
p4265
I1
sS'reading'
p4266
I1
sS'checks'
p4267
I5
sS'campaign'
p4268
I8
sS'infrastructure'
p4269
I2
sS'august'
p4270
I1
sS'parent'
p4271
I1
sS'jp'
p4272
I3
sS'jm'
p4273
I3
sS'systems.siemens'
p4274
I1
sS'dates'
p4275
I2
sS'trader'
p4276
I3
sS'trades'
p4277
I2
sS'according'
p4278
I21
sS'tous'
p4279
I2
sS'traded'
p4280
I1
sS'cancer'
p4281
I2
sS'meetings.wednesday'
p4282
I2
sS'said.total'
p4283
I3
sS'maintained'
p4284
I6
sS'cancel'
p4285
I2
sS'considering'
p4286
I4
sS'cfsp'
p4287
I2
sS'mark'
p4288
I15
sS'said.talk'
p4289
I1
sS'workshop'
p4290
I2
sS'582/97'
p4291
I1
sS'said.if'
p4292
I1
sS'96/0015'
p4293
I1
sS'borders'
p4294
I1
sS'mary'
p4295
I1
sS'97/224/cfsp'
p4296
I1
sS'spongiform'
p4297
I5
sS'shopping'
p4298
I1
sS'lower.to'
p4299
I1
sS'offered'
p4300
I5
sS'sort'
p4301
I3
sS'dramatic'
p4302
I3
sS'declaration'
p4303
I3
sS'said.early'
p4304
I1
sS'sound'
p4305
I1
sS'warning'
p4306
I7
sS'601/97'
p4307
I1
sS'coca'
p4308
I1
sS'investigating'
p4309
I1
sS'margin'
p4310
I2
sS'17-may'
p4311
I2
sS'theo'
p4312
I5
sS'aprilbrussels'
p4313
I2
sS'zero.following'
p4314
I1
sS'conferences'
p4315
I4
sS'characteristics'
p4316
I7
sS'marcel'
p4317
I1
sS'middle'
p4318
I19
sS'sudden'
p4319
I2
sS'traffickers'
p4320
I1
sS'protein'
p4321
I1
sS'different'
p4322
I17
sS'pas'
p4323
I7
sS'pay'
p4324
I5
sS'2991/94'
p4325
I1
sS'speech'
p4326
I18
sS'arguments'
p4327
I2
sS'struggling'
p4328
I3
sS'17.9'
p4329
I1
sS'pam'
p4330
I1
sS'pan'
p4331
I5
sS'exhaust'
p4332
I1
sS'oil'
p4333
I25
sS'me97/1.4'
p4334
I1
sS'assist'
p4335
I2
sS'companion'
p4336
I4
sS'running'
p4337
I5
sS'driven'
p4338
I3
sS'totally'
p4339
I14
sS'largely'
p4340
I2
sS'colino'
p4341
I3
sS'roughly'
p4342
I2
sS'solve'
p4343
I3
sS'230,000'
p4344
I1
sS'money'
p4345
I4
sS'adjustments'
p4346
I2
sS'unofficial'
p4347
I1
sS'182,200'
p4348
I1
sS'leeway'
p4349
I2
sS'oesat'
p4350
I1
sS'16brussels'
p4351
I2
sS'77/93/eec'
p4352
I1
sS'4'
p4353
I11
sS'forge'
p4354
I1
sS'industry.we'
p4355
I1
sS'antanovich'
p4356
I1
sS'aiming'
p4357
I1
sS'disappointed'
p4358
I3
sS'christina'
p4359
I1
sS'vending'
p4360
I1
sS'identifying'
p4361
I2
sS'facing'
p4362
I4
sS'chamber'
p4363
I6
sS'retailers'
p4364
I3
sS'1.08'
p4365
I2
sS'served'
p4366
I1
sS'fulfil'
p4367
I12
sS'jews'
p4368
I1
sS'2brussels'
p4369
I2
sS'muddled'
p4370
I1
sS'europe.an'
p4371
I1
sS'smarting'
p4372
I1
sS'gross'
p4373
I12
sS'london.go'
p4374
I1
sS'chips'
p4375
I1
sS'critical'
p4376
I4
sS'inject'
p4377
I1
sS'moderate'
p4378
I2
sS'schuett'
p4379
I3
sS'ratifications'
p4380
I2
sS'airways'
p4381
I8
sS'broker'
p4382
I1
sS'notably'
p4383
I3
sS'broken'
p4384
I1
sS'twaalfhoven'
p4385
I2
sS'roaming'
p4386
I1
sS'refers'
p4387
I4
sS'1765/92'
p4388
I1
sS'markets.but'
p4389
I4
sS'island'
p4390
I3
sS'violence'
p4391
I1
sS'insect'
p4392
I3
sS'airline'
p4393
I11
sS'mixed'
p4394
I5
sS'provisional'
p4395
I29
sS'road'
p4396
I15
sS'hessen'
p4397
I2
sS'0.925'
p4398
I1
sS'lotsberg'
p4399
I2
sS'references'
p4400
I2
sS'jerusalem'
p4401
I3
sS'statecommission'
p4402
I1
sS'telescoping'
p4403
I1
sS'1730'
p4404
I1
sS'breyer'
p4405
I3
sS'labelling'
p4406
I26
sS'decisive'
p4407
I1
sS'year.but'
p4408
I1
sS'duchy'
p4409
I1
sS'strikes'
p4410
I3
sS'calmfors'
p4411
I1
sS'rules.washington'
p4412
I3
sS'1997.the'
p4413
I2
sS'emissions'
p4414
I9
sS'saga.ibj'
p4415
I1
sS'manuel'
p4416
I3
sS'insisted.agreement'
p4417
I1
sS'deep'
p4418
I2
sS'general'
p4419
I48
sS'examine'
p4420
I2
sS'jospin'
p4421
I2
sS'file'
p4422
I1
sS'sector.the'
p4423
I1
sS'allocating'
p4424
I2
sS'personnel'
p4425
I2
sS'field'
p4426
I20
sS'supplementing'
p4427
I1
sS'students'
p4428
I2
sS'years.in'
p4429
I1
sS'important'
p4430
I19
sS'1993-1996'
p4431
I2
sS'chris'
p4432
I6
sS'prudent'
p4433
I1
sS'awkwardly'
p4434
I1
sS'481'
p4435
I2
sS'suspended.the'
p4436
I1
sS'driving'
p4437
I5
sS'cofederation'
p4438
I3
sS'landfill'
p4439
I2
sS'inhibited'
p4440
I1
sS'standards.earlier'
p4441
I1
sS'poultry.the'
p4442
I2
sS'starting'
p4443
I12
sS'represent'
p4444
I2
sS'founder'
p4445
I1
sS'aviv.the'
p4446
I1
sS'year.o'
p4447
I1
sS'allergy'
p4448
I1
sS'dollar'
p4449
I28
sS'founded'
p4450
I1
sS'zinc'
p4451
I2
sS'talks'
p4452
I63
sS'allowances'
p4453
I1
sS'children'
p4454
I8
sS'slunk'
p4455
I4
sS'reluctant'
p4456
I1
sS'albrecht'
p4457
I6
sS'15-nation'
p4458
I6
sS'preserved'
p4459
I2
sS'equivalency.the'
p4460
I1
sS'enjoying'
p4461
I2
sS'premium'
p4462
I1
sS'returning'
p4463
I1
sS'witter'
p4464
I1
sS'fall'
p4465
I6
sS'difference'
p4466
I4
sS'pigmeat'
p4467
I4
sS'dampen'
p4468
I1
sS'309.850'
p4469
I1
sS'applicable'
p4470
I4
sS'expected.this'
p4471
I1
sS'biological'
p4472
I2
sS'withheld'
p4473
I1
sS'revolutionise'
p4474
I1
sS'society.luxembourg'
p4475
I2
sS'rapped'
p4476
I2
sS'zero'
p4477
I2
sS'perspective'
p4478
I1
sS'lawyer'
p4479
I2
sS'luque'
p4480
I1
sS'defence'
p4481
I5
sS'opted'
p4482
I2
sS'95/20'
p4483
I2
sS'ongoing'
p4484
I4
sS'public'
p4485
I58
sS'movement'
p4486
I10
sS'6.74'
p4487
I1
sS'component'
p4488
I1
sS'favourable'
p4489
I2
sS'disastrous'
p4490
I1
sS'operating'
p4491
I4
sS'parliiamentary'
p4492
I1
sS'commercially'
p4493
I3
sS'wieczorek'
p4494
I1
sS'search'
p4495
I1
sS'ciller'
p4496
I4
sS'airport'
p4497
I14
sS'7599.friday'
p4498
I2
sS'published'
p4499
I17
sS'26brussels'
p4500
I1
sS'rapproachement'
p4501
I1
sS'authorize'
p4502
I1
sS'palais'
p4503
I4
sS'buses'
p4504
I2
sS'transit'
p4505
I2
sS'africa'
p4506
I1
sS'establish'
p4507
I4
sS'eye'
p4508
I1
sS'governance'
p4509
I3
sS'cultivation'
p4510
I3
sS'interview.he'
p4511
I1
sS'0.008'
p4512
I1
sS'0.007'
p4513
I1
sS'0.006'
p4514
I2
sS'0.003'
p4515
I1
sS'0.002'
p4516
I1
sS'0.001'
p4517
I1
sS'oreja'
p4518
I3
sS'statement.the'
p4519
I1
sS'formality'
p4520
I2
sS'reuters.russia'
p4521
I1
sS'particular'
p4522
I4
sS'0.741221'
p4523
I1
sS'town'
p4524
I7
sS'der'
p4525
I7
sS'des'
p4526
I4
sS'roosevelt'
p4527
I2
sS'remain'
p4528
I15
sS'paragraph'
p4529
I10
sS'halts'
p4530
I1
sS'den'
p4531
I11
sS'vougioukas'
p4532
I2
sS'abandon'
p4533
I1
sS'strategies'
p4534
I3
sS'chirac'
p4535
I1
sS'purchases'
p4536
I1
sS'onslaught'
p4537
I4
sS'share'
p4538
I13
sS'prodi'
p4539
I1
sS'minimum'
p4540
I7
sS'numbers'
p4541
I3
sS'sharp'
p4542
I1
sS'needs'
p4543
I9
sS'doubters.following'
p4544
I1
sS'rye'
p4545
I7
sS'8.88273'
p4546
I1
sS'joblessness'
p4547
I1
sS'csu'
p4548
I1
sS'duesseldorf'
p4549
I2
sS'stir'
p4550
I2
sS'inflationary'
p4551
I3
sS'available.monday'
p4552
I23
sS'advice'
p4553
I3
sS'eurocontrol'
p4554
I2
sS'coming'
p4555
I14
sS'bangemann'
p4556
I7
sS'wave'
p4557
I18
sS'response'
p4558
I6
sS'responsibility'
p4559
I5
sS'inspectors'
p4560
I2
sS'azerbaijan'
p4561
I1
sS'piraeus'
p4562
I1
sS'4221'
p4563
I6
sS'24'
p4564
I16
sS'25'
p4565
I21
sS'26'
p4566
I7
sS'27'
p4567
I8
sS'20'
p4568
I29
sS'21'
p4569
I13
sS'22'
p4570
I13
sS'23'
p4571
I10
sS'energies'
p4572
I1
sS'28'
p4573
I14
sS'29'
p4574
I5
sS'pct'
p4575
I2
sS'late'
p4576
I16
sS'thursday.the'
p4577
I2
sS'reuters'
p4578
I24
sS'edmund'
p4579
I1
sS'release'
p4580
I19
sS'arias'
p4581
I3
sS'hurting'
p4582
I1
sS'good'
p4583
I16
sS'salamanca'
p4584
I3
sS'seeking'
p4585
I4
sS'primary'
p4586
I1
sS'compound'
p4587
I3
sS'complain'
p4588
I1
sS'association'
p4589
I30
sS'thought.the'
p4590
I1
sS'mamere'
p4591
I3
sS'6,500'
p4592
I1
sS'breakdown'
p4593
I1
sS'house'
p4594
I10
sS'fish'
p4595
I4
sS'hard'
p4596
I13
sS'idea'
p4597
I5
sS'insurance'
p4598
I5
sS'edrc'
p4599
I4
sS'mustered'
p4600
I1
sS'initiatives'
p4601
I3
sS'funding'
p4602
I3
sS'deft'
p4603
I1
sS'participants'
p4604
I1
sS'evaluation'
p4605
I6
sS'taxation.the'
p4606
I2
sS'difficulty'
p4607
I2
sS'members'
p4608
I20
sS'backed'
p4609
I3
sS'chambliss'
p4610
I2
sS'munck'
p4611
I2
sS'beginning'
p4612
I7
sS'britain.instead'
p4613
I2
sS'benefits'
p4614
I10
sS'barbara'
p4615
I1
sS'computers'
p4616
I2
sS'pilots'
p4617
I1
sS'copper'
p4618
I1
sS'december.they'
p4619
I1
sS'wages'
p4620
I4
sS'21brussels'
p4621
I2
sS'kok'
p4622
I10
sS'2.196'
p4623
I1
sS'divorce'
p4624
I2
sS'5th'
p4625
I4
sS'regulation'
p4626
I108
sS'assumption'
p4627
I2
sS'statement'
p4628
I27
sS'compromise'
p4629
I2
sS'catapult'
p4630
I1
sS'ociidentale'
p4631
I1
sS'needle'
p4632
I3
sS'96/406/cfsp'
p4633
I1
sS'gediminas'
p4634
I1
sS'doctors'
p4635
I4
sS'ago.palestinians'
p4636
I1
sS'believe'
p4637
I9
sS'eastwards'
p4638
I1
sS'b'
p4639
I6
sS'578/97'
p4640
I1
sS'recording'
p4641
I2
sS'contrary'
p4642
I1
sS'treated'
p4643
I4
sS'0.942'
p4644
I2
sS'0.940'
p4645
I2
sS'ceps'
p4646
I6
sS'orders'
p4647
I2
sS'310.005'
p4648
I1
sS'built'
p4649
I3
sS'flared'
p4650
I1
sS'32.brussels'
p4651
I2
sS'onset'
p4652
I1
sS'majority'
p4653
I7
sS'build'
p4654
I4
sS'k4'
p4655
I2
sS'deepening'
p4656
I3
sS'jukka'
p4657
I2
sS'province'
p4658
I1
sS'salmon'
p4659
I12
sS'chart'
p4660
I2
sS'conspicuously'
p4661
I2
sS'significant'
p4662
I13
sS'services'
p4663
I24
sS'extremely'
p4664
I6
sS'clemente'
p4665
I1
sS'kg'
p4666
I3
sS'mediation'
p4667
I2
sS'universiteit'
p4668
I2
sS'liechtenstein'
p4669
I2
sS'ku'
p4670
I6
sS'joining'
p4671
I25
sS'sector'
p4672
I17
sS'm.868'
p4673
I1
sS'directorate'
p4674
I1
sS'particularly'
p4675
I8
sS'rebels'
p4676
I4
sS'disturbances'
p4677
I3
sS'obligations'
p4678
I5
sS'converge'
p4679
I2
sS'0400.wednesday'
p4680
I1
sS'spokesperson.an'
p4681
I1
sS'networks'
p4682
I2
sS'giant'
p4683
I2
sS'dividing'
p4684
I1
sS'merger'
p4685
I11
sS'brushed'
p4686
I1
sS'freedoms'
p4687
I2
sS'8'
p4688
I11
sS'tuesday.three'
p4689
I1
sS'kabila'
p4690
I2
sS'7noordwijk'
p4691
I3
sS'voluntarily.the'
p4692
I3
sS'express'
p4693
I8
sS'rest'
p4694
I11
sS'restart'
p4695
I1
sS'statement.on'
p4696
I2
sS'hepher'
p4697
I2
sS'resolve'
p4698
I2
sS'motorcycles'
p4699
I2
sS'transitional'
p4700
I1
sS'remove'
p4701
I4
sS'garcia'
p4702
I3
sS'safeguarding'
p4703
I3
sS'common'
p4704
I27
sS'logistic'
p4705
I3
sS'06.05.96on'
p4706
I2
sS'fledged'
p4707
I8
sS'representive'
p4708
I1
sS'20,835'
p4709
I1
sS'soufflet'
p4710
I3
sS'lion'
p4711
I1
sS'individual'
p4712
I8
sS'tender'
p4713
I24
sS'11th'
p4714
I2
sS'materially'
p4715
I2
sS'said.former'
p4716
I2
sS'expert'
p4717
I6
sS'visiting'
p4718
I1
sS'electoral'
p4719
I5
sS'smallest'
p4720
I2
sS'135,000'
p4721
I1
sS'iron'
p4722
I1
sS'randzio'
p4723
I3
sS'kinderman'
p4724
I2
sS'eurocommerce'
p4725
I3
sS'vanishing'
p4726
I2
sS'reverse'
p4727
I9
sS'scandian'
p4728
I2
sS'cometition'
p4729
I1
sS'annual'
p4730
I19
sS'comment.luxembourg'
p4731
I1
sS'foreign'
p4732
I40
sS'supply'
p4733
I5
sS'simple'
p4734
I1
sS'percent.jp'
p4735
I1
sS'simply'
p4736
I3
sS'unsuccessful'
p4737
I1
sS'helms'
p4738
I3
sS'raise'
p4739
I10
sS'create'
p4740
I11
sS'million.the'
p4741
I1
sS'rivals'
p4742
I1
sS'ireland'
p4743
I13
sS'said.the'
p4744
I39
sS'meeting'
p4745
I86
sS'ip/97/259'
p4746
I1
sS'1.215'
p4747
I1
sS'jaakko'
p4748
I1
sS'gas'
p4749
I5
sS'gap'
p4750
I2
sS'office.his'
p4751
I2
sS'dispute.in'
p4752
I2
sS'prices'
p4753
I36
sS'gmt.in'
p4754
I2
sS'replaces'
p4755
I1
sS'necmettin'
p4756
I1
sS'grains'
p4757
I2
sS'foreshadowed'
p4758
I2
sS'1066/95'
p4759
I1
sS'elections'
p4760
I9
sS'malting'
p4761
I1
sS'portugal'
p4762
I18
sS'century'
p4763
I2
sS'7.93386'
p4764
I1
sS'stubbornly'
p4765
I2
sS'97/14/ec'
p4766
I1
sS'italy'
p4767
I38
sS'harmonisation'
p4768
I1
sS'ruth'
p4769
I2
sS'development'
p4770
I46
sS'currencies'
p4771
I11
sS'unalloyed'
p4772
I2
sS'7325'
p4773
I2
sS'syn'
p4774
I2
sS'retrenchment'
p4775
I1
sS'moment'
p4776
I8
sS'integrationist'
p4777
I1
sS'consulted'
p4778
I1
sS'0.681'
p4779
I1
sS'task'
p4780
I5
sS'percentages'
p4781
I1
sS'spent'
p4782
I1
sS'priced'
p4783
I1
sS'nordic'
p4784
I3
sS'withdraw'
p4785
I1
sS'y'
p4786
I3
sS'entry'
p4787
I10
sS'shape'
p4788
I1
sS'alternative'
p4789
I4
sS'injuries'
p4790
I2
sS'letting'
p4791
I1
sS'impetus'
p4792
I2
sS'icelandic'
p4793
I2
sS'pollster'
p4794
I4
sS'deputy'
p4795
I1
sS'source'
p4796
I10
sS'deliberately'
p4797
I2
sS'easter'
p4798
I3
sS'excited'
p4799
I2
sS'groats'
p4800
I1
sS'big'
p4801
I11
sS'bid'
p4802
I18
sS'judgement'
p4803
I2
sS'matters'
p4804
I7
sS'576/97'
p4805
I1
sS'competition.with'
p4806
I1
sS'bit'
p4807
I2
sS'interest.labour'
p4808
I1
sS'knock'
p4809
I1
sS'semi'
p4810
I1
sS'decisionmaking'
p4811
I1
sS'addressed'
p4812
I2
sS'flux'
p4813
I2
sS'surging'
p4814
I2
sS'shipyards.bangemann'
p4815
I1
sS'absolutely'
p4816
I8
sS'delegation'
p4817
I1
sS'strongest'
p4818
I4
sS'pricing'
p4819
I11
sS'nicaragua'
p4820
I1
sS'lars'
p4821
I5
sS'scale'
p4822
I2
sS'contacts'
p4823
I2
sS'pet'
p4824
I4
sS'decision'
p4825
I132
sS'netherlands.while'
p4826
I2
sS'integration'
p4827
I9
sS'connecting'
p4828
I3
sS'eliminate'
p4829
I3
sS'300'
p4830
I20
sS'301'
p4831
I2
sS'working.maastricht'
p4832
I2
sS'continuing'
p4833
I5
sS'available.the'
p4834
I2
sS'goods'
p4835
I18
sS'hellenic'
p4836
I1
sS'12toulouse'
p4837
I2
sS'consequently'
p4838
I1
sS'pollution'
p4839
I10
sS'1500/1400'
p4840
I1
sS'remembrance'
p4841
I2
sS'forward'
p4842
I9
sS'1.59'
p4843
I3
sS'opponent'
p4844
I1
sS'underlines'
p4845
I1
sS'adjusting'
p4846
I1
sS'immigration'
p4847
I2
sS'hoped'
p4848
I6
sS"d'industrie"
p4849
I1
sS'hopes'
p4850
I7
sS'subsidiary'
p4851
I1
sS'standards.he'
p4852
I1
sS'directed'
p4853
I1
sS'planes'
p4854
I1
sS'autonomous'
p4855
I2
sS'596/97'
p4856
I1
sS'cypriot'
p4857
I2
sS'579/97'
p4858
I1
sS'akbel'
p4859
I2
sS'flow'
p4860
I2
sS'mckinnon'
p4861
I1
sS'engineering'
p4862
I1
sS'denying'
p4863
I2
sS'date.he'
p4864
I1
sS'inflatioon'
p4865
I1
sS'standards.according'
p4866
I1
sS'prepared'
p4867
I5
sS'commission.the'
p4868
I1
sS'restoration'
p4869
I1
sS'implies'
p4870
I2
sS'vehicles'
p4871
I16
sS'bankers'
p4872
I4
sS'2002'
p4873
I3
sS'2000'
p4874
I10
sS'implied'
p4875
I2
sS'reserve'
p4876
I2
sS'minors'
p4877
I2
sS'cynthia'
p4878
I3
sS'wrangle'
p4879
I2
sS'disabilities'
p4880
I1
sS'italy.following'
p4881
I2
sS'welter'
p4882
I3
sS'97/223/ec'
p4883
I1
sS'action.but'
p4884
I2
sS'590/97'
p4885
I1
sS'quarterly'
p4886
I1
sS'fatal'
p4887
I3
sS'june.stoiber'
p4888
I1
sS'ingredient'
p4889
I1
sS'automotive'
p4890
I1
sS'ankara'
p4891
I7
sS'employment.although'
p4892
I1
sS'putting'
p4893
I1
sS'entire'
p4894
I1
sS'shock'
p4895
I1
sS'rearing'
p4896
I1
sS'1999.asbrink'
p4897
I1
sS'crop'
p4898
I8
sS'barnier'
p4899
I1
sS'power'
p4900
I16
sS'24.the'
p4901
I1
sS'giving'
p4902
I6
sS'practices'
p4903
I7
sS'access'
p4904
I7
sS'exercise'
p4905
I1
sS'body'
p4906
I6
sS'justification'
p4907
I3
sS'exchange'
p4908
I34
sS'jointly'
p4909
I2
sS'packing'
p4910
I8
sS'cultural'
p4911
I11
sS'extreme'
p4912
I1
sS'subcommitee'
p4913
I1
sS'39'
p4914
I4
sS'38'
p4915
I2
sS'33'
p4916
I7
sS'32'
p4917
I15
sS'31'
p4918
I13
sS'30'
p4919
I15
sS'18-nation'
p4920
I1
sS'36'
p4921
I4
sS'35'
p4922
I2
sS'34'
p4923
I1
sS'margin.greenpeace'
p4924
I1
sS'implement'
p4925
I12
sS'proof'
p4926
I8
sS'courting'
p4927
I2
sS'composed'
p4928
I1
sS'sufferingfinancial'
p4929
I2
sS'80/217/eec'
p4930
I1
sS'liqueur'
p4931
I1
sS'herzegovina'
p4932
I1
sS'private'
p4933
I5
sS'1/97'
p4934
I1
sS'resolutions'
p4935
I6
sS'gmos.bjerregaard'
p4936
I2
sS'97/204/ec'
p4937
I1
sS'24.77'
p4938
I2
sS'agreement.usda'
p4939
I1
sS'upcoming'
p4940
I1
sS'iir'
p4941
I2
sS'nassauer'
p4942
I2
sS'fantuzzy'
p4943
I3
sS'iii'
p4944
I3
sS'account'
p4945
I10
sS'available.malta'
p4946
I2
sS'justice.italy'
p4947
I1
sS'transmissible'
p4948
I2
sS'0800'
p4949
I1
sS'obvious'
p4950
I1
sS'closing'
p4951
I4
sS'aci'
p4952
I3
sS'prohibiting'
p4953
I2
sS'feebleness'
p4954
I2
sS'effectively'
p4955
I15
sS'employs'
p4956
I1
sS'ascension'
p4957
I2
sS'laender'
p4958
I4
sS'democracy'
p4959
I3
sS'holds'
p4960
I132
sS'regions'
p4961
I20
sS'forest'
p4962
I23
sS'said.but'
p4963
I2
sS'stock'
p4964
I6
sS'profile'
p4965
I3
sS'stemmed'
p4966
I2
sS'buildings'
p4967
I1
sS'friday.eu'
p4968
I1
sS'specifications'
p4969
I3
sS'waters'
p4970
I4
sS'collection'
p4971
I3
sS'1980s.later'
p4972
I2
sS'outokumpu'
p4973
I1
sS'guilder'
p4974
I2
sS'944'
p4975
I2
sS'lines'
p4976
I2
sS'941'
p4977
I2
sS'chief'
p4978
I17
sS'800,000'
p4979
I1
sS'800,005'
p4980
I1
sS'institutional'
p4981
I4
sS'sweetenerscommission'
p4982
I1
sS'oral'
p4983
I1
sS'ivana'
p4984
I3
sS'austrian'
p4985
I2
sS'1986-93'
p4986
I1
sS'industries'
p4987
I4
sS'lg'
p4988
I4
sS'29brussels'
p4989
I3
sS'la'
p4990
I1
sS'300,000'
p4991
I1
sS'winning'
p4992
I1
sS'willing'
p4993
I3
sS'stances'
p4994
I1
sS'negotiates'
p4995
I2
sS'yamaichi'
p4996
I2
sS'criminal'
p4997
I1
sS'friday.the'
p4998
I2
sS'greater'
p4999
I6
sS'dan'
p5000
I10
sS'spell'
p5001
I2
sS'reporters.before'
p5002
I2
sS'0915/0715'
p5003
I3
sS'cutting'
p5004
I2
sS'mandate'
p5005
I2
sS'insisting'
p5006
I2
sS'day'
p5007
I40
sS'vallve'
p5008
I3
sS'5.81340'
p5009
I1
sS'february'
p5010
I28
sS'warned'
p5011
I11
sS'identified'
p5012
I2
sS'morris'
p5013
I4
sS'week.traders'
p5014
I1
sS'tension'
p5015
I3
sS'abrogation'
p5016
I2
sS'programmes'
p5017
I7
sS'sexual'
p5018
I2
sS'wholly'
p5019
I2
sS'giordano'
p5020
I2
sS'barley'
p5021
I10
sS'lecture'
p5022
I2
sS'electronics'
p5023
I2
sS'ref'
p5024
I3
sS'red'
p5025
I4
sS'franc'
p5026
I8
sS'585'
p5027
I1
sS'fluctuated'
p5028
I1
sS'franz'
p5029
I6
sS'likelihood'
p5030
I2
sS'sueddeutsche'
p5031
I1
sS'receipts'
p5032
I2
sS'backwards'
p5033
I2
sS'allies'
p5034
I3
sS'bowman'
p5035
I3
sS'wednesday.in'
p5036
I2
sS'chicken'
p5037
I5
sS'wednesday.it'
p5038
I1
sS'qualification'
p5039
I2
sS'barriers'
p5040
I2
sS'retain'
p5041
I3
sS'retail'
p5042
I2
sS'facilitate'
p5043
I3
sS'south'
p5044
I34
sS'13.7558'
p5045
I1
sS'2,000'
p5046
I2
sS'01.01.96pta'
p5047
I3
sS'reached'
p5048
I3
sS'0900/0700'
p5049
I15
sS'owning'
p5050
I1
sS'reforms.leiden'
p5051
I1
sS'unspecified'
p5052
I3
sS'available.thursday'
p5053
I6
sS'intermediate'
p5054
I3
sS'plantings'
p5055
I4
sS'7.49'
p5056
I6
sS'gear'
p5057
I1
sS'environmental'
p5058
I25
sS'policy.spokesman'
p5059
I1
sS'reaffirm'
p5060
I3
sS'completes'
p5061
I2
sS'97/208/ec'
p5062
I1
sS'health.in'
p5063
I2
sS'0.711786'
p5064
I1
sS'swedes'
p5065
I5
sS'compensation'
p5066
I2
sS'visited'
p5067
I2
sS'woche'
p5068
I2
sS'comfortable'
p5069
I3
sS'tide'
p5070
I3
sS'unlikely'
p5071
I18
sS'38.4'
p5072
I1
sS'apparently'
p5073
I2
sS'mid'
p5074
I5
sS'322'
p5075
I62
sS'mix'
p5076
I1
sS'tranches'
p5077
I1
sS'concerns'
p5078
I15
sS'shipyards'
p5079
I6
sS'1.34'
p5080
I2
sS'sawmill'
p5081
I1
sS'unless'
p5082
I7
sS'signifying'
p5083
I1
sS'1700/1500'
p5084
I5
sS'822/87'
p5085
I1
sS'oilseed'
p5086
I1
sS'co2'
p5087
I1
sS'preliminary'
p5088
I1
sS'payment'
p5089
I5
sS'afresh'
p5090
I1
sS'gather'
p5091
I6
sS'request'
p5092
I8
sS'disease'
p5093
I9
sS'1,000'
p5094
I2
sS'artificially'
p5095
I3
sS'eurobonds'
p5096
I1
sS'normally'
p5097
I5
sS'available.luxembourg'
p5098
I4
sS'text'
p5099
I21
sS'supported'
p5100
I2
sS'rotating'
p5101
I1
sS'6,100'
p5102
I1
sS'supporter'
p5103
I1
sS'staff'
p5104
I7
sS'knowledge'
p5105
I1
sS'bids.there'
p5106
I1
sS'circumpolar'
p5107
I4
sS'controls'
p5108
I8
sS'unable'
p5109
I5
sS'communist'
p5110
I4
sS'equilibrium'
p5111
I1
sS'regularly'
p5112
I2
sS'exceptional'
p5113
I4
sS'thursday.it'
p5114
I1
sS'bear'
p5115
I1
sS'591/97'
p5116
I1
sS'darken'
p5117
I2
sS'timing'
p5118
I4
sS'papoutsis.already'
p5119
I1
sS'kazakhstan'
p5120
I1
sS'areas'
p5121
I4
sS'19brussels'
p5122
I2
sS'organ'
p5123
I2
sS'cicero'
p5124
I2
sS'calling'
p5125
I1
sS'tightening'
p5126
I3
sS'fixed'
p5127
I8
sS'hydrocarbons'
p5128
I1
sS'conform'
p5129
I3
sS'exists'
p5130
I2
sS'national'
p5131
I26
sS'0.727'
p5132
I2
sS'success.but'
p5133
I3
sS'1942.53'
p5134
I1
sS'enhanced'
p5135
I1
sS'greece'
p5136
I17
sS'turks'
p5137
I1
sS'reform'
p5138
I15
sS'clearing'
p5139
I2
sS'brunt'
p5140
I1
sS'difficulties'
p5141
I7
sS'phased'
p5142
I1
sS'routine'
p5143
I5
sS'progress'
p5144
I20
sS'globalisation'
p5145
I2
sS'channels.the'
p5146
I1
sS'finanstidningen'
p5147
I1
sS'implementing'
p5148
I5
sS'armenia'
p5149
I1
sS'insufficent'
p5150
I2
sS'optional'
p5151
I1
sS'february.he'
p5152
I1
sS'taking'
p5153
I18
sS'equal'
p5154
I8
sS'pulp'
p5155
I2
sS'fulfilled'
p5156
I2
sS'9/9'
p5157
I2
sS'passing'
p5158
I1
sS'comment'
p5159
I4
sS'travellers'
p5160
I1
sS'said.kiely'
p5161
I1
sS'backers'
p5162
I1
sS'basing'
p5163
I1
sS'flourishing'
p5164
I1
sS'newspaper.his'
p5165
I1
sS'7095'
p5166
I2
sS'thibault.air'
p5167
I1
sS'attends'
p5168
I10
sS'upbeat'
p5169
I3
sS'proposal'
p5170
I177
sS'curtail'
p5171
I2
sS'arises'
p5172
I2
sS'received'
p5173
I3
sS'population.some'
p5174
I1
sS'climate'
p5175
I10
sS'economy.but'
p5176
I2
sS'assessments'
p5177
I4
sS'fellow'
p5178
I1
sS'homes'
p5179
I1
sS'7-9'
p5180
I2
sS'april.european'
p5181
I1
sS'atmospheric'
p5182
I3
sS'defining'
p5183
I3
sS'value'
p5184
I10
sS'cereals'
p5185
I15
sS'599/97'
p5186
I1
sS'improvement.turkey'
p5187
I1
sS'respected'
p5188
I2
sS'arrangements'
p5189
I9
sS'rodrigo'
p5190
I2
sS'productivity'
p5191
I5
sS'administration'
p5192
I16
sS'slammed'
p5193
I1
sS'flour'
p5194
I16
sS'tighten'
p5195
I1
sS'practice'
p5196
I6
sS'exceeds'
p5197
I1
sS'antonio'
p5198
I2
sS'thought'
p5199
I5
sS'sets'
p5200
I3
sS'position'
p5201
I30
sS'soviet'
p5202
I2
sS'latest'
p5203
I7
sS'stores'
p5204
I2
sS'juncker'
p5205
I3
sS'executive'
p5206
I17
sS'numbering'
p5207
I1
sS'necessitate'
p5208
I2
sS'interim'
p5209
I14
sS'protecting'
p5210
I5
sS'hamburg'
p5211
I2
sS'gmo'
p5212
I20
sS'rebate'
p5213
I4
sS'add'
p5214
I2
sS'202-898-8394'
p5215
I1
sS'282'
p5216
I2
sS'285'
p5217
I4
sS'287'
p5218
I29
sS'gmt'
p5219
I103
sS'resolved'
p5220
I2
sS'displaced'
p5221
I5
sS'like'
p5222
I14
sS'success'
p5223
I5
sS'admitted'
p5224
I1
sS'conrad'
p5225
I2
sS'soft'
p5226
I15
sS'heel'
p5227
I1
sS'italian'
p5228
I11
sS'classical'
p5229
I1
sS'authority'
p5230
I8
sS'competition.a'
p5231
I1
sS'convey'
p5232
I1
sS'recommendation'
p5233
I15
sS'cuts.the'
p5234
I1
sS'happens'
p5235
I2
sS'est'
p5236
I1
sS'turkmenistan'
p5237
I4
sS'attends.strasbourg'
p5238
I1
sS'8noordwijk'
p5239
I4
sS'1464/96commission'
p5240
I1
sS'chains'
p5241
I2
sS'regain'
p5242
I2
sS'noise'
p5243
I2
sS'lieutenant'
p5244
I1
sS'host'
p5245
I2
sS'snapped'
p5246
I1
sS'panel'
p5247
I8
sS'196.401'
p5248
I1
sS'rationing'
p5249
I1
sS'actual'
p5250
I4
sS'certainty'
p5251
I1
sS'19.03.97os'
p5252
I3
sS'fischler'
p5253
I15
sS'andes'
p5254
I3
sS'introduced'
p5255
I8
sS'faltering'
p5256
I1
sS'tackle'
p5257
I2
sS'alistair'
p5258
I1
sS'hang'
p5259
I1
sS'1986'
p5260
I2
sS'1985'
p5261
I1
sS'1981'
p5262
I1
sS'vegetables'
p5263
I4
sS'3218'
p5264
I2
sS'1988'
p5265
I1
sS'awarded'
p5266
I7
sS'france.the'
p5267
I1
sS'turkey.the'
p5268
I1
sS'biggest'
p5269
I7
sS'maze'
p5270
I2
sS'buy'
p5271
I7
sS'bus'
p5272
I1
sS'preparations'
p5273
I8
sS'insured'
p5274
I2
sS'repeated'
p5275
I1
sS'8.20'
p5276
I1
sS'8.29'
p5277
I1
sS'79,000'
p5278
I1
sS'assets'
p5279
I1
sS'wise'
p5280
I2
sS'dangerous'
p5281
I4
sS'j'
p5282
I1
sS'8/9'
p5283
I2
sS'deaths'
p5284
I1
sS'destabilise'
p5285
I1
sS'exceeded'
p5286
I2
sS'pig'
p5287
I1
sS'17-dec'
p5288
I2
sS'ambassadors'
p5289
I1
sS'paraguay'
p5290
I4
sS'commentators'
p5291
I1
sS'80'
p5292
I5
sS'48'
p5293
I1
sS'49'
p5294
I14
sS'46'
p5295
I4
sS'86'
p5296
I1
sS'44'
p5297
I26
sS'45'
p5298
I1
sS'claiming'
p5299
I2
sS'43'
p5300
I2
sS'40'
p5301
I6
sS'41'
p5302
I8
sS'forestry'
p5303
I3
sS'ratify'
p5304
I2
sS'pogorelov'
p5305
I3
sS'enlargement'
p5306
I16
sS'enterprises'
p5307
I4
sS'yards.the'
p5308
I1
sS'resolution'
p5309
I10
sS'coherent'
p5310
I1
sS'available.august'
p5311
I2
sS'deregulated'
p5312
I2
sS'tonnes.so'
p5313
I1
sS'biotechnology'
p5314
I2
sS'accidents'
p5315
I2
sS'limited'
p5316
I10
sS'schengen'
p5317
I4
sS'comparatively'
p5318
I1
sS'sleek'
p5319
I1
sS'revoking'
p5320
I1
sS'violate'
p5321
I1
sS'1.10'
p5322
I1
sS'paris'
p5323
I14
sS'risk'
p5324
I15
sS'rise'
p5325
I17
sS'prices.benson'
p5326
I1
sS'softened'
p5327
I3
sS'school'
p5328
I3
sS'venue'
p5329
I49
sS'lynnley'
p5330
I1
sS'enjoy'
p5331
I1
sS'leaders'
p5332
I12
sS'205.570'
p5333
I1
sS'capitalisation'
p5334
I2
sS'guidelines'
p5335
I10
sS'estimates'
p5336
I4
sS'direct'
p5337
I3
sS'sunday.junior'
p5338
I1
sS'surrounding'
p5339
I1
sS'persuade'
p5340
I1
sS'says.channelling'
p5341
I1
sS'estimated'
p5342
I13
sS'forsa'
p5343
I1
sS'organisms'
p5344
I14
sS'commemorating'
p5345
I2
sS'profitability'
p5346
I6
sS'supplied'
p5347
I1
sS'converge.meanwhile'
p5348
I1
sS'97/213/ec'
p5349
I1
sS'supplier'
p5350
I3
sS'supplies'
p5351
I2
sS'seeks'
p5352
I3
sS'philippe'
p5353
I2
sS'forint'
p5354
I2
sS'licences'
p5355
I14
sS'hundreds'
p5356
I10
sS'transfrontier'
p5357
I4
sS'coceral'
p5358
I2
sS'lyonnais'
p5359
I4
sS'2.354'
p5360
I2
sS'property'
p5361
I1
sS'forum'
p5362
I3
sS'auction'
p5363
I3
sS'leaves'
p5364
I1
sS'changed'
p5365
I6
sS'ecu'
p5366
I6
sS'analysts'
p5367
I9
sS'lemmel'
p5368
I3
sS'changes'
p5369
I18
sS'1999.speaking'
p5370
I1
sS'grumbled'
p5371
I2
sS'advisor'
p5372
I8
sS'result.the'
p5373
I1
sS'swings'
p5374
I2
sS'paribas.the'
p5375
I1
sS'noting'
p5376
I1
sS'chewing'
p5377
I4
sS'assessment'
p5378
I7
sS'2luxembourg'
p5379
I4
sS'join'
p5380
I51
sS'onic'
p5381
I1
sS'alaron'
p5382
I1
sS'tuesday.a'
p5383
I1
sS'mr'
p5384
I1
sS'spending.continental'
p5385
I2
sS'dolphin'
p5386
I2
sS'committee.sweden'
p5387
I1
sS'water.friday'
p5388
I2
sS'attract'
p5389
I2
sS'guarantee'
p5390
I7
sS'end'
p5391
I41
sS'gatt'
p5392
I3
sS'writers'
p5393
I1
sS'240.5'
p5394
I1
sS'accusations'
p5395
I2
sS'widespread'
p5396
I5
sS'charging'
p5397
I2
sS'issues.the'
p5398
I1
sS'3311812-4'
p5399
I2
sS'elizabeth'
p5400
I1
sS'demanding'
p5401
I5
sS'7/9'
p5402
I2
sS'amid'
p5403
I2
sS'acknowledged'
p5404
I1
sS'releases.austria'
p5405
I2
sS'600,005'
p5406
I1
sS'jungle'
p5407
I1
sS'enter'
p5408
I5
sS'diary'
p5409
I19
sS'preventive'
p5410
I1
sS'1944.47'
p5411
I1
sS'reforming'
p5412
I2
sS'drachma'
p5413
I2
sS'interpretation'
p5414
I3
sS'expects'
p5415
I3
sS'london'
p5416
I24
sS'liberalisation.air'
p5417
I2
sS'expectations'
p5418
I7
sS'signatory'
p5419
I1
sS'complex'
p5420
I1
sS'children.the'
p5421
I1
sS'2.905'
p5422
I1
sS'9.45'
p5423
I3
sS'diseases'
p5424
I9
sS'shares.jean'
p5425
I1
sS'prevented'
p5426
I1
sS'country.the'
p5427
I1
sS'tourism'
p5428
I2
sS'netherlands'
p5429
I38
sS'bosnia'
p5430
I1
sS'notified'
p5431
I3
sS'thursday.ministers'
p5432
I1
sS'chuck'
p5433
I1
sS'elaborating.meetings'
p5434
I1
sS'1745/1545'
p5435
I2
sS'lasting'
p5436
I3
sS'signing'
p5437
I1
sS'ekonomikos'
p5438
I1
sS'defences'
p5439
I2
sS'saturday'
p5440
I11
sS'revisions'
p5441
I1
sS'ngvs'
p5442
I2
sS'fraught'
p5443
I2
sS'reuters.zavliaris'
p5444
I1
sS'laid'
p5445
I4
sS'soon.still'
p5446
I1
sS'got'
p5447
I1
sS'newly'
p5448
I4
sS'independence'
p5449
I5
sS'market.the'
p5450
I2
sS'ciba'
p5451
I5
sS'huhtamaki'
p5452
I6
sS'contained.it'
p5453
I2
sS'free'
p5454
I26
sS'formation'
p5455
I2
sS'09.03.97fmk'
p5456
I3
sS'boosting'
p5457
I3
sS'wanted'
p5458
I21
sS'days'
p5459
I24
sS'priorities'
p5460
I2
sS'norway.the'
p5461
I1
sS'lgsw'
p5462
I1
sS'nyheter'
p5463
I1
sS'rand'
p5464
I2
sS'industrial'
p5465
I11
sS'agency.but'
p5466
I1
sS'1330/1130'
p5467
I2
sS'encouraging'
p5468
I2
sS'restrict'
p5469
I1
sS'adopted'
p5470
I12
sS'pietinen'
p5471
I2
sS'0.01'
p5472
I1
sS'confirming'
p5473
I1
sS'wildly'
p5474
I1
sS'percentage'
p5475
I3
sS'london.one'
p5476
I3
sS'ceiling'
p5477
I3
sS'6libreville'
p5478
I2
sS'matutes'
p5479
I2
sS'serve'
p5480
I2
sS'took'
p5481
I10
sS'negotiating'
p5482
I7
sS'western'
p5483
I7
sS'payments.the'
p5484
I1
sS'injected'
p5485
I1
sS'37,500'
p5486
I1
sS'311.761'
p5487
I3
sS'2003.they'
p5488
I1
sS'frankly'
p5489
I1
sS'nominate'
p5490
I2
sS'ghilardotti'
p5491
I3
sS'immigrants'
p5492
I2
sS'reponse'
p5493
I1
sS'gabon'
p5494
I2
sS'companies.for'
p5495
I2
sS'unhcr'
p5496
I4
sS'respected.the'
p5497
I2
sS'ran'
p5498
I1
sS'1996.but'
p5499
I1
sS'rai'
p5500
I2
sS'raw'
p5501
I5
sS'lunchtime'
p5502
I2
sS'regrettable.sparking'
p5503
I2
sS'mierlo'
p5504
I5
sS'seminar'
p5505
I4
sS'relatively'
p5506
I4
sS'isolated'
p5507
I2
sS'guyau'
p5508
I3
sS'schleswig'
p5509
I2
sS'effectiveness'
p5510
I2
sS'time.from'
p5511
I2
sS'2.95'
p5512
I2
sS'spreadable'
p5513
I1
sS'0.112'
p5514
I1
sS'rumble'
p5515
I1
sS'lists'
p5516
I1
sS'thursday.u.s'
p5517
I1
sS'bse'
p5518
I6
sS'coin'
p5519
I2
sS'2.19831'
p5520
I3
sS'1.671'
p5521
I1
sS'metal'
p5522
I7
sS'treaty'
p5523
I43
sS'tonnes.this'
p5524
I1
sS'enterprise'
p5525
I1
sS'inspire'
p5526
I1
sS'pope'
p5527
I2
sS'reductions'
p5528
I5
sS'mishandling'
p5529
I3
sS'queen'
p5530
I1
sS'radio'
p5531
I9
sS'167.some'
p5532
I1
sS'earth'
p5533
I2
sS'1898/87'
p5534
I1
sS'reunification'
p5535
I2
sS'3.562'
p5536
I2
sS'claude'
p5537
I2
sS'situations'
p5538
I1
sS'delays'
p5539
I1
sS'542'
p5540
I13
sS'540'
p5541
I3
sS'548'
p5542
I1
sS'hardball'
p5543
I3
sS'oct'
p5544
I2
sS'borrowed'
p5545
I1
sS'curtis.other'
p5546
I1
sS'fontaine'
p5547
I3
sS'criticized'
p5548
I1
sS'guatemala'
p5549
I1
sS'despite'
p5550
I19
sS'report'
p5551
I181
sS'knocks'
p5552
I2
sS'6/9'
p5553
I2
sS'dominique'
p5554
I1
sS'countries'
p5555
I121
sS'twice'
p5556
I4
sS'kinnock'
p5557
I6
sS'themselves.the'
p5558
I1
sS'detection'
p5559
I3
sS'capacity'
p5560
I21
sS'interdiction'
p5561
I2
sS'7.84'
p5562
I2
sS'approach'
p5563
I6
sS'185,000'
p5564
I1
sS'bost'
p5565
I1
sS'weak'
p5566
I5
sS'treaty.ministers'
p5567
I2
sS'news'
p5568
I49
sS'97/210/ec'
p5569
I1
sS'improve'
p5570
I10
sS'faced'
p5571
I1
sS'protect'
p5572
I7
sS'unicef'
p5573
I1
sS'extracts'
p5574
I4
sS'ecosoc'
p5575
I11
sS'participating'
p5576
I4
sS'players'
p5577
I4
sS'games'
p5578
I1
sS'faces'
p5579
I5
sS'expense'
p5580
I1
sS'suggest'
p5581
I3
sS'1.5'
p5582
I4
sS'commerce.strasbourg'
p5583
I2
sS'karel'
p5584
I1
sS'soon.industry'
p5585
I2
sS'hitler'
p5586
I4
sS'1.1'
p5587
I1
sS'conference'
p5588
I123
sS'jobless'
p5589
I2
sS'beef'
p5590
I18
sS'1.95386'
p5591
I1
sS'simplification'
p5592
I2
sS'rebounded'
p5593
I3
sS'quickly'
p5594
I11
sS'confident'
p5595
I1
sS'cognac'
p5596
I1
sS'beet'
p5597
I5
sS'expected'
p5598
I68
sS'4657.brussels'
p5599
I2
sS'drugs'
p5600
I9
sS'transatlantic'
p5601
I7
sS'evolution.sintra'
p5602
I1
sS'craft'
p5603
I2
sS'catch'
p5604
I1
sS'elaborate.he'
p5605
I1
sS'said.inflation'
p5606
I1
sS'lesser'
p5607
I3
sS'stopping'
p5608
I1
sS'procedure'
p5609
I11
sS'action.it'
p5610
I1
sS'elsewhere.if'
p5611
I1
sS'agreement.but'
p5612
I1
sS'experts'
p5613
I20
sS'brutal'
p5614
I2
sS'action.in'
p5615
I1
sS'containing'
p5616
I4
sS'border'
p5617
I5
sS'6.58104'
p5618
I1
sS'inventory'
p5619
I1
sS'satellite'
p5620
I5
sS'paavo'
p5621
I3
sS'misery'
p5622
I1
sS'insisted'
p5623
I7
sS'cycle'
p5624
I15
sS'shortly'
p5625
I8
sS'meat.washington'
p5626
I1
sS'council.the'
p5627
I2
sS'savings'
p5628
I2
sS'greatest'
p5629
I2
sS'jean'
p5630
I4
sS'safety.fischler'
p5631
I2
sS'seasonal'
p5632
I1
sS'proposed'
p5633
I18
sS'unemployment'
p5634
I19
sS'differ.negotiators'
p5635
I3
sS'proposes'
p5636
I3
sS'battles'
p5637
I1
sS'monitored'
p5638
I1
sS'europe.founded'
p5639
I1
sS'technological'
p5640
I3
sS'pastbritain'
p5641
I2
sS'gave'
p5642
I16
sS'agence'
p5643
I1
sS'5.85632'
p5644
I1
sS'enterprises.from'
p5645
I1
sS'advanced'
p5646
I3
sS'apart'
p5647
I4
sS'atmospheres'
p5648
I2
sS'55'
p5649
I3
sS'57'
p5650
I2
sS'56'
p5651
I1
sS'50'
p5652
I22
sS'53'
p5653
I6
sS'specific'
p5654
I13
sS'offices'
p5655
I2
sS'officer'
p5656
I2
sS'tonne.french'
p5657
I1
sS'worst.industry'
p5658
I1
sS'frustrations'
p5659
I1
sS'successfully'
p5660
I2
sS'finns'
p5661
I1
sS'malaysia'
p5662
I1
sS'election'
p5663
I31
sS'vesper'
p5664
I1
sS'proceeding'
p5665
I1
sS'cns'
p5666
I4
sS'ice'
p5667
I1
sS'loins'
p5668
I2
sS'christmas'
p5669
I2
sS'averaging'
p5670
I1
sS'core'
p5671
I2
sS'corn'
p5672
I4
sS'locomotive.but'
p5673
I1
sS'corp'
p5674
I1
sS'plug'
p5675
I1
sS'limitation'
p5676
I2
sS'choke'
p5677
I2
sS'dinner'
p5678
I3
sS'ensure'
p5679
I18
sS'efforts'
p5680
I10
sS'civil'
p5681
I6
sS'crisis.venice'
p5682
I1
sS'tribune'
p5683
I1
sS'coastal'
p5684
I6
sS'abel'
p5685
I2
sS'existed'
p5686
I1
sS'responsiblity'
p5687
I1
sS'transform'
p5688
I1
sS'11strasbourg'
p5689
I2
sS'virgin'
p5690
I4
sS'fought'
p5691
I4
sS'sought.spokesman'
p5692
I2
sS'gil'
p5693
I3
sS'head'
p5694
I13
sS'medium'
p5695
I12
sS'said.licences'
p5696
I1
sS'1178/96'
p5697
I1
sS'differences'
p5698
I8
sS'1,655'
p5699
I1
sS'heat'
p5700
I3
sS'unemployment.europe'
p5701
I1
sS'laurent'
p5702
I1
sS'removed'
p5703
I2
sS'consequences'
p5704
I1
sS'bids'
p5705
I25
sS'available.strasbourg'
p5706
I10
sS'achieving'
p5707
I2
sS'simplifying'
p5708
I3
sS'submitting'
p5709
I3
sS'trim'
p5710
I1
sS'hams'
p5711
I3
sS'suspicions'
p5712
I2
sS'levitt'
p5713
I2
sS'telecoms'
p5714
I5
sS'regime'
p5715
I7
sS'waldorf'
p5716
I2
sS'epidemiological'
p5717
I3
sS'nn'
p5718
I1
sS'tit'
p5719
I1
sS'na'
p5720
I1
sS'then.the'
p5721
I1
sS'tip'
p5722
I1
sS'disease.strasbourg'
p5723
I1
sS'junta'
p5724
I1
sS'tim'
p5725
I2
sS'setting'
p5726
I2
sS'investigations'
p5727
I1
sS'ns'
p5728
I1
sS'nv'
p5729
I1
sS'picture'
p5730
I4
sS'reconsider'
p5731
I2
sS'trailers'
p5732
I1
sS'possible.franco'
p5733
I1
sS'discharge'
p5734
I6
sS'longer'
p5735
I12
sS'1156.tuesday'
p5736
I2
sS'vigorously'
p5737
I2
sS'vietnam'
p5738
I1
sS'remarkable'
p5739
I2
sS'1999.albrecht'
p5740
I2
sS'varying'
p5741
I1
sS'alternatives'
p5742
I4
sS'focus'
p5743
I23
sS'deliveries'
p5744
I1
sS'tses'
p5745
I2
sS'privatisations'
p5746
I1
sS'row'
p5747
I4
sS'511807.wednesday'
p5748
I2
sS'states.drazek'
p5749
I3
sS'environment'
p5750
I34
sS'santer'
p5751
I8
sS'charge'
p5752
I2
sS'promoting'
p5753
I3
sS'weakening'
p5754
I1
sS'federation'
p5755
I4
sS'advantage'
p5756
I4
sS'sponsors'
p5757
I1
sS'82.2615'
p5758
I1
sS'denounced'
p5759
I1
sS'level'
p5760
I33
sS'philippines'
p5761
I1
sS'brother'
p5762
I1
sS'76/895/eec'
p5763
I1
sS'standards'
p5764
I39
sS'domestically'
p5765
I1
sS'quick'
p5766
I1
sS'tenths'
p5767
I2
sS'pork'
p5768
I27
sS'says'
p5769
I9
sS'55.2'
p5770
I1
sS'porn'
p5771
I3
sS'trend'
p5772
I4
sS'thursday.spain'
p5773
I1
sS'mid-1995'
p5774
I1
sS'inland'
p5775
I2
sS'widened'
p5776
I1
sS'invaded'
p5777
I1
sS'pmi'
p5778
I8
sS'substitute'
p5779
I1
sS'ministe'
p5780
I1
sS'constitution'
p5781
I1
sS'agrees'
p5782
I2
sS'business'
p5783
I9
sS'baumgarten'
p5784
I1
sS'521'
p5785
I1
sS'goes'
p5786
I2
sS'eurostat'
p5787
I6
sS'tenneco'
p5788
I3
sS'groupe'
p5789
I1
sS'kohlhaussen'
p5790
I1
sS'channeled'
p5791
I1
sS'water'
p5792
I5
sS'groups'
p5793
I7
sS'seeds.his'
p5794
I1
sS'healthy'
p5795
I3
sS'dublin'
p5796
I1
sS'longest.van'
p5797
I1
sS'here.glickman'
p5798
I1
sS'navigation'
p5799
I4
sS'soybeans'
p5800
I3
sS'modifying'
p5801
I4
sS'plo'
p5802
I1
sS'islet'
p5803
I1
sS'crisis'
p5804
I14
sS'trinidad'
p5805
I7
sS'russell'
p5806
I1
sS'bloc.ministers'
p5807
I2
sS'athens'
p5808
I2
sS'sports'
p5809
I1
sS'memory'
p5810
I1
sS'australian'
p5811
I2
sS'today'
p5812
I18
sS'chapter'
p5813
I5
sS'sessions'
p5814
I3
sS'suggestions'
p5815
I1
sS'election.speaking'
p5816
I1
sS'chocolate'
p5817
I2
sS'97/0081'
p5818
I1
sS'cases'
p5819
I8
sS'yves'
p5820
I3
sS'conference.pangalos'
p5821
I1
sS'local'
p5822
I1
sS'modified'
p5823
I32
sS'weedkiller'
p5824
I2
sS'added.stoiber'
p5825
I1
sS'elsewhere.france'
p5826
I1
sS'figure'
p5827
I8
sS'critic'
p5828
I2
sS'dropped'
p5829
I1
sS'counting'
p5830
I2
sS'parliamentary'
p5831
I6
sS'drazek'
p5832
I27
sS'requirements'
p5833
I12
sS'berlin'
p5834
I5
sS'1'
p5835
I84
sS'infringements'
p5836
I1
sS'vital'
p5837
I4
sS'fourth'
p5838
I12
sS'plus'
p5839
I3
sS'1950.96'
p5840
I1
sS'information'
p5841
I21
sS'1999.jospin'
p5842
I1
sS'birthday'
p5843
I1
sS'unemployment.heide'
p5844
I1
sS'2847/93'
p5845
I2
sS'ombudsman'
p5846
I3
sS'policy.with'
p5847
I1
sS'inform'
p5848
I3
sS'gerard'
p5849
I5
sS'representation'
p5850
I2
sS'refund'
p5851
I26
sS'exclusive'
p5852
I1
sS'fallout'
p5853
I1
sS'mainly'
p5854
I11
sS'7.44085'
p5855
I1
sS'motions'
p5856
I6
sS'blocked'
p5857
I2
sS'farmed'
p5858
I6
sS'coins.eu'
p5859
I1
sS'gti'
p5860
I2
sS'organisation'
p5861
I19
sS'6.58121'
p5862
I1
sS'offers'
p5863
I2
sS'suhadolc'
p5864
I3
sS'rosada'
p5865
I3
sS'may.but'
p5866
I1
sS'17luxembourg'
p5867
I6
sS'qualifies'
p5868
I1
sS'qualified'
p5869
I3
sS'imminent'
p5870
I2
sS'term'
p5871
I58
sS'equality'
p5872
I3
sS'tobacco'
p5873
I3
sS'lots.lacklustre'
p5874
I1
sS'importation'
p5875
I1
sS'russiacouncil'
p5876
I1
sS'pekkarinen'
p5877
I7
sS'states.the'
p5878
I1
sS'begun'
p5879
I1
sS'intended'
p5880
I12
sS'abdication'
p5881
I1
sS'ultimately'
p5882
I2
sS'factors'
p5883
I4
sS'dehydrated'
p5884
I2
sS"shouldn't"
p5885
I2
sS'unch'
p5886
I42
sS'attended'
p5887
I1
sS'currency.a'
p5888
I1
sS'environment.the'
p5889
I1
sS'impose'
p5890
I5
sS'motion'
p5891
I4
sS'turn'
p5892
I6
sS'63/96'
p5893
I1
sS'swine'
p5894
I3
sS'swing'
p5895
I1
sS'geigy'
p5896
I3
sS'reuters.lotsberg'
p5897
I1
sS'authorities.spokesman'
p5898
I1
sS'revenue'
p5899
I4
sS'not.but'
p5900
I2
sS'soaring'
p5901
I2
sS'commissioners'
p5902
I6
sS'george'
p5903
I2
sS'millions'
p5904
I10
sS'airbus'
p5905
I1
sS'given'
p5906
I14
sS'academics.the'
p5907
I1
sS'stuck'
p5908
I2
sS'said.italy'
p5909
I2
sS'trillion'
p5910
I3
sS'returns'
p5911
I3
sS'treaty.bonn'
p5912
I2
sS'legally'
p5913
I3
sS'white'
p5914
I9
sS'payments.farmers'
p5915
I1
sS'modernisation'
p5916
I1
sS'gives'
p5917
I3
sS'huf'
p5918
I1
sS'copa'
p5919
I9
sS'season'
p5920
I4
sS'expectations.in'
p5921
I1
sS'circulated'
p5922
I1
sS'overcapacity'
p5923
I1
sS'released'
p5924
I15
sS'immigrant'
p5925
I3
sS'holder'
p5926
I1
sS'population'
p5927
I3
sS'wide'
p5928
I6
sS'unfortunately'
p5929
I1
sS'oats'
p5930
I1
sS'require'
p5931
I6
sS'diplomatic'
p5932
I1
sS'spokeswoman'
p5933
I3
sS'computer'
p5934
I8
sS'project.finance'
p5935
I1
sS'cards'
p5936
I1
sS'outcome'
p5937
I5
sS'pre'
p5938
I2
sS'pro'
p5939
I5
sS'freedomsdecision'
p5940
I1
sS'pri'
p5941
I1
sS'nominating'
p5942
I1
sS'sells'
p5943
I1
sS'met.washington'
p5944
I3
sS'conversion'
p5945
I2
sS'malta'
p5946
I11
sS'ideal'
p5947
I2
sS'say.a'
p5948
I1
sS'gkn'
p5949
I1
sS'strengths'
p5950
I1
sS'blunt'
p5951
I1
sS'sure'
p5952
I10
sS'falls'
p5953
I1
sS'donation'
p5954
I1
sS'annum'
p5955
I1
sS'considered'
p5956
I1
sS'later'
p5957
I20
sS'trafficking'
p5958
I4
sS'senior'
p5959
I33
sS'quantity'
p5960
I3
sS'allegations'
p5961
I1
sS'25brussels'
p5962
I2
sS'sustained'
p5963
I1
sS'tend'
p5964
I1
sS'state'
p5965
I68
sS'crime'
p5966
I6
sS'wood'
p5967
I1
sS'believing'
p5968
I1
sS'cautioned'
p5969
I2
sS'chairmen'
p5970
I3
sS'regarding'
p5971
I7
sS'1997.flour'
p5972
I1
sS'predicted'
p5973
I2
sS'97/200/ec'
p5974
I1
sS'discussing'
p5975
I3
sS'ignored'
p5976
I2
sS'82.1858'
p5977
I1
sS'imposing'
p5978
I2
sS'1brussels'
p5979
I4
sS'college'
p5980
I1
sS'rmg'
p5981
I9
sS'encouraged'
p5982
I1
sS'voluntary'
p5983
I8
sS'farmers'
p5984
I9
sS'federal'
p5985
I2
sS'subsequent'
p5986
I3
sS'review'
p5987
I15
sS'commitments'
p5988
I2
sS'outside'
p5989
I21
sS'regardingthe'
p5990
I3
sS'cheap'
p5991
I1
sS'referendum.there'
p5992
I1
sS'cities'
p5993
I7
sS'come'
p5994
I28
sS'said.by'
p5995
I1
sS'2.25-to-2.50'
p5996
I1
sS'designations'
p5997
I1
sS'railway'
p5998
I2
sS'duty'
p5999
I9
sS'pakistan'
p6000
I1
sS'period'
p6001
I23
sS'insist'
p6002
I1
sS'60'
p6003
I8
sS'61'
p6004
I1
sS'64'
p6005
I7
sS'65'
p6006
I2
sS'66'
p6007
I1
sS'67'
p6008
I1
sS'68'
p6009
I12
sS'3.50'
p6010
I2
sS'poll'
p6011
I16
sS'turkey'
p6012
I16
sS'start.last'
p6013
I1
sS'countries.tunisia'
p6014
I1
sS'500'
p6015
I10
sS'direction'
p6016
I2
sS'andrew'
p6017
I3
sS'minister'
p6018
I67
sS'careful'
p6019
I1
sS'0.711709'
p6020
I1
sS'case'
p6021
I15
sS'peres'
p6022
I3
sS'irrespective'
p6023
I2
sS'97/216/ec'
p6024
I1
sS'ago.there'
p6025
I1
sS'telephone'
p6026
I4
sS'ironic'
p6027
I1
sS'friday.but'
p6028
I2
sS'granted'
p6029
I5
sS'locking'
p6030
I1
sS'buys'
p6031
I1
sS'events'
p6032
I6
sS'week'
p6033
I51
sS'zvili'
p6034
I1
sS'disadvantages'
p6035
I2
sS'weed'
p6036
I1
sS'producers'
p6037
I13
sS'persons'
p6038
I10
sS'carlsberg'
p6039
I1
sS'arose'
p6040
I1
sS'changing'
p6041
I1
sS'limped'
p6042
I1
sS'vowed'
p6043
I2
sS'longing'
p6044
I1
sS'minimize'
p6045
I1
sS'relief'
p6046
I3
sS'components'
p6047
I2
sS'inability'
p6048
I5
sS'model'
p6049
I1
sS'grounds'
p6050
I8
sS'bodies'
p6051
I1
sS'withdraws'
p6052
I1
sS'7.44544'
p6053
I1
sS'actions'
p6054
I15
sS'risking'
p6055
I3
sS'violent'
p6056
I1
sS'103/13'
p6057
I1
sS'cease'
p6058
I2
sS'statement.but'
p6059
I1
sS'differentiation'
p6060
I1
sS'added.sweden'
p6061
I1
sS'blow'
p6062
I5
sS'announcement'
p6063
I16
sS'rose'
p6064
I5
sS'favouring'
p6065
I1
sS'bloc'
p6066
I18
sS'viewers'
p6067
I1
sS'said.shipbuilders'
p6068
I1
sS'disrupt'
p6069
I2
sS'kingdom'
p6070
I9
sS'holding'
p6071
I3
sS'traffic'
p6072
I6
sS'inflation'
p6073
I17
sS'confined'
p6074
I1
sS'accepted'
p6075
I2
sS'reduces'
p6076
I3
sS'news@reuters.fi'
p6077
I6
sS'eipal'
p6078
I4
sS'reduced'
p6079
I4
sS'1989'
p6080
I1
sS'madrid'
p6081
I11
sS'overheated'
p6082
I1
sS'competition'
p6083
I17
sS'table'
p6084
I6
sS'competences'
p6085
I1
sS'provided'
p6086
I5
sS'caribbean'
p6087
I7
sS'mood'
p6088
I2
sS'tahydromos'
p6089
I1
sS'sector.however'
p6090
I1
sS'legal'
p6091
I24
sS'provides'
p6092
I1
sS'quitting'
p6093
I1
sS'freed'
p6094
I1
sS'kilter'
p6095
I2
sS'slaughter'
p6096
I10
sS'farassino'
p6097
I3
sS'reprisals'
p6098
I1
sS'discussed'
p6099
I15
sS'oa'
p6100
I2
sS'mutually'
p6101
I1
sS'stand'
p6102
I13
sS'oy'
p6103
I3
sS'tariffs'
p6104
I1
sS'reactions'
p6105
I1
sS'communication'
p6106
I34
sS'rising'
p6107
I9
sS'determine'
p6108
I4
sS'theoretically'
p6109
I1
sS'1.62026'
p6110
I1
sS'time.britain'
p6111
I1
sS'strictly'
p6112
I1
sS'racism'
p6113
I5
sS'said.kastanidis'
p6114
I1
sS'strict'
p6115
I9
sS'view.stockholm'
p6116
I1
sS'slowly'
p6117
I1
sS'energy'
p6118
I27
sS'30luxembourg'
p6119
I4
sS'talks.cyprus'
p6120
I1
sS'regard'
p6121
I6
sS'union.ciller'
p6122
I1
sS'operators.asked'
p6123
I1
sS'cabinet'
p6124
I2
sS'tidende'
p6125
I1
sS'garnered'
p6126
I1
sS'promote'
p6127
I3
sS'behrendt'
p6128
I3
sS'faster'
p6129
I4
sS'offical'
p6130
I1
sS'wholesale'
p6131
I2
sS'summits'
p6132
I1
sS'strongly'
p6133
I5
sS'taylor'
p6134
I6
sS'accentuated'
p6135
I1
sS'neeue'
p6136
I1
sS'repatriation'
p6137
I2
sS'mike'
p6138
I1
sS'britain'
p6139
I71
sS'complaints.norwegian'
p6140
I1
sS'buckwheat.a'
p6141
I1
sS'controlled'
p6142
I4
sS'encompass'
p6143
I1
sS'bishop'
p6144
I2
sS'4.5'
p6145
I2
sS'4.7'
p6146
I2
sS'maragall'
p6147
I2
sS'5'
p6148
I4
sS'paddy'
p6149
I1
sS'briefly'
p6150
I1
sS'separate'
p6151
I13
sS'includes'
p6152
I65
sS'recognise'
p6153
I3
sS'included'
p6154
I4
sS'stocks'
p6155
I7
sS'oddy'
p6156
I3
sS'bilateral'
p6157
I18
sS'calls'
p6158
I3
sS'invest'
p6159
I3
sS'odds'
p6160
I4
sS'anticipated.portuguese'
p6161
I1
sS'barcelona'
p6162
I12
sS'padraig'
p6163
I1
sS'directors'
p6164
I2
sS'directory'
p6165
I1
sS'carbo'
p6166
I7
sS'ago.the'
p6167
I2
sS'chinese'
p6168
I2
sS'lack'
p6169
I7
sS'ala'
p6170
I4
sS'opyright'
p6171
I3
sS'plant.the'
p6172
I1
sS'follow'
p6173
I20
sS'settlement'
p6174
I10
sS'decisions'
p6175
I9
sS'8madrid'
p6176
I2
sS'acting'
p6177
I1
sS'sparkling'
p6178
I1
sS'removal'
p6179
I2
sS'program'
p6180
I1
sS'dairy'
p6181
I19
sS'lawmakers'
p6182
I2
sS'presentation'
p6183
I2
sS'activities'
p6184
I9
sS'fax'
p6185
I1
sS'worse'
p6186
I3
sS'far'
p6187
I14
sS'worst'
p6188
I2
sS'hemp'
p6189
I1
sS'rejects'
p6190
I1
sS'clinched'
p6191
I1
sS'list'
p6192
I19
sS'prolonged'
p6193
I1
sS'programme'
p6194
I41
sS'teh'
p6195
I1
sS'tel'
p6196
I1
sS'95.50'
p6197
I1
sS'negotiator'
p6198
I6
sS'design'
p6199
I4
sS'rato'
p6200
I2
sS'ter'
p6201
I3
sS'imported'
p6202
I2
sS'smes'
p6203
I7
sS'brief'
p6204
I3
sS'version'
p6205
I4
sS'racing'
p6206
I1
sS'christian'
p6207
I4
sS'invoicing'
p6208
I4
sS'budget.strasbourg'
p6209
I1
sS'communicable'
p6210
I5
sS'2.456'
p6211
I1
sS'skies.the'
p6212
I2
sS'increments'
p6213
I1
sS'allows'
p6214
I4
sS'party.major'
p6215
I1
sS'2161'
p6216
I1
sS'sonntag'
p6217
I5
sS'1015/0815'
p6218
I1
sS'screens'
p6219
I1
sS'semester'
p6220
I1
sS'240.5-million'
p6221
I1
sS'appliances'
p6222
I1
sS'herring'
p6223
I6
sS'43,500'
p6224
I1
sS'proceed'
p6225
I3
sS'denominated'
p6226
I3
sS'wield'
p6227
I1
sS'benefits.another'
p6228
I1
sS'markets'
p6229
I34
sS'minor'
p6230
I2
sS'belliard'
p6231
I2
sS'flat'
p6232
I3
sS'israel'
p6233
I14
sS'definition'
p6234
I2
sS'fundamentals.a'
p6235
I1
sS'operators'
p6236
I4
sS'flax'
p6237
I2
sS'flag'
p6238
I3
sS'stick'
p6239
I4
sS'known'
p6240
I6
sS'conducter'
p6241
I1
sS'1.164'
p6242
I2
sS'6.61023'
p6243
I4
sS'debates'
p6244
I1
sS'salvador'
p6245
I1
sS'tonne.the'
p6246
I2
sS'v'
p6247
I1
sS'renato'
p6248
I3
sS'finland'
p6249
I55
sS'challenging'
p6250
I3
sS'chlorinated'
p6251
I2
sS'taloustutkimus'
p6252
I2
sS'laggards.the'
p6253
I1
sS'available.octoberluxembourg'
p6254
I2
sS'europe.and'
p6255
I1
sS'court'
p6256
I4
sS'goal'
p6257
I6
sS'breaking'
p6258
I1
sS'rosenstock'
p6259
I2
sS'happart'
p6260
I3
sS'reflect'
p6261
I3
sS'said.tight'
p6262
I1
sS'short'
p6263
I15
sS'cooperatives'
p6264
I6
sS'supervision'
p6265
I2
sS'groundless'
p6266
I1
sS'shore'
p6267
I3
sS'alliance.kohl'
p6268
I1
sS'divergences'
p6269
I1
sS'turnover'
p6270
I17
sS'september'
p6271
I36
sS'developed'
p6272
I2
sS'20denver'
p6273
I2
sS'mission'
p6274
I5
sS'evironment'
p6275
I2
sS'silguy'
p6276
I8
sS'avenue'
p6277
I2
sS'islam'
p6278
I1
sS'disagreed'
p6279
I1
sS'unleashing'
p6280
I3
sS'143.578'
p6281
I1
sS'slipped'
p6282
I1
sS'retailing'
p6283
I2
sS'resort'
p6284
I6
sS'dankert'
p6285
I3
sS'stephen'
p6286
I1
sS'argentina'
p6287
I4
sS'soccer'
p6288
I1
sS'return'
p6289
I1
sS'geographical'
p6290
I2
sS'largest'
p6291
I9
sS'framework'
p6292
I20
sS'communities'
p6293
I5
sS'bigger'
p6294
I3
sS'1995.in'
p6295
I1
sS'0.739644'
p6296
I1
sS'16-25'
p6297
I2
sS'16-24'
p6298
I1
sS'debacle'
p6299
I2
sS'difficult'
p6300
I13
sS'barley.eu'
p6301
I1
sS'weight'
p6302
I2
sS'generation'
p6303
I1
sS'1730/1530'
p6304
I11
sS'expect'
p6305
I12
sS'organised'
p6306
I3
sS'synchronised'
p6307
I2
sS'state.the'
p6308
I1
sS'cornelissen'
p6309
I2
sS'adhere'
p6310
I2
sS'health'
p6311
I49
sS'hill'
p6312
I1
sS'1215/1115'
p6313
I1
sS'40.2772'
p6314
I1
sS'medium.a'
p6315
I1
sS'benjamin'
p6316
I1
sS'10luxembourg'
p6317
I3
sS'affected.around'
p6318
I1
sS'1-4'
p6319
I2
sS'organising'
p6320
I1
sS'thread'
p6321
I1
sS'denmark.in'
p6322
I1
sS'threat'
p6323
I6
sS'fallen'
p6324
I1
sS'feed'
p6325
I10
sS'meridien'
p6326
I2
sS'usda'
p6327
I12
sS'standards.following'
p6328
I1
sS'radical'
p6329
I2
sS'linking'
p6330
I6
sS'11.96'
p6331
I1
sS'deadlinescommission'
p6332
I1
sS'colombia'
p6333
I4
sS'slower'
p6334
I2
sS'blanc'
p6335
I1
sS'story'
p6336
I1
sS'leading'
p6337
I11
sS'tougher'
p6338
I4
sS'181'
p6339
I2
sS'12-24'
p6340
I2
sS'finances'
p6341
I2
sS'niab'
p6342
I2
sS'calculations'
p6343
I1
sS'hotel'
p6344
I12
sS'convinced'
p6345
I1
sS'0.788'
p6346
I2
sS'kind'
p6347
I2
sS'double'
p6348
I1
sS'slowed'
p6349
I1
sS'aims'
p6350
I5
sS'risks'
p6351
I17
sS'risky'
p6352
I2
sS'difficulties.it'
p6353
I1
sS'outstanding'
p6354
I2
sS'strengthen'
p6355
I1
sS'imports'
p6356
I67
sS'overran'
p6357
I1
sS'goldsmith'
p6358
I1
sS'290,500'
p6359
I2
sS'4.156'
p6360
I2
sS'chairman'
p6361
I4
sS'4.153'
p6362
I1
sS'genetically'
p6363
I23
sS'donor'
p6364
I2
sS'contractual'
p6365
I1
sS'tax.the'
p6366
I2
sS'blocked.the'
p6367
I1
sS'added'
p6368
I31
sS'electric'
p6369
I2
sS'773'
p6370
I2
sS'goldman'
p6371
I3
sS'measures'
p6372
I41
sS'reach'
p6373
I13
sS'1408/71'
p6374
I2
sS'react'
p6375
I1
sS'75'
p6376
I3
sS'europe.washington'
p6377
I1
sS'73'
p6378
I1
sS'71'
p6379
I2
sS'sandra'
p6380
I3
sS'infrastructures'
p6381
I2
sS'2974'
p6382
I2
sS'stands'
p6383
I3
sS'patterned'
p6384
I1
sS'dealers'
p6385
I1
sS'traditional'
p6386
I3
sS'forerunner'
p6387
I3
sS'hindrance'
p6388
I1
sS'projektspedition'
p6389
I1
sS'institutions'
p6390
I19
sS'painewebber'
p6391
I1
sS'rtd'
p6392
I8
sS'said.blair'
p6393
I4
sS'austrians'
p6394
I1
sS'cdu'
p6395
I2
sS'inflexible'
p6396
I1
sS'vereinsbank'
p6397
I4
sS'cdr'
p6398
I1
sS'rtr'
p6399
I1
sS'widepread'
p6400
I3
sS'bfm'
p6401
I1
sS'starters'
p6402
I1
sS'discuss'
p6403
I23
sS'tendering'
p6404
I2
sS'founding'
p6405
I4
sS'gains'
p6406
I1
sS'5.6058'
p6407
I1
sS'1998.this'
p6408
I1
sS'23luxembourg'
p6409
I4
sS'5,000'
p6410
I2
sS'longest'
p6411
I1
sS'pact.the'
p6412
I1
sS'lipponen'
p6413
I3
sS'banquet'
p6414
I3
sS'appeal'
p6415
I3
sS'sustainably'
p6416
I1
sS'luton'
p6417
I1
sS'days.political'
p6418
I2
sS'activity'
p6419
I1
sS'sustainable'
p6420
I9
sS'wrote'
p6421
I2
sS'bars'
p6422
I2
sS'barr'
p6423
I3
sS'art'
p6424
I2
sS'achieved'
p6425
I3
sS'eurosceptics'
p6426
I1
sS'2.9'
p6427
I4
sS'2.8'
p6428
I2
sS'ard'
p6429
I2
sS'2.3'
p6430
I1
sS'chambers'
p6431
I2
sS'2.1'
p6432
I1
sS'2.0'
p6433
I1
sS'2.7'
p6434
I1
sS'2.6'
p6435
I3
sS'declined'
p6436
I1
sS'2.4'
p6437
I2
sS'threats'
p6438
I1
sS'97/202/ec'
p6439
I1
sS'slapped'
p6440
I4
sS'unions'
p6441
I1
sS'various'
p6442
I5
sS'downturn'
p6443
I2
sS'numerous'
p6444
I1
sS'corruption'
p6445
I1
sS'latin'
p6446
I7
sS'recently'
p6447
I9
sS'creating'
p6448
I7
sS'initially'
p6449
I3
sS'sold'
p6450
I10
sS'attention'
p6451
I6
sS'regrettable.washington'
p6452
I1
sS'rapid'
p6453
I2
sS'opposition'
p6454
I18
sS'franchise'
p6455
I1
sS'c'
p6456
I12
sS'threats.as'
p6457
I3
sS'license'
p6458
I4
sS'industry.the'
p6459
I1
sS'0.015'
p6460
I2
sS'context'
p6461
I3
sS'archimede'
p6462
I2
sS'reply'
p6463
I1
sS'13luxembourg'
p6464
I2
sS'sweep'
p6465
I2
sS'slots'
p6466
I5
sS'bennasar'
p6467
I2
sS'political'
p6468
I32
sS'strategy'
p6469
I14
sS'reduction'
p6470
I3
sS'extends'
p6471
I1
sS'pm'
p6472
I1
sS'flight'
p6473
I3
sS'algeria'
p6474
I4
sS'demand'
p6475
I17
sS'exemption'
p6476
I2
sS'surveys'
p6477
I1
sS'plants'
p6478
I37
sS'95/0336'
p6479
I2
sS'fernandes'
p6480
I3
sS'90/394/cee'
p6481
I4
sS'eu.paul'
p6482
I3
sS'europeans.the'
p6483
I1
sS'19.6'
p6484
I1
sS'leans'
p6485
I2
sS'rio'
p6486
I7
sS'obstacle'
p6487
I5
sS'lodged'
p6488
I1
sS'sowings'
p6489
I1
sS'chicory'
p6490
I2
sS'widely'
p6491
I7
sS'peoples'
p6492
I4
sS'9'
p6493
I30
sS'prerequisite'
p6494
I2
sS'higher'
p6495
I23
sS'893'
p6496
I2
sS'weekend.management'
p6497
I1
sS'negotiate'
p6498
I2
sS'cement'
p6499
I1
sS'holidays'
p6500
I2
sS'arrived'
p6501
I3
sS'birch'
p6502
I2
sS'robust'
p6503
I1
sS'knack'
p6504
I1
sS'current1'
p6505
I1
sS'current3'
p6506
I1
sS'lower'
p6507
I13
sS'try'
p6508
I11
sS'depending'
p6509
I2
sS'analysis'
p6510
I7
sS'1981/94'
p6511
I1
sS'edge'
p6512
I1
sS'91/263/eec'
p6513
I1
sS'burden'
p6514
I7
sS'competitive'
p6515
I7
sS'repealing'
p6516
I1
sS'week.jp'
p6517
I1
sS'questions'
p6518
I8
sS'turbulence'
p6519
I3
sS'continent'
p6520
I4
sS'workers'
p6521
I10
sS'governmental'
p6522
I14
sS'katholieke'
p6523
I2
sS'tabled'
p6524
I1
sS'2.17'
p6525
I2
sS'2.14'
p6526
I2
sS'associations'
p6527
I2
sS'complaint'
p6528
I6
sS'679'
p6529
I2
sS'discriminatory'
p6530
I1
sS'cogeneration'
p6531
I2
sS'capitals'
p6532
I1
sS'silkworms'
p6533
I1
sS'essential'
p6534
I2
sS'treaty.it'
p6535
I2
sS'understood'
p6536
I1
sS'3.5'
p6537
I1
sS'3.2'
p6538
I1
sS'control.the'
p6539
I2
sS'meda'
p6540
I2
sS'96/85/ec'
p6541
I1
sS'pros'
p6542
I4
sS'innovation'
p6543
I4
sS'anne'
p6544
I2
sS'martin'
p6545
I4
sS'orly'
p6546
I1
sS'refused'
p6547
I5
sS'liberalise'
p6548
I1
sS'intense'
p6549
I1
sS'40.2941'
p6550
I1
sS'entrepreneurs'
p6551
I8
sS'completing'
p6552
I1
sS'range'
p6553
I8
sS'fleets'
p6554
I2
sS'impressed'
p6555
I1
sS'tenth'
p6556
I1
sS'fluctuate'
p6557
I1
sS'question'
p6558
I31
sS'long'
p6559
I48
sS'disinflation'
p6560
I1
sS'49-228'
p6561
I1
sS"we're"
p6562
I9
sS'summertime'
p6563
I1
sS'sections'
p6564
I1
sS'oilseeds'
p6565
I1
sS'criteria'
p6566
I37
sS'6luxembourg'
p6567
I2
sS'repeatedly'
p6568
I1
sS'filed'
p6569
I2
sS'allensbach'
p6570
I1
sS'raising'
p6571
I2
sS'consist'
p6572
I5
sS'thibault'
p6573
I3
sS'erkki'
p6574
I1
sS'guyana'
p6575
I3
sS'producers.if'
p6576
I1
sS'fluctuations'
p6577
I10
sS'called'
p6578
I25
sS'humanitarian'
p6579
I8
sS'associated'
p6580
I7
sS'associates'
p6581
I1
sS'01.02.95lit'
p6582
I3
sS'rally'
p6583
I2
sS'way.economists'
p6584
I1
sS'tentative'
p6585
I1
sS'peace'
p6586
I20
sS'nick'
p6587
I2
sS'income'
p6588
I1
sS'compagnie'
p6589
I1
sS'users'
p6590
I3
sS'problems'
p6591
I14
sS'helping'
p6592
I7
sS'meaning'
p6593
I2
sS'allowing'
p6594
I6
sS'vice'
p6595
I3
sS'departments'
p6596
I1
sS'departs'
p6597
I1
sS'talks.the'
p6598
I1
sS'attaining'
p6599
I1
sS'apr'
p6600
I10
sS'edf'
p6601
I1
sS'issued'
p6602
I5
sS'percent.commenting'
p6603
I2
sS'resistance'
p6604
I2
sS'edp'
p6605
I2
sS'edu'
p6606
I2
sS'adjustment'
p6607
I9
sS'magnifying'
p6608
I1
sS'issues'
p6609
I29
sS'rigidity'
p6610
I2
sS'gold'
p6611
I2
sS'languages'
p6612
I5
sS'stable'
p6613
I7
sS'breach'
p6614
I3
sS'include'
p6615
I24
sS'ionizing'
p6616
I2
sS'seized'
p6617
I2
sS'0.711549'
p6618
I1
sS'engineered'
p6619
I1
sS'centre.wednesday'
p6620
I1
sS'baldarelli'
p6621
I3
sS'feed.fischler'
p6622
I1
sS'zeit'
p6623
I2
sS'notes'
p6624
I1
sS'calculates.the'
p6625
I1
sS'49.2'
p6626
I1
sS'polling'
p6627
I3
sS'dealt'
p6628
I3
sS'businesses'
p6629
I8
sS'noted'
p6630
I5
sS'concluded'
p6631
I5
sS'smaller'
p6632
I4
sS'gmbh'
p6633
I7
sS'growers'
p6634
I4
sS'makers'
p6635
I2
sS'swedencommission'
p6636
I1
sS'concessions'
p6637
I1
sS'185,500'
p6638
I1
sS'waiting'
p6639
I2
sS'capital'
p6640
I16
sS'0.742320'
p6641
I3
sS'degree'
p6642
I6
sS'pushing'
p6643
I2
sS'ecsc'
p6644
I1
sS'slated'
p6645
I1
sS'explore'
p6646
I1
sS'added.the'
p6647
I8
sS'separation'
p6648
I5
sS'ukraine'
p6649
I3
sS'larger'
p6650
I3
sS'leaving'
p6651
I4
sS'suggests'
p6652
I3
sS'relation'
p6653
I2
sS'criticism'
p6654
I7
sS'egypt'
p6655
I8
sS'motor'
p6656
I16
sS'apply'
p6657
I33
sS'use'
p6658
I27
sS'feb'
p6659
I1
sS'consumption'
p6660
I14
sS'procrastinate'
p6661
I1
sS'examination'
p6662
I3
sS'expanding'
p6663
I1
sS'timetable'
p6664
I12
sS'possession'
p6665
I1
sS'parliament'
p6666
I76
sS'97/205/ec'
p6667
I1
sS'journalists'
p6668
I4
sS'berlingske'
p6669
I1
sS'equity'
p6670
I4
sS'impress'
p6671
I3
sS'cooperate'
p6672
I1
sS'rabbit'
p6673
I2
sS'women'
p6674
I12
sS'topic'
p6675
I1
sS'stroke'
p6676
I1
sS'presidency.helsinki'
p6677
I2
sS'drazek.u.s'
p6678
I2
sS'tat'
p6679
I3
sS'calculation'
p6680
I1
sS'0.3'
p6681
I3
sS'tax'
p6682
I27
sS'dependence'
p6683
I2
sS'assumptions'
p6684
I1
sS'hilton'
p6685
I3
sS'urged'
p6686
I4
sS'sir'
p6687
I2
sS'united'
p6688
I83
sS'sit'
p6689
I7
sS'business.asked'
p6690
I1
sS'slovenian'
p6691
I2
sS'traders'
p6692
I21
sS'brian'
p6693
I2
sS'instead'
p6694
I4
sS'struggled'
p6695
I1
sS'47.6'
p6696
I1
sS'swedish'
p6697
I18
sS'hurdles'
p6698
I2
sS'attend'
p6699
I6
sS'gabes'
p6700
I1
sS'hazard'
p6701
I1
sS'abuse'
p6702
I1
sS'ethnic'
p6703
I1
sS'eirik'
p6704
I3
sS'kindermann'
p6705
I1
sS'592/97'
p6706
I1
sS'competition.however'
p6707
I1
sS'serving'
p6708
I1
sS'5.82859'
p6709
I1
sS'denmark.drazek'
p6710
I2
sS'saturated'
p6711
I1
sS'cresson'
p6712
I1
sS'unjustified'
p6713
I8
sS'132'
p6714
I4
sS'duties.no'
p6715
I1
sS'boosts'
p6716
I1
sS'superior'
p6717
I1
sS'ships'
p6718
I6
sS'permanent'
p6719
I6
sS'underpin'
p6720
I2
sS'covered'
p6721
I4
sS'holiday'
p6722
I1
sS'edging'
p6723
I1
sS'carole'
p6724
I1
sS'said.he'
p6725
I9
sS'undoing'
p6726
I1
sS'material'
p6727
I2
sS'oranges'
p6728
I1
sS'30.pangalos'
p6729
I1
sS'1997-3'
p6730
I1
sS'belgiumcommission'
p6731
I1
sS'articles'
p6732
I1
sS'unlikely.in'
p6733
I1
sS'eased'
p6734
I3
sS'portugual'
p6735
I1
sS'unpredictable'
p6736
I1
sS'latvia'
p6737
I8
sS'privatisation'
p6738
I8
sS'15brussels'
p6739
I6
sS'related'
p6740
I20
sS'doubled'
p6741
I1
sS'83'
p6742
I2
sS'zaire'
p6743
I5
sS'81'
p6744
I1
sS'ag.it'
p6745
I1
sS'85'
p6746
I3
sS'tabloid'
p6747
I2
sS'1.48623'
p6748
I1
sS'sentiment'
p6749
I1
sS'frontier'
p6750
I2
sS'disarray'
p6751
I1
sS'2.38'
p6752
I2
sS'liberalisation'
p6753
I6
sS'treaty.brussels'
p6754
I1
sS'integrated'
p6755
I3
sS'loyola'
p6756
I1
sS'york'
p6757
I1
sS'philip'
p6758
I4
sS'annually.negotiators'
p6759
I1
sS'undecided.sweden'
p6760
I1
sS'178.471'
p6761
I1
sS'europe.the'
p6762
I1
sS'proposing'
p6763
I1
sS"doesn't"
p6764
I2
sS'publication'
p6765
I1
sS'redondo'
p6766
I3
sS'compatibility'
p6767
I3
sS'priority'
p6768
I5
sS'1500'
p6769
I2
sS'650'
p6770
I2
sS'academy'
p6771
I1
sS'reversed'
p6772
I3
sS'bloc.but'
p6773
I1
sS'segements'
p6774
I1
sS'regards'
p6775
I7
sS'public.the'
p6776
I1
sS'diminish'
p6777
I1
sS'july'
p6778
I40
sS'97/209/ec'
p6779
I1
sS'hearings'
p6780
I1
sS'infectious'
p6781
I2
sS'discriminating'
p6782
I1
sS'creditors'
p6783
I1
sS'metten'
p6784
I3
sS'1.6'
p6785
I2
sS'1.7'
p6786
I1
sS'1.0'
p6787
I1
sS'1.95366'
p6788
I1
sS'1.3'
p6789
I2
sS'1.8'
p6790
I5
sS'1.9'
p6791
I3
sS'7.49997'
p6792
I3
sS'linked'
p6793
I2
sS'russians'
p6794
I2
sS'allergies'
p6795
I1
sS'rout'
p6796
I2
sS'agency'
p6797
I4
sS'funds'
p6798
I6
sS'combat'
p6799
I2
sS'centre'
p6800
I26
sS'petrol'
p6801
I3
sS'harmful'
p6802
I1
sS'salesrooms'
p6803
I3
sS'class'
p6804
I1
sS'party.instead'
p6805
I1
sS'atypical'
p6806
I2
sS'looked'
p6807
I2
sS'opts'
p6808
I1
sS'schulz'
p6809
I3
sS'goals'
p6810
I5
sS'ritt'
p6811
I7
sS'2.19591'
p6812
I1
sS'chances'
p6813
I9
sS'sceptical'
p6814
I7
sS'agreed'
p6815
I9
sS'planning'
p6816
I11
sS'taric'
p6817
I1
sS'democrats'
p6818
I4
sS'69.08'
p6819
I2
sS'debate'
p6820
I26
sS'nearer'
p6821
I1
sS'ha'
p6822
I1
sS'operational'
p6823
I1
sS'edp.a'
p6824
I1
sS'candidates'
p6825
I2
sS'97/201/ec'
p6826
I1
sS'thousands'
p6827
I7
sS'2.19627'
p6828
I1
sS'massacre'
p6829
I1
sS'states.u.s'
p6830
I1
sS'israel.arab'
p6831
I1
sS'spur'
p6832
I1
sS'queried'
p6833
I1
sS'belts'
p6834
I2
sS'treaty.the'
p6835
I1
sS'queries'
p6836
I3
sS'aftonbladet.europe'
p6837
I1
sS'view'
p6838
I14
sS'europe'
p6839
I177
sS'requirement'
p6840
I3
sS'merita'
p6841
I2
sS'turbulent'
p6842
I2
sS'tuesday.brussels'
p6843
I1
sS'merits'
p6844
I1
sS'babson'
p6845
I1
sS'closer'
p6846
I2
sS'seafarers'
p6847
I2
sS'closed'
p6848
I20
sS'bundesbank'
p6849
I7
sS'4.113'
p6850
I1
sS'bought'
p6851
I2
sS'weighing'
p6852
I1
sS'ability'
p6853
I3
sS'opening'
p6854
I9
sS'audiovisual'
p6855
I2
sS'agencies'
p6856
I4
sS'economy.trying'
p6857
I2
sS'job'
p6858
I6
sS'temo'
p6859
I1
sS'wheat.soufflet'
p6860
I1
sS'eradicated.but'
p6861
I2
sS'april'
p6862
I193
sS'grain'
p6863
I37
sS'safely'
p6864
I3
sS'3.195'
p6865
I1
sS'103/10'
p6866
I1
sS'103/11'
p6867
I1
sS'103/12'
p6868
I1
sS'unclear'
p6869
I3
sS'103/14'
p6870
I1
sS'103/15'
p6871
I1
sS'103/16'
p6872
I1
sS'103/17'
p6873
I1
sS'tunisia'
p6874
I4
sS'marketplace'
p6875
I4
sS'environments'
p6876
I3
sS'walk'
p6877
I1
sS'packaging'
p6878
I5
sS'17geneva'
p6879
I2
sS'respect'
p6880
I9
sS'withdrawn'
p6881
I1
sS'cauchi'
p6882
I2
sS'756525'
p6883
I4
sS'bbc'
p6884
I2
sS'730'
p6885
I2
sS'732'
p6886
I4
sS'agreements'
p6887
I25
sS'2590.friday'
p6888
I3
sS'filippo'
p6889
I2
sS'filippi'
p6890
I3
sS'6.57978'
p6891
I1
sS'sufficient'
p6892
I5
sS'ensuring'
p6893
I1
sS'specified.the'
p6894
I1
sS'present'
p6895
I9
sS'unlike'
p6896
I2
sS'ejection'
p6897
I2
sS'0.756658'
p6898
I3
sS'wild'
p6899
I4
sS'medicinal'
p6900
I2
sS'cogeca'
p6901
I6
sS'available.brussels'
p6902
I22
sS'opportunities'
p6903
I4
sS'education'
p6904
I11
sS'privileges'
p6905
I1
sS'radiation'
p6906
I2
sS'cross'
p6907
I4
sS'member'
p6908
I102
sS'adverse'
p6909
I1
sS'unity'
p6910
I3
sS'charette'
p6911
I3
sS'currency.in'
p6912
I4
sS'units'
p6913
I2
sS'apppointed'
p6914
I1
sS'referendum.the'
p6915
I1
sS'residing'
p6916
I1
sS'slave'
p6917
I1
sS'coaches'
p6918
I2
sS'currency.those'
p6919
I3
sS'whale'
p6920
I2
sS'lobby'
p6921
I4
sS'valerie'
p6922
I1
sS'joblessness.britain'
p6923
I2
sS'realises'
p6924
I1
sS'fighting'
p6925
I1
sS'undertaken'
p6926
I3
sS'welteke'
p6927
I2
sS'tuesday.the'
p6928
I3
sS'excessive'
p6929
I10
sS'593/97'
p6930
I1
sS'heavily'
p6931
I1
sS'stores.the'
p6932
I1
sS'obtain'
p6933
I1
sS'fishing'
p6934
I15
sS'disturbance'
p6935
I1
sS'point'
p6936
I13
sS'percent.research'
p6937
I1
sS'urbahn'
p6938
I3
sS'hall'
p6939
I2
sS'adoption'
p6940
I10
sS'attractive'
p6941
I2
sS'loan'
p6942
I5
sS'sick'
p6943
I1
sS'provisions'
p6944
I10
sS'siemens'
p6945
I2
sS'know'
p6946
I5
sS'press'
p6947
I3
sS'helpful'
p6948
I2
sS'lawson'
p6949
I2
sS'hosts'
p6950
I30
sS'james'
p6951
I3
sS'exceed'
p6952
I1
sS'growth'
p6953
I43
sS'export'
p6954
I81
sS'110'
p6955
I2
sS'employment'
p6956
I30
sS'leaf'
p6957
I1
sS'lead'
p6958
I5
sS'severance'
p6959
I1
sS'earrings'
p6960
I1
sS'leader'
p6961
I20
sS'aid.the'
p6962
I1
sS'pasty'
p6963
I3
sS'rare'
p6964
I2
sS'carried'
p6965
I5
sS'extension'
p6966
I7
sS'getting'
p6967
I3
sS'91,500'
p6968
I1
sS'shipping'
p6969
I4
sS'fear'
p6970
I6
sS'carrier'
p6971
I3
sS'additives'
p6972
I1
sS'outset'
p6973
I1
sS'6830'
p6974
I6
sS'negotiations.but'
p6975
I1
sS'6834'
p6976
I1
sS'u.s.an'
p6977
I1
sS'6838'
p6978
I3
sS'brambles'
p6979
I1
sS'weather'
p6980
I1
sS'registration'
p6981
I4
sS'maize'
p6982
I18
sS'2.51'
p6983
I2
sS'2.50'
p6984
I3
sS'van'
p6985
I25
sS'2.56'
p6986
I2
sS'study.emu'
p6987
I1
sS'once.at'
p6988
I1
sS'spiral'
p6989
I1
sS'continental'
p6990
I7
sS'vat'
p6991
I1
sS"i've"
p6992
I1
sS'bosnian'
p6993
I2
sS'emu.in'
p6994
I2
sS'volume'
p6995
I9
sS'recede'
p6996
I1
sS'fires'
p6997
I1
sS'gelatine'
p6998
I16
sS'record'
p6999
I4
sS'ruling'
p7000
I16
sS'200,000'
p7001
I1
sS'ricecommission'
p7002
I2
sS'inadequate'
p7003
I3
sS'dearth'
p7004
I2
sS'trailing'
p7005
I1
sS'mutual'
p7006
I13
sS'diplomas'
p7007
I5
sS'percent'
p7008
I153
sS'book'
p7009
I8
sS'boom'
p7010
I3
sS'boon'
p7011
I2
sS'contacting'
p7012
I1
sS'conclusion'
p7013
I5
sS'illegally'
p7014
I2
sS'kinds'
p7015
I3
sS'corcoran'
p7016
I1
sS'june'
p7017
I90
sS'contends'
p7018
I2
sS'risked'
p7019
I1
sS'7.44904'
p7020
I1
sS'system.it'
p7021
I1
sS'volumes'
p7022
I3
sS'hashimoto'
p7023
I4
sS'tonnes'
p7024
I59
sS'expands'
p7025
I2
s.