(dp0
S'10,904'
p1
I1
sS'yellow'
p2
I2
sS'hanging'
p3
I1
sS'increase'
p4
I28
sS'electricity'
p5
I2
sS'saarbruecker'
p6
I1
sS'unseating'
p7
I1
sS'hermann'
p8
I2
sS'14-year'
p9
I2
sS'schalke'
p10
I9
sS'evangelical'
p11
I1
sS'digit'
p12
I3
sS'regional'
p13
I3
sS'11th-seeded'
p14
I1
sS'bringing'
p15
I5
sS'clientele'
p16
I1
sS'wednesday'
p17
I68
sS'mannesman'
p18
I1
sS'straight'
p19
I9
sS'95/96'
p20
I2
sS'frankfurt.but'
p21
I1
sS'holocaust'
p22
I8
sS'270'
p23
I1
sS'elegant'
p24
I1
sS'second'
p25
I29
sS'friday.according'
p26
I1
sS'275'
p27
I1
sS'shrugging'
p28
I1
sS'carpeting'
p29
I1
sS'tonnes.united'
p30
I1
sS'contributed'
p31
I2
sS'bonuses'
p32
I1
sS'103.43'
p33
I1
sS'replaced'
p34
I1
sS'increasing'
p35
I3
sS'admiral'
p36
I1
sS'shocks'
p37
I1
sS'company.the'
p38
I1
sS'insinuation'
p39
I1
sS'5.125'
p40
I1
sS'reported'
p41
I16
sS'65.75'
p42
I1
sS'china'
p43
I6
sS'cyclical'
p44
I1
sS'113,489'
p45
I1
sS'k'
p46
I8
sS'climbed'
p47
I11
sS'18.59/19.18'
p48
I1
sS'reports'
p49
I8
sS'controversy'
p50
I5
sS"i'd"
p51
I1
sS'military'
p52
I6
sS"i'm"
p53
I2
sS'spotty'
p54
I1
sS'cancellation'
p55
I1
sS'criticism'
p56
I10
sS'golden'
p57
I2
sS'seifert'
p58
I1
sS'196,000'
p59
I1
sS'criticise'
p60
I1
sS'explained'
p61
I3
sS'replace'
p62
I2
sS'brought'
p63
I19
sS'3,254.0.despite'
p64
I1
sS'stern'
p65
I1
sS'airline.the'
p66
I1
sS'unit'
p67
I24
sS'opponents'
p68
I1
sS'culture.a'
p69
I2
sS'strike'
p70
I16
sS'sueddeutsche'
p71
I2
sS'seconds.llewellyn'
p72
I1
sS'said.schroeder'
p73
I1
sS'successful'
p74
I4
sS'brings'
p75
I2
sS'changetotal'
p76
I2
sS'hurt'
p77
I1
sS'98'
p78
I1
sS'5.14'
p79
I1
sS'90'
p80
I6
sS'93'
p81
I2
sS'hold'
p82
I24
sS'95'
p83
I2
sS'94'
p84
I3
sS'97'
p85
I50
sS'7.410'
p86
I1
sS'characterised'
p87
I1
sS'pursue'
p88
I3
sS'plunged'
p89
I5
sS'ryutaro'
p90
I1
sS'disputes.the'
p91
I1
sS'temperatures'
p92
I2
sS'soundbite'
p93
I1
sS'30.the'
p94
I1
sS'revenues'
p95
I3
sS'example'
p96
I3
sS'75,053'
p97
I1
sS'wang'
p98
I1
sS'newsweekly'
p99
I1
sS'currency'
p100
I27
sS'caution'
p101
I2
sS'want'
p102
I16
sS'51.2'
p103
I1
sS'absolute'
p104
I3
sS'hog'
p105
I1
sS'hoc'
p106
I1
sS'fallahiyan'
p107
I1
sS'travel'
p108
I8
sS'statement.these'
p109
I1
sS'damage'
p110
I4
sS'149,000'
p111
I2
sS'machine'
p112
I2
sS'hot'
p113
I1
sS'3.10/3.125'
p114
I1
sS'audi'
p115
I1
sS'mueller'
p116
I2
sS'added.lufthansa'
p117
I3
sS'assimilated'
p118
I1
sS'1008'
p119
I1
sS'copenhagen.the'
p120
I1
sS'outlawed'
p121
I1
sS'wrong'
p122
I1
sS'259,028'
p123
I1
sS'effective'
p124
I4
sS'wins'
p125
I2
sS'revolt'
p126
I1
sS'deutsche'
p127
I35
sS'baggage'
p128
I1
sS'democratic'
p129
I6
sS'wing'
p130
I6
sS'backdrop'
p131
I1
sS'feedback'
p132
I1
sS'welcomed'
p133
I4
sS'sunseed'
p134
I1
sS'2,512'
p135
I2
sS'kickoff'
p136
I1
sS'pietersburg'
p137
I1
sS'fetched'
p138
I1
sS'kinkel'
p139
I2
sS'3,198.81'
p140
I1
sS'fit'
p141
I7
sS'3,300'
p142
I7
sS'pilkington'
p143
I1
sS'survivors'
p144
I2
sS'1999.it'
p145
I1
sS'l-29.apr.97'
p146
I1
sS'admirable'
p147
I1
sS'easier'
p148
I2
sS'542-7706'
p149
I1
sS'126.2'
p150
I1
sS'lambert'
p151
I4
sS'effects'
p152
I3
sS'silver'
p153
I4
sS'structural'
p154
I2
sS'represents'
p155
I1
sS'130,000'
p156
I1
sS'argue.unions'
p157
I1
sS'saxony.volkswagen'
p158
I1
sS'cftc'
p159
I1
sS'soaring'
p160
I1
sS'telekom'
p161
I3
sS'week.sterling'
p162
I1
sS'graced'
p163
I1
sS'dgb'
p164
I10
sS'financial'
p165
I27
sS'woes'
p166
I2
sS'series'
p167
I9
sS'250,000'
p168
I2
sS'said.volkswagen'
p169
I2
sS'391'
p170
I1
sS'fortnight'
p171
I1
sS'substantially'
p172
I1
sS'ring'
p173
I2
sS'rt'
p174
I1
sS'semiconductor'
p175
I1
sS'encourage'
p176
I3
sS'comprehensive'
p177
I1
sS'dsd'
p178
I4
sS'millions'
p179
I6
sS'assured'
p180
I2
sS'threatened'
p181
I1
sS'companies.under'
p182
I1
sS'corrects'
p183
I1
sS'estimate'
p184
I1
sS'advertising.mgm'
p185
I1
sS'enormous'
p186
I2
sS'exposing'
p187
I2
sS'undisputably'
p188
I1
sS'commented'
p189
I1
sS'shipped'
p190
I1
sS'leapt'
p191
I1
sS'azaglio'
p192
I1
sS'juergen'
p193
I12
sS'landlords'
p194
I1
sS'clarity'
p195
I2
sS'171'
p196
I48
sS'kuebacher'
p197
I1
sS'said.kohl'
p198
I1
sS'service'
p199
I12
sS'283,664'
p200
I1
sS'needed'
p201
I22
sS'master'
p202
I1
sS'listed'
p203
I3
sS'euro'
p204
I8
sS'61.90'
p205
I2
sS'century.on'
p206
I1
sS'collapse'
p207
I3
sS'basler'
p208
I3
sS'markets.at'
p209
I1
sS'27-0.the'
p210
I1
sS'arm.the'
p211
I1
sS'later.currently'
p212
I1
sS'btps'
p213
I1
sS'showed'
p214
I19
sS'wuerttemberg'
p215
I3
sS'rusty'
p216
I1
sS'nations'
p217
I6
sS'project'
p218
I6
sS'1.6725'
p219
I2
sS'feeling'
p220
I1
sS'1.6720'
p221
I2
sS'acquisition'
p222
I9
sS'4.658'
p223
I1
sS'23.the'
p224
I1
sS'willingness'
p225
I2
sS'longs'
p226
I1
sS'boston'
p227
I2
sS'37,435'
p228
I1
sS'dozen'
p229
I1
sS'affairs'
p230
I2
sS'escalator'
p231
I5
sS'concrete'
p232
I4
sS'2.70'
p233
I1
sS'responsible'
p234
I7
sS'90.50'
p235
I1
sS'lumpur'
p236
I2
sS'season'
p237
I16
sS'layoffs'
p238
I1
sS'kremlin'
p239
I5
sS'shipments'
p240
I13
sS'33.20/33.70'
p241
I1
sS'3,170'
p242
I1
sS'committing'
p243
I1
sS'automaker'
p244
I2
sS'victoria'
p245
I8
sS'simplify'
p246
I1
sS'100.9'
p247
I1
sS'mouth'
p248
I1
sS'volkan'
p249
I2
sS'letter'
p250
I1
sS'1,809,424'
p251
I1
sS'100.3'
p252
I1
sS'drought'
p253
I1
sS'thriller'
p254
I1
sS'professor'
p255
I1
sS'camp'
p256
I4
sS'rabat'
p257
I1
sS'marks.lombard'
p258
I1
sS'tech'
p259
I1
sS'hahne'
p260
I1
sS'came'
p261
I21
sS'saying'
p262
I20
sS'chirpy'
p263
I1
sS'bomb'
p264
I1
sS'meetings'
p265
I4
sS'soluble'
p266
I1
sS'gauge'
p267
I1
sS'participate'
p268
I3
sS'hungary'
p269
I13
sS'lafontaine'
p270
I15
sS'copy'
p271
I2
sS'clicked'
p272
I1
sS'holder'
p273
I1
sS'rick'
p274
I1
sS'rich'
p275
I1
sS'rica'
p276
I2
sS'4.06'
p277
I2
sS'plate'
p278
I1
sS'klein'
p279
I2
sS'reporters.turkey'
p280
I1
sS'tuesday.banks'
p281
I1
sS'volatility'
p282
I8
sS'greens'
p283
I14
sS'dipping'
p284
I1
sS'patch'
p285
I1
sS'greene'
p286
I1
sS'82,100'
p287
I1
sS'release'
p288
I11
sS'11,550'
p289
I1
sS'hypotheken'
p290
I1
sS'fair'
p291
I1
sS'specialist'
p292
I4
sS'unexpectedly'
p293
I2
sS'result'
p294
I19
sS'fail'
p295
I1
sS'turkey.tens'
p296
I1
sS'best'
p297
I21
sS'lots'
p298
I5
sS'1938'
p299
I2
sS'pressures'
p300
I6
sS'747-200'
p301
I1
sS'discipline'
p302
I3
sS'40.8'
p303
I1
sS'henrik'
p304
I1
sS'extend'
p305
I1
sS'40.0'
p306
I3
sS'40.6'
p307
I1
sS'isocyanates'
p308
I1
sS'40.4'
p309
I1
sS'extent'
p310
I2
sS'heads'
p311
I1
sS'carbon'
p312
I1
sS'debt'
p313
I7
sS'32.50'
p314
I1
sS'expectations.before'
p315
I1
sS'1997robusta'
p316
I2
sS'country'
p317
I22
sS'strange'
p318
I1
sS'demanded'
p319
I3
sS'stuttgart'
p320
I10
sS'planned'
p321
I31
sS'argue'
p322
I3
sS'asked'
p323
I9
sS'25.apr.07'
p324
I1
sS'ngcc'
p325
I1
sS'challenger.lafontaine'
p326
I2
sS'one.most'
p327
I1
sS'active'
p328
I1
sS'285,760'
p329
I1
sS'250'
p330
I5
sS'jeered'
p331
I1
sS'grazing'
p332
I1
sS'76.1'
p333
I1
sS'nosedive'
p334
I1
sS'union'
p335
I53
sS'workers.an'
p336
I1
sS'3.88'
p337
I3
sS'6-million'
p338
I1
sS'criticised'
p339
I4
sS'subsidy'
p340
I1
sS'extraction'
p341
I1
sS'stadium'
p342
I7
sS'deliberately'
p343
I4
sS'criticises'
p344
I4
sS'1980.kohl'
p345
I1
sS'said.june'
p346
I1
sS'life'
p347
I7
sS'eastern'
p348
I21
sS'worker'
p349
I3
sS'lift'
p350
I4
sS'schoenefeld'
p351
I2
sS'chile'
p352
I1
sS'doubts'
p353
I1
sS'worked'
p354
I4
sS'spin'
p355
I4
sS'commerce'
p356
I1
sS'5.95/6.10'
p357
I1
sS'13,150'
p358
I1
sS'organisers'
p359
I1
sS'excited'
p360
I1
sS'employ'
p361
I5
sS'gerhard'
p362
I14
sS'saying.man'
p363
I1
sS'elaborate'
p364
I2
sS'played'
p365
I7
sS'burkhardt'
p366
I1
sS'kohl'
p367
I142
sS'player'
p368
I6
sS'levied'
p369
I1
sS'1.289'
p370
I1
sS'matthaeus'
p371
I1
sS'damaged'
p372
I2
sS'81.0'
p373
I1
sS'128,660'
p374
I1
sS'things'
p375
I13
sS'cumulative'
p376
I16
sS'rebellion'
p377
I1
sS'18.95/19.18'
p378
I1
sS'split'
p379
I2
sS'pkk.germany'
p380
I1
sS'rebound'
p381
I5
sS'systems.but'
p382
I2
sS'european'
p383
I66
sS'fairly'
p384
I4
sS'tops'
p385
I1
sS'workforce'
p386
I8
sS'marched'
p387
I2
sS'ownership'
p388
I6
sS'1.063'
p389
I1
sS'said.schindler'
p390
I2
sS'6.013'
p391
I1
sS'859-1879'
p392
I1
sS'vyakhirev'
p393
I1
sS'corporate'
p394
I9
sS'countries.eastern'
p395
I1
sS'autobahn'
p396
I3
sS'opinions'
p397
I1
sS'distribute'
p398
I2
sS'airbag'
p399
I2
sS'proofing'
p400
I1
sS'previous'
p401
I22
sS'15-march'
p402
I2
sS'211,669'
p403
I1
sS'ham'
p404
I2
sS'crushings'
p405
I1
sS'prison'
p406
I1
sS'falter'
p407
I1
sS'east'
p408
I8
sS'64,200'
p409
I1
sS'embellish'
p410
I1
sS'possible'
p411
I20
sS'firmer'
p412
I6
sS'unequivocally'
p413
I1
sS'possibly'
p414
I1
sS'shadow'
p415
I1
sS'1998.glunz'
p416
I1
sS'massively'
p417
I1
sS'desire'
p418
I1
sS'county'
p419
I1
sS'3,093'
p420
I1
sS'land.under'
p421
I1
sS'steps'
p422
I4
sS'right'
p423
I14
sS'old'
p424
I27
sS'crowd'
p425
I2
sS'people'
p426
I32
sS'czech'
p427
I1
sS'crown'
p428
I1
sS'steinmueller'
p429
I2
sS'zalawa'
p430
I1
sS'raiffeisen'
p431
I1
sS'8520'
p432
I1
sS'artists.avram'
p433
I1
sS'enemies'
p434
I1
sS'individuals'
p435
I2
sS'summoned'
p436
I3
sS'annan'
p437
I4
sS'stefan'
p438
I3
sS'substituted'
p439
I3
sS'shifting'
p440
I1
sS'losing'
p441
I2
sS'brokerage'
p442
I3
sS'manufacturing'
p443
I24
sS'shaken'
p444
I1
sS'restlessness'
p445
I1
sS'0519'
p446
I3
sS'dollars'
p447
I5
sS'citizens'
p448
I6
sS'262.50-282.50'
p449
I1
sS'0.1zinc'
p450
I1
sS'palestinians'
p451
I1
sS'slightly'
p452
I18
sS'raised'
p453
I8
sS'statements'
p454
I1
sS'lenin'
p455
I1
sS'1.625'
p456
I1
sS'marshall'
p457
I1
sS'son'
p458
I5
sS'undermining'
p459
I1
sS'raises'
p460
I1
sS'soon'
p461
I9
sS'2,522'
p462
I2
sS'support'
p463
I44
sS'joseph'
p464
I2
sS'happy'
p465
I3
sS'36,409'
p466
I1
sS'alloys'
p467
I1
sS'glunz'
p468
I2
sS'fire.members'
p469
I1
sS'forming'
p470
I1
sS'conclusively'
p471
I4
sS'118,900'
p472
I1
sS'safeguard'
p473
I2
sS'prices.cocoa'
p474
I1
sS'schneider.not'
p475
I1
sS'rippling'
p476
I1
sS'177.70'
p477
I1
sS'inside'
p478
I3
sS'pesos'
p479
I2
sS'ministry.the'
p480
I1
sS'passenger'
p481
I24
sS'adopt'
p482
I1
sS'liberal'
p483
I1
sS'fredericks'
p484
I2
sS'157'
p485
I3
sS'implications'
p486
I2
sS'tournament'
p487
I2
sS'klinsmann'
p488
I9
sS'exist'
p489
I1
sS'trinkaus'
p490
I2
sS'accounting'
p491
I2
sS'came.yeltsin'
p492
I1
sS'dealer'
p493
I14
sS'triangles'
p494
I1
sS'posting'
p495
I2
sS'warme'
p496
I1
sS'eventual'
p497
I2
sS'floor'
p498
I23
sS'accomodating'
p499
I1
sS'24,445'
p500
I1
sS'composite'
p501
I3
sS'role'
p502
I8
sS'ambitious'
p503
I3
sS'rolf'
p504
I1
sS'intend'
p505
I1
sS'models'
p506
I1
sS'87.05'
p507
I1
sS'transported'
p508
I2
sS'invested'
p509
I3
sS'variable'
p510
I1
sS'muenchener'
p511
I3
sS'beamed'
p512
I1
sS'time'
p513
I55
sS'push'
p514
I2
sS'timo'
p515
I2
sS'slope'
p516
I1
sS'irrigation'
p517
I1
sS'points.suharto'
p518
I3
sS'chain'
p519
I1
sS'saar'
p520
I3
sS'u.s.another'
p521
I1
sS'burlington'
p522
I1
sS'96'
p523
I24
sS'veterans'
p524
I1
sS'busy'
p525
I2
sS'3,150'
p526
I1
sS'allegations'
p527
I2
sS'consolidation'
p528
I3
sS'spate'
p529
I5
sS'choice'
p530
I2
sS'45,766'
p531
I1
sS'embark'
p532
I1
sS'92.8'
p533
I1
sS'west.police'
p534
I1
sS'office.the'
p535
I1
sS'minute'
p536
I1
sS'4,414'
p537
I1
sS'market.holiday'
p538
I1
sS'industry.finally'
p539
I1
sS'leave'
p540
I8
sS'solved'
p541
I1
sS'4.672'
p542
I1
sS'settle'
p543
I4
sS'team'
p544
I10
sS'speculation'
p545
I11
sS'prevent'
p546
I10
sS'findings'
p547
I2
sS'bock'
p548
I1
sS'08.may.00'
p549
I1
sS'trails'
p550
I1
sS'sign'
p551
I8
sS'frankfurter'
p552
I10
sS'annoyance.but'
p553
I1
sS'celebrated'
p554
I4
sS'5,208'
p555
I2
sS'current'
p556
I32
sS'remembered'
p557
I1
sS'axel'
p558
I1
sS'falling'
p559
I9
sS'geography'
p560
I1
sS'boost'
p561
I15
sS'totalling'
p562
I1
sS'honour'
p563
I2
sS'lange'
p564
I1
sS'address'
p565
I9
sS'ratio'
p566
I1
sS'dwindling'
p567
I1
sS'benson'
p568
I3
sS'passengers'
p569
I6
sS'metres.namibia'
p570
I1
sS'said.ulrike'
p571
I1
sS'5,346'
p572
I1
sS'267,968'
p573
I1
sS'said.latvian'
p574
I1
sS'12-month'
p575
I1
sS'damage.rapeseed'
p576
I1
sS'carpets'
p577
I1
sS'182,000'
p578
I1
sS'tasks'
p579
I1
sS'confidentiality'
p580
I2
sS'logical'
p581
I2
sS'bloody'
p582
I1
sS'opposes'
p583
I1
sS'toppled'
p584
I1
sS'working'
p585
I10
sS'positive'
p586
I12
sS'angry'
p587
I1
sS'predictions'
p588
I3
sS'shortfalls'
p589
I1
sS'opposed'
p590
I10
sS'bender'
p591
I1
sS'scope'
p592
I1
sS'prosecutor'
p593
I2
sS'wvz'
p594
I1
sS'unit.this'
p595
I2
sS'afford'
p596
I1
sS'apparent'
p597
I2
sS'refrain'
p598
I1
sS'leader.the'
p599
I1
sS'year.pan'
p600
I1
sS'sieben'
p601
I1
sS'2769e-mail'
p602
I1
sS'valued'
p603
I4
sS'czk'
p604
I1
sS'originally'
p605
I1
sS'believes'
p606
I4
sS'1,733'
p607
I2
sS'printing'
p608
I1
sS'slowness'
p609
I1
sS'believed'
p610
I5
sS'production.taiwan'
p611
I1
sS'mentality'
p612
I1
sS'97.9'
p613
I1
sS'region.he'
p614
I1
sS'allowed'
p615
I2
sS'234'
p616
I1
sS'236'
p617
I1
sS'evidently'
p618
I1
sS'3,639'
p619
I1
sS'winter'
p620
I7
sS'126.37'
p621
I1
sS'divided'
p622
I2
sS'rhetoric.union'
p623
I1
sS'stahlbau'
p624
I1
sS'undertook'
p625
I1
sS'spot'
p626
I5
sS'applications'
p627
I1
sS'15,700'
p628
I1
sS'reassessment'
p629
I1
sS'date'
p630
I18
sS'data'
p631
I61
sS'airrep'
p632
I1
sS'natural'
p633
I1
sS'varieties'
p634
I1
sS'sectors'
p635
I7
sS'pilditch'
p636
I1
sS'4.316'
p637
I3
sS'yielding'
p638
I2
sS'st'
p639
I4
sS'castings'
p640
I5
sS'truck'
p641
I15
sS'sa'
p642
I1
sS'pulled'
p643
I5
sS'1.6685'
p644
I1
sS'13,588'
p645
I1
sS'kong'
p646
I4
sS'hiring'
p647
I4
sS'0no'
p648
I2
sS'stampeded'
p649
I2
sS'elber'
p650
I1
sS'tendency'
p651
I1
sS'overhaul'
p652
I2
sS'state.german'
p653
I1
sS'torn'
p654
I1
sS'troubles'
p655
I2
sS'aviv'
p656
I5
sS'suspicion'
p657
I6
sS'swastika'
p658
I5
sS'decades'
p659
I1
sS'kidnapping.in'
p660
I1
sS'5.55'
p661
I1
sS'5.50'
p662
I3
sS'matches'
p663
I7
sS'fob.brazils'
p664
I1
sS'nation'
p665
I5
sS'records'
p666
I3
sS'realities'
p667
I1
sS'arriving'
p668
I1
sS'twilight'
p669
I1
sS'maintaining'
p670
I1
sS'matched'
p671
I1
sS'1.6lead'
p672
I1
sS'24.6'
p673
I2
sS'crushers'
p674
I1
sS'68.60'
p675
I1
sS'quarter'
p676
I20
sS'68.68'
p677
I1
sS'square'
p678
I3
sS'178.7'
p679
I1
sS'exports.schmidt'
p680
I1
sS'bovine'
p681
I1
sS'breakthrough'
p682
I1
sS'entering'
p683
I1
sS'motivated.von'
p684
I1
sS'bundesliga'
p685
I2
sS'seriously'
p686
I3
sS'investigation'
p687
I4
sS'hcg'
p688
I1
sS'internet'
p689
I6
sS'suggesting'
p690
I4
sS'deutschmark'
p691
I1
sS'million'
p692
I116
sS'seventh'
p693
I3
sS'possibility'
p694
I5
sS'quite'
p695
I10
sS'lucrative'
p696
I1
sS'remainder'
p697
I1
sS'wednesday.senior'
p698
I3
sS'training'
p699
I1
sS'programming'
p700
I1
sS'modest'
p701
I2
sS'gordon'
p702
I1
sS'routes'
p703
I3
sS'saving'
p704
I1
sS'palatinate'
p705
I1
sS'spoken'
p706
I1
sS'clause'
p707
I1
sS'22'
p708
I5
sS'safety'
p709
I8
sS'gases'
p710
I1
sS'spanish'
p711
I1
sS'vote'
p712
I2
sS'open'
p713
I11
sS'opel'
p714
I10
sS'city'
p715
I8
sS'bite'
p716
I1
sS'10,777'
p717
I1
sS'4,207'
p718
I2
sS'indicate'
p719
I2
sS'2'
p720
I18
sS'draft'
p721
I3
sS'typing'
p722
I1
sS'geza'
p723
I2
sS'lingering'
p724
I1
sS'purchase'
p725
I9
sS'vehicles.speaking'
p726
I1
sS'slashed'
p727
I1
sS'specialists'
p728
I1
sS'surged'
p729
I1
sS'airmarketing'
p730
I1
sS'robusta'
p731
I1
sS'depressed'
p732
I2
sS'rival'
p733
I7
sS'38,898'
p734
I1
sS'future'
p735
I15
sS'russia'
p736
I19
sS'prospect'
p737
I2
sS'illness'
p738
I2
sS'rainer'
p739
I3
sS'10-14'
p740
I2
sS'royalties'
p741
I1
sS'saa'
p742
I8
sS'turned'
p743
I4
sS'locations'
p744
I1
sS'say'
p745
I22
sS'rained'
p746
I1
sS'buried'
p747
I1
sS'turner'
p748
I1
sS'saw'
p749
I7
sS'32.1transit'
p750
I1
sS'ba.as'
p751
I1
sS'circular.it'
p752
I1
sS'jahr'
p753
I2
sS'aside'
p754
I6
sS'note'
p755
I5
sS'intends'
p756
I2
sS'schliemann'
p757
I2
sS'coincide'
p758
I1
sS'mayer'
p759
I2
sS'postyeni'
p760
I1
sS'butterfly'
p761
I1
sS'46.5'
p762
I1
sS'46.6'
p763
I1
sS'46.2'
p764
I1
sS'opposite'
p765
I2
sS'knew'
p766
I2
sS'suspects'
p767
I1
sS'0.62.traders'
p768
I1
sS'slurred'
p769
I1
sS'remarks'
p770
I2
sS'149,600'
p771
I1
sS'pages'
p772
I1
sS'17.all'
p773
I1
sS'average'
p774
I18
sS'drive'
p775
I8
sS'federal'
p776
I21
sS'12,180'
p777
I1
sS'wind'
p778
I1
sS'jittery'
p779
I4
sS'30,000'
p780
I2
sS'liquidity'
p781
I3
sS'laws'
p782
I7
sS'106.5two-month'
p783
I1
sS'43,896'
p784
I1
sS'friction'
p785
I1
sS'anoshkin'
p786
I1
sS'bright'
p787
I2
sS'pace.asked'
p788
I1
sS'defence.hansa'
p789
I1
sS'104.4'
p790
I1
sS'slot'
p791
I1
sS'slow'
p792
I6
sS'said.speculation'
p793
I1
sS'otis'
p794
I2
sS'204,700'
p795
I1
sS'going'
p796
I13
sS'outrage'
p797
I2
sS'euromarket'
p798
I1
sS'dispute'
p799
I3
sS'society.germany'
p800
I1
sS'buying.additionally'
p801
I1
sS'companies.the'
p802
I1
sS'239,562'
p803
I1
sS'awaiting'
p804
I1
sS'91,560'
p805
I1
sS'cif'
p806
I1
sS'prime'
p807
I15
sS'artist'
p808
I1
sS'46-8-700'
p809
I1
sS'tenerife'
p810
I1
sS'worried'
p811
I3
sS'midfield'
p812
I1
sS'bombs'
p813
I1
sS'worries'
p814
I3
sS'uncover'
p815
I2
sS'hinged'
p816
I1
sS'reshuffle'
p817
I3
sS'morocco'
p818
I3
sS'alarming'
p819
I4
sS'sites'
p820
I2
sS'jakarta'
p821
I6
sS'marks.unlike'
p822
I2
sS'enjoys'
p823
I4
sS'scoring'
p824
I1
sS'jobs'
p825
I27
sS'negotiations'
p826
I4
sS'4,180,737'
p827
I1
sS'clayton'
p828
I2
sS'concentrate'
p829
I5
sS'showed.sugar'
p830
I1
sS'concentrated'
p831
I1
sS'5240'
p832
I3
sS'millionaire'
p833
I1
sS'outperformance'
p834
I1
sS's'
p835
I47
sS"can't"
p836
I5
sS'baden'
p837
I5
sS'betts.ubs'
p838
I1
sS'anti'
p839
I16
sS'article'
p840
I1
sS'west'
p841
I17
sS'vacation'
p842
I1
sS'3,286,387'
p843
I1
sS'combined'
p844
I3
sS'motives'
p845
I3
sS'wants'
p846
I19
sS'14.295'
p847
I1
sS'3,474.98'
p848
I1
sS'influence'
p849
I2
sS'formed'
p850
I7
sS'bergheim'
p851
I2
sS'postabank'
p852
I4
sS'cooperatives.hungarian'
p853
I1
sS'kazan'
p854
I1
sS'polls'
p855
I12
sS'engineering'
p856
I8
sS'marks.on'
p857
I1
sS'policies'
p858
I12
sS'squeezed'
p859
I1
sS'situation'
p860
I11
sS'spotlight'
p861
I2
sS'girth'
p862
I1
sS'aluminium'
p863
I2
sS'ivg'
p864
I4
sS'ctry'
p865
I6
sS'13.9'
p866
I2
sS'13.7'
p867
I5
sS'13.5'
p868
I2
sS'technology'
p869
I4
sS'13.0'
p870
I2
sS'expenditures'
p871
I4
sS'wilhelm'
p872
I1
sS'otto'
p873
I5
sS'hezekiel'
p874
I1
sS'3,281.46'
p875
I1
sS'gesamtverband'
p876
I1
sS'edged'
p877
I2
sS'wolters'
p878
I1
sS'singapore'
p879
I3
sS'boosted'
p880
I9
sS'session.traders'
p881
I1
sS'tuanku'
p882
I1
sS'advertisement'
p883
I3
sS'devolved'
p884
I1
sS'costa'
p885
I2
sS'tracking'
p886
I4
sS'60,000'
p887
I2
sS'it.a'
p888
I1
sS'costs'
p889
I14
sS'10,436'
p890
I1
sS'interview.vw'
p891
I1
sS'colorants'
p892
I6
sS'1,245'
p893
I1
sS'1,714'
p894
I1
sS'gdp'
p895
I2
sS'summer'
p896
I13
sS'212'
p897
I2
sS'gdv'
p898
I2
sS'134-year'
p899
I1
sS'rest'
p900
I9
sS'steelworks'
p901
I1
sS'weekly'
p902
I12
sS'rover'
p903
I2
sS'union.the'
p904
I1
sS'capital.additional'
p905
I1
sS'clariant.all'
p906
I1
sS'potash'
p907
I1
sS'week.abn'
p908
I1
sS'aspects'
p909
I1
sS'downtrend'
p910
I1
sS'scandinavia.old'
p911
I1
sS'traffic'
p912
I26
sS'preference'
p913
I2
sS'auctioneers'
p914
I1
sS'world'
p915
I48
sS'postal'
p916
I2
sS'10.58'
p917
I1
sS'bravery'
p918
I1
sS'points.dow'
p919
I1
sS'131.5'
p920
I1
sS'clad'
p921
I1
sS'pole'
p922
I1
sS'3bertelsmann'
p923
I1
sS'clay'
p924
I3
sS'avram'
p925
I3
sS'satisfactory'
p926
I2
sS'5017'
p927
I22
sS'millichip'
p928
I1
sS'1.6664'
p929
I1
sS'lebanon'
p930
I1
sS'supplementary'
p931
I1
sS'brits'
p932
I1
sS'racial'
p933
I3
sS'thinks'
p934
I3
sS'noon'
p935
I1
sS'moslem'
p936
I12
sS'904,540'
p937
I2
sS'francois'
p938
I1
sS'ddf'
p939
I1
sS'moment.schindler'
p940
I1
sS'metalworking'
p941
I1
sS'dresden'
p942
I9
sS'georgios'
p943
I2
sS'power'
p944
I15
sS'issen'
p945
I3
sS'leadership'
p946
I12
sS'thailand'
p947
I1
sS'aksener'
p948
I3
sS'acc'
p949
I1
sS'package'
p950
I4
sS'industry'
p951
I50
sS'itself.kohl'
p952
I1
sS'march.but'
p953
I1
sS'periods.london'
p954
I1
sS'act'
p955
I2
sS'century.as'
p956
I1
sS'98.50.the'
p957
I1
sS'bond'
p958
I23
sS'forecast.bertelsmann'
p959
I1
sS'potentiallly'
p960
I1
sS'sidewards'
p961
I1
sS'lively'
p962
I1
sS'parties'
p963
I9
sS'essen'
p964
I1
sS'bergen'
p965
I2
sS'brazilian'
p966
I1
sS'hem'
p967
I1
sS'tireless'
p968
I1
sS'complete'
p969
I8
sS'explained.els'
p970
I2
sS'103.5'
p971
I1
sS'99.05.calls'
p972
I1
sS'bunds'
p973
I17
sS'this.up'
p974
I1
sS'elimination'
p975
I1
sS'technologies'
p976
I1
sS'buying'
p977
I18
sS'pull'
p978
I6
sS'october'
p979
I13
sS'rescuing'
p980
I1
sS'contracting'
p981
I1
sS'502'
p982
I1
sS'reasoned'
p983
I2
sS'4,594'
p984
I1
sS'31.2'
p985
I2
sS'subsdiary'
p986
I1
sS'site'
p987
I8
sS'agree'
p988
I7
sS'rust'
p989
I1
sS'5-year'
p990
I1
sS'aa'
p991
I2
sS'gone'
p992
I1
sS'aufbaufinazierung'
p993
I2
sS'ad'
p994
I3
sS'ag'
p995
I113
sS'trend.dealers'
p996
I2
sS'certain'
p997
I8
sS'direction'
p998
I9
sS'wartime'
p999
I3
sS'information.members'
p1000
I1
sS'vorm'
p1001
I1
sS'watched'
p1002
I1
sS'rates.industrial'
p1003
I1
sS'managing'
p1004
I2
sS'bored'
p1005
I1
sS'20.20'
p1006
I1
sS'bremen'
p1007
I6
sS'percent.notable'
p1008
I1
sS'tight'
p1009
I2
sS'2001'
p1010
I1
sS'1441'
p1011
I1
sS'1440'
p1012
I1
sS'15,910'
p1013
I1
sS'contemporaries'
p1014
I1
sS'congress'
p1015
I4
sS'accounts'
p1016
I6
sS'lairds'
p1017
I1
sS'gillis'
p1018
I1
sS'steelworkers.how'
p1019
I1
sS'schwarzwaelder'
p1020
I1
sS'203,248'
p1021
I1
sS'ratings.this'
p1022
I1
sS'mass'
p1023
I3
sS'adam'
p1024
I5
sS'88.80'
p1025
I1
sS'original'
p1026
I4
sS'legislatures'
p1027
I1
sS'axles'
p1028
I2
sS'consider'
p1029
I5
sS'2,568'
p1030
I1
sS'caused'
p1031
I9
sS'code'
p1032
I1
sS'welfare'
p1033
I8
sS'causes'
p1034
I2
sS'hunting'
p1035
I3
sS'bismarck'
p1036
I2
sS'283,900'
p1037
I1
sS'dsl'
p1038
I3
sS'spirit'
p1039
I2
sS'6,517'
p1040
I3
sS'hatred.german'
p1041
I2
sS'ghana'
p1042
I1
sS'case'
p1043
I13
sS'1998.his'
p1044
I1
sS'returned'
p1045
I3
sS'floated'
p1046
I1
sS'5.83/5.92'
p1047
I1
sS'anatolian'
p1048
I3
sS'condition'
p1049
I2
sS'illustrated'
p1050
I1
sS'8,560'
p1051
I1
sS'17th'
p1052
I1
sS'performance.as'
p1053
I1
sS'133.12'
p1054
I3
sS'dodged'
p1055
I1
sS'large'
p1056
I10
sS'5.1'
p1057
I2
sS'adjust'
p1058
I1
sS'small'
p1059
I7
sS'hand.just'
p1060
I1
sS'194'
p1061
I2
sS'193'
p1062
I1
sS'192'
p1063
I1
sS'past'
p1064
I15
sS'pass'
p1065
I3
sS'29.apr.02'
p1066
I1
sS'investment'
p1067
I14
sS'96.1'
p1068
I1
sS'instutions'
p1069
I1
sS'prevailed'
p1070
I2
sS'schroeder.schroeder'
p1071
I1
sS'undecided'
p1072
I2
sS'scientists'
p1073
I1
sS'showed.the'
p1074
I6
sS'method'
p1075
I5
sS'176.15'
p1076
I1
sS'2769'
p1077
I1
sS'escaping'
p1078
I2
sS'companies.trafficmaster'
p1079
I1
sS'londontel'
p1080
I2
sS'19p'
p1081
I1
sS'hours'
p1082
I4
sS'hormone.it'
p1083
I1
sS'saleswoman'
p1084
I1
sS'november'
p1085
I17
sS'television.investment'
p1086
I1
sS'96.75'
p1087
I1
sS'experience'
p1088
I1
sS'prior'
p1089
I2
sS'3,868'
p1090
I1
sS'cousins'
p1091
I1
sS'u.s.dealers'
p1092
I1
sS'action'
p1093
I11
sS'murdering'
p1094
I1
sS'luck'
p1095
I1
sS'smuggle'
p1096
I1
sS'followed'
p1097
I9
sS'vie'
p1098
I2
sS'stabilising'
p1099
I2
sS'marriages'
p1100
I1
sS'said.air'
p1101
I2
sS'select'
p1102
I2
sS'504loss'
p1103
I2
sS'850'
p1104
I2
sS'vural'
p1105
I1
sS'injured.some'
p1106
I1
sS'547,693'
p1107
I1
sS'6'
p1108
I27
sS'campaign.stocks'
p1109
I1
sS'door'
p1110
I4
sS'initiated'
p1111
I1
sS'company'
p1112
I79
sS'spoils'
p1113
I1
sS'tested'
p1114
I1
sS'keeping'
p1115
I6
sS'fatal'
p1116
I3
sS'klm'
p1117
I1
sS'morgan'
p1118
I1
sS'174.15'
p1119
I1
sS'pick'
p1120
I2
sS'nervousness'
p1121
I7
sS'prompt'
p1122
I4
sS'stated'
p1123
I5
sS'lives'
p1124
I1
sS'suggestions'
p1125
I3
sS'accept'
p1126
I2
sS'autumn'
p1127
I3
sS'chancellery'
p1128
I3
sS'sense'
p1129
I6
sS'vendettas.on'
p1130
I1
sS'axis'
p1131
I1
sS'information'
p1132
I7
sS'respective'
p1133
I2
sS'reelections'
p1134
I1
sS'imminent'
p1135
I1
sS'att'
p1136
I2
sS'dismissed'
p1137
I1
sS'earnings'
p1138
I34
sS'131,101'
p1139
I1
sS'waved'
p1140
I1
sS'plant'
p1141
I23
sS'98.89'
p1142
I1
sS'intended'
p1143
I5
sS'62,985'
p1144
I1
sS'plane'
p1145
I1
sS'waves'
p1146
I2
sS'5,307'
p1147
I1
sS'appealed'
p1148
I1
sS'lanka'
p1149
I1
sS'erbakan'
p1150
I11
sS'acquisitions'
p1151
I6
sS'ankara'
p1152
I6
sS'fedesarrwollo'
p1153
I1
sS'register'
p1154
I1
sS'fundamental'
p1155
I12
sS'11.5'
p1156
I1
sS'1994.police'
p1157
I1
sS'replied'
p1158
I1
sS'1303'
p1159
I1
sS'trade'
p1160
I88
sS'attitude'
p1161
I1
sS'paper'
p1162
I4
sS'signs'
p1163
I3
sS'turbine'
p1164
I1
sS'11.3'
p1165
I3
sS'3,262'
p1166
I1
sS'52.070'
p1167
I1
sS'ruining'
p1168
I1
sS'ally'
p1169
I1
sS'20-month'
p1170
I2
sS'protesting'
p1171
I2
sS'leistung'
p1172
I1
sS'18.hartle'
p1173
I2
sS'heritage.schalke'
p1174
I1
sS'sucked'
p1175
I1
sS'fended'
p1176
I2
sS'month.zimbabwe'
p1177
I1
sS'isle'
p1178
I1
sS'6.656'
p1179
I1
sS'energetically'
p1180
I1
sS'investigators'
p1181
I6
sS'reactions'
p1182
I2
sS'england'
p1183
I6
sS'reduce'
p1184
I12
sS'slowdown'
p1185
I1
sS'gfk'
p1186
I1
sS'mackenzie'
p1187
I1
sS'investigated'
p1188
I3
sS'substantially.fundamentalsguatemala'
p1189
I1
sS'advertisers'
p1190
I2
sS'operation'
p1191
I4
sS'really'
p1192
I10
sS'2,919'
p1193
I1
sS'yevgeny'
p1194
I1
sS'20.3'
p1195
I2
sS'20.4'
p1196
I1
sS'missed'
p1197
I1
sS'450,000-500,000'
p1198
I1
sS'20.8'
p1199
I2
sS'research'
p1200
I24
sS'highway'
p1201
I1
sS'attentions'
p1202
I1
sS'bye'
p1203
I1
sS'250,854'
p1204
I1
sS'risen'
p1205
I5
sS'drifting'
p1206
I1
sS'sparked'
p1207
I7
sS'polls.the'
p1208
I1
sS'10.72'
p1209
I1
sS'qualify'
p1210
I2
sS'arable'
p1211
I1
sS'imagine'
p1212
I1
sS'10.79'
p1213
I1
sS'rises'
p1214
I5
sS'director'
p1215
I5
sS'positioning'
p1216
I1
sS'w'
p1217
I2
sS'728,068'
p1218
I2
sS'major'
p1219
I36
sS'26097150'
p1220
I3
sS'6.00'
p1221
I4
sS'historian'
p1222
I3
sS'32,114'
p1223
I1
sS'number'
p1224
I20
sS'feeder'
p1225
I1
sS'munich.the'
p1226
I1
sS'kobo'
p1227
I1
sS'basler.sammer'
p1228
I1
sS'sight.the'
p1229
I1
sS'differ'
p1230
I1
sS'974'
p1231
I2
sS'336,700'
p1232
I1
sS'jew'
p1233
I1
sS'jet'
p1234
I3
sS'introduction'
p1235
I4
sS'threatening'
p1236
I2
sS'tradition'
p1237
I1
sS'symbolises'
p1238
I1
sS'34.265'
p1239
I1
sS'smile'
p1240
I1
sS'erupted'
p1241
I1
sS'aa2'
p1242
I3
sS'added.economists'
p1243
I1
sS'subsidise'
p1244
I1
sS'5.98'
p1245
I3
sS'5.99'
p1246
I1
sS'relationship'
p1247
I1
sS'5.91'
p1248
I1
sS'immediate'
p1249
I3
sS'appreciation'
p1250
I1
sS'demonstrations'
p1251
I1
sS'focusing'
p1252
I1
sS'interviewer'
p1253
I2
sS'unrealistic'
p1254
I1
sS'thawing'
p1255
I1
sS'legs'
p1256
I1
sS'aaa'
p1257
I3
sS'iranian'
p1258
I2
sS'aah'
p1259
I4
sS'vocal'
p1260
I1
sS'nikolaus'
p1261
I1
sS'dismantling'
p1262
I1
sS'fishermen'
p1263
I1
sS'headquartered'
p1264
I1
sS'0.90'
p1265
I1
sS'added.as'
p1266
I1
sS'154.9'
p1267
I1
sS'bavarian'
p1268
I8
sS'fights'
p1269
I1
sS'organisations'
p1270
I1
sS'defect'
p1271
I1
sS'bhf'
p1272
I3
sS'mojen'
p1273
I10
sS'reorganisation'
p1274
I1
sS'sell'
p1275
I26
sS'sharps'
p1276
I1
sS'21,600'
p1277
I1
sS'eichholtz'
p1278
I1
sS'260'
p1279
I4
sS'internal'
p1280
I16
sS'frail'
p1281
I1
sS'brace'
p1282
I1
sS'play'
p1283
I8
sS'91.6'
p1284
I1
sS'plan'
p1285
I23
sS'immigrants.the'
p1286
I1
sS'287.50-309'
p1287
I1
sS'kohl.thirty'
p1288
I1
sS'thyssen.the'
p1289
I1
sS'arson'
p1290
I18
sS'seize'
p1291
I1
sS'limit.those'
p1292
I1
sS'cover'
p1293
I3
sS'frontpage'
p1294
I1
sS'dragged'
p1295
I2
sS'evening.he'
p1296
I1
sS'gold'
p1297
I3
sS'defended'
p1298
I1
sS'session'
p1299
I14
sS'earnings.the'
p1300
I1
sS'weeks.calm'
p1301
I2
sS'overwhelmed'
p1302
I1
sS'impact'
p1303
I11
sS'indicator'
p1304
I8
sS'regulations'
p1305
I1
sS'consistently'
p1306
I1
sS'smokestacks'
p1307
I1
sS'125,00s'
p1308
I1
sS'failed'
p1309
I8
sS'factor'
p1310
I6
sS'giants'
p1311
I1
sS'lombard'
p1312
I12
sS'banned'
p1313
I2
sS'operations.rmc'
p1314
I1
sS'preparing'
p1315
I1
sS'closely'
p1316
I4
sS'reporters'
p1317
I10
sS'marks.lambert'
p1318
I1
sS'banner'
p1319
I1
sS'firms'
p1320
I17
sS'distraction'
p1321
I1
sS'crs'
p1322
I6
sS'emden'
p1323
I3
sS'banking'
p1324
I7
sS'river'
p1325
I1
sS'approaching'
p1326
I1
sS'7.30'
p1327
I1
sS'set'
p1328
I46
sS'317'
p1329
I1
sS'sea'
p1330
I2
sS'33.00-33.25'
p1331
I1
sS'growth.sales'
p1332
I2
sS'muted'
p1333
I2
sS'movie'
p1334
I2
sS'currently'
p1335
I14
sS'2,742'
p1336
I1
sS'europe'
p1337
I57
sS'targeted'
p1338
I1
sS'brewing'
p1339
I1
sS'respondents'
p1340
I3
sS'death'
p1341
I1
sS'blending.fob'
p1342
I1
sS'dividend'
p1343
I17
sS'prospects'
p1344
I4
sS'improved'
p1345
I6
sS'influential'
p1346
I1
sS'barely'
p1347
I1
sS'pds'
p1348
I11
sS'1.66'
p1349
I1
sS'connection'
p1350
I7
sS'1.64'
p1351
I1
sS'1.60'
p1352
I2
sS'offing.but'
p1353
I2
sS'approve'
p1354
I4
sS'sueppel.his'
p1355
I1
sS'load'
p1356
I6
sS'bell'
p1357
I1
sS'loan'
p1358
I1
sS'corresponds'
p1359
I2
sS'community'
p1360
I5
sS'agents'
p1361
I2
sS'frosty'
p1362
I1
sS'consideration'
p1363
I1
sS'publishing'
p1364
I2
sS'monthly'
p1365
I29
sS'acceptance'
p1366
I1
sS'convicted'
p1367
I1
sS'extravagant'
p1368
I1
sS'contained'
p1369
I1
sS'extreme'
p1370
I1
sS'rosy'
p1371
I2
sS'firm'
p1372
I15
sS'showed.exports'
p1373
I3
sS'325,000'
p1374
I1
sS'mehmet'
p1375
I1
sS'9,547'
p1376
I2
sS'fund'
p1377
I8
sS'moderation'
p1378
I2
sS'reich.some'
p1379
I1
sS'representative'
p1380
I2
sS'towns'
p1381
I4
sS'3.13433'
p1382
I1
sS'hingis'
p1383
I5
sS'5,108sales'
p1384
I2
sS'handling'
p1385
I1
sS'uncertain'
p1386
I1
sS'reliable'
p1387
I2
sS'expanded'
p1388
I4
sS'mln'
p1389
I8
sS'budget'
p1390
I5
sS'receive'
p1391
I4
sS'leaning'
p1392
I5
sS'kingdom'
p1393
I1
sS'39.44'
p1394
I1
sS'hoping'
p1395
I1
sS'von'
p1396
I5
sS'motors'
p1397
I3
sS'chase'
p1398
I2
sS'muentefering'
p1399
I4
sS'year.mike'
p1400
I1
sS'fibers'
p1401
I4
sS'shorter'
p1402
I1
sS'read'
p1403
I1
sS'virtually'
p1404
I5
sS'72,985'
p1405
I1
sS'levels'
p1406
I23
sS'recent'
p1407
I31
sS'64.45'
p1408
I1
sS'performance.asked'
p1409
I1
sS'preliminary.most'
p1410
I1
sS'mnyandu'
p1411
I2
sS'person'
p1412
I1
sS'strobe'
p1413
I4
sS'redistribution'
p1414
I2
sS'dieting'
p1415
I1
sS'emerged.nonetheless'
p1416
I1
sS'sgz'
p1417
I1
sS'0.50'
p1418
I1
sS'playedin'
p1419
I1
sS'close.the'
p1420
I1
sS'deflt'
p1421
I6
sS'surprises'
p1422
I2
sS'advertisements'
p1423
I3
sS'0.54'
p1424
I1
sS'signals'
p1425
I3
sS'eager'
p1426
I2
sS'meeting.signs'
p1427
I2
sS'conerns'
p1428
I1
sS'riaan'
p1429
I1
sS'homeland'
p1430
I1
sS'surprised'
p1431
I2
sS'cordon'
p1432
I1
sS'indonesian'
p1433
I3
sS'australia'
p1434
I2
sS'victims'
p1435
I3
sS'emergency'
p1436
I2
sS'demands'
p1437
I3
sS'4,023income'
p1438
I2
sS'suffering'
p1439
I6
sS'sawed'
p1440
I1
sS'projects'
p1441
I3
sS'd'
p1442
I2
sS'ivax'
p1443
I4
sS'consensus'
p1444
I2
sS'communications'
p1445
I1
sS'continue'
p1446
I12
sS'yields'
p1447
I3
sS'64,100'
p1448
I2
sS'election.the'
p1449
I1
sS'factors.the'
p1450
I1
sS'tribes'
p1451
I1
sS'trade.dealers'
p1452
I1
sS'collective'
p1453
I2
sS'bucharest'
p1454
I1
sS'reelection'
p1455
I10
sS'ruhrgas'
p1456
I6
sS'methods'
p1457
I1
sS'spring'
p1458
I6
sS'horst'
p1459
I2
sS'bounce'
p1460
I1
sS'8682'
p1461
I2
sS'palm'
p1462
I1
sS'sight'
p1463
I2
sS'purchasers.holland'
p1464
I1
sS'emigrating'
p1465
I1
sS'annually'
p1466
I2
sS'ursula'
p1467
I1
sS'109.5'
p1468
I1
sS'veterinary'
p1469
I2
sS'3,240'
p1470
I1
sS'durables'
p1471
I13
sS'injured.erbakan'
p1472
I1
sS'ba'
p1473
I6
sS'agreement'
p1474
I15
sS'bv'
p1475
I1
sS'takover'
p1476
I1
sS'bp'
p1477
I5
sS'concealed'
p1478
I2
sS'kobonote'
p1479
I1
sS'relating'
p1480
I3
sS'dolomiti'
p1481
I6
sS'john.sanders@reuters.com'
p1482
I1
sS'daimler'
p1483
I5
sS'marin'
p1484
I1
sS'deserved'
p1485
I2
sS'exaggerated'
p1486
I2
sS'contributions.handelsblatt'
p1487
I1
sS'libero'
p1488
I1
sS'meehan'
p1489
I1
sS'deserves'
p1490
I1
sS'improved.especially'
p1491
I1
sS'ruhr'
p1492
I6
sS'stuart'
p1493
I1
sS'gallagher'
p1494
I1
sS'repair'
p1495
I1
sS'clinton'
p1496
I4
sS'colorado'
p1497
I1
sS'awaited'
p1498
I1
sS'appropriate'
p1499
I1
sS'methylene'
p1500
I1
sS'100.0'
p1501
I2
sS'9.99'
p1502
I1
sS'uncertainties'
p1503
I1
sS'poaching'
p1504
I1
sS'spending'
p1505
I5
sS'138,846'
p1506
I1
sS'bargaining'
p1507
I3
sS'specifically'
p1508
I3
sS'custom'
p1509
I1
sS'suit'
p1510
I8
sS'opens'
p1511
I1
sS'wilkening'
p1512
I1
sS'considerably'
p1513
I3
sS'inches'
p1514
I1
sS'2.068'
p1515
I1
sS'jewish'
p1516
I9
sS'relaxed'
p1517
I2
sS'slump'
p1518
I1
sS'gmt.rising'
p1519
I1
sS'pacific'
p1520
I4
sS'line'
p1521
I16
sS'considerable'
p1522
I2
sS'heinrich'
p1523
I2
sS'posted'
p1524
I9
sS'inthe'
p1525
I1
sS'dividend.chairman'
p1526
I1
sS'cid'
p1527
I1
sS'primakov.handelsblatt'
p1528
I1
sS'week.second'
p1529
I1
sS'kanther.police'
p1530
I1
sS'maturity'
p1531
I9
sS'preemptive'
p1532
I2
sS'uk'
p1533
I17
sS'mind.kohl'
p1534
I1
sS'rostock'
p1535
I5
sS'eurofighters'
p1536
I1
sS'outpaced'
p1537
I1
sS'1.204'
p1538
I1
sS'surpassing'
p1539
I1
sS'1.207'
p1540
I1
sS'diverse'
p1541
I1
sS'chat'
p1542
I1
sS'said.roughly'
p1543
I1
sS'wednesday.greene'
p1544
I1
sS'statement.pantaenius'
p1545
I1
sS'fixing'
p1546
I1
sS'tara'
p1547
I1
sS'friedman.allianz'
p1548
I2
sS'ferenc'
p1549
I1
sS'freighter'
p1550
I2
sS'unadjusted'
p1551
I3
sS'flat.a'
p1552
I1
sS'block.john'
p1553
I1
sS'lufthansa'
p1554
I21
sS'europe.wolfgang'
p1555
I1
sS'ago'
p1556
I22
sS'land'
p1557
I3
sS'beckmann'
p1558
I1
sS'valuables'
p1559
I1
sS'mailing'
p1560
I1
sS'age'
p1561
I3
sS'carreras'
p1562
I1
sS'annoyed'
p1563
I1
sS'summit'
p1564
I5
sS'12.13'
p1565
I1
sS'6.20'
p1566
I1
sS'oracle'
p1567
I1
sS'fresh'
p1568
I8
sS'having'
p1569
I4
sS'6.28'
p1570
I1
sS'87,866'
p1571
I1
sS'denoms'
p1572
I9
sS'said.analysts'
p1573
I1
sS'treasuries'
p1574
I14
sS'arentz'
p1575
I2
sS'results'
p1576
I19
sS'existing'
p1577
I7
sS'highways'
p1578
I1
sS'maastricht'
p1579
I6
sS'softer'
p1580
I2
sS'luxembourg'
p1581
I1
sS'added.schindler'
p1582
I1
sS'shrugged'
p1583
I1
sS'hofgastein'
p1584
I2
sS'turkish'
p1585
I55
sS'harvest'
p1586
I2
sS'concerned'
p1587
I2
sS'hunger'
p1588
I2
sS'young'
p1589
I4
sS'citing'
p1590
I1
sS'hints'
p1591
I2
sS'sent'
p1592
I8
sS'moot'
p1593
I1
sS'continues'
p1594
I3
sS'year.even'
p1595
I1
sS'earnings.like'
p1596
I2
sS'746,035'
p1597
I1
sS'continued'
p1598
I13
sS'categories'
p1599
I2
sS'northwestern'
p1600
I1
sS'308-15'
p1601
I1
sS'prix'
p1602
I1
sS"they've"
p1603
I1
sS'fewer'
p1604
I2
sS'try'
p1605
I8
sS'race'
p1606
I4
sS'reich'
p1607
I3
sS'16.05'
p1608
I1
sS'demand.sooner'
p1609
I1
sS'lubavitchers'
p1610
I1
sS'him.wolfgang'
p1611
I1
sS'wheat'
p1612
I4
sS'10,281'
p1613
I1
sS'index'
p1614
I70
sS'possibility.she'
p1615
I1
sS'lehman'
p1616
I1
sS'hashimoto.earlier'
p1617
I1
sS'expressed'
p1618
I6
sS'laurence'
p1619
I1
sS'turnaround'
p1620
I4
sS'flowing'
p1621
I1
sS'7,463,221'
p1622
I1
sS'1400'
p1623
I2
sS'led'
p1624
I5
sS'lee'
p1625
I1
sS'leg'
p1626
I1
sS'gathered'
p1627
I1
sS'1993.prosecutors'
p1628
I1
sS'cooperatives.the'
p1629
I1
sS'ibis'
p1630
I14
sS'slogans'
p1631
I2
sS'5.83/6.0'
p1632
I1
sS'let'
p1633
I7
sS'1.44'
p1634
I2
sS'layout'
p1635
I1
sS'great'
p1636
I4
sS'technical'
p1637
I23
sS'involved'
p1638
I5
sS'tegel'
p1639
I2
sS'coffin'
p1640
I1
sS'18,300'
p1641
I1
sS'woodcommerz'
p1642
I1
sS'survey'
p1643
I5
sS'defeat'
p1644
I1
sS'opinion'
p1645
I10
sS'makes'
p1646
I3
sS'maker'
p1647
I8
sS'1.the'
p1648
I1
sS'downturn.traders'
p1649
I1
sS'336'
p1650
I1
sS'14,993,435'
p1651
I1
sS'330'
p1652
I1
sS'tools'
p1653
I3
sS'confidence'
p1654
I3
sS'andreas'
p1655
I1
sS'certificate'
p1656
I1
sS'recalling'
p1657
I4
sS'illegal'
p1658
I1
sS'ministers'
p1659
I5
sS'zig'
p1660
I1
sS'doubt'
p1661
I5
sS'martindales'
p1662
I2
sS'benz'
p1663
I7
sS'41.7'
p1664
I2
sS'41.5'
p1665
I3
sS'41.3'
p1666
I1
sS'41.1'
p1667
I1
sS'dealings'
p1668
I3
sS'carrying'
p1669
I2
sS'deregulate'
p1670
I1
sS'labelled'
p1671
I1
sS'sharply'
p1672
I15
sS'payrolls'
p1673
I5
sS'63.2'
p1674
I1
sS'products.burlington'
p1675
I1
sS'5000'
p1676
I1
sS'challenge'
p1677
I4
sS'clients'
p1678
I6
sS'1.48'
p1679
I2
sS'1.45'
p1680
I2
sS'fulfill'
p1681
I2
sS'today.in'
p1682
I1
sS'1.40'
p1683
I5
sS'1.42'
p1684
I2
sS'slid'
p1685
I1
sS'weaker'
p1686
I5
sS'process'
p1687
I3
sS'lock'
p1688
I1
sS'slim'
p1689
I2
sS'pieces'
p1690
I1
sS'high'
p1691
I44
sS'woessner'
p1692
I1
sS'thursday.he'
p1693
I2
sS'bolstered'
p1694
I1
sS'destroying'
p1695
I1
sS'reuter'
p1696
I1
sS'delay'
p1697
I5
sS'animal'
p1698
I3
sS'vieker'
p1699
I3
sS'countries.the'
p1700
I3
sS'tied'
p1701
I1
sS'12,614'
p1702
I2
sS'preferring'
p1703
I1
sS'ties'
p1704
I2
sS'solidarity'
p1705
I3
sS'boeing'
p1706
I7
sS'commodities'
p1707
I1
sS'allow'
p1708
I13
sS'producer'
p1709
I4
sS'produces'
p1710
I2
sS'insight'
p1711
I1
sS'researching'
p1712
I1
sS'produced'
p1713
I11
sS'motorcycle'
p1714
I1
sS'3410'
p1715
I1
sS'protests'
p1716
I3
sS'perfect'
p1717
I1
sS'mitsui'
p1718
I2
sS'stalled'
p1719
I2
sS'earn'
p1720
I1
sS'0.225'
p1721
I1
sS'career.the'
p1722
I1
sS'za'
p1723
I1
sS'bothering'
p1724
I1
sS'geert'
p1725
I1
sS'stabilise'
p1726
I1
sS'realize'
p1727
I1
sS'presidential'
p1728
I7
sS'182,000.may'
p1729
I1
sS'merge'
p1730
I2
sS'truth'
p1731
I2
sS'kph'
p1732
I1
sS'accompanied'
p1733
I2
sS'frankfurt.the'
p1734
I1
sS'traces'
p1735
I2
sS'betts'
p1736
I2
sS'1998.speaking'
p1737
I1
sS'economy.japan'
p1738
I1
sS'955,924'
p1739
I1
sS'doing'
p1740
I9
sS'91.50'
p1741
I1
sS'43,776'
p1742
I1
sS'tenth'
p1743
I1
sS'benefiting'
p1744
I2
sS'hose.daimler'
p1745
I1
sS'fundamentally'
p1746
I2
sS'limousines'
p1747
I1
sS'73.5'
p1748
I1
sS'shut'
p1749
I5
sS'32.30/32.70'
p1750
I1
sS'regulators'
p1751
I1
sS'marks.ex'
p1752
I1
sS'regulatory'
p1753
I4
sS'dubbed'
p1754
I2
sS'hitched'
p1755
I1
sS'david'
p1756
I4
sS'hindering'
p1757
I1
sS'1997white'
p1758
I1
sS'target.dealers'
p1759
I2
sS'stimulate'
p1760
I1
sS'matthias'
p1761
I3
sS'450'
p1762
I3
sS'scene'
p1763
I3
sS'owned'
p1764
I6
sS'racism'
p1765
I6
sS'owner'
p1766
I2
sS'share.new'
p1767
I1
sS'buoyed'
p1768
I1
sS'legislative'
p1769
I1
sS'vetoed'
p1770
I3
sS'deceptive'
p1771
I2
sS'7717'
p1772
I1
sS'continue.like'
p1773
I1
sS'ordering'
p1774
I2
sS'inalienable'
p1775
I3
sS'travelled'
p1776
I2
sS'stomach'
p1777
I1
sS'stars'
p1778
I3
sS'thin.data'
p1779
I1
sS'haven'
p1780
I2
sS'3,302.5'
p1781
I1
sS'1,228'
p1782
I1
sS'colleagues'
p1783
I2
sS'valley'
p1784
I3
sS'added.morocco'
p1785
I1
sS'reacted'
p1786
I8
sS'proteus'
p1787
I3
sS'week.tiedtke'
p1788
I1
sS'steep'
p1789
I3
sS'collecting'
p1790
I1
sS'viewer'
p1791
I1
sS'partnership'
p1792
I1
sS'reassuring'
p1793
I1
sS'312,464'
p1794
I1
sS'clearly'
p1795
I3
sS'viewed'
p1796
I3
sS'added.they'
p1797
I1
sS'mills'
p1798
I1
sS'financials'
p1799
I1
sS'optimisim'
p1800
I1
sS'korean'
p1801
I1
sS'lipton'
p1802
I1
sS'toughest'
p1803
I3
sS'worldwide'
p1804
I9
sS'delayed'
p1805
I3
sS'day.traders'
p1806
I1
sS'asserting'
p1807
I2
sS'region.gazprom'
p1808
I1
sS'15.50'
p1809
I1
sS'station.seifert'
p1810
I1
sS'cabinet'
p1811
I6
sS'segment'
p1812
I3
sS'exhange'
p1813
I1
sS'sweeping'
p1814
I1
sS'chancellor.the'
p1815
I1
sS'stronger'
p1816
I16
sS'face'
p1817
I8
sS'painting'
p1818
I3
sS'fact'
p1819
I5
sS'customers.plan.net'
p1820
I1
sS'atmosphere'
p1821
I1
sS'data.the'
p1822
I3
sS'assassinations'
p1823
I1
sS'bring'
p1824
I5
sS'manchester'
p1825
I3
sS'lloyd'
p1826
I3
sS'4471'
p1827
I1
sS'asylum'
p1828
I1
sS'economist'
p1829
I15
sS'63.20'
p1830
I2
sS'decade'
p1831
I3
sS'nominally'
p1832
I1
sS'spring.wolfgang'
p1833
I1
sS'95.5'
p1834
I1
sS'jan'
p1835
I62
sS'entities'
p1836
I2
sS'bombings'
p1837
I1
sS'ahlfeld'
p1838
I6
sS'17.government'
p1839
I1
sS'hope'
p1840
I9
sS'meant'
p1841
I6
sS'erraticially'
p1842
I1
sS'added.four'
p1843
I1
sS'bonds'
p1844
I11
sS'succeeded'
p1845
I1
sS'generales'
p1846
I2
sS'molasses'
p1847
I2
sS'exchanges'
p1848
I4
sS'hoses'
p1849
I1
sS'17.apr.98'
p1850
I1
sS'17.apr.97'
p1851
I1
sS'denmark'
p1852
I2
sS'comprising'
p1853
I2
sS'taxes'
p1854
I1
sS'erhardt'
p1855
I1
sS'extremists'
p1856
I2
sS'bayliss'
p1857
I5
sS'allegation'
p1858
I2
sS'ohio'
p1859
I1
sS'strengthened'
p1860
I1
sS'btp'
p1861
I2
sS'edition'
p1862
I2
sS'austrian'
p1863
I4
sS'9300'
p1864
I1
sS'mannesmann'
p1865
I3
sS'194.30'
p1866
I1
sS'3,214.48'
p1867
I2
sS'wednesday.vw'
p1868
I2
sS'49-228-26097150'
p1869
I2
sS'roiled'
p1870
I3
sS'ends'
p1871
I7
sS'effenberg'
p1872
I2
sS'historians'
p1873
I1
sS'bourse.in'
p1874
I1
sS'lawsuit'
p1875
I8
sS'absentee'
p1876
I2
sS'bags.also'
p1877
I1
sS'1643'
p1878
I1
sS'kofi'
p1879
I4
sS'invited'
p1880
I1
sS'2.7domestic'
p1881
I1
sS'added.officials'
p1882
I1
sS'figures'
p1883
I37
sS'volley'
p1884
I1
sS'sympathising'
p1885
I1
sS'30.9transit'
p1886
I1
sS'over.but'
p1887
I1
sS'adjusted'
p1888
I11
sS'conclude'
p1889
I1
sS'cz'
p1890
I1
sS'mohamad'
p1891
I1
sS'allocated'
p1892
I1
sS'winning'
p1893
I5
sS'8.1'
p1894
I7
sS'8.3'
p1895
I2
sS'8.2'
p1896
I1
sS'124,787'
p1897
I1
sS'8.7'
p1898
I2
sS'8.6'
p1899
I5
sS'8.9'
p1900
I2
sS'said.six'
p1901
I1
sS'genetic'
p1902
I1
sS'36,228'
p1903
I2
sS'dresdner'
p1904
I5
sS'again.palestinians'
p1905
I1
sS'atlanta'
p1906
I1
sS'spain'
p1907
I1
sS'bank.june'
p1908
I1
sS'weber'
p1909
I3
sS'ultra'
p1910
I1
sS'97,231'
p1911
I1
sS've'
p1912
I1
sS'ripe'
p1913
I1
sS'kurdistan'
p1914
I1
sS'surprisingly'
p1915
I2
sS'tietmeyer'
p1916
I5
sS'vs'
p1917
I76
sS'optimistic'
p1918
I3
sS'anticyclical'
p1919
I1
sS'vw'
p1920
I18
sS'sentiment.moreover'
p1921
I1
sS'stg.that'
p1922
I1
sS'industrialisation'
p1923
I1
sS'ransom'
p1924
I1
sS'terrorist'
p1925
I1
sS'newsroom'
p1926
I148
sS'280-295'
p1927
I1
sS'pauli'
p1928
I3
sS'points.the'
p1929
I1
sS'outbreak'
p1930
I1
sS'terrorism'
p1931
I1
sS'1997.hoechst'
p1932
I1
sS'ball'
p1933
I1
sS'24-28'
p1934
I2
sS'raymond'
p1935
I2
sS'metres.of'
p1936
I1
sS'bale'
p1937
I1
sS'24-27'
p1938
I1
sS'forecasts'
p1939
I11
sS'stands.the'
p1940
I1
sS'identity'
p1941
I3
sS'indonesia'
p1942
I5
sS'7,715'
p1943
I1
sS'enrage'
p1944
I1
sS'1.28'
p1945
I1
sS'command'
p1946
I1
sS'101.20'
p1947
I1
sS'1.20'
p1948
I2
sS'106,565'
p1949
I1
sS'1.24'
p1950
I3
sS'february.the'
p1951
I2
sS'employers.under'
p1952
I1
sS'paul'
p1953
I1
sS'rescue'
p1954
I1
sS'web'
p1955
I4
sS'generous'
p1956
I1
sS'entire'
p1957
I6
sS'squabbling'
p1958
I2
sS'arrest'
p1959
I3
sS'crack'
p1960
I2
sS'increased'
p1961
I14
sS'uitenhage'
p1962
I4
sS'chancellor'
p1963
I46
sS'normalise'
p1964
I4
sS'1995/96'
p1965
I11
sS'increases'
p1966
I9
sS'zimbabwe'
p1967
I2
sS'desk'
p1968
I4
sS'belgium'
p1969
I2
sS'airports'
p1970
I16
sS'resin'
p1971
I2
sS'a320'
p1972
I2
sS'nerves'
p1973
I11
sS'indications'
p1974
I3
sS'liquidation'
p1975
I1
sS'tristar'
p1976
I1
sS'hauptmann'
p1977
I1
sS'choosing'
p1978
I1
sS'bse.the'
p1979
I1
sS'contested'
p1980
I1
sS'13/14'
p1981
I1
sS'l7'
p1982
I1
sS'avoid'
p1983
I3
sS'attached.art'
p1984
I1
sS'salaries'
p1985
I5
sS'meier'
p1986
I2
sS'does'
p1987
I16
sS'passion'
p1988
I1
sS'showed.but'
p1989
I2
sS'symbol'
p1990
I5
sS'benefitted'
p1991
I1
sS'schedule'
p1992
I5
sS'money.maggie'
p1993
I1
sS'pressure'
p1994
I16
sS'1.438'
p1995
I1
sS'germination'
p1996
I1
sS'stage'
p1997
I6
sS'25.1'
p1998
I1
sS'sister'
p1999
I3
sS'25.2'
p2000
I1
sS'70.52'
p2001
I2
sS'2,406.5'
p2002
I3
sS'label'
p2003
I1
sS'holdings'
p2004
I2
sS'meral'
p2005
I3
sS'software'
p2006
I8
sS'centrist'
p2007
I3
sS'cadet'
p2008
I1
sS'alliance'
p2009
I7
sS'letters'
p2010
I2
sS'unfavourable'
p2011
I1
sS'rectify'
p2012
I2
sS'commitment'
p2013
I2
sS'173,712'
p2014
I1
sS'75,688'
p2015
I1
sS'belgrade'
p2016
I3
sS'economy.informal'
p2017
I1
sS'housing'
p2018
I1
sS'pairing'
p2019
I1
sS'support.silver'
p2020
I1
sS'on.nonetheless'
p2021
I2
sS'719,900'
p2022
I1
sS'9.4'
p2023
I3
sS'pretax'
p2024
I2
sS'9.1'
p2025
I3
sS'9.2'
p2026
I1
sS'9.3'
p2027
I2
sS'function'
p2028
I1
sS'delivery'
p2029
I4
sS'construction'
p2030
I33
sS'convergence'
p2031
I3
sS'delivers'
p2032
I1
sS'candidacy'
p2033
I16
sS'84.4'
p2034
I1
sS'count'
p2035
I2
sS'merdeka'
p2036
I3
sS'salditt'
p2037
I1
sS'society'
p2038
I1
sS'official'
p2039
I25
sS'volvo'
p2040
I5
sS'placed'
p2041
I6
sS'problem'
p2042
I5
sS'bavarians'
p2043
I1
sS'synergies'
p2044
I1
sS'bearing'
p2045
I2
sS'showed.this'
p2046
I4
sS'int'
p2047
I1
sS'club.their'
p2048
I1
sS'3,200'
p2049
I3
sS'ing'
p2050
I1
sS'planting'
p2051
I2
sS'compared'
p2052
I37
sS'nonetheless'
p2053
I1
sS'arkia'
p2054
I1
sS'year.australia'
p2055
I1
sS'lately'
p2056
I1
sS'details'
p2057
I27
sS'2-1/2'
p2058
I1
sS'francisco'
p2059
I1
sS'monday'
p2060
I21
sS'chance'
p2061
I16
sS'2,468'
p2062
I1
sS'said.year'
p2063
I1
sS'signalling'
p2064
I3
sS'99.97'
p2065
I2
sS'99.94'
p2066
I1
sS'99.90'
p2067
I1
sS'lasted'
p2068
I1
sS'rule'
p2069
I14
sS'470'
p2070
I1
sS'katowice'
p2071
I1
sS'compete'
p2072
I1
sS'pension'
p2073
I5
sS'res'
p2074
I11
sS'rural'
p2075
I1
sS'consolidated'
p2076
I1
sS'saves'
p2077
I1
sS'4026'
p2078
I1
sS'price.basf'
p2079
I2
sS'kassel'
p2080
I1
sS'integrity'
p2081
I2
sS'relationships'
p2082
I2
sS'votes'
p2083
I3
sS'preussen'
p2084
I4
sS'9,000'
p2085
I1
sS'demand.the'
p2086
I3
sS'situation.the'
p2087
I2
sS'23-1/2p'
p2088
I1
sS'voted'
p2089
I6
sS'worth'
p2090
I11
sS'misreporting'
p2091
I1
sS'sellers'
p2092
I12
sS'exporters'
p2093
I1
sS'tickets'
p2094
I2
sS'99.26-28'
p2095
I1
sS'rickertsen'
p2096
I1
sS'samurai'
p2097
I1
sS'announced'
p2098
I25
sS'indices'
p2099
I1
sS'290'
p2100
I1
sS'291'
p2101
I2
sS'23.8two'
p2102
I1
sS'tonnes.confectionery'
p2103
I1
sS'1,603'
p2104
I1
sS'1,600'
p2105
I1
sS'wednesday.ferrostall'
p2106
I1
sS'follow'
p2107
I5
sS'chek'
p2108
I2
sS'established'
p2109
I1
sS'329.3'
p2110
I1
sS'discus'
p2111
I1
sS'17-20'
p2112
I2
sS'decisions'
p2113
I6
sS'clocked'
p2114
I1
sS'churches'
p2115
I1
sS'30,830'
p2116
I2
sS'officially'
p2117
I5
sS'told'
p2118
I61
sS'245.83'
p2119
I1
sS'adclicks'
p2120
I2
sS'richest'
p2121
I1
sS'conglomerate'
p2122
I1
sS'3.125/3.150'
p2123
I3
sS'protection'
p2124
I3
sS'2516'
p2125
I1
sS'daughter'
p2126
I3
sS'6.039'
p2127
I1
sS'employees'
p2128
I16
sS'0.32'
p2129
I3
sS'scharping'
p2130
I1
sS'hansa'
p2131
I5
sS'stressed'
p2132
I1
sS'postponed'
p2133
I1
sS'arsonists'
p2134
I2
sS'spawn'
p2135
I1
sS'secure'
p2136
I2
sS'schneersohn'
p2137
I1
sS'highly'
p2138
I2
sS'parents'
p2139
I3
sS'cane'
p2140
I2
sS'opportunities'
p2141
I2
sS'total'
p2142
I85
sS'battle.it'
p2143
I1
sS'palestinian'
p2144
I3
sS'motivate'
p2145
I1
sS'negative'
p2146
I5
sS'insult'
p2147
I1
sS'azir'
p2148
I1
sS'1990.more'
p2149
I2
sS'immminent'
p2150
I2
sS'partner.software'
p2151
I1
sS'71.8'
p2152
I1
sS'71.9'
p2153
I3
sS'award'
p2154
I4
sS'aware'
p2155
I2
sS'119.9the'
p2156
I1
sS'suspension.cologne'
p2157
I1
sS'freeborn'
p2158
I1
sS'1991'
p2159
I8
sS'1990'
p2160
I9
sS'1993'
p2161
I5
sS'1992'
p2162
I3
sS'1995'
p2163
I40
sS'1994'
p2164
I9
sS'1997'
p2165
I111
sS'1996'
p2166
I115
sS'1999'
p2167
I5
sS'1998'
p2168
I27
sS'work'
p2169
I14
sS'date.allianz'
p2170
I2
sS'erg'
p2171
I2
sS'era'
p2172
I3
sS'cardenas'
p2173
I1
sS'hadramaut'
p2174
I1
sS'20-tonne'
p2175
I1
sS'559'
p2176
I1
sS'indicated'
p2177
I6
sS'weeks.the'
p2178
I1
sS'cited'
p2179
I3
sS'india'
p2180
I2
sS'fax'
p2181
I25
sS'woman'
p2182
I3
sS'22,000'
p2183
I1
sS'campaigning'
p2184
I1
sS'indifferent'
p2185
I1
sS'tenderssri'
p2186
I1
sS'totaled'
p2187
I1
sS'8.38'
p2188
I1
sS'163.35'
p2189
I1
sS'recovery'
p2190
I20
sS'carriers'
p2191
I2
sS'provide'
p2192
I5
sS'disappear'
p2193
I1
sS'interview'
p2194
I22
sS'ordinary'
p2195
I2
sS'koenigs'
p2196
I1
sS'earlier'
p2197
I45
sS'hong'
p2198
I4
sS'stefano'
p2199
I2
sS'barriers'
p2200
I1
sS'lay'
p2201
I2
sS'palace.the'
p2202
I3
sS'law'
p2203
I20
sS'meaningful'
p2204
I1
sS'nipped'
p2205
I1
sS'schneider'
p2206
I2
sS'green'
p2207
I10
sS'fan'
p2208
I2
sS'order'
p2209
I9
sS'112.1'
p2210
I1
sS'office'
p2211
I31
sS'defenders'
p2212
I1
sS'satisfied'
p2213
I1
sS'6.7'
p2214
I3
sS'12.2'
p2215
I4
sS'westphalia'
p2216
I3
sS'12.0'
p2217
I13
sS'6.3'
p2218
I3
sS'6.2'
p2219
I6
sS'12.5'
p2220
I1
sS'6.0'
p2221
I13
sS'japan'
p2222
I13
sS'12.9'
p2223
I2
sS'6.9'
p2224
I8
sS'6.8'
p2225
I4
sS'austerity'
p2226
I1
sS'747-100'
p2227
I1
sS'percent.funds'
p2228
I1
sS'50,000'
p2229
I3
sS'clearances'
p2230
I1
sS'production'
p2231
I42
sS'2,078'
p2232
I1
sS'gateways'
p2233
I2
sS'theo'
p2234
I3
sS'eventually'
p2235
I1
sS'coffee'
p2236
I48
sS'affected'
p2237
I7
sS'low.but'
p2238
I1
sS'safe'
p2239
I1
sS'455'
p2240
I1
sS'break'
p2241
I8
sS'january.mathias'
p2242
I1
sS'asource'
p2243
I4
sS'1347'
p2244
I1
sS'bank'
p2245
I81
sS'bread'
p2246
I4
sS'1.00'
p2247
I1
sS'3,417'
p2248
I1
sS'rupiah'
p2249
I3
sS'3,411'
p2250
I1
sS'rocky'
p2251
I2
sS'reasonably'
p2252
I2
sS'l'
p2253
I6
sS'sammer'
p2254
I3
sS'371'
p2255
I3
sS'374'
p2256
I1
sS'excavations'
p2257
I2
sS'lifted'
p2258
I2
sS'schemes'
p2259
I2
sS'marks.while'
p2260
I1
sS'crimes'
p2261
I2
sS'nigerian'
p2262
I2
sS'logo'
p2263
I1
sS'13,319'
p2264
I1
sS'network'
p2265
I7
sS'2,691'
p2266
I2
sS'vessels'
p2267
I1
sS'diphenyl'
p2268
I1
sS'1996/97'
p2269
I19
sS'daniel'
p2270
I1
sS'forth'
p2271
I3
sS'sliding'
p2272
I1
sS'disagreements'
p2273
I1
sS'oskar'
p2274
I10
sS'disputed'
p2275
I1
sS'barrier'
p2276
I2
sS'veto'
p2277
I9
sS'josef'
p2278
I4
sS'standard'
p2279
I7
sS'campaigns'
p2280
I1
sS'appointments'
p2281
I2
sS'parliament.an'
p2282
I1
sS'certified'
p2283
I3
sS'1991.later'
p2284
I1
sS'1994/95'
p2285
I3
sS'recovering'
p2286
I1
sS'created'
p2287
I2
sS'chirac'
p2288
I1
sS'32.40/32.80'
p2289
I3
sS'renew'
p2290
I1
sS'baltic'
p2291
I6
sS'32,500'
p2292
I1
sS'synonymous'
p2293
I1
sS'rats'
p2294
I1
sS'tangle'
p2295
I1
sS'electronic'
p2296
I11
sS'hedging'
p2297
I1
sS'rejects'
p2298
I2
sS'153,300'
p2299
I1
sS'takeovers'
p2300
I1
sS'elevator'
p2301
I11
sS'baptised'
p2302
I1
sS'rates'
p2303
I104
sS'hands.the'
p2304
I1
sS'inflate'
p2305
I1
sS'john'
p2306
I2
sS'damaging'
p2307
I3
sS'chanted'
p2308
I1
sS'takarekbank'
p2309
I12
sS'rejected'
p2310
I8
sS'persson'
p2311
I1
sS'parliament.the'
p2312
I1
sS'nominal'
p2313
I1
sS'toronto'
p2314
I1
sS'fuelled'
p2315
I3
sS'target'
p2316
I13
sS'council.handelsblatt'
p2317
I2
sS'11.125'
p2318
I1
sS'hike'
p2319
I10
sS'forschungsgruppe'
p2320
I2
sS'jagoda'
p2321
I1
sS'iron'
p2322
I3
sS'greenspan'
p2323
I2
sS'said.state'
p2324
I1
sS'686,334'
p2325
I1
sS'forced'
p2326
I6
sS'strength'
p2327
I3
sS'genuine'
p2328
I1
sS'28-31'
p2329
I1
sS'laden'
p2330
I1
sS'forces'
p2331
I8
sS'frankfurt.a'
p2332
I1
sS'completed'
p2333
I5
sS'resigning.his'
p2334
I1
sS'400,000'
p2335
I1
sS'rationalisation'
p2336
I1
sS'troughs'
p2337
I1
sS'involving'
p2338
I2
sS'germany'
p2339
I228
sS'claims'
p2340
I5
sS'phase'
p2341
I2
sS'imported'
p2342
I23
sS'cromme'
p2343
I1
sS'germans'
p2344
I18
sS'gerling'
p2345
I1
sS'calculated'
p2346
I6
sS'accounted'
p2347
I2
sS'deeply'
p2348
I1
sS'voting'
p2349
I1
sS'reserve'
p2350
I13
sS'lewis'
p2351
I1
sS'7.2'
p2352
I3
sS'7.3'
p2353
I4
sS'7.1'
p2354
I5
sS'7.6'
p2355
I4
sS'posts.kohl'
p2356
I1
sS'7.4'
p2357
I4
sS'7.5'
p2358
I6
sS'7.8'
p2359
I3
sS'7.9'
p2360
I2
sS'enjoyed'
p2361
I2
sS'noted.wedde'
p2362
I1
sS'underweighting'
p2363
I1
sS'pursuing'
p2364
I2
sS'product.countries'
p2365
I1
sS'adequate'
p2366
I5
sS'predecessor'
p2367
I1
sS'steel'
p2368
I8
sS'dm'
p2369
I4
sS'di'
p2370
I4
sS'dg'
p2371
I8
sS'overtime.it'
p2372
I1
sS'preferred'
p2373
I1
sS'unfair'
p2374
I1
sS'25,000'
p2375
I1
sS'nasty'
p2376
I1
sS'asparagus.germany'
p2377
I1
sS'runs'
p2378
I2
sS'fax5017'
p2379
I1
sS'covering'
p2380
I1
sS'krupp'
p2381
I7
sS'emu'
p2382
I12
sS'secretary'
p2383
I17
sS'development.the'
p2384
I1
sS'2,223'
p2385
I1
sS'1996.capital'
p2386
I1
sS'147,694'
p2387
I1
sS'depends'
p2388
I3
sS'0856'
p2389
I1
sS'cattle'
p2390
I1
sS'discussions'
p2391
I3
sS'away'
p2392
I14
sS'sweden'
p2393
I2
sS'bracing'
p2394
I1
sS'cooperation'
p2395
I7
sS'contraband'
p2396
I1
sS'drawn'
p2397
I2
sS'r&m'
p2398
I1
sS'terms'
p2399
I11
sS'42.8'
p2400
I1
sS'travellers'
p2401
I4
sS'clues'
p2402
I3
sS'42.0'
p2403
I4
sS'42.1'
p2404
I1
sS'packages'
p2405
I4
sS'abolished'
p2406
I1
sS'received'
p2407
I12
sS'climate'
p2408
I1
sS'frankfur'
p2409
I1
sS'cow'
p2410
I1
sS'ill'
p2411
I6
sS'tough'
p2412
I9
sS'offloading'
p2413
I1
sS'123.88/93'
p2414
I1
sS'character'
p2415
I1
sS'relaxation'
p2416
I2
sS'1,620'
p2417
I1
sS'1,622'
p2418
I1
sS'tons'
p2419
I1
sS'alitalia'
p2420
I1
sS'telecommunications'
p2421
I3
sS'speak'
p2422
I3
sS'flexibly'
p2423
I1
sS'engines'
p2424
I5
sS'condemned'
p2425
I1
sS'sachs'
p2426
I3
sS'87,370'
p2427
I1
sS'flexible'
p2428
I3
sS'dozens'
p2429
I1
sS'duties'
p2430
I3
sS'families'
p2431
I4
sS'excite'
p2432
I1
sS'manfred'
p2433
I4
sS'comfortable'
p2434
I2
sS'0.19'
p2435
I1
sS'0.18'
p2436
I2
sS'100-member'
p2437
I1
sS'undisc'
p2438
I3
sS'publicly'
p2439
I7
sS'air'
p2440
I48
sS'aim'
p2441
I4
sS'38.0'
p2442
I6
sS'abrupt'
p2443
I1
sS'aid'
p2444
I3
sS'property'
p2445
I13
sS'launched'
p2446
I7
sS'mistake'
p2447
I1
sS'todorovic'
p2448
I1
sS'sales.after'
p2449
I2
sS'brake'
p2450
I6
sS'summaryevery'
p2451
I1
sS'conn'
p2452
I2
sS'wooing'
p2453
I1
sS'confirmed'
p2454
I8
sS'said.at'
p2455
I1
sS'said.as'
p2456
I1
sS'descent'
p2457
I3
sS'patent'
p2458
I2
sS'plates'
p2459
I1
sS'martinsh'
p2460
I1
sS'independent'
p2461
I5
sS'46-seat'
p2462
I1
sS'nil'
p2463
I2
sS'nasir'
p2464
I2
sS'outperformed'
p2465
I1
sS'counterparts'
p2466
I4
sS'hand'
p2467
I12
sS'then.although'
p2468
I1
sS'hans'
p2469
I8
sS'palpable'
p2470
I3
sS'blamed'
p2471
I5
sS'centred'
p2472
I1
sS'kept'
p2473
I15
sS'scenario'
p2474
I2
sS'immaterial'
p2475
I1
sS'1976'
p2476
I1
sS'humble'
p2477
I1
sS'1972'
p2478
I1
sS'warburg'
p2479
I2
sS'client'
p2480
I1
sS'519,976'
p2481
I1
sS'centres'
p2482
I2
sS'lothar'
p2483
I1
sS'180.2'
p2484
I1
sS'quoted'
p2485
I10
sS'kali'
p2486
I1
sS'term.forty'
p2487
I1
sS'supervisory'
p2488
I2
sS'report.but'
p2489
I1
sS'thanks'
p2490
I2
sS'8.15'
p2491
I1
sS'adding'
p2492
I19
sS'unique'
p2493
I1
sS'3,220.77'
p2494
I1
sS'fared'
p2495
I2
sS'reuniting'
p2496
I1
sS'1.665'
p2497
I1
sS'jost'
p2498
I1
sS'spread'
p2499
I21
sS'board'
p2500
I15
sS'174,200'
p2501
I1
sS'72,steffen'
p2502
I1
sS'added.another'
p2503
I1
sS'said.authorities'
p2504
I2
sS'arab'
p2505
I1
sS'63.65'
p2506
I3
sS'unification'
p2507
I6
sS'cape'
p2508
I2
sS'78,383'
p2509
I1
sS'unfounded'
p2510
I1
sS'retreat'
p2511
I1
sS'6.20/6.40'
p2512
I1
sS'securities'
p2513
I10
sS'added.in'
p2514
I1
sS'531'
p2515
I1
sS'night'
p2516
I5
sS'security'
p2517
I5
sS'zabrze'
p2518
I4
sS'48,776'
p2519
I3
sS'sends'
p2520
I1
sS'born'
p2521
I1
sS'productions'
p2522
I1
sS'flatten'
p2523
I1
sS'heard.prosecutors'
p2524
I1
sS'comments'
p2525
I12
sS'asking'
p2526
I1
sS'denied'
p2527
I11
sS'scholl'
p2528
I1
sS'2000.at'
p2529
I1
sS'participation'
p2530
I1
sS'jitters'
p2531
I2
sS'champion'
p2532
I3
sS'marketing'
p2533
I3
sS'constructive'
p2534
I3
sS'plg'
p2535
I6
sS'restructuring'
p2536
I11
sS'plc'
p2537
I9
sS'post'
p2538
I24
sS'1.6zinc'
p2539
I1
sS'properties'
p2540
I2
sS'184.3'
p2541
I1
sS'blip'
p2542
I1
sS'newspapers'
p2543
I8
sS'months'
p2544
I45
sS'30.apr.01'
p2545
I1
sS'30.apr.07'
p2546
I1
sS'jacques'
p2547
I1
sS'dilemma'
p2548
I1
sS'pays'
p2549
I1
sS'profession'
p2550
I1
sS'gearing'
p2551
I1
sS'balanced'
p2552
I1
sS'3,559'
p2553
I2
sS'21.5'
p2554
I1
sS'21.4'
p2555
I1
sS'21.2'
p2556
I1
sS'medal'
p2557
I1
sS'legislation'
p2558
I2
sS'21.8'
p2559
I2
sS'fight'
p2560
I5
sS'accordingly'
p2561
I2
sS'way'
p2562
I13
sS'150,000'
p2563
I1
sS'war'
p2564
I29
sS'vural.turkey'
p2565
I1
sS'overjoyed'
p2566
I1
sS'industries.the'
p2567
I1
sS'location.spot'
p2568
I1
sS'catalyst'
p2569
I1
sS'15,400'
p2570
I1
sS'true'
p2571
I6
sS'reset'
p2572
I1
sS'bypassing'
p2573
I2
sS'responding'
p2574
I3
sS'veiled'
p2575
I1
sS'entertainers'
p2576
I1
sS'mts'
p2577
I1
sS'45.56'
p2578
I1
sS'overruled'
p2579
I1
sS'mth'
p2580
I4
sS'anew'
p2581
I1
sS'year.trafficmaster'
p2582
I1
sS'him.a'
p2583
I1
sS'unusually'
p2584
I1
sS'market.santos'
p2585
I1
sS'turbo'
p2586
I1
sS'3.58'
p2587
I1
sS'election.kohl'
p2588
I1
sS'evidence'
p2589
I7
sS'promised'
p2590
I5
sS'0712'
p2591
I1
sS'stake'
p2592
I24
sS'negotiators'
p2593
I1
sS'interested'
p2594
I10
sS'holding'
p2595
I24
sS'test'
p2596
I3
sS'bundesamt'
p2597
I1
sS'absurd'
p2598
I1
sS'scored'
p2599
I2
sS'3.15467'
p2600
I1
sS'mentor'
p2601
I1
sS'5,776'
p2602
I1
sS'brothers'
p2603
I1
sS'anatolia'
p2604
I2
sS'22,700'
p2605
I1
sS'welcome'
p2606
I3
sS'update'
p2607
I1
sS'scorer'
p2608
I1
sS'scores'
p2609
I1
sS'485-500'
p2610
I1
sS'1-mar'
p2611
I4
sS'cheated'
p2612
I2
sS'arianisation'
p2613
I1
sS'emerge.in'
p2614
I1
sS'loyal'
p2615
I2
sS'stick'
p2616
I3
sS'concept'
p2617
I2
sS'diplomacy'
p2618
I1
sS'35.3'
p2619
I1
sS'35.0'
p2620
I8
sS'35.1'
p2621
I4
sS'32.70/33.20'
p2622
I2
sS'35.5'
p2623
I2
sS'battle'
p2624
I6
sS'tenable'
p2625
I1
sS'certainly'
p2626
I7
sS'killings'
p2627
I1
sS'colombia'
p2628
I8
sS'glad'
p2629
I1
sS'division'
p2630
I12
sS'reported.the'
p2631
I1
sS'home.sunday'
p2632
I1
sS'countermovement'
p2633
I1
sS'level.eyeing'
p2634
I1
sS'200-day'
p2635
I1
sS'10-year'
p2636
I21
sS'sector.cars'
p2637
I1
sS'vdik'
p2638
I1
sS'fortnightly'
p2639
I3
sS'perceived'
p2640
I1
sS'flammable'
p2641
I2
sS'6.204'
p2642
I1
sS'identity.other'
p2643
I2
sS'fragile'
p2644
I3
sS'gun'
p2645
I2
sS'p'
p2646
I2
sS'thursday.juergen'
p2647
I1
sS'upper'
p2648
I6
sS'resist.by'
p2649
I1
sS'plummet'
p2650
I1
sS'1995.rmc'
p2651
I1
sS'rhineland'
p2652
I1
sS'professionalism'
p2653
I2
sS'cost'
p2654
I13
sS'2.404.8/05.8'
p2655
I3
sS'lowndes'
p2656
I2
sS'penetrated'
p2657
I1
sS'cargo'
p2658
I80
sS'appear'
p2659
I3
sS'assistance'
p2660
I1
sS'shares'
p2661
I71
sS'brink'
p2662
I1
sS'reforms.kohl'
p2663
I1
sS'shared'
p2664
I1
sS'1017'
p2665
I1
sS'1010'
p2666
I1
sS'supporting'
p2667
I3
sS'predicting'
p2668
I1
sS'unsure'
p2669
I1
sS'kurds.on'
p2670
I1
sS'15-day'
p2671
I1
sS'18,000'
p2672
I2
sS'basle.but'
p2673
I1
sS'appears'
p2674
I2
sS'change'
p2675
I60
sS'jets.the'
p2676
I1
sS'sending'
p2677
I4
sS'said.london'
p2678
I1
sS'incoming'
p2679
I2
sS'trial'
p2680
I3
sS'decouple'
p2681
I4
sS'435'
p2682
I1
sS'january.armin'
p2683
I1
sS'confrontation'
p2684
I1
sS'regardless'
p2685
I3
sS'heenk'
p2686
I1
sS'extra'
p2687
I5
sS'kastens'
p2688
I2
sS'marked'
p2689
I8
sS'rarely'
p2690
I2
sS'mobil'
p2691
I1
sS'market'
p2692
I232
sS'terminal'
p2693
I2
sS'ag.asked'
p2694
I1
sS'prove'
p2695
I1
sS'3.85167'
p2696
I1
sS'10.9nickel'
p2697
I1
sS'roastings'
p2698
I2
sS'rates.all'
p2699
I1
sS'provs'
p2700
I6
sS'live'
p2701
I4
sS'angels'
p2702
I1
sS'club'
p2703
I15
sS'clue'
p2704
I1
sS'11,425'
p2705
I1
sS'insinuations'
p2706
I1
sS'car'
p2707
I32
sS'prices.this'
p2708
I1
sS'incidents'
p2709
I1
sS'totalled'
p2710
I9
sS'12,080'
p2711
I2
sS'pretoria'
p2712
I2
sS'seconds.in'
p2713
I1
sS'expanding'
p2714
I4
sS'chip'
p2715
I12
sS'1,641'
p2716
I1
sS"didn't"
p2717
I1
sS'topic'
p2718
I4
sS'heard'
p2719
I2
sS'posing'
p2720
I1
sS'home.hamburg'
p2721
I1
sS'spa'
p2722
I4
sS'spd'
p2723
I75
sS'248.8'
p2724
I1
sS'redundancy'
p2725
I1
sS'175.25'
p2726
I1
sS'position.a'
p2727
I1
sS'discussion'
p2728
I2
sS'spreads'
p2729
I1
sS'aviv.el'
p2730
I1
sS'takings'
p2731
I1
sS'familiar'
p2732
I1
sS'600-million'
p2733
I1
sS'economy'
p2734
I22
sS'product'
p2735
I7
sS'wednesday.die'
p2736
I2
sS'said.asked'
p2737
I1
sS'dampened'
p2738
I3
sS'dive'
p2739
I1
sS'gerhardt'
p2740
I1
sS'southern'
p2741
I6
sS'gaffes'
p2742
I2
sS'motorway'
p2743
I3
sS'produce'
p2744
I4
sS'islands'
p2745
I1
sS'editoiral'
p2746
I1
sS'court'
p2747
I8
sS'nomination'
p2748
I5
sS'5.5'
p2749
I11
sS'remember'
p2750
I1
sS'12.97'
p2751
I1
sS'kurd'
p2752
I1
sS'futures'
p2753
I40
sS'lorico'
p2754
I1
sS'kurt'
p2755
I1
sS'michel'
p2756
I2
sS'serving'
p2757
I6
sS'ba.lufthansa'
p2758
I1
sS'nerve'
p2759
I1
sS'region.a'
p2760
I2
sS'consulting'
p2761
I2
sS'brain'
p2762
I1
sS'8980'
p2763
I2
sS'statistical'
p2764
I2
sS'cold'
p2765
I6
sS'culmination'
p2766
I1
sS'40,911'
p2767
I1
sS'tending'
p2768
I1
sS'kazakhstan'
p2769
I1
sS'reacting'
p2770
I1
sS'top-10'
p2771
I1
sS'forms'
p2772
I1
sS'occasionally'
p2773
I1
sS'bags.while'
p2774
I1
sS'norway'
p2775
I1
sS'brunswig'
p2776
I2
sS'non'
p2777
I12
sS'halt'
p2778
I4
sS'60.69'
p2779
I1
sS'introduce'
p2780
I1
sS'55,000'
p2781
I1
sS'1954'
p2782
I1
sS'1953'
p2783
I1
sS'half'
p2784
I29
sS'nov'
p2785
I6
sS'1959'
p2786
I1
sS'discuss'
p2787
I2
sS'ciampi'
p2788
I2
sS'argentina'
p2789
I1
sS'servant'
p2790
I1
sS'january'
p2791
I49
sS'drop'
p2792
I15
sS'5,695'
p2793
I1
sS'22.2'
p2794
I1
sS'stockholm'
p2795
I1
sS'22.5'
p2796
I1
sS'concerts'
p2797
I5
sS'significantly'
p2798
I6
sS'0.125'
p2799
I3
sS'challenges'
p2800
I1
sS'challenger'
p2801
I3
sS'fires'
p2802
I9
sS'ex'
p2803
I3
sS'year'
p2804
I259
sS'eu'
p2805
I6
sS'happen'
p2806
I8
sS'calling'
p2807
I1
sS'territory.the'
p2808
I1
sS'monitors'
p2809
I1
sS'es'
p2810
I1
sS'tehran.last'
p2811
I1
sS'album'
p2812
I1
sS'shown'
p2813
I4
sS'accomplish'
p2814
I2
sS'leiden'
p2815
I1
sS'opened'
p2816
I3
sS'bullish'
p2817
I6
sS'space'
p2818
I7
sS'defendants'
p2819
I6
sS'looking'
p2820
I23
sS'venables'
p2821
I1
sS'receiving'
p2822
I1
sS'rudi'
p2823
I1
sS'shows'
p2824
I4
sS'cars'
p2825
I6
sS'advantages'
p2826
I1
sS'federations'
p2827
I1
sS'repurchase'
p2828
I6
sS'obligation'
p2829
I4
sS'care'
p2830
I1
sS'fixed'
p2831
I24
sS'19th-century'
p2832
I1
sS'transition'
p2833
I1
sS'british'
p2834
I15
sS'fetters'
p2835
I1
sS'industrialised'
p2836
I1
sS'invitation'
p2837
I2
sS'outcry'
p2838
I2
sS'517'
p2839
I3
sS'sprawling'
p2840
I3
sS'benefited'
p2841
I2
sS'625'
p2842
I1
sS'striking'
p2843
I2
sS'japan.zimbabwe'
p2844
I1
sS'directly'
p2845
I1
sS'message'
p2846
I2
sS'tomorrow'
p2847
I4
sS'size'
p2848
I4
sS'sheep'
p2849
I1
sS'20th.consequently'
p2850
I1
sS'3,180'
p2851
I1
sS'sheet'
p2852
I2
sS'wehrmacht'
p2853
I3
sS'caught'
p2854
I1
sS'oo0oo'
p2855
I1
sS'svea'
p2856
I5
sS'bourse'
p2857
I28
sS'victorious'
p2858
I1
sS'proclaimed'
p2859
I1
sS'schulte'
p2860
I3
sS'payout'
p2861
I2
sS'friend'
p2862
I2
sS'nutrition'
p2863
I9
sS'brains'
p2864
I2
sS'taxation'
p2865
I3
sS'32.50/32.80'
p2866
I1
sS'tehran'
p2867
I2
sS'west.three'
p2868
I1
sS'flowers'
p2869
I2
sS'interbank'
p2870
I3
sS'television'
p2871
I13
sS'7565'
p2872
I1
sS'rugged'
p2873
I1
sS'optimise'
p2874
I1
sS'accordance'
p2875
I1
sS'gehe'
p2876
I1
sS'transferred'
p2877
I3
sS'hsbc'
p2878
I2
sS'liffe'
p2879
I3
sS'123.15'
p2880
I1
sS'therfore'
p2881
I1
sS'days.the'
p2882
I1
sS'unsubstantiated'
p2883
I1
sS'investors'
p2884
I21
sS'remained'
p2885
I23
sS'correction'
p2886
I10
sS'premier'
p2887
I12
sS'firstdivision'
p2888
I1
sS'7,300'
p2889
I2
sS'81.3'
p2890
I1
sS'recover'
p2891
I5
sS'offering'
p2892
I3
sS'veteran'
p2893
I5
sS'offer'
p2894
I13
sS'online'
p2895
I3
sS'swelled'
p2896
I1
sS'bernd'
p2897
I3
sS'aluminium.the'
p2898
I1
sS'begin'
p2899
I1
sS'hungaria'
p2900
I1
sS'30-point'
p2901
I1
sS'attractiveness'
p2902
I1
sS'price'
p2903
I50
sS'banks'
p2904
I27
sS'america'
p2905
I24
sS'said.they'
p2906
I3
sS'forever'
p2907
I1
sS'steady'
p2908
I19
sS'gas.but'
p2909
I1
sS'3,500.trogen'
p2910
I1
sS'professional'
p2911
I2
sS'gentz.sueddeutsche'
p2912
I1
sS'abraham'
p2913
I1
sS'typically'
p2914
I3
sS'3.71'
p2915
I1
sS'3.77'
p2916
I2
sS'german'
p2917
I396
sS'dax-100-share'
p2918
I2
sS'fifty'
p2919
I2
sS'discovered'
p2920
I1
sS'colombo'
p2921
I1
sS'teamed'
p2922
I1
sS'fifth'
p2923
I14
sS'ground'
p2924
I7
sS'upgrade'
p2925
I1
sS'busily'
p2926
I1
sS'adolf'
p2927
I1
sS'title'
p2928
I2
sS'times.in'
p2929
I1
sS'222'
p2930
I1
sS'conference.preussen'
p2931
I1
sS'inventions'
p2932
I1
sS'220'
p2933
I2
sS'3.15400'
p2934
I2
sS'tallow.total'
p2935
I1
sS'honours'
p2936
I1
sS'celebrate'
p2937
I2
sS'ago.economists'
p2938
I1
sS'germany.prosecutors'
p2939
I1
sS'3,295.93'
p2940
I4
sS'wiener'
p2941
I4
sS'16,100'
p2942
I1
sS'19,200'
p2943
I1
sS'concert'
p2944
I2
sS'pounds.but'
p2945
I1
sS'challenger.party'
p2946
I1
sS'2,790,257'
p2947
I1
sS'battle.the'
p2948
I2
sS'concern'
p2949
I7
sS'israeli'
p2950
I5
sS'feuds'
p2951
I2
sS'seekers'
p2952
I1
sS'colours'
p2953
I2
sS'5,307,845'
p2954
I1
sS'3'
p2955
I21
sS'recognisable'
p2956
I1
sS'import'
p2957
I12
sS'justified'
p2958
I4
sS'5.1electrolytic'
p2959
I1
sS'attack.german'
p2960
I1
sS'notice'
p2961
I3
sS'alexander'
p2962
I1
sS'blame'
p2963
I2
sS'dyes.the'
p2964
I1
sS'marks.early'
p2965
I1
sS'comeback'
p2966
I1
sS'clariant'
p2967
I1
sS'talented'
p2968
I1
sS'altamira'
p2969
I1
sS'enabling'
p2970
I1
sS'maruma'
p2971
I3
sS'265,000'
p2972
I1
sS'wheels'
p2973
I2
sS'swissair'
p2974
I3
sS'comes'
p2975
I10
sS'nearby'
p2976
I3
sS'century.many'
p2977
I1
sS'tonne'
p2978
I9
sS'50-50'
p2979
I1
sS"couldn't"
p2980
I4
sS'atr-42'
p2981
I1
sS'added.wedde'
p2982
I1
sS'markedly'
p2983
I2
sS'statistics.the'
p2984
I1
sS'100.91'
p2985
I1
sS'dangers'
p2986
I1
sS'19.75/20.05'
p2987
I1
sS'invasion.but'
p2988
I1
sS'restrictions'
p2989
I1
sS'aero'
p2990
I1
sS'observers'
p2991
I1
sS'stems'
p2992
I1
sS'suspected'
p2993
I9
sS'1,123,459'
p2994
I1
sS'4-0'
p2995
I1
sS'4-6'
p2996
I1
sS'developing'
p2997
I5
sS'126.90'
p2998
I1
sS'accommodating'
p2999
I1
sS'118.0'
p3000
I1
sS'trick'
p3001
I1
sS'18,243'
p3002
I1
sS'against.the'
p3003
I2
sS'editorial'
p3004
I1
sS'challengers'
p3005
I2
sS'day.turkey'
p3006
I1
sS'legislature.as'
p3007
I2
sS'rembrandt'
p3008
I2
sS'3,244.93'
p3009
I2
sS'yorkshire.they'
p3010
I1
sS'soil'
p3011
I1
sS'risk.safety'
p3012
I1
sS'bias'
p3013
I1
sS'wrote.the'
p3014
I3
sS'marks.the'
p3015
I6
sS'kenya'
p3016
I1
sS'develop'
p3017
I3
sS'11.4'
p3018
I4
sS'media'
p3019
I17
sS'11.6'
p3020
I2
sS'11.0'
p3021
I6
sS'11.2'
p3022
I2
sS'262-272'
p3023
I1
sS'schmuelling'
p3024
I5
sS'ceo'
p3025
I2
sS'angered'
p3026
I3
sS'document'
p3027
I3
sS'strategy.the'
p3028
I1
sS'finish'
p3029
I3
sS'futures.in'
p3030
I2
sS'merseyside'
p3031
I1
sS'awarding'
p3032
I1
sS'krefeld'
p3033
I16
sS'8-9note'
p3034
I1
sS'traps'
p3035
I1
sS'55.98'
p3036
I1
sS'charges'
p3037
I5
sS'32.5'
p3038
I2
sS'constitutional'
p3039
I3
sS'rates.although'
p3040
I1
sS'severe'
p3041
I1
sS'unclear.its'
p3042
I2
sS'3,198.13'
p3043
I1
sS'2583e-mail'
p3044
I1
sS'77'
p3045
I4
sS'frankie'
p3046
I1
sS'scarce.robustas'
p3047
I1
sS'valuable'
p3048
I2
sS'yq'
p3049
I1
sS'sufficiently'
p3050
I1
sS'touch'
p3051
I3
sS'speed'
p3052
I6
sS'renewed'
p3053
I5
sS'thinking'
p3054
I2
sS'domicile'
p3055
I1
sS'improvement'
p3056
I6
sS'1,400'
p3057
I1
sS'momentum'
p3058
I4
sS'real'
p3059
I19
sS'kursk'
p3060
I1
sS'spectacular'
p3061
I1
sS'rules'
p3062
I6
sS'amb'
p3063
I1
sS'early'
p3064
I42
sS'34.3'
p3065
I2
sS'detract'
p3066
I2
sS'using'
p3067
I10
sS'amt'
p3068
I9
sS'rear'
p3069
I1
sS'ruled'
p3070
I4
sS'fortuna'
p3071
I3
sS'pounds'
p3072
I5
sS'suppliers'
p3073
I7
sS'326,188'
p3074
I1
sS'1,660'
p3075
I1
sS'88.60'
p3076
I2
sS'benefit'
p3077
I2
sS't'
p3078
I7
sS'output'
p3079
I42
sS'downward'
p3080
I9
sS'33.30/33.80german'
p3081
I1
sS'neighbours.he'
p3082
I1
sS'exposed'
p3083
I3
sS'984,698'
p3084
I1
sS'manufacturers'
p3085
I3
sS'4.205'
p3086
I1
sS'recorded'
p3087
I4
sS'conservative'
p3088
I4
sS'deficit'
p3089
I7
sS'welsch'
p3090
I1
sS'braking'
p3091
I1
sS'assembly'
p3092
I6
sS'business'
p3093
I70
sS'sixth'
p3094
I3
sS'equivalent'
p3095
I4
sS'strained'
p3096
I5
sS'volkswagen'
p3097
I15
sS'1933'
p3098
I4
sS'1930'
p3099
I1
sS'1935'
p3100
I1
sS'assemble'
p3101
I3
sS'8.5'
p3102
I1
sS'exciting'
p3103
I2
sS'throw'
p3104
I4
sS'said.west'
p3105
I1
sS'comparison'
p3106
I12
sS'central'
p3107
I34
sS'greatly'
p3108
I2
sS'underway'
p3109
I1
sS'outlook'
p3110
I28
sS'33.7'
p3111
I1
sS'33.0'
p3112
I2
sS'341,426'
p3113
I2
sS'persecution'
p3114
I3
sS'1.0two'
p3115
I1
sS'watchdog'
p3116
I2
sS'11.that'
p3117
I1
sS'intervention'
p3118
I6
sS'prepare'
p3119
I1
sS'area'
p3120
I12
sS'61.65'
p3121
I3
sS'stark'
p3122
I10
sS'start'
p3123
I21
sS'henning'
p3124
I2
sS'low'
p3125
I36
sS'lot'
p3126
I6
sS'gepgyar'
p3127
I1
sS'jones'
p3128
I11
sS'died.turkey'
p3129
I2
sS'wednesday.the'
p3130
I4
sS'share.industrial'
p3131
I1
sS'pitched'
p3132
I1
sS'trying'
p3133
I8
sS'added.kohl'
p3134
I1
sS'proposal'
p3135
I2
sS'63.25'
p3136
I1
sS'hire'
p3137
I1
sS'fraud'
p3138
I2
sS'circulation'
p3139
I2
sS'plans.sueddeutsche'
p3140
I2
sS'3,208.05'
p3141
I1
sS'postive'
p3142
I1
sS'u.s.the'
p3143
I1
sS'naysayers'
p3144
I1
sS'600'
p3145
I3
sS'said.again'
p3146
I2
sS'sales'
p3147
I67
sS'attack.walter'
p3148
I1
sS'moves'
p3149
I1
sS'hospitals'
p3150
I1
sS'kelland'
p3151
I3
sS'unwelcome'
p3152
I3
sS'tanjug'
p3153
I2
sS'credibility'
p3154
I3
sS'storage'
p3155
I1
sS'980p'
p3156
I1
sS'intercontinental'
p3157
I2
sS'gambling'
p3158
I1
sS'forcing'
p3159
I1
sS'karlsruhe'
p3160
I4
sS'poor'
p3161
I4
sS'season.saturday'
p3162
I1
sS'peak'
p3163
I4
sS'coverage'
p3164
I2
sS'stakes'
p3165
I2
sS'building'
p3166
I7
sS'october.if'
p3167
I1
sS'gelsenkirchen'
p3168
I1
sS'conference.in'
p3169
I1
sS'conditions.volkswagen'
p3170
I2
sS'finished'
p3171
I1
sS'111.3'
p3172
I1
sS'tense'
p3173
I1
sS'overseas'
p3174
I10
sS'33,053'
p3175
I1
sS'opposition.but'
p3176
I2
sS'12,456'
p3177
I2
sS'month'
p3178
I93
sS'unrest'
p3179
I4
sS'deadline'
p3180
I1
sS'kirch'
p3181
I2
sS'191.15'
p3182
I1
sS'carpet'
p3183
I1
sS'referring'
p3184
I2
sS'wyoming'
p3185
I1
sS'1930s'
p3186
I1
sS'refute'
p3187
I1
sS'dominated'
p3188
I6
sS'7289530'
p3189
I1
sS'airfreight'
p3190
I2
sS'6.196'
p3191
I1
sS'193.15'
p3192
I1
sS'vera'
p3193
I7
sS'decide'
p3194
I2
sS'tatarstan'
p3195
I1
sS'mild'
p3196
I1
sS'soldiers.colonel'
p3197
I1
sS'3.10'
p3198
I3
sS'streets'
p3199
I1
sS'3.15'
p3200
I3
sS'49,906'
p3201
I1
sS'month.private'
p3202
I1
sS'tuesday.president'
p3203
I1
sS'rainy.german'
p3204
I1
sS'consumers'
p3205
I2
sS'investing'
p3206
I2
sS'94.0'
p3207
I1
sS'witnesses'
p3208
I3
sS'bernhard'
p3209
I1
sS'fractional'
p3210
I1
sS'certificates'
p3211
I4
sS'37.7'
p3212
I1
sS'overrule'
p3213
I1
sS'11-day'
p3214
I2
sS'liffey'
p3215
I1
sS'friday'
p3216
I81
sS'iran'
p3217
I2
sS'tracks'
p3218
I1
sS'selective'
p3219
I1
sS'excess'
p3220
I1
sS'contract.he'
p3221
I1
sS'strong'
p3222
I34
sS'puskas'
p3223
I7
sS'ahead'
p3224
I20
sS'losses'
p3225
I30
sS'unharmed.marib'
p3226
I1
sS'advertising'
p3227
I3
sS'109.4'
p3228
I1
sS'family'
p3229
I24
sS'marginal'
p3230
I1
sS'thatcher'
p3231
I1
sS'lagos'
p3232
I1
sS'aimed'
p3233
I7
sS'7340'
p3234
I3
sS'zeitung'
p3235
I23
sS'takes'
p3236
I3
sS'saxony'
p3237
I12
sS'improves'
p3238
I1
sS'strauss'
p3239
I1
sS'17-year'
p3240
I3
sS'taken'
p3241
I35
sS'injury'
p3242
I2
sS'court.germany'
p3243
I1
sS'10no'
p3244
I1
sS'lowering'
p3245
I3
sS'10,804'
p3246
I1
sS'broke'
p3247
I10
sS'firebombing'
p3248
I4
sS'mounted'
p3249
I1
sS'producing'
p3250
I3
sS'25,062'
p3251
I1
sS'coalition'
p3252
I17
sS'budgets'
p3253
I3
sS'yemen'
p3254
I2
sS'breezed'
p3255
I1
sS'history'
p3256
I10
sS'744'
p3257
I2
sS'columnthose'
p3258
I1
sS'747'
p3259
I4
sS'3,280'
p3260
I4
sS'archipelago'
p3261
I3
sS'pushed'
p3262
I10
sS'cows'
p3263
I1
sS'lacks'
p3264
I1
sS'firmly'
p3265
I6
sS'1.567'
p3266
I1
sS'enthursed'
p3267
I1
sS'waigel'
p3268
I3
sS'reject'
p3269
I2
sS'99.85'
p3270
I1
sS'fr'
p3271
I1
sS'games.karlsruhe'
p3272
I1
sS'tried'
p3273
I4
sS'rude'
p3274
I1
sS'2770fax'
p3275
I1
sS'derived'
p3276
I2
sS'1945.there'
p3277
I2
sS'denial'
p3278
I1
sS'olympus'
p3279
I1
sS'99.16'
p3280
I2
sS'invasion'
p3281
I1
sS'3,157'
p3282
I1
sS'fo'
p3283
I6
sS'fallen'
p3284
I1
sS'overnight'
p3285
I17
sS'spectre'
p3286
I3
sS'negligible'
p3287
I2
sS'keis'
p3288
I1
sS'dream'
p3289
I1
sS'juan'
p3290
I1
sS'lynch'
p3291
I1
sS'13.3copper'
p3292
I1
sS'help'
p3293
I17
sS'ffr'
p3294
I1
sS'held'
p3295
I21
sS'ffm'
p3296
I2
sS'vertigo.the'
p3297
I1
sS'committee'
p3298
I3
sS'figures.some'
p3299
I1
sS'kfhg.f'
p3300
I1
sS'postenyi'
p3301
I1
sS'down.madagascar'
p3302
I1
sS'botched'
p3303
I1
sS'reluctance'
p3304
I2
sS'actually'
p3305
I1
sS'absence'
p3306
I1
sS'systems'
p3307
I3
sS'surveys.another'
p3308
I1
sS'dismissed.the'
p3309
I1
sS"haven't"
p3310
I2
sS'fool'
p3311
I2
sS'evening'
p3312
I4
sS'motivated'
p3313
I6
sS'food'
p3314
I3
sS'tumbles'
p3315
I1
sS'reigning'
p3316
I1
sS'anticipated'
p3317
I3
sS'again.kohl'
p3318
I1
sS'foot'
p3319
I4
sS'towering'
p3320
I1
sS'impressionists'
p3321
I1
sS'129,179'
p3322
I1
sS'fully'
p3323
I4
sS'1,070,686'
p3324
I1
sS'2,286'
p3325
I1
sS'ifo'
p3326
I4
sS'heavy'
p3327
I14
sS'164,300'
p3328
I1
sS'norddt'
p3329
I1
sS'week.trade'
p3330
I1
sS'positioned'
p3331
I1
sS'1998.spd'
p3332
I1
sS'groups.serviceplan'
p3333
I1
sS'goering'
p3334
I1
sS'event'
p3335
I3
sS'46-year'
p3336
I1
sS'dominates'
p3337
I1
sS'robert'
p3338
I2
sS'publish'
p3339
I1
sS'retirement.investment'
p3340
I1
sS'flattening'
p3341
I1
sS'7'
p3342
I17
sS'possible.at'
p3343
I1
sS'issue'
p3344
I13
sS'19.18/19.42'
p3345
I1
sS'united.bayern'
p3346
I1
sS'basf'
p3347
I61
sS'reason'
p3348
I14
sS'base'
p3349
I10
sS'tuesday.bunds'
p3350
I1
sS'overshadowing'
p3351
I1
sS'ask'
p3352
I4
sS'earliest'
p3353
I3
sS'430-455'
p3354
I1
sS'rittner'
p3355
I1
sS'launch'
p3356
I5
sS'21-year'
p3357
I1
sS'rt.lufthansa'
p3358
I1
sS'refrom'
p3359
I1
sS'americas'
p3360
I5
sS'rates.reuter'
p3361
I1
sS'american'
p3362
I14
sS'136.2'
p3363
I1
sS'expecting'
p3364
I8
sS'businessmen'
p3365
I1
sS'undergo'
p3366
I3
sS'tumble.the'
p3367
I2
sS'probability'
p3368
I1
sS'industrieservice'
p3369
I2
sS'reflected'
p3370
I2
sS'13,000'
p3371
I2
sS'loadings'
p3372
I1
sS'horse'
p3373
I1
sS'ioc'
p3374
I2
sS'pinned'
p3375
I3
sS'deutschen'
p3376
I1
sS'station'
p3377
I4
sS'expand'
p3378
I5
sS'sigh'
p3379
I2
sS'www.deutsche'
p3380
I1
sS'scheme'
p3381
I7
sS'shifted'
p3382
I1
sS'raws'
p3383
I1
sS'selling'
p3384
I18
sS'storm'
p3385
I1
sS'tfb'
p3386
I2
sS'translation'
p3387
I2
sS'financing'
p3388
I2
sS'grew'
p3389
I7
sS'grocers'
p3390
I1
sS'dtb'
p3391
I10
sS'1,330,152'
p3392
I1
sS'laugh.his'
p3393
I1
sS'sentenced'
p3394
I1
sS'deciding'
p3395
I1
sS'880'
p3396
I1
sS'publication.elect'
p3397
I2
sS'substantial'
p3398
I1
sS'polical'
p3399
I1
sS'concentration'
p3400
I2
sS'karl'
p3401
I2
sS'lid'
p3402
I1
sS'ratings'
p3403
I3
sS'evasion'
p3404
I2
sS'speculative'
p3405
I5
sS'scotland'
p3406
I2
sS'officers'
p3407
I7
sS'labour'
p3408
I26
sS'applauded'
p3409
I1
sS'brintons'
p3410
I1
sS'experienced'
p3411
I2
sS'eater'
p3412
I1
sS'kan'
p3413
I1
sS'hired'
p3414
I1
sS'85.5'
p3415
I1
sS'85.4'
p3416
I1
sS'85.2'
p3417
I1
sS'bzw'
p3418
I2
sS'11.5/13.0'
p3419
I1
sS'artefacts'
p3420
I3
sS'soviet'
p3421
I13
sS'clear'
p3422
I26
sS'jobs.with'
p3423
I1
sS'said.strube'
p3424
I2
sS'latest'
p3425
I18
sS'2.00'
p3426
I1
sS'wehmeier'
p3427
I7
sS'law.the'
p3428
I1
sS'breaks.the'
p3429
I1
sS'sights.fortuna'
p3430
I1
sS'broadloom'
p3431
I1
sS'northern'
p3432
I4
sS'paranoid'
p3433
I5
sS'convinced'
p3434
I1
sS'quel'
p3435
I1
sS'flights'
p3436
I33
sS'surveyed'
p3437
I3
sS'pretty'
p3438
I5
sS'criticising'
p3439
I3
sS'circle'
p3440
I1
sS'9.5two'
p3441
I1
sS'dominant'
p3442
I1
sS'zambia'
p3443
I1
sS'122.50'
p3444
I1
sS'1.88'
p3445
I1
sS'assaulted'
p3446
I2
sS'basement'
p3447
I1
sS'122.58'
p3448
I1
sS'928.9'
p3449
I1
sS'1.83'
p3450
I1
sS'1.85'
p3451
I1
sS'ordu'
p3452
I1
sS'184,200'
p3453
I1
sS'sales.spoerri'
p3454
I1
sS'08.may.97'
p3455
I1
sS'said.lower'
p3456
I1
sS'interim'
p3457
I1
sS'gloves'
p3458
I1
sS'stm'
p3459
I1
sS'switzerland'
p3460
I2
sS'123.50'
p3461
I1
sS'bonn.he'
p3462
I1
sS'throwing'
p3463
I1
sS'prague'
p3464
I1
sS'plausibly'
p3465
I1
sS'descriptions'
p3466
I2
sS'close'
p3467
I28
sS'29,819'
p3468
I2
sS'probable'
p3469
I1
sS'mostostal'
p3470
I8
sS'pictures'
p3471
I3
sS'pisa'
p3472
I1
sS'engen'
p3473
I1
sS'won'
p3474
I17
sS'grandparents'
p3475
I1
sS'probably'
p3476
I10
sS'conditions'
p3477
I13
sS'notoriously'
p3478
I1
sS'missing'
p3479
I2
sS'spray'
p3480
I5
sS'ranked'
p3481
I5
sS'french'
p3482
I6
sS'distinguish'
p3483
I1
sS'areas.brintons'
p3484
I1
sS'league'
p3485
I4
sS'summer.union'
p3486
I1
sS'losses.deutsche'
p3487
I2
sS"wouldn't"
p3488
I3
sS'bote'
p3489
I1
sS'sensitive'
p3490
I6
sS'forgotten'
p3491
I1
sS'vault'
p3492
I1
sS'1.3-1.5'
p3493
I1
sS'5.974'
p3494
I1
sS'mausoleum'
p3495
I1
sS'25,854'
p3496
I1
sS'outside.kniola'
p3497
I1
sS'likes'
p3498
I1
sS'blaze.north'
p3499
I1
sS'described'
p3500
I1
sS'january.for'
p3501
I1
sS'scalfaro'
p3502
I2
sS'maintenance'
p3503
I1
sS'democrats.in'
p3504
I1
sS'napm'
p3505
I2
sS'territory'
p3506
I2
sS'walter'
p3507
I3
sS'budgeted'
p3508
I1
sS'sanders'
p3509
I1
sS'arminia'
p3510
I3
sS'lived'
p3511
I1
sS'partly'
p3512
I2
sS'varginha'
p3513
I1
sS'28,000'
p3514
I1
sS'liver'
p3515
I1
sS'folklore'
p3516
I1
sS'squabbles'
p3517
I2
sS'pact'
p3518
I6
sS'utmost'
p3519
I1
sS'look'
p3520
I11
sS'battling'
p3521
I1
sS'grounds.several'
p3522
I3
sS'governor'
p3523
I1
sS'pace'
p3524
I3
sS'fleet'
p3525
I1
sS'guide'
p3526
I1
sS'pack'
p3527
I1
sS'hoerster'
p3528
I2
sS'voters'
p3529
I6
sS'bertelsmann'
p3530
I5
sS'ready'
p3531
I11
sS'democrats.the'
p3532
I1
sS'better.may'
p3533
I1
sS'anymore'
p3534
I1
sS'3,234.70'
p3535
I1
sS'7,986'
p3536
I2
sS'government'
p3537
I53
sS'65.08'
p3538
I1
sS'grand'
p3539
I3
sS'conflict'
p3540
I1
sS'hallway'
p3541
I3
sS'used'
p3542
I8
sS'temporary'
p3543
I6
sS'suggestion'
p3544
I1
sS'youngsters'
p3545
I2
sS'high.new'
p3546
I1
sS'001'
p3547
I1
sS'uses'
p3548
I1
sS'yeltsin'
p3549
I17
sS'haunting'
p3550
I1
sS'15.0'
p3551
I1
sS'kurdish'
p3552
I7
sS'15.2'
p3553
I1
sS'15.4'
p3554
I1
sS'database'
p3555
I6
sS'15.8'
p3556
I1
sS'anxious'
p3557
I1
sS'poland'
p3558
I4
sS'haul'
p3559
I1
sS'obviously'
p3560
I1
sS'gsa'
p3561
I3
sS'4.414'
p3562
I1
sS'secession'
p3563
I1
sS'coup'
p3564
I3
sS'186,788'
p3565
I1
sS'60-kg'
p3566
I8
sS'distanced'
p3567
I1
sS'elect'
p3568
I8
sS'taiwan'
p3569
I5
sS'bloods'
p3570
I1
sS'5,466'
p3571
I1
sS'armin'
p3572
I2
sS'100.50'
p3573
I1
sS'guarantees'
p3574
I2
sS'100.54'
p3575
I1
sS'remaining'
p3576
I6
sS'99.34'
p3577
I1
sS'99.35'
p3578
I1
sS'march'
p3579
I94
sS'296p'
p3580
I1
sS'99.33'
p3581
I1
sS'showing'
p3582
I6
sS'99.39'
p3583
I1
sS'finding'
p3584
I2
sS'game'
p3585
I9
sS'losses.moreover'
p3586
I1
sS'20,028'
p3587
I1
sS'outright'
p3588
I1
sS'interestingly'
p3589
I1
sS'weekend.the'
p3590
I1
sS'popular'
p3591
I12
sS'terminology'
p3592
I1
sS'creation'
p3593
I4
sS'metres'
p3594
I12
sS'tonne.threats'
p3595
I1
sS'economic'
p3596
I52
sS'28th'
p3597
I1
sS'immigrants.since'
p3598
I1
sS'savage'
p3599
I1
sS'describing'
p3600
I2
sS'seehofer'
p3601
I1
sS'competitions'
p3602
I2
sS'slash'
p3603
I1
sS'iran.germany'
p3604
I1
sS'minimal'
p3605
I1
sS'downplaying'
p3606
I3
sS'51,865'
p3607
I1
sS'run'
p3608
I21
sS'huette'
p3609
I1
sS'cgn'
p3610
I1
sS'fomc'
p3611
I1
sS'pfennigs'
p3612
I14
sS'processing'
p3613
I1
sS'step'
p3614
I7
sS'abroad'
p3615
I4
sS'franco'
p3616
I1
sS'faith'
p3617
I6
sS'works'
p3618
I9
sS'bourses'
p3619
I1
sS'papua'
p3620
I2
sS'97.0'
p3621
I1
sS'latvian'
p3622
I13
sS'bloch'
p3623
I1
sS'silence'
p3624
I1
sS'diisocyanate'
p3625
I1
sS'seeing'
p3626
I2
sS'8.3lead'
p3627
I1
sS'dude'
p3628
I1
sS'sueppel'
p3629
I1
sS'82.2'
p3630
I1
sS'rolls'
p3631
I2
sS'statistics'
p3632
I5
sS'computer'
p3633
I2
sS'approved'
p3634
I2
sS'79'
p3635
I1
sS'heritage'
p3636
I2
sS'manufacture'
p3637
I2
sS'0-0'
p3638
I1
sS'0-2'
p3639
I1
sS'registered'
p3640
I2
sS'frost'
p3641
I1
sS'97.7'
p3642
I1
sS'specialty'
p3643
I3
sS'hail'
p3644
I2
sS'russian'
p3645
I22
sS'89.45'
p3646
I1
sS'stumbling'
p3647
I1
sS'fdp'
p3648
I23
sS'performances'
p3649
I1
sS'similar'
p3650
I10
sS'said.in'
p3651
I3
sS'popularity'
p3652
I5
sS'88.2two-month'
p3653
I1
sS'adults'
p3654
I1
sS'corrective'
p3655
I1
sS'said.if'
p3656
I1
sS'metals'
p3657
I6
sS'impasse'
p3658
I1
sS'metall'
p3659
I6
sS'said.it'
p3660
I2
sS'artworks.the'
p3661
I1
sS'19.0two'
p3662
I1
sS'spokesmen'
p3663
I1
sS'120.00/122.00'
p3664
I1
sS'application'
p3665
I3
sS'arabica'
p3666
I4
sS'transport'
p3667
I4
sS'manhattan'
p3668
I2
sS'1.375'
p3669
I1
sS'draw'
p3670
I1
sS'autocom'
p3671
I1
sS'1.6757'
p3672
I1
sS'visits'
p3673
I2
sS'william'
p3674
I2
sS'militants'
p3675
I2
sS'invitation.the'
p3676
I1
sS'structure'
p3677
I5
sS'revamped'
p3678
I2
sS'travel.in'
p3679
I1
sS'undertone'
p3680
I1
sS'e'
p3681
I1
sS'practically'
p3682
I1
sS'required'
p3683
I4
sS'dvs'
p3684
I1
sS'markets.rubin'
p3685
I1
sS'eckert'
p3686
I7
sS'assicurazioni'
p3687
I2
sS'farms'
p3688
I2
sS'joachim'
p3689
I2
sS'roussel'
p3690
I1
sS'kate'
p3691
I3
sS'3,200-point'
p3692
I1
sS'school.he'
p3693
I1
sS'mosque'
p3694
I3
sS'excluded'
p3695
I1
sS'friendly'
p3696
I5
sS'lows.earlier'
p3697
I1
sS'celebrities'
p3698
I1
sS'miners'
p3699
I3
sS'acreage'
p3700
I1
sS'telling'
p3701
I1
sS'sugarbeet'
p3702
I1
sS'olaf'
p3703
I2
sS'asparagus'
p3704
I4
sS'positions'
p3705
I6
sS'michael'
p3706
I7
sS'ryan'
p3707
I1
sS'verdict'
p3708
I3
sS'barbara'
p3709
I1
sS'2.25'
p3710
I2
sS'96.25/96.75'
p3711
I1
sS'landesbank'
p3712
I3
sS'64.4'
p3713
I2
sS'boots'
p3714
I2
sS'jump'
p3715
I5
sS'hose'
p3716
I1
sS'picked'
p3717
I1
sS'ardent'
p3718
I1
sS'cartel'
p3719
I8
sS'3,120'
p3720
I1
sS'paintings'
p3721
I2
sS'opaque'
p3722
I1
sS'experiment'
p3723
I1
sS'volatile'
p3724
I3
sS'pristine'
p3725
I1
sS'stance'
p3726
I1
sS'upsetting'
p3727
I1
sS'commercial'
p3728
I3
sS'following'
p3729
I79
sS'quell'
p3730
I1
sS'focused'
p3731
I7
sS'kidnapped'
p3732
I4
sS'holger'
p3733
I4
sS'withdrawing'
p3734
I1
sS'veered'
p3735
I1
sS'1241'
p3736
I1
sS'justice'
p3737
I2
sS'products'
p3738
I18
sS'49-28-26097150'
p3739
I1
sS'danger'
p3740
I1
sS'win'
p3741
I3
sS'wim'
p3742
I1
sS'manage'
p3743
I1
sS'clout'
p3744
I2
sS'austria'
p3745
I4
sS'lifton'
p3746
I2
sS'867,000'
p3747
I1
sS'remains'
p3748
I11
sS'predict'
p3749
I4
sS'circumstances'
p3750
I3
sS'vehicle'
p3751
I2
sS'means'
p3752
I6
sS'reflects'
p3753
I2
sS'1.6680/90.during'
p3754
I1
sS'formally'
p3755
I3
sS'marks.basf'
p3756
I5
sS'started'
p3757
I18
sS'tennis'
p3758
I1
sS'benchmark'
p3759
I3
sS'25.3'
p3760
I1
sS'actual'
p3761
I3
sS'rivalry'
p3762
I1
sS'appointed'
p3763
I2
sS'43.2'
p3764
I2
sS'150'
p3765
I10
sS'announcing'
p3766
I5
sS'24,345'
p3767
I1
sS'recession'
p3768
I3
sS'61.3'
p3769
I1
sS'95/96.oil'
p3770
I1
sS'crossed'
p3771
I2
sS'meet'
p3772
I12
sS'position.up'
p3773
I1
sS'control'
p3774
I6
sS'yields.a'
p3775
I1
sS'links'
p3776
I2
sS'wilfried'
p3777
I1
sS'pulling'
p3778
I2
sS'particular.first'
p3779
I1
sS'sought'
p3780
I2
sS'wonderful'
p3781
I1
sS'stemmed'
p3782
I1
sS'boasting'
p3783
I1
sS'restart'
p3784
I1
sS'located'
p3785
I6
sS'sentiments'
p3786
I2
sS'companies.but'
p3787
I1
sS'immoral'
p3788
I2
sS'fare'
p3789
I1
sS'fostered'
p3790
I1
sS'farm'
p3791
I7
sS'ronald'
p3792
I1
sS'famous'
p3793
I1
sS'xenophobic'
p3794
I2
sS'said.economists'
p3795
I1
sS'advocates'
p3796
I1
sS'agenda'
p3797
I1
sS'healthcare'
p3798
I1
sS'executives'
p3799
I1
sS'13,215'
p3800
I1
sS'unsolved'
p3801
I1
sS'said.weber'
p3802
I1
sS'candidate.however'
p3803
I1
sS'percent.dealers'
p3804
I3
sS'including'
p3805
I17
sS'mentioned'
p3806
I4
sS'rexrodt'
p3807
I2
sS'outer'
p3808
I2
sS'intensify'
p3809
I1
sS'guerrilla'
p3810
I2
sS'65.20'
p3811
I1
sS'1.84'
p3812
I1
sS'control.schaeuble'
p3813
I1
sS'1.86'
p3814
I1
sS'holiday.the'
p3815
I1
sS'pure'
p3816
I1
sS'auto'
p3817
I4
sS'eckhard'
p3818
I1
sS'franfurt'
p3819
I2
sS'12,971'
p3820
I2
sS'hands'
p3821
I3
sS'primakov'
p3822
I2
sS'kilometres'
p3823
I5
sS'chronic'
p3824
I1
sS'university'
p3825
I2
sS'registrations'
p3826
I2
sS'slide'
p3827
I3
sS'mode'
p3828
I1
sS'93.2note'
p3829
I1
sS'upward'
p3830
I4
sS'705'
p3831
I1
sS'700'
p3832
I1
sS'67th'
p3833
I3
sS'adriatica'
p3834
I2
sS'turnkey'
p3835
I1
sS'measure'
p3836
I4
sS'margins'
p3837
I2
sS'special'
p3838
I13
sS'lukewarm'
p3839
I1
sS'entertainment'
p3840
I1
sS'werder'
p3841
I3
sS'islamist'
p3842
I8
sS'underpinned'
p3843
I1
sS'cause'
p3844
I6
sS'99.52'
p3845
I2
sS'umbrella'
p3846
I2
sS'eco'
p3847
I1
sS'completely'
p3848
I5
sS'holsteinische'
p3849
I1
sS'advisor'
p3850
I1
sS'20,000'
p3851
I2
sS'resumed'
p3852
I2
sS'hostile'
p3853
I4
sS'756532'
p3854
I3
sS'route'
p3855
I5
sS'times'
p3856
I10
sS'counterpart'
p3857
I4
sS'keen'
p3858
I2
sS'mad'
p3859
I1
sS'72,000'
p3860
I3
sS'powerful'
p3861
I4
sS'facility'
p3862
I2
sS'improving'
p3863
I3
sS'5,053'
p3864
I1
sS"you're"
p3865
I2
sS'long'
p3866
I28
sS'98.50'
p3867
I1
sS'b747-300'
p3868
I1
sS'10-for'
p3869
I1
sS'relations'
p3870
I16
sS'workers.bayer'
p3871
I1
sS'attack'
p3872
I31
sS'99.8'
p3873
I1
sS'declines'
p3874
I4
sS'99.5'
p3875
I1
sS'interview.austria'
p3876
I1
sS'99.0'
p3877
I1
sS'tourists'
p3878
I5
sS'prone'
p3879
I1
sS'2-1'
p3880
I1
sS'viktor'
p3881
I1
sS'earmarked'
p3882
I4
sS'exactly'
p3883
I2
sS'lists'
p3884
I1
sS'chemicals'
p3885
I27
sS'said.passenger'
p3886
I1
sS'reunification'
p3887
I2
sS'are.all'
p3888
I1
sS'distinguishes'
p3889
I1
sS'1-20'
p3890
I1
sS'matif'
p3891
I1
sS'bid.despite'
p3892
I1
sS'bufete'
p3893
I1
sS'providing'
p3894
I2
sS'bet'
p3895
I2
sS'lightly'
p3896
I1
sS'unchanged'
p3897
I22
sS'varadi'
p3898
I2
sS'2.2'
p3899
I2
sS'need'
p3900
I17
sS'assurances'
p3901
I2
sS'japan.the'
p3902
I1
sS'pursued'
p3903
I1
sS'able'
p3904
I10
sS'night.turkey'
p3905
I1
sS'purchasing'
p3906
I3
sS'said.two'
p3907
I1
sS'instance'
p3908
I1
sS'issuing'
p3909
I1
sS'location.turek'
p3910
I1
sS'declined'
p3911
I12
sS'gunned'
p3912
I1
sS'blades'
p3913
I1
sS'snubs'
p3914
I1
sS'purchases.colombian'
p3915
I1
sS'fibreboard'
p3916
I1
sS'chips.the'
p3917
I1
sS'govett'
p3918
I3
sS'50-mark'
p3919
I2
sS'intentions'
p3920
I1
sS'connected'
p3921
I1
sS'today.the'
p3922
I1
sS'recovery.market'
p3923
I1
sS'fisted'
p3924
I1
sS'expired'
p3925
I3
sS'89.25'
p3926
I1
sS'costs.the'
p3927
I1
sS'lattely'
p3928
I1
sS'2,863'
p3929
I1
sS'fenchurch'
p3930
I6
sS'upset'
p3931
I1
sS'psychological'
p3932
I8
sS'astonishing'
p3933
I1
sS'84.9'
p3934
I1
sS'53,259'
p3935
I1
sS'wirtschaft'
p3936
I1
sS'businessman'
p3937
I1
sS'impression'
p3938
I1
sS'emerging'
p3939
I2
sS'veto.if'
p3940
I2
sS'27,565'
p3941
I1
sS'indoor'
p3942
I2
sS'friday.separately'
p3943
I1
sS'halting'
p3944
I1
sS'96primary'
p3945
I1
sS'soldiers'
p3946
I1
sS'platow'
p3947
I1
sS'84.0'
p3948
I1
sS'partners'
p3949
I7
sS'untraded.april'
p3950
I1
sS'based'
p3951
I35
sS'fuer'
p3952
I3
sS'earned'
p3953
I1
sS'credited'
p3954
I2
sS"won't"
p3955
I2
sS'employer'
p3956
I1
sS'18,51norway'
p3957
I1
sS'thunderous'
p3958
I1
sS'fuel'
p3959
I2
sS'said.bayer'
p3960
I1
sS'achieve'
p3961
I2
sS'boris'
p3962
I4
sS'own.up'
p3963
I1
sS'overall'
p3964
I10
sS'mgm'
p3965
I2
sS'120'
p3966
I2
sS'joint'
p3967
I8
sS'emnid'
p3968
I13
sS'125'
p3969
I1
sS'mgt'
p3970
I6
sS'buyer'
p3971
I1
sS'years'
p3972
I44
sS'5.547'
p3973
I1
sS'trucks'
p3974
I4
sS'course'
p3975
I8
sS'shy'
p3976
I2
sS'dishing'
p3977
I1
sS'guss'
p3978
I1
sS'acording'
p3979
I1
sS'shi'
p3980
I1
sS'graf'
p3981
I3
sS'2.0two-month'
p3982
I1
sS'prayers'
p3983
I3
sS'halving'
p3984
I1
sS'pitch'
p3985
I2
sS'humans'
p3986
I1
sS'34.0'
p3987
I5
sS'reinforce'
p3988
I2
sS'accused'
p3989
I7
sS'49-40-41903275'
p3990
I8
sS'area.two'
p3991
I1
sS'1996.sugar'
p3992
I1
sS'lux'
p3993
I5
sS'6137'
p3994
I1
sS'tend'
p3995
I1
sS'state'
p3996
I55
sS'platform.trafficmaster'
p3997
I1
sS'1.6778'
p3998
I1
sS'sole'
p3999
I1
sS'friday.arabica'
p4000
I1
sS'importance'
p4001
I2
sS'erling'
p4002
I1
sS'key'
p4003
I30
sS'group'
p4004
I101
sS'building.six'
p4005
I3
sS'distribution'
p4006
I2
sS'monitor'
p4007
I1
sS'2.40'
p4008
I1
sS'polls.this'
p4009
I1
sS'limits'
p4010
I10
sS'career'
p4011
I1
sS'olga'
p4012
I1
sS'minds'
p4013
I1
sS'strains'
p4014
I1
sS'1.6807'
p4015
I1
sS'said.implied'
p4016
I1
sS'diplomats'
p4017
I1
sS'tuesday'
p4018
I58
sS'3,320.78'
p4019
I1
sS'7658'
p4020
I10
sS'3,100'
p4021
I1
sS'quit'
p4022
I2
sS'trips.the'
p4023
I1
sS'industrials'
p4024
I5
sS'addition'
p4025
I4
sS'dortmund'
p4026
I18
sS'thanked'
p4027
I1
sS'cent'
p4028
I34
sS'immense'
p4029
I3
sS'slowly'
p4030
I1
sS'corresponding'
p4031
I1
sS'netanyahu'
p4032
I4
sS'state.many'
p4033
I1
sS'expenditure'
p4034
I2
sS'hamburg'
p4035
I26
sS'otp'
p4036
I3
sS'plant.the'
p4037
I2
sS'coalition.issen'
p4038
I1
sS'0.3europe'
p4039
I1
sS'level.olympic'
p4040
I1
sS'harder'
p4041
I3
sS'58.8'
p4042
I2
sS'154,836'
p4043
I1
sS'owns'
p4044
I5
sS'offices.the'
p4045
I1
sS'dieter'
p4046
I2
sS'30.300'
p4047
I1
sS'4.50'
p4048
I8
sS'recipients'
p4049
I1
sS'22.70'
p4050
I1
sS'generic'
p4051
I2
sS'threat.the'
p4052
I1
sS'began'
p4053
I9
sS'views'
p4054
I3
sS'parts'
p4055
I3
sS'northwest'
p4056
I1
sS'underground'
p4057
I1
sS'solubles'
p4058
I1
sS'fanatics'
p4059
I1
sS'dirhams'
p4060
I3
sS'http'
p4061
I1
sS'1,766'
p4062
I1
sS'effect'
p4063
I5
sS'value.takarekbank'
p4064
I1
sS'fierce'
p4065
I2
sS'frequently'
p4066
I3
sS'destruction'
p4067
I1
sS'transaction'
p4068
I1
sS'reflection'
p4069
I1
sS'uguz'
p4070
I2
sS'obstacles'
p4071
I1
sS'said.nem'
p4072
I1
sS'24,326'
p4073
I1
sS'welt'
p4074
I7
sS'advertiser'
p4075
I1
sS'50.134'
p4076
I1
sS'increasingly'
p4077
I2
sS'claiming'
p4078
I2
sS'accurate'
p4079
I2
sS'sofia'
p4080
I1
sS'mistaken'
p4081
I2
sS'43'
p4082
I1
sS'sources'
p4083
I14
sS'125-kg'
p4084
I1
sS'137,900'
p4085
I1
sS'okkert'
p4086
I1
sS'milch'
p4087
I1
sS'basf.no'
p4088
I1
sS'7,000'
p4089
I2
sS'deposits'
p4090
I3
sS'nato'
p4091
I6
sS'warrant'
p4092
I1
sS'wooed'
p4093
I2
sS'ample'
p4094
I1
sS'crushed'
p4095
I2
sS'munich'
p4096
I30
sS'fats'
p4097
I1
sS'historic'
p4098
I2
sS'267'
p4099
I1
sS'266'
p4100
I1
sS'burden'
p4101
I3
sS'bottoms'
p4102
I1
sS'immediately'
p4103
I3
sS'prominent'
p4104
I3
sS'loss'
p4105
I10
sS'lafontaine.the'
p4106
I2
sS'necessary'
p4107
I6
sS'lost'
p4108
I17
sS'88.9'
p4109
I1
sS'88.5'
p4110
I1
sS'glassmaker'
p4111
I1
sS'sized'
p4112
I1
sS'payments'
p4113
I4
sS'lose'
p4114
I3
sS'refugees'
p4115
I1
sS'page'
p4116
I1
sS'population.turkey'
p4117
I1
sS'trucked'
p4118
I2
sS'shed'
p4119
I1
sS'982'
p4120
I1
sS'deutschland'
p4121
I1
sS'allensbach'
p4122
I12
sS'motive'
p4123
I7
sS'warmer'
p4124
I1
sS'home'
p4125
I32
sS'peter'
p4126
I7
sS'broad'
p4127
I4
sS'upswing'
p4128
I4
sS'4.369'
p4129
I1
sS'hinder'
p4130
I1
sS'reaching'
p4131
I5
sS'monetary'
p4132
I15
sS'expansion'
p4133
I18
sS'offset'
p4134
I1
sS'competitors.the'
p4135
I1
sS'freedom'
p4136
I1
sS'friday.it'
p4137
I1
sS'uscgoa'
p4138
I1
sS'dominion'
p4139
I1
sS'months.kohl'
p4140
I1
sS'persuaded'
p4141
I2
sS'23.8'
p4142
I2
sS'equally'
p4143
I1
sS'data.unemployment'
p4144
I1
sS'final'
p4145
I4
sS'previously'
p4146
I2
sS'35,846'
p4147
I1
sS'h1'
p4148
I1
sS'washington'
p4149
I3
sS'predictions.westlb'
p4150
I1
sS'terence'
p4151
I1
sS'cocoa'
p4152
I3
sS'1.057'
p4153
I1
sS'artists'
p4154
I2
sS'initially.on'
p4155
I1
sS'strategy'
p4156
I6
sS'utility'
p4157
I2
sS'june.wedde'
p4158
I1
sS'5,428'
p4159
I1
sS'additional'
p4160
I3
sS'one.with'
p4161
I1
sS'12-year'
p4162
I2
sS'100.12'
p4163
I1
sS'99.79'
p4164
I4
sS'north'
p4165
I22
sS'kapitalanlage'
p4166
I3
sS'99.70'
p4167
I6
sS'99.71'
p4168
I2
sS'99.75'
p4169
I1
sS'blaming'
p4170
I3
sS'hk'
p4171
I5
sS'slipped'
p4172
I4
sS'gain'
p4173
I6
sS'courts'
p4174
I2
sS'highest'
p4175
I6
sS'time.lawmakers'
p4176
I1
sS'hiked'
p4177
I1
sS'dmg'
p4178
I1
sS'dmk'
p4179
I1
sS'86.5'
p4180
I1
sS'signed'
p4181
I9
sS'cruel'
p4182
I1
sS'converted'
p4183
I2
sS'stories'
p4184
I8
sS'721'
p4185
I3
sS'zurich.swissair'
p4186
I1
sS'piece'
p4187
I2
sS'strengthens'
p4188
I1
sS'flughafen'
p4189
I1
sS'speculators'
p4190
I2
sS'reservations'
p4191
I1
sS'generating'
p4192
I1
sS'50,700'
p4193
I1
sS'resented'
p4194
I1
sS'pfauter'
p4195
I1
sS'education'
p4196
I3
sS'0.5two'
p4197
I1
sS'month.the'
p4198
I1
sS'about.by'
p4199
I1
sS'offensive'
p4200
I2
sS'onwards'
p4201
I2
sS'star'
p4202
I3
sS'riunione'
p4203
I2
sS'january.the'
p4204
I3
sS'insults'
p4205
I1
sS'additionally'
p4206
I1
sS'22.7semis'
p4207
I1
sS'friends'
p4208
I4
sS'persistent'
p4209
I1
sS'portion'
p4210
I1
sS'marks.dealers'
p4211
I3
sS'bit.traditionally'
p4212
I1
sS'determination'
p4213
I1
sS'frankfurt'
p4214
I135
sS'simpson'
p4215
I1
sS'aided'
p4216
I1
sS'hoechst'
p4217
I21
sS'debate.press'
p4218
I2
sS'dynamic'
p4219
I2
sS'protest'
p4220
I6
sS'asian'
p4221
I1
sS'undersecretary'
p4222
I1
sS'captain'
p4223
I5
sS'25,663'
p4224
I1
sS'calculate'
p4225
I2
sS'aug'
p4226
I2
sS'pensions'
p4227
I1
sS'trial.a'
p4228
I2
sS'seles'
p4229
I5
sS'bln'
p4230
I2
sS'trousers'
p4231
I1
sS'opposition.kohl'
p4232
I1
sS'back.dortmund'
p4233
I1
sS'group.this'
p4234
I2
sS'homes'
p4235
I7
sS'comments.after'
p4236
I1
sS'reforms'
p4237
I18
sS'affect'
p4238
I5
sS'germany.numerous'
p4239
I1
sS'1999.he'
p4240
I1
sS'2318'
p4241
I1
sS'crops'
p4242
I2
sS'points.fundamentalseurope'
p4243
I1
sS'companies'
p4244
I29
sS'herbert'
p4245
I5
sS'eurowings'
p4246
I1
sS'heading'
p4247
I5
sS'favoured'
p4248
I1
sS'force'
p4249
I7
sS'vladimir'
p4250
I1
sS'warns'
p4251
I2
sS'japanese'
p4252
I1
sS'samara'
p4253
I1
sS'likely'
p4254
I17
sS'trade.brazil'
p4255
I1
sS'budget.among'
p4256
I1
sS'neo'
p4257
I2
sS'nem'
p4258
I4
sS'snares'
p4259
I1
sS'neg'
p4260
I6
sS'asia'
p4261
I5
sS'sarajevo'
p4262
I3
sS'spokesman'
p4263
I35
sS'foodstuffs'
p4264
I1
sS'new'
p4265
I92
sS'net'
p4266
I10
sS'poorly'
p4267
I2
sS'reviving'
p4268
I1
sS'men'
p4269
I6
sS'onur'
p4270
I1
sS'drew'
p4271
I2
sS'met'
p4272
I6
sS'feeding'
p4273
I1
sS'information.die'
p4274
I1
sS'102'
p4275
I1
sS'103'
p4276
I1
sS'100'
p4277
I18
sS'101'
p4278
I2
sS'107'
p4279
I1
sS'interpret'
p4280
I1
sS'105'
p4281
I2
sS'dry'
p4282
I2
sS'yielders'
p4283
I1
sS'offerings.there'
p4284
I1
sS'3,215.24'
p4285
I5
sS'economics'
p4286
I19
sS'ignoring'
p4287
I1
sS'credit'
p4288
I8
sS'fernandez'
p4289
I1
sS'fantastic'
p4290
I1
sS'campaign'
p4291
I7
sS'reagan'
p4292
I1
sS'arwanitidis'
p4293
I2
sS'sliced'
p4294
I2
sS'stoked'
p4295
I2
sS'moral'
p4296
I2
sS'guests'
p4297
I1
sS'soybean'
p4298
I2
sS'counts'
p4299
I4
sS'circumvent'
p4300
I3
sS'janina'
p4301
I1
sS'duties.palace'
p4302
I3
sS'criminals'
p4303
I1
sS'army'
p4304
I3
sS'arms'
p4305
I1
sS'1.6713'
p4306
I2
sS'calm'
p4307
I1
sS'recommend'
p4308
I1
sS'type'
p4309
I10
sS'tell'
p4310
I4
sS'supporters'
p4311
I6
sS'him.kohl'
p4312
I1
sS'wary'
p4313
I4
sS'schroeder'
p4314
I18
sS'oscar'
p4315
I1
sS'wars'
p4316
I1
sS'warn'
p4317
I2
sS'rates.a'
p4318
I1
sS'berlin'
p4319
I12
sS'room'
p4320
I9
sS'rights'
p4321
I3
sS'2.66'
p4322
I1
sS'2.67'
p4323
I1
sS'2.62'
p4324
I4
sS'earnings.among'
p4325
I1
sS'2.60'
p4326
I1
sS'muenchner'
p4327
I1
sS'trend.the'
p4328
I2
sS'slide.basf'
p4329
I2
sS'involve'
p4330
I1
sS'10,000'
p4331
I5
sS'foods'
p4332
I1
sS'18.russia'
p4333
I1
sS'1998.the'
p4334
I1
sS'midday.traders'
p4335
I1
sS'advancing'
p4336
I3
sS'autonomy'
p4337
I1
sS'rates.european'
p4338
I2
sS'answer'
p4339
I1
sS'massive'
p4340
I3
sS'minority'
p4341
I1
sS'undergoing'
p4342
I1
sS'lengthy'
p4343
I1
sS'egon'
p4344
I2
sS'gento'
p4345
I2
sS'president'
p4346
I37
sS'43,958'
p4347
I1
sS'question.on'
p4348
I1
sS'royce'
p4349
I1
sS'sat1'
p4350
I1
sS'attempt'
p4351
I11
sS'348,300'
p4352
I1
sS'vfb'
p4353
I4
sS'chemicals.the'
p4354
I1
sS'maintain'
p4355
I2
sS'capitalist'
p4356
I1
sS'operate'
p4357
I7
sS'680'
p4358
I1
sS'operations'
p4359
I15
sS'foresaw'
p4360
I1
sS'41,600'
p4361
I1
sS'soyoil'
p4362
I2
sS'718.5'
p4363
I1
sS'4.30'
p4364
I1
sS'10.1'
p4365
I2
sS'10.0'
p4366
I8
sS'10.3'
p4367
I1
sS'10.2'
p4368
I2
sS'shawnee'
p4369
I1
sS'10.4'
p4370
I1
sS'10.7'
p4371
I1
sS'5.0official'
p4372
I2
sS'personal'
p4373
I3
sS'chubais'
p4374
I1
sS'22.53'
p4375
I1
sS'better'
p4376
I17
sS'radio.trade'
p4377
I1
sS'weeks'
p4378
I11
sS'schmidt'
p4379
I7
sS'said.energy'
p4380
I1
sS'combination'
p4381
I3
sS'weakness'
p4382
I6
sS'unemployed'
p4383
I7
sS'gazprom'
p4384
I8
sS'june.but'
p4385
I1
sS'arrested'
p4386
I3
sS'victories'
p4387
I1
sS'bonn'
p4388
I60
sS'went'
p4389
I11
sS'meal'
p4390
I2
sS'mean'
p4391
I9
sS'aide'
p4392
I1
sS'milan'
p4393
I2
sS'trading'
p4394
I34
sS'clauses'
p4395
I1
sS'upstages'
p4396
I1
sS'added.rubin'
p4397
I1
sS'122.0'
p4398
I1
sS'ceros'
p4399
I1
sS'restricted'
p4400
I1
sS'crucial'
p4401
I1
sS'law.he'
p4402
I2
sS'content'
p4403
I3
sS'generics'
p4404
I3
sS'surprise'
p4405
I4
sS'sluggish'
p4406
I2
sS'turning'
p4407
I2
sS'resume'
p4408
I3
sS'11.00'
p4409
I3
sS'struggle'
p4410
I4
sS'infratest'
p4411
I3
sS'iss'
p4412
I9
sS'starts'
p4413
I2
sS'professions'
p4414
I1
sS'stoiber'
p4415
I2
sS'moving'
p4416
I6
sS'loud'
p4417
I1
sS'friday.police'
p4418
I1
sS'stewart'
p4419
I1
sS'gmt.wehmeier'
p4420
I1
sS'features'
p4421
I2
sS'economists'
p4422
I23
sS'featured'
p4423
I1
sS'83,169'
p4424
I1
sS'downside'
p4425
I2
sS'payload'
p4426
I1
sS'1993.some'
p4427
I1
sS'taiwan.after'
p4428
I1
sS'15,739'
p4429
I1
sS'sicurta'
p4430
I2
sS'vitoria'
p4431
I1
sS'recruiting'
p4432
I1
sS'restructuring.in'
p4433
I1
sS'gained'
p4434
I4
sS'adjustments.schindler'
p4435
I1
sS'alfred'
p4436
I4
sS'luftverkehrs'
p4437
I1
sS'villages'
p4438
I2
sS'somewhat'
p4439
I2
sS'begins'
p4440
I1
sS'rheinland'
p4441
I1
sS'older'
p4442
I1
sS'bitterness'
p4443
I1
sS'92.0note'
p4444
I1
sS'matter'
p4445
I3
sS'19,800'
p4446
I1
sS'0.609'
p4447
I1
sS'sees'
p4448
I7
sS'palace'
p4449
I9
sS'mind'
p4450
I1
sS'mining'
p4451
I8
sS'seed'
p4452
I1
sS'5.05'
p4453
I1
sS'seen'
p4454
I23
sS'grind'
p4455
I2
sS'seek'
p4456
I9
sS'tells'
p4457
I1
sS'5.02'
p4458
I1
sS'chest'
p4459
I2
sS'worsening'
p4460
I1
sS'moscow'
p4461
I5
sS'ulrich'
p4462
I1
sS'translator'
p4463
I1
sS'mario'
p4464
I1
sS'regular'
p4465
I8
sS'marib'
p4466
I3
sS'zealand'
p4467
I3
sS'medical'
p4468
I10
sS'm'
p4469
I3
sS'competitors'
p4470
I8
sS'points'
p4471
I118
sS'principle'
p4472
I3
sS'consumer'
p4473
I21
sS'dow'
p4474
I10
sS'1142'
p4475
I1
sS'discontent'
p4476
I1
sS'ambassador'
p4477
I6
sS'ending'
p4478
I5
sS'attempts'
p4479
I3
sS'bags.turkey'
p4480
I1
sS'sown'
p4481
I2
sS'tailspin.analysts'
p4482
I1
sS'thirds'
p4483
I6
sS'judges'
p4484
I2
sS'representing'
p4485
I1
sS'explain'
p4486
I1
sS'debts'
p4487
I2
sS'sugar'
p4488
I26
sS'canaris.he'
p4489
I1
sS'judged'
p4490
I1
sS'integrate'
p4491
I2
sS'hoare'
p4492
I3
sS'hoard'
p4493
I1
sS'wearing'
p4494
I1
sS'monica'
p4495
I1
sS'exports'
p4496
I38
sS'stop'
p4497
I2
sS'coast'
p4498
I3
sS'ebbs'
p4499
I1
sS'christopher'
p4500
I2
sS'kotenkov'
p4501
I1
sS'baw'
p4502
I1
sS'child'
p4503
I1
sS'bau'
p4504
I2
sS'sailing'
p4505
I1
sS'politician'
p4506
I1
sS'bag'
p4507
I1
sS'bad'
p4508
I10
sS'counters'
p4509
I1
sS'said.u.s'
p4510
I1
sS'66.0'
p4511
I1
sS'decides'
p4512
I2
sS'decided'
p4513
I6
sS'lives.miners'
p4514
I1
sS'encephalopathy'
p4515
I1
sS'subject'
p4516
I2
sS'brazil'
p4517
I17
sS'03'
p4518
I1
sS'00'
p4519
I12
sS'said'
p4520
I689
sS'06'
p4521
I2
sS'05'
p4522
I1
sS'summaries'
p4523
I1
sS'package.volkswagen'
p4524
I1
sS'timeframe'
p4525
I1
sS'group.sueddeutsche'
p4526
I1
sS'marks.almost'
p4527
I1
sS'tolerance'
p4528
I7
sS'points.this'
p4529
I1
sS'said.united'
p4530
I1
sS'relative'
p4531
I1
sS'triplex'
p4532
I4
sS'381'
p4533
I1
sS'384'
p4534
I1
sS'picking'
p4535
I2
sS'suggested'
p4536
I3
sS'9,115'
p4537
I2
sS'resistant'
p4538
I1
sS'uncertainty'
p4539
I5
sS'gotten'
p4540
I1
sS'und'
p4541
I10
sS'ernst'
p4542
I2
sS'contribution'
p4543
I7
sS'ludwigshafen'
p4544
I1
sS"aren't"
p4545
I1
sS'10-12'
p4546
I1
sS'appeared'
p4547
I7
sS'details.dombre'
p4548
I1
sS'kugelstadt'
p4549
I3
sS'height'
p4550
I2
sS'high.nikken'
p4551
I1
sS'initiative'
p4552
I1
sS'lyonnais'
p4553
I1
sS'loaded'
p4554
I2
sS'75651213'
p4555
I1
sS'277,443'
p4556
I1
sS'party.representatives'
p4557
I1
sS'puts'
p4558
I3
sS'basis'
p4559
I32
sS'5am.dresden'
p4560
I1
sS'10-15'
p4561
I2
sS'decision.the'
p4562
I1
sS'erect'
p4563
I1
sS'ting'
p4564
I1
sS'commission'
p4565
I3
sS'everton.but'
p4566
I1
sS'detrimental'
p4567
I1
sS'tina'
p4568
I1
sS'entered'
p4569
I1
sS'noted.german'
p4570
I1
sS'quantities'
p4571
I1
sS'argument'
p4572
I1
sS'generals'
p4573
I1
sS'personally'
p4574
I6
sS'aviation'
p4575
I2
sS'160'
p4576
I2
sS'162'
p4577
I1
sS'exception'
p4578
I2
sS'tank'
p4579
I1
sS'economies'
p4580
I1
sS'near'
p4581
I8
sS'melted'
p4582
I1
sS'itinerary'
p4583
I1
sS'16,796'
p4584
I1
sS'balance'
p4585
I6
sS'leaves'
p4586
I1
sS'project.nem'
p4587
I1
sS'said.although'
p4588
I1
sS'seven'
p4589
I11
sS'221,500'
p4590
I1
sS'mexico'
p4591
I4
sS'defeated'
p4592
I3
sS'99.30'
p4593
I3
sS'mouse'
p4594
I1
sS'ig'
p4595
I5
sS'grown'
p4596
I1
sS'overstated'
p4597
I1
sS'waging'
p4598
I2
sS'rex-10'
p4599
I1
sS'occupied'
p4600
I4
sS'make'
p4601
I35
sS'sidelined'
p4602
I3
sS'83,578'
p4603
I1
sS'details.air'
p4604
I1
sS'potentially'
p4605
I2
sS'azerbaijani'
p4606
I1
sS'vegetable'
p4607
I1
sS'sidelines'
p4608
I1
sS'capacities'
p4609
I2
sS'entitled'
p4610
I4
sS'meets'
p4611
I1
sS'turks.german'
p4612
I1
sS'dillinger'
p4613
I1
sS'helbig'
p4614
I2
sS'southeastern'
p4615
I1
sS'guilders'
p4616
I3
sS'opportunity'
p4617
I5
sS'thoughts'
p4618
I1
sS'butter'
p4619
I1
sS'55,592'
p4620
I1
sS'matter.yeltsin'
p4621
I1
sS'failing'
p4622
I3
sS'3,788'
p4623
I2
sS'materials'
p4624
I8
sS'have.the'
p4625
I3
sS'800'
p4626
I6
sS'investments'
p4627
I7
sS'2.8copper'
p4628
I1
sS'left'
p4629
I27
sS'just'
p4630
I40
sS'yen'
p4631
I7
sS'statement.it'
p4632
I2
sS'sporting'
p4633
I1
sS'1.426'
p4634
I1
sS'movements.if'
p4635
I1
sS'assigned'
p4636
I2
sS'fighters'
p4637
I1
sS'human'
p4638
I1
sS'facts'
p4639
I4
sS'yes'
p4640
I20
sS'wrote.germany'
p4641
I1
sS'buyers'
p4642
I11
sS'candidate'
p4643
I15
sS'royal'
p4644
I1
sS'3,238.41'
p4645
I2
sS'friedrich'
p4646
I2
sS'squad'
p4647
I3
sS'1997.basf'
p4648
I2
sS'harald'
p4649
I1
sS'germany.it'
p4650
I1
sS'save'
p4651
I5
sS'opt'
p4652
I1
sS'involuntary'
p4653
I1
sS'march.the'
p4654
I1
sS'background'
p4655
I3
sS'performance'
p4656
I13
sS'govt'
p4657
I2
sS'dreamt'
p4658
I1
sS'erected'
p4659
I2
sS'level.the'
p4660
I1
sS'performing'
p4661
I3
sS'503.50'
p4662
I1
sS'switching'
p4663
I2
sS'signal'
p4664
I3
sS'rates.the'
p4665
I1
sS'46.4'
p4666
I1
sS'deal'
p4667
I16
sS'deaf'
p4668
I1
sS'dead'
p4669
I5
sS'dear'
p4670
I1
sS'marks.daimler'
p4671
I1
sS'tripped'
p4672
I2
sS'ignore'
p4673
I1
sS'tracked'
p4674
I1
sS'grading'
p4675
I1
sS'investigations'
p4676
I2
sS'track'
p4677
I1
sS'conquering'
p4678
I1
sS'cuts.but'
p4679
I1
sS'bold'
p4680
I1
sS'statistician'
p4681
I6
sS'burn'
p4682
I3
sS'said.this'
p4683
I3
sS'translated'
p4684
I2
sS'paid'
p4685
I16
sS'11.dealers'
p4686
I2
sS'hike.the'
p4687
I3
sS'7,598'
p4688
I1
sS'before.fixed'
p4689
I1
sS'69,520'
p4690
I1
sS'turizm'
p4691
I1
sS'magazine'
p4692
I2
sS'afternoon'
p4693
I13
sS'underperforms'
p4694
I1
sS'64.10'
p4695
I1
sS'automatically'
p4696
I2
sS'hotly'
p4697
I1
sS'managers'
p4698
I6
sS'amounted'
p4699
I6
sS'paunch'
p4700
I1
sS'refiner'
p4701
I1
sS'intellectual'
p4702
I1
sS'amsterdam'
p4703
I3
sS'binding'
p4704
I1
sS'40,944.in'
p4705
I1
sS'39.0'
p4706
I8
sS'weather.but'
p4707
I1
sS'initial'
p4708
I8
sS'bernama'
p4709
I2
sS'influencing'
p4710
I1
sS'editor'
p4711
I2
sS'moeller.schalke'
p4712
I1
sS'bert'
p4713
I1
sS'11.28'
p4714
I2
sS'form'
p4715
I5
sS'clinics'
p4716
I1
sS'stevedores'
p4717
I2
sS'failure'
p4718
I3
sS'129,201'
p4719
I1
sS'1995.philippines'
p4720
I1
sS'lows'
p4721
I2
sS'228'
p4722
I14
sS'approval'
p4723
I2
sS'union.kinkel'
p4724
I1
sS'analyst'
p4725
I9
sS'especially'
p4726
I14
sS'esengun'
p4727
I1
sS'attached'
p4728
I1
sS'expected.the'
p4729
I1
sS'plaintiffs'
p4730
I4
sS'propaganda'
p4731
I3
sS'grenades'
p4732
I1
sS'originating'
p4733
I1
sS'strengthening'
p4734
I2
sS'covers'
p4735
I2
sS'thursday.ten'
p4736
I1
sS'1996.basf'
p4737
I1
sS'0.9overseas'
p4738
I1
sS'points.earlier'
p4739
I1
sS'helge'
p4740
I2
sS'agreeing'
p4741
I3
sS'generally'
p4742
I11
sS'salz'
p4743
I1
sS'3.9'
p4744
I4
sS'felt'
p4745
I2
sS'utilities'
p4746
I3
sS'tournament.the'
p4747
I1
sS'fell'
p4748
I30
sS'exported'
p4749
I13
sS'authorities'
p4750
I9
sS'transfers'
p4751
I2
sS'weekend'
p4752
I7
sS'died'
p4753
I29
sS'5040'
p4754
I1
sS'billion'
p4755
I121
sS'happening'
p4756
I1
sS'assume'
p4757
I3
sS'daily'
p4758
I26
sS'premiums'
p4759
I1
sS'stripping'
p4760
I1
sS'profits'
p4761
I20
sS'overdue'
p4762
I6
sS'managed'
p4763
I5
sS'manager'
p4764
I22
sS'manages'
p4765
I5
sS'37.0'
p4766
I18
sS'landesrentenbank'
p4767
I2
sS'5.65'
p4768
I1
sS'surplus'
p4769
I7
sS'103,000'
p4770
I1
sS'suicide'
p4771
I1
sS'depend'
p4772
I2
sS'tariff'
p4773
I2
sS'father'
p4774
I5
sS'0'
p4775
I22
sS'finally'
p4776
I4
sS'praised'
p4777
I1
sS'petersburg'
p4778
I1
sS'marks'
p4779
I236
sS'suffered'
p4780
I6
sS'adviser'
p4781
I1
sS"we've"
p4782
I4
sS'germany.basf'
p4783
I1
sS'springer'
p4784
I1
sS'defying'
p4785
I1
sS'word'
p4786
I3
sS'48.8jan-feb'
p4787
I1
sS'governments'
p4788
I1
sS'trended'
p4789
I1
sS'banished'
p4790
I1
sS'did'
p4791
I35
sS'die'
p4792
I6
sS'proposals'
p4793
I5
sS'democrat'
p4794
I10
sS'dip'
p4795
I1
sS'round'
p4796
I14
sS'859-1730'
p4797
I1
sS'attracting'
p4798
I2
sS'olympic'
p4799
I4
sS'12,684'
p4800
I1
sS'hagberg'
p4801
I1
sS'siedlungs'
p4802
I2
sS'dealing'
p4803
I3
sS'months.it'
p4804
I1
sS'west.germany'
p4805
I1
sS'eating'
p4806
I2
sS'semifinals'
p4807
I3
sS'targets'
p4808
I5
sS'resurgence'
p4809
I1
sS'3,080'
p4810
I3
sS'favour'
p4811
I3
sS'suspect'
p4812
I2
sS'international'
p4813
I30
sS'unrestricted'
p4814
I2
sS'filled'
p4815
I3
sS'tonne.there'
p4816
I1
sS'transportation'
p4817
I1
sS'clerk'
p4818
I1
sS'16-year'
p4819
I4
sS'wait'
p4820
I5
sS'canadian'
p4821
I1
sS'institute'
p4822
I4
sS'shift'
p4823
I3
sS'10,766'
p4824
I2
sS'steffen'
p4825
I1
sS'chris.aspin@reuters.com'
p4826
I1
sS'zoltan'
p4827
I1
sS'priceless'
p4828
I2
sS'1996.february'
p4829
I1
sS'useful'
p4830
I1
sS'merely'
p4831
I1
sS'flexibility'
p4832
I2
sS'patriots'
p4833
I1
sS'licensing'
p4834
I2
sS'ailing'
p4835
I1
sS'kleinwort'
p4836
I3
sS'2,088'
p4837
I1
sS'troops'
p4838
I1
sS'baer'
p4839
I6
sS'visit'
p4840
I11
sS'perm'
p4841
I1
sS'france'
p4842
I10
sS'scenarios'
p4843
I1
sS'francs'
p4844
I2
sS'sharpen'
p4845
I2
sS'sharing'
p4846
I1
sS'acceptable'
p4847
I1
sS'downtown'
p4848
I1
sS'bayerische'
p4849
I11
sS'ferrous'
p4850
I1
sS'enthusiasm'
p4851
I1
sS'orator'
p4852
I1
sS'effort'
p4853
I7
sS'realistic.dow'
p4854
I1
sS'fly'
p4855
I5
sS'tokyo'
p4856
I1
sS'reelected'
p4857
I1
sS'liebelt'
p4858
I2
sS'growing'
p4859
I6
sS'making'
p4860
I14
sS'claim'
p4861
I1
sS'crazy'
p4862
I3
sS'lobbying'
p4863
I3
sS'8.30'
p4864
I1
sS'agent'
p4865
I4
sS'sample'
p4866
I9
sS'konrad'
p4867
I2
sS'remanded'
p4868
I1
sS'council'
p4869
I30
sS'inflows'
p4870
I2
sS'6.10/6.25'
p4871
I1
sS'clever'
p4872
I1
sS'acquistion'
p4873
I1
sS'513,672'
p4874
I1
sS'chemical'
p4875
I35
sS'hostage'
p4876
I3
sS'sunday'
p4877
I7
sS'magyars'
p4878
I1
sS'50,300'
p4879
I1
sS'staying'
p4880
I4
sS'mar'
p4881
I4
sS'140'
p4882
I1
sS'141'
p4883
I1
sS'critics'
p4884
I6
sS'max'
p4885
I2
sS'fed'
p4886
I7
sS'helmut'
p4887
I33
sS'membership'
p4888
I1
sS'designed'
p4889
I1
sS'maj'
p4890
I6
sS'grow'
p4891
I6
sS'mast.so'
p4892
I1
sS'man'
p4893
I27
sS'scrambling'
p4894
I1
sS'hannover'
p4895
I3
sS'post.the'
p4896
I1
sS'oates'
p4897
I1
sS'11,882'
p4898
I1
sS'borrowing'
p4899
I1
sS'inhabitants'
p4900
I2
sS'switch'
p4901
I5
sS'block'
p4902
I4
sS'african'
p4903
I9
sS'tall'
p4904
I1
sS'guenther'
p4905
I2
sS'talk'
p4906
I2
sS'rabbi'
p4907
I2
sS'pointed'
p4908
I1
sS'stability'
p4909
I4
sS'back.the'
p4910
I1
sS'cuts'
p4911
I10
sS'argued'
p4912
I3
sS'48.77'
p4913
I1
sS'police'
p4914
I31
sS'thank'
p4915
I1
sS'interesting'
p4916
I1
sS'encompasses'
p4917
I2
sS'listing'
p4918
I9
sS'policy'
p4919
I18
sS'mail'
p4920
I2
sS'main'
p4921
I42
sS'landschaft'
p4922
I1
sS'texas'
p4923
I3
sS'finance'
p4924
I17
sS'janeiro'
p4925
I1
sS'rattled'
p4926
I2
sS'sooner'
p4927
I2
sS'thursday.february'
p4928
I1
sS'two.yeltsin'
p4929
I1
sS'9700'
p4930
I3
sS'killed'
p4931
I7
sS'developments'
p4932
I8
sS'14.5'
p4933
I1
sS'14.6'
p4934
I2
sS'14.1'
p4935
I2
sS'14.0'
p4936
I2
sS'14.3'
p4937
I2
sS'14.2'
p4938
I1
sS'victims.police'
p4939
I1
sS'14.9'
p4940
I1
sS'bolshevik'
p4941
I1
sS'pharmacies'
p4942
I1
sS'august.at'
p4943
I1
sS'zurich'
p4944
I10
sS'marks.walter'
p4945
I1
sS's&p'
p4946
I8
sS'numsa'
p4947
I4
sS'339,000'
p4948
I3
sS'plan.net'
p4949
I3
sS'aloof'
p4950
I2
sS'canada'
p4951
I2
sS'7.1including'
p4952
I1
sS'jackson'
p4953
I6
sS'operates'
p4954
I4
sS'building.two'
p4955
I2
sS'miles'
p4956
I2
sS'emerged'
p4957
I1
sS'dutch'
p4958
I7
sS'lows.daimler'
p4959
I1
sS'correct'
p4960
I1
sS'assurance'
p4961
I1
sS'inaction'
p4962
I1
sS'bayer'
p4963
I27
sS'47,700'
p4964
I1
sS'advance'
p4965
I6
sS'hypobankmunich'
p4966
I1
sS'language'
p4967
I4
sS'ministry'
p4968
I41
sS'3013'
p4969
I1
sS'4,687'
p4970
I1
sS'unguarded'
p4971
I1
sS'3014'
p4972
I1
sS'thing'
p4973
I14
sS'now.in'
p4974
I2
sS'think'
p4975
I16
sS'placards'
p4976
I2
sS'americans'
p4977
I1
sS'fast'
p4978
I3
sS'suspended'
p4979
I4
sS'carry'
p4980
I6
sS'discharged'
p4981
I1
sS'level.by'
p4982
I1
sS'little'
p4983
I31
sS'266,279'
p4984
I1
sS'modernise'
p4985
I1
sS'lap'
p4986
I2
sS'capacity.american'
p4987
I1
sS'moisture'
p4988
I1
sS'speaking'
p4989
I1
sS'eyes'
p4990
I1
sS'bobl'
p4991
I2
sS'26.75.local'
p4992
I1
sS'trader.the'
p4993
I1
sS'broadcast'
p4994
I4
sS'said.deutsche'
p4995
I1
sS'undoubtedly'
p4996
I2
sS'11'
p4997
I15
sS'10'
p4998
I31
sS'13'
p4999
I14
sS'12'
p5000
I29
sS'15'
p5001
I25
sS'14'
p5002
I18
sS'17'
p5003
I13
sS'16'
p5004
I16
sS'19'
p5005
I12
sS'18'
p5006
I14
sS'said.numsa'
p5007
I2
sS'protected'
p5008
I1
sS'knives'
p5009
I1
sS'venture'
p5010
I4
sS'1992.the'
p5011
I1
sS'gathering'
p5012
I1
sS'him.with'
p5013
I1
sS'350,000'
p5014
I2
sS'voices'
p5015
I2
sS'kevic'
p5016
I1
sS'nazi'
p5017
I18
sS'kevin'
p5018
I1
sS'warsaw'
p5019
I6
sS'23.apr.07'
p5020
I1
sS'speakers'
p5021
I2
sS'bavaria'
p5022
I1
sS'543,693'
p5023
I1
sS'foreigner'
p5024
I3
sS'consortium'
p5025
I8
sS'potential'
p5026
I13
sS'interior'
p5027
I8
sS'fahrinkrug'
p5028
I2
sS'1,251'
p5029
I2
sS'600,000'
p5030
I1
sS'channel'
p5031
I1
sS'1,700'
p5032
I2
sS'201'
p5033
I2
sS'200'
p5034
I7
sS'euromark'
p5035
I1
sS'normal'
p5036
I11
sS'arguing'
p5037
I3
sS'politicans'
p5038
I1
sS'friedman'
p5039
I2
sS'166,949'
p5040
I1
sS'barrage'
p5041
I2
sS'complaints'
p5042
I2
sS'commerzbank'
p5043
I6
sS'12,500'
p5044
I2
sS'2,942'
p5045
I1
sS'spoerri'
p5046
I2
sS'incisive'
p5047
I1
sS'angst'
p5048
I1
sS'marks.mirroring'
p5049
I2
sS'jumped'
p5050
I14
sS'baum.lambert'
p5051
I1
sS'licht'
p5052
I6
sS'shop'
p5053
I1
sS'rating'
p5054
I10
sS'shot'
p5055
I3
sS'filed'
p5056
I2
sS'had.rigg'
p5057
I1
sS'herbst'
p5058
I5
sS'representatives'
p5059
I1
sS'bank.call'
p5060
I1
sS'threshold'
p5061
I2
sS'2.015'
p5062
I1
sS'deposit'
p5063
I2
sS'nikken'
p5064
I2
sS'144,670'
p5065
I1
sS'manoeuvre'
p5066
I1
sS'black'
p5067
I2
sS'treasury'
p5068
I6
sS'bureau'
p5069
I1
sS'ranking'
p5070
I4
sS'said.stark'
p5071
I1
sS'hungarian'
p5072
I9
sS'6.50'
p5073
I4
sS'contracts'
p5074
I7
sS'employers'
p5075
I8
sS'repo'
p5076
I11
sS'hailed'
p5077
I2
sS'nearly'
p5078
I8
sS'team.klinsmann'
p5079
I1
sS'distinctly'
p5080
I1
sS'sited'
p5081
I1
sS'task.among'
p5082
I2
sS'ratzeburg'
p5083
I6
sS'6.6'
p5084
I2
sS'malaysian'
p5085
I3
sS'6.5'
p5086
I3
sS'yield'
p5087
I17
sS'morning'
p5088
I16
sS'6.4'
p5089
I1
sS'finishing'
p5090
I6
sS'12.6'
p5091
I4
sS'5.40'
p5092
I1
sS'declared'
p5093
I5
sS'milling'
p5094
I1
sS'emigrate'
p5095
I2
sS'12.4'
p5096
I1
sS'seat'
p5097
I3
sS'cologne'
p5098
I16
sS'declares'
p5099
I2
sS'salou'
p5100
I1
sS'calendar'
p5101
I12
sS'passengers.a'
p5102
I1
sS'airways.a'
p5103
I1
sS'satisfying'
p5104
I2
sS'forecast'
p5105
I6
sS'bombing'
p5106
I1
sS'checks'
p5107
I1
sS'infrastructure'
p5108
I2
sS'august'
p5109
I16
sS'parent'
p5110
I2
sS'jp'
p5111
I1
sS'yet.the'
p5112
I1
sS'crashes.they'
p5113
I1
sS'singers'
p5114
I1
sS'economies.herzog'
p5115
I1
sS'gauntlet'
p5116
I1
sS'jfk'
p5117
I1
sS'dates'
p5118
I2
sS'781'
p5119
I2
sS'38,077'
p5120
I1
sS'49-228-26097-150'
p5121
I3
sS'engelen'
p5122
I2
sS'trader'
p5123
I27
sS'trades'
p5124
I5
sS'according'
p5125
I17
sS'94,779'
p5126
I1
sS'blasts'
p5127
I1
sS'tour'
p5128
I4
sS'traded'
p5129
I11
sS'forecasting'
p5130
I5
sS'about.he'
p5131
I1
sS'christie'
p5132
I3
sS'said.total'
p5133
I1
sS'maintained'
p5134
I5
sS'said.many'
p5135
I1
sS'5,508'
p5136
I2
sS'nationality'
p5137
I1
sS'writing'
p5138
I2
sS'disciplinary'
p5139
I2
sS'custody'
p5140
I1
sS'considering'
p5141
I2
sS'kohl.the'
p5142
I1
sS'unusual'
p5143
I1
sS'capable'
p5144
I2
sS'services.unaudited'
p5145
I1
sS'60.98'
p5146
I2
sS'mark'
p5147
I35
sS'increase.money'
p5148
I1
sS'living'
p5149
I1
sS'industrie'
p5150
I1
sS'mary'
p5151
I1
sS'return.apart'
p5152
I1
sS'spongiform'
p5153
I1
sS'bmg'
p5154
I1
sS'trader.positive'
p5155
I3
sS'offered'
p5156
I9
sS'dramatic'
p5157
I5
sS'wake'
p5158
I3
sS'bmw'
p5159
I9
sS'62.90'
p5160
I1
sS'reality.and'
p5161
I1
sS'captivity'
p5162
I2
sS'sound'
p5163
I1
sS'klaus'
p5164
I3
sS'monday.the'
p5165
I1
sS'ongoing'
p5166
I1
sS'1100'
p5167
I1
sS'promising'
p5168
I3
sS'cancelled'
p5169
I1
sS'investigating'
p5170
I1
sS'margin'
p5171
I1
sS'versus'
p5172
I8
sS'london.june'
p5173
I1
sS'1997arabica'
p5174
I1
sS'middle'
p5175
I7
sS'sudden'
p5176
I4
sS'workers.roland'
p5177
I1
sS'to.it'
p5178
I1
sS'protein'
p5179
I2
sS'everyday'
p5180
I1
sS'2,715'
p5181
I1
sS'movements'
p5182
I2
sS'pap'
p5183
I2
sS'bags'
p5184
I80
sS'par'
p5185
I6
sS'harsh'
p5186
I5
sS'pay'
p5187
I39
sS'enquiries'
p5188
I1
sS'speech'
p5189
I3
sS'arguments'
p5190
I2
sS'fireproofing'
p5191
I1
sS'17.5'
p5192
I1
sS'deference'
p5193
I2
sS'stepped'
p5194
I2
sS'intermediary'
p5195
I1
sS'pan'
p5196
I5
sS'exhaust'
p5197
I1
sS'oil'
p5198
I23
sS'now.industry'
p5199
I1
sS'19.27/19.52'
p5200
I1
sS'blechinger'
p5201
I2
sS'running'
p5202
I1
sS'driven'
p5203
I15
sS'climbing'
p5204
I3
sS'17.a'
p5205
I1
sS'largely'
p5206
I7
sS'roughly'
p5207
I5
sS'accountable'
p5208
I2
sS'easing'
p5209
I5
sS'monet'
p5210
I1
sS'135.0'
p5211
I1
sS'money'
p5212
I36
sS'adjustments'
p5213
I2
sS'sights'
p5214
I1
sS'aspect'
p5215
I2
sS'noted.in'
p5216
I1
sS'politicians'
p5217
I5
sS'4'
p5218
I17
sS'121.5'
p5219
I1
sS'heavier'
p5220
I1
sS'88920.coffee'
p5221
I4
sS'1.05'
p5222
I2
sS'underwriting'
p5223
I4
sS'disappointed'
p5224
I2
sS'months.fierce'
p5225
I1
sS'serves'
p5226
I2
sS'facing'
p5227
I1
sS'lb.fundamentalscolombia'
p5228
I1
sS'audience'
p5229
I2
sS'collapsed.basf'
p5230
I2
sS'served'
p5231
I3
sS'escalators'
p5232
I1
sS'fulfil'
p5233
I3
sS'jews'
p5234
I9
sS'1999.the'
p5235
I1
sS'detroit'
p5236
I1
sS'ascent'
p5237
I1
sS'unfinished.with'
p5238
I1
sS'gross'
p5239
I4
sS'outs'
p5240
I1
sS'ellis'
p5241
I2
sS'confirm'
p5242
I3
sS'filling'
p5243
I2
sS'ambassador.officials'
p5244
I1
sS'critical'
p5245
I1
sS'moderate'
p5246
I4
sS'knife'
p5247
I1
sS'firms.the'
p5248
I1
sS'mediagruppe'
p5249
I1
sS'airways'
p5250
I6
sS'seconds'
p5251
I2
sS'notable'
p5252
I2
sS'broker'
p5253
I3
sS'broken'
p5254
I2
sS'90.08'
p5255
I1
sS'refers'
p5256
I1
sS'manufactures'
p5257
I1
sS'manufacturer'
p5258
I2
sS'101.325'
p5259
I1
sS'said.while'
p5260
I1
sS'island'
p5261
I1
sS'violence'
p5262
I7
sS'sustain'
p5263
I1
sS'meaning'
p5264
I1
sS'smattering'
p5265
I1
sS'airline'
p5266
I23
sS'mounting'
p5267
I7
sS'mixed'
p5268
I4
sS'512,000'
p5269
I1
sS'provisional'
p5270
I4
sS'road'
p5271
I1
sS'allowing'
p5272
I2
sS'coupon'
p5273
I12
sS'erkaban'
p5274
I2
sS'airlines'
p5275
I15
sS'oetv'
p5276
I3
sS'dreaming'
p5277
I1
sS'observance'
p5278
I1
sS'jerusalem'
p5279
I1
sS'sales.basf'
p5280
I1
sS'goal.all'
p5281
I1
sS'workers.the'
p5282
I1
sS'127.1note'
p5283
I1
sS'downed'
p5284
I3
sS'mondays'
p5285
I1
sS'labelling'
p5286
I3
sS'decisive'
p5287
I2
sS'hysterical'
p5288
I1
sS'dauber'
p5289
I1
sS'hanover'
p5290
I1
sS'unsettled'
p5291
I1
sS'pleased'
p5292
I1
sS'striker'
p5293
I2
sS'wiping'
p5294
I1
sS'versicherungswirtschaft'
p5295
I1
sS'borders'
p5296
I1
sS'belated'
p5297
I1
sS'5.80/5.95.july'
p5298
I1
sS'salzburg'
p5299
I1
sS'1997.the'
p5300
I3
sS'points.june'
p5301
I1
sS'deep'
p5302
I2
sS'general'
p5303
I44
sS'5,333'
p5304
I1
sS'examine'
p5305
I1
sS'19.10/19.34'
p5306
I2
sS'file'
p5307
I2
sS'goebbels'
p5308
I1
sS'film'
p5309
I2
sS'lannin'
p5310
I2
sS'retiring'
p5311
I2
sS'personnel'
p5312
I2
sS'309.00'
p5313
I1
sS'98.1'
p5314
I1
sS'field'
p5315
I3
sS'98.5'
p5316
I2
sS'98.7'
p5317
I1
sS'98.6'
p5318
I1
sS'98.8'
p5319
I2
sS'prise'
p5320
I1
sS'59,500'
p5321
I1
sS'4,000'
p5322
I7
sS'important'
p5323
I21
sS'years.it'
p5324
I1
sS'chris'
p5325
I1
sS'486'
p5326
I1
sS'decorated'
p5327
I2
sS'482'
p5328
I2
sS'legal'
p5329
I5
sS'britain.trade'
p5330
I1
sS'remote'
p5331
I1
sS'assets'
p5332
I7
sS'burda'
p5333
I1
sS'hugely'
p5334
I1
sS'starting'
p5335
I16
sS'represent'
p5336
I2
sS'forget'
p5337
I1
sS'founder'
p5338
I1
sS'dollar'
p5339
I31
sS'eigg'
p5340
I5
sS'founded'
p5341
I1
sS'disinvestments'
p5342
I2
sS'forged'
p5343
I1
sS'cooperative'
p5344
I1
sS'afterwards.bayern'
p5345
I1
sS'talks'
p5346
I28
sS'13,315'
p5347
I1
sS'children'
p5348
I18
sS'yugoslav'
p5349
I2
sS'57,777'
p5350
I1
sS'percent.car'
p5351
I2
sS'enjoying'
p5352
I2
sS'1,275'
p5353
I2
sS'83,328'
p5354
I1
sS'sitting'
p5355
I2
sS'8,963'
p5356
I2
sS'thyssen.under'
p5357
I1
sS'fall'
p5358
I21
sS'pigmeat'
p5359
I1
sS'celebrity'
p5360
I1
sS'456'
p5361
I1
sS'titled'
p5362
I1
sS'index.the'
p5363
I1
sS'238,647'
p5364
I1
sS'strunz'
p5365
I1
sS'30,600'
p5366
I1
sS'said.may'
p5367
I1
sS'zero'
p5368
I2
sS'42-year'
p5369
I3
sS'lawyer'
p5370
I1
sS'stood'
p5371
I11
sS'41-year'
p5372
I2
sS'26097'
p5373
I5
sS'abn'
p5374
I6
sS'abr'
p5375
I1
sS'abs'
p5376
I3
sS'tribute'
p5377
I1
sS'11.63'
p5378
I1
sS'public'
p5379
I9
sS'schaeuble'
p5380
I6
sS'outgoing'
p5381
I1
sS'26097160'
p5382
I5
sS'ranged'
p5383
I1
sS'6.75'
p5384
I1
sS'6.76'
p5385
I1
sS'ranges'
p5386
I1
sS'newspaper'
p5387
I14
sS'operating'
p5388
I5
sS'kley'
p5389
I1
sS'borimirov54'
p5390
I1
sS'search'
p5391
I1
sS'prosecutors'
p5392
I4
sS'905'
p5393
I1
sS'rise.the'
p5394
I1
sS'airport'
p5395
I27
sS'published'
p5396
I6
sS'narrow'
p5397
I1
sS'attack.the'
p5398
I3
sS'402,427'
p5399
I1
sS'arif'
p5400
I1
sS'transit'
p5401
I22
sS'africa'
p5402
I13
sS'zagging'
p5403
I1
sS'3.125'
p5404
I1
sS'armed'
p5405
I4
sS'shareholders'
p5406
I9
sS'wanted'
p5407
I16
sS'destination'
p5408
I3
sS'comparing'
p5409
I1
sS'elecitons'
p5410
I1
sS'68.95'
p5411
I1
sS'achieving'
p5412
I2
sS'statement.the'
p5413
I1
sS'162,900'
p5414
I1
sS'ratcliffe'
p5415
I3
sS'services.wolfgang'
p5416
I1
sS'particular'
p5417
I4
sS'town'
p5418
I28
sS'amro'
p5419
I7
sS'system.a'
p5420
I1
sS'hour'
p5421
I7
sS'recall'
p5422
I1
sS'der'
p5423
I3
sS'amra'
p5424
I1
sS'huge'
p5425
I3
sS'remain'
p5426
I20
sS'kassel.but'
p5427
I2
sS'dem'
p5428
I3
sS'clergy'
p5429
I1
sS'abandon'
p5430
I1
sS'dec'
p5431
I15
sS'refugee'
p5432
I1
sS'reaps'
p5433
I1
sS'purchases'
p5434
I1
sS'share'
p5435
I63
sS'69756525'
p5436
I1
sS'breathing'
p5437
I5
sS'numbers'
p5438
I17
sS'purchased'
p5439
I2
sS'sharp'
p5440
I6
sS'steffi'
p5441
I2
sS'2915'
p5442
I1
sS'narrowly'
p5443
I1
sS'pence'
p5444
I3
sS'needs'
p5445
I7
sS'awkward'
p5446
I1
sS'rye'
p5447
I3
sS'joblessness'
p5448
I1
sS'gorbachev.he'
p5449
I1
sS'csu'
p5450
I14
sS'profiting'
p5451
I1
sS'stir'
p5452
I1
sS'awakening.judging'
p5453
I1
sS'inflationary'
p5454
I4
sS'different'
p5455
I12
sS'blood'
p5456
I1
sS'coming'
p5457
I9
sS'wave'
p5458
I7
sS'response'
p5459
I7
sS'alps'
p5460
I2
sS'entry'
p5461
I1
sS'percent.the'
p5462
I5
sS'deserted'
p5463
I1
sS'coal'
p5464
I4
sS'responsibility'
p5465
I3
sS'pleasure'
p5466
I1
sS'playing'
p5467
I2
sS'infant'
p5468
I4
sS'rounded'
p5469
I1
sS'2,774'
p5470
I2
sS'3.0625'
p5471
I1
sS'setback'
p5472
I1
sS'appeals'
p5473
I2
sS'99.665'
p5474
I1
sS'daunting'
p5475
I2
sS'suffer'
p5476
I1
sS'24'
p5477
I12
sS'25'
p5478
I45
sS'26'
p5479
I22
sS'27'
p5480
I10
sS'20'
p5481
I22
sS'21'
p5482
I13
sS'lats'
p5483
I3
sS'23'
p5484
I8
sS'28'
p5485
I4
sS'29'
p5486
I7
sS'pct'
p5487
I53
sS'seasonally'
p5488
I12
sS'late'
p5489
I27
sS'thursday.the'
p5490
I3
sS'said.trafficmaster'
p5491
I1
sS'reuters'
p5492
I55
sS'forints'
p5493
I2
sS'edmund'
p5494
I1
sS'lookout'
p5495
I1
sS'freund'
p5496
I1
sS'good'
p5497
I46
sS'vandalism'
p5498
I1
sS'seeking'
p5499
I3
sS'malev'
p5500
I2
sS'friday.new'
p5501
I1
sS'struggling'
p5502
I4
sS'viewers'
p5503
I2
sS'kanther'
p5504
I1
sS'6,500'
p5505
I1
sS'namibia'
p5506
I1
sS'wimbledon'
p5507
I1
sS'lines.the'
p5508
I1
sS'breakdown'
p5509
I1
sS'harm'
p5510
I1
sS'138.0'
p5511
I1
sS'house'
p5512
I19
sS'energy'
p5513
I13
sS'hard'
p5514
I12
sS'idea'
p5515
I1
sS'connect'
p5516
I1
sS'insurance'
p5517
I38
sS'390-440'
p5518
I1
sS'birthday.the'
p5519
I1
sS'projected'
p5520
I1
sS'participants'
p5521
I3
sS'1.70'
p5522
I5
sS'1.71'
p5523
I3
sS'print'
p5524
I1
sS'west.kohl'
p5525
I1
sS'marks.car'
p5526
I1
sS'evaluation'
p5527
I2
sS'tempelhof'
p5528
I2
sS'mms'
p5529
I2
sS'mikhail'
p5530
I3
sS'sbc'
p5531
I2
sS'17.sources'
p5532
I3
sS'members'
p5533
I22
sS'23.apr.97'
p5534
I1
sS'backed'
p5535
I2
sS'beginning'
p5536
I6
sS'news.while'
p5537
I1
sS'yasser'
p5538
I1
sS'benefits'
p5539
I7
sS'89.5'
p5540
I1
sS'needing'
p5541
I1
sS'results.engelen'
p5542
I1
sS'conducted'
p5543
I3
sS'freiburg'
p5544
I5
sS'copper'
p5545
I2
sS'vagon'
p5546
I1
sS'tow'
p5547
I1
sS'56,255'
p5548
I1
sS'approximately'
p5549
I3
sS'chipboard'
p5550
I1
sS'light.fundamentalsthailand'
p5551
I1
sS'wages'
p5552
I9
sS'kok'
p5553
I3
sS'3,316.73'
p5554
I2
sS'said.hingis'
p5555
I1
sS'bund.with'
p5556
I1
sS'divorce'
p5557
I1
sS'revive'
p5558
I1
sS'philippines.as'
p5559
I1
sS'180'
p5560
I1
sS'assumption'
p5561
I1
sS'statement'
p5562
I23
sS'mama'
p5563
I2
sS'compromise'
p5564
I3
sS'park'
p5565
I1
sS'marksnote'
p5566
I1
sS'12,834'
p5567
I1
sS'doctors'
p5568
I1
sS'ago.palestinians'
p5569
I1
sS'believe'
p5570
I13
sS'peaked'
p5571
I1
sS'fort'
p5572
I1
sS'damages'
p5573
I2
sS'29,142'
p5574
I1
sS'contrary'
p5575
I2
sS'supposed'
p5576
I1
sS'wedde'
p5577
I2
sS'gruelling'
p5578
I1
sS'treated'
p5579
I1
sS'declare'
p5580
I2
sS'reinhard'
p5581
I1
sS'plead'
p5582
I1
sS'philippine'
p5583
I1
sS'mitterrand'
p5584
I2
sS'showers'
p5585
I1
sS'aged'
p5586
I2
sS'orders'
p5587
I49
sS'26,078'
p5588
I1
sS'mountain'
p5589
I3
sS'buffeted'
p5590
I2
sS'built'
p5591
I1
sS'depending'
p5592
I2
sS'gorbachev'
p5593
I2
sS'reuters.lufthansa'
p5594
I1
sS'click'
p5595
I1
sS'majority'
p5596
I7
sS'build'
p5597
I13
sS'commentary'
p5598
I1
sS'province'
p5599
I1
sS'serve'
p5600
I4
sS'eggs'
p5601
I1
sS'chart'
p5602
I2
sS'gmt.traders'
p5603
I1
sS'review.those'
p5604
I1
sS'significant'
p5605
I9
sS'services'
p5606
I22
sS'3,211.dow'
p5607
I1
sS'92.0the'
p5608
I1
sS'extremely'
p5609
I7
sS'36.7two'
p5610
I1
sS'kg'
p5611
I8
sS'verona.air'
p5612
I1
sS'hannelore'
p5613
I1
sS'87.0'
p5614
I1
sS'3,210.94'
p5615
I3
sS'liechtenstein'
p5616
I1
sS'oeffentliche'
p5617
I1
sS'weigh'
p5618
I1
sS'sector'
p5619
I23
sS'216'
p5620
I2
sS'thomas'
p5621
I3
sS'particularly'
p5622
I19
sS'rebels'
p5623
I2
sS'11,285'
p5624
I2
sS'obligations'
p5625
I4
sS'scattered'
p5626
I2
sS'burckhard'
p5627
I2
sS'businesses'
p5628
I8
sS'carefully'
p5629
I1
sS'bite.betts'
p5630
I1
sS'fine'
p5631
I1
sS'networks'
p5632
I1
sS'annually.last'
p5633
I2
sS'giant'
p5634
I18
sS'merger'
p5635
I3
sS'nervous'
p5636
I11
sS'waiting'
p5637
I2
sS'unhappy'
p5638
I3
sS'idiots'
p5639
I1
sS'override'
p5640
I5
sS'8'
p5641
I19
sS'94,458'
p5642
I1
sS'270,250'
p5643
I1
sS'express'
p5644
I6
sS'cheaper'
p5645
I3
sS'year.while'
p5646
I1
sS'195,187'
p5647
I1
sS'3.15375'
p5648
I1
sS'resolve'
p5649
I2
sS'contagious'
p5650
I1
sS'collapsed'
p5651
I1
sS'said.prosecutors'
p5652
I1
sS'coughs'
p5653
I1
sS'19.06/19.30'
p5654
I1
sS'common'
p5655
I3
sS'allocations'
p5656
I3
sS'nominate'
p5657
I3
sS'49-228-26097160'
p5658
I3
sS'17.89'
p5659
I1
sS'209,061'
p5660
I1
sS'tended'
p5661
I1
sS'lion'
p5662
I1
sS'individual'
p5663
I3
sS'surrendered'
p5664
I3
sS'6701'
p5665
I1
sS'forthcoming'
p5666
I2
sS'feared'
p5667
I4
sS'repairs'
p5668
I1
sS'visiting'
p5669
I1
sS'electoral'
p5670
I6
sS'admitted.seles'
p5671
I1
sS'fans'
p5672
I4
sS'year.international'
p5673
I1
sS'zmp.rapeseed'
p5674
I1
sS'baytown'
p5675
I7
sS'seeded'
p5676
I2
sS'ploetz'
p5677
I3
sS'responses'
p5678
I1
sS'complementary'
p5679
I1
sS'aircraft'
p5680
I6
sS'wechselbank'
p5681
I1
sS'1998.last'
p5682
I1
sS'16.25'
p5683
I5
sS'reverse'
p5684
I1
sS'annual'
p5685
I18
sS'16.28'
p5686
I1
sS'foreign'
p5687
I46
sS'friday.among'
p5688
I1
sS'point'
p5689
I22
sS'simple'
p5690
I1
sS'recycling'
p5691
I1
sS'asparagus.it'
p5692
I1
sS'simply'
p5693
I3
sS'internationally.they'
p5694
I1
sS'expensive'
p5695
I5
sS'value.the'
p5696
I1
sS'create'
p5697
I12
sS'rivals'
p5698
I6
sS'ensured'
p5699
I1
sS'said.the'
p5700
I28
sS'come.key'
p5701
I1
sS'meeting'
p5702
I39
sS'99.15'
p5703
I1
sS'93.4note'
p5704
I1
sS'gas'
p5705
I32
sS'gap'
p5706
I6
sS'understand'
p5707
I2
sS'prices'
p5708
I44
sS'336,731'
p5709
I1
sS'bild'
p5710
I5
sS'necmettin'
p5711
I8
sS'grains'
p5712
I4
sS'talking'
p5713
I4
sS'solid'
p5714
I4
sS'elections'
p5715
I3
sS'bochum'
p5716
I7
sS'hofgastein.there'
p5717
I1
sS'ivorian'
p5718
I1
sS'century'
p5719
I5
sS'cents'
p5720
I26
sS'encountered'
p5721
I1
sS'move.karl'
p5722
I1
sS'stubbornly'
p5723
I1
sS'friday.marcel'
p5724
I1
sS'limit'
p5725
I2
sS'italy'
p5726
I7
sS'airbags'
p5727
I3
sS'percent.money'
p5728
I1
sS'45,126'
p5729
I1
sS'said.industrial'
p5730
I2
sS'development'
p5731
I10
sS'currencies'
p5732
I5
sS'yesterday'
p5733
I5
sS'moment'
p5734
I11
sS'parliamentarian'
p5735
I2
sS'task'
p5736
I5
sS'0.687'
p5737
I1
sS'spent'
p5738
I4
sS'5.86'
p5739
I1
sS'withdraw'
p5740
I1
sS'1617'
p5741
I1
sS'swiss'
p5742
I7
sS'organization'
p5743
I3
sS'signalled'
p5744
I1
sS'spend'
p5745
I3
sS'echoing'
p5746
I3
sS'1960'
p5747
I3
sS'profoundly'
p5748
I1
sS'shape'
p5749
I1
sS'openly'
p5750
I3
sS'alternative'
p5751
I1
sS'demand.fob'
p5752
I1
sS'injuries'
p5753
I6
sS'wage'
p5754
I31
sS'said.muentefering'
p5755
I1
sS'impetus'
p5756
I2
sS'cut'
p5757
I28
sS'complementary.schindler'
p5758
I1
sS'cup'
p5759
I13
sS'vague'
p5760
I2
sS'source'
p5761
I13
sS'tonnes.italy'
p5762
I1
sS'snap'
p5763
I1
sS'easter'
p5764
I18
sS'heidelberg'
p5765
I1
sS'inhaberschreibung'
p5766
I1
sS'haigerseelbach'
p5767
I7
sS'big'
p5768
I11
sS'bid'
p5769
I9
sS'returns.but'
p5770
I1
sS'judgement'
p5771
I1
sS'matters'
p5772
I1
sS'foreigners'
p5773
I6
sS'102,000'
p5774
I1
sS'bit'
p5775
I16
sS'semi'
p5776
I4
sS'hardy'
p5777
I1
sS'follows'
p5778
I3
sS'4.75'
p5779
I1
sS'conference.but'
p5780
I1
sS'indication'
p5781
I10
sS'jolted'
p5782
I3
sS'1414'
p5783
I1
sS'30.apr.97'
p5784
I2
sS'absolutely'
p5785
I2
sS'2,756'
p5786
I1
sS'extremist'
p5787
I1
sS'strongest'
p5788
I4
sS'pricing'
p5789
I2
sS'10.928'
p5790
I1
sS'lars'
p5791
I1
sS'scale'
p5792
I2
sS'contacts'
p5793
I2
sS'pet'
p5794
I1
sS'affects'
p5795
I1
sS'decision'
p5796
I35
sS'integration'
p5797
I7
sS'connecting'
p5798
I1
sS'lard'
p5799
I1
sS'pele'
p5800
I1
sS'nose'
p5801
I1
sS'308'
p5802
I2
sS'30.apr.98'
p5803
I2
sS'chartists'
p5804
I1
sS'300'
p5805
I4
sS'302'
p5806
I1
sS'paribas'
p5807
I1
sS'continuing'
p5808
I3
sS'physique.as'
p5809
I1
sS'3.0semi-finished'
p5810
I1
sS'added.american'
p5811
I2
sS'123.85'
p5812
I2
sS'hostages'
p5813
I4
sS'lottery'
p5814
I1
sS'newslatter'
p5815
I1
sS'goods'
p5816
I45
sS'consumption'
p5817
I2
sS'5,100'
p5818
I1
sS'conciliatory'
p5819
I1
sS'drama'
p5820
I2
sS'piled'
p5821
I2
sS'ounce'
p5822
I1
sS'consequently'
p5823
I2
sS'medallist'
p5824
I4
sS'retailer'
p5825
I1
sS'martinez'
p5826
I1
sS'neutrality'
p5827
I1
sS'pullbacks'
p5828
I1
sS'steven'
p5829
I1
sS'realisation'
p5830
I1
sS'1.243'
p5831
I1
sS'pharmaceuticals'
p5832
I7
sS'1.50'
p5833
I2
sS'pared'
p5834
I2
sS'infected'
p5835
I2
sS'manifested'
p5836
I1
sS'illness.in'
p5837
I1
sS'forward'
p5838
I4
sS'1.58'
p5839
I1
sS'translate'
p5840
I1
sS'5.0zinc'
p5841
I1
sS'opponent'
p5842
I1
sS'sdp'
p5843
I5
sS'attack.but'
p5844
I1
sS'triest'
p5845
I1
sS'stunning'
p5846
I1
sS'hoped'
p5847
I4
sS'harvested.farmers'
p5848
I1
sS'hopes'
p5849
I3
sS'subsidiary'
p5850
I11
sS'6,389'
p5851
I1
sS'said.one'
p5852
I1
sS'257,036'
p5853
I1
sS'planes'
p5854
I1
sS'ag.trafficmaster'
p5855
I1
sS'marks.that'
p5856
I1
sS'constant'
p5857
I2
sS'flow'
p5858
I2
sS'single'
p5859
I14
sS'parliament'
p5860
I11
sS'1993.on'
p5861
I1
sS'trade.by'
p5862
I1
sS'entertainment.financial'
p5863
I1
sS'ferihegy'
p5864
I4
sS'chamber'
p5865
I2
sS'explaining'
p5866
I1
sS'intensifies'
p5867
I1
sS'favourite'
p5868
I1
sS'prepared'
p5869
I5
sS'intensified'
p5870
I1
sS'prepares'
p5871
I1
sS'entertaining'
p5872
I1
sS'12,813'
p5873
I1
sS'statesman'
p5874
I1
sS'vehicles'
p5875
I6
sS'2002'
p5876
I1
sS'2000'
p5877
I8
sS'implied'
p5878
I4
sS'presenting'
p5879
I1
sS'rallies'
p5880
I2
sS'3,301.91'
p5881
I3
sS'currency.his'
p5882
I1
sS'crofters'
p5883
I1
sS'43.4'
p5884
I1
sS'15,007'
p5885
I1
sS'15,000'
p5886
I1
sS'64.56'
p5887
I1
sS'breached'
p5888
I4
sS'vietnamese'
p5889
I1
sS'said.political'
p5890
I1
sS'intensive'
p5891
I1
sS'3,807,136'
p5892
I1
sS'blaze'
p5893
I10
sS'atlas'
p5894
I1
sS'maryland'
p5895
I1
sS'pleasing'
p5896
I1
sS'bottomed'
p5897
I1
sS'jakob'
p5898
I1
sS'evaluation.on'
p5899
I1
sS'automotive'
p5900
I2
sS'implicitly'
p5901
I1
sS'unbeaten'
p5902
I1
sS'putting'
p5903
I5
sS'korea'
p5904
I2
sS'clement'
p5905
I1
sS'severely'
p5906
I4
sS'recreation'
p5907
I2
sS'1995.the'
p5908
I1
sS'suitor.german'
p5909
I1
sS'32.60/33.00'
p5910
I2
sS'interpretations'
p5911
I1
sS'board.the'
p5912
I1
sS'shock'
p5913
I1
sS'tuesday.lufthansa'
p5914
I1
sS'2,464'
p5915
I1
sS'naira'
p5916
I2
sS'93.5'
p5917
I1
sS'moment.one'
p5918
I1
sS'may.the'
p5919
I1
sS'crop'
p5920
I17
sS'murat'
p5921
I1
sS'repurchased'
p5922
I1
sS'carlo'
p5923
I1
sS'chicago'
p5924
I5
sS'giving'
p5925
I4
sS'assisted'
p5926
I1
sS'access'
p5927
I1
sS'banners.turkish'
p5928
I1
sS'body'
p5929
I1
sS'exchange'
p5930
I12
sS'wednesday.according'
p5931
I1
sS'440'
p5932
I2
sS'1331'
p5933
I1
sS'1330'
p5934
I6
sS'jointly'
p5935
I3
sS'objects'
p5936
I1
sS'widening'
p5937
I2
sS'7706'
p5938
I22
sS'39'
p5939
I2
sS'38'
p5940
I7
sS'33'
p5941
I4
sS'32'
p5942
I4
sS'31'
p5943
I21
sS'30'
p5944
I32
sS'37'
p5945
I9
sS'36'
p5946
I9
sS'35'
p5947
I4
sS'34'
p5948
I4
sS'resurrect'
p5949
I1
sS'weekday'
p5950
I1
sS'4.90'
p5951
I1
sS'climb'
p5952
I10
sS'named'
p5953
I10
sS'arafat'
p5954
I4
sS'private'
p5955
I7
sS'system.but'
p5956
I1
sS'scandal'
p5957
I1
sS'gateway'
p5958
I1
sS'1,239'
p5959
I2
sS'butler'
p5960
I2
sS'policy.many'
p5961
I1
sS'99.782'
p5962
I1
sS'24.75'
p5963
I1
sS'46,229'
p5964
I1
sS'trait'
p5965
I1
sS'trail'
p5966
I1
sS'2,922'
p5967
I2
sS'2,250'
p5968
I1
sS'allianz'
p5969
I30
sS'tearing'
p5970
I1
sS'iii'
p5971
I1
sS'subscription'
p5972
I1
sS'account'
p5973
I5
sS'biztosito'
p5974
I1
sS'f'
p5975
I3
sS'1995.lange'
p5976
I1
sS'0800'
p5977
I1
sS'16.01'
p5978
I1
sS'erwin'
p5979
I1
sS'havcilik'
p5980
I1
sS'praise'
p5981
I1
sS'closing'
p5982
I5
sS'decoupled'
p5983
I3
sS'may.raw'
p5984
I1
sS'15.45'
p5985
I1
sS'reserves'
p5986
I10
sS'wiesheu'
p5987
I1
sS'employs'
p5988
I1
sS'1,499'
p5989
I2
sS'maturities'
p5990
I2
sS'andersen'
p5991
I1
sS'daring'
p5992
I1
sS'25.apr.97'
p5993
I1
sS'develpoment'
p5994
I1
sS'holds'
p5995
I5
sS'inquiry.farmers'
p5996
I1
sS'regions'
p5997
I2
sS'trieste'
p5998
I2
sS'responsibilities'
p5999
I1
sS'lutfu'
p6000
I1
sS'said.but'
p6001
I1
sS'stock'
p6002
I17
sS'profile'
p6003
I5
sS'buildings'
p6004
I4
sS'highs'
p6005
I7
sS'luigi'
p6006
I1
sS'1.895'
p6007
I1
sS'collection'
p6008
I1
sS'conchita'
p6009
I1
sS'said.walk'
p6010
I1
sS'drape'
p6011
I1
sS'chasing'
p6012
I1
sS'1998.bayer'
p6013
I1
sS'lindermayer'
p6014
I1
sS'lines'
p6015
I5
sS'941'
p6016
I1
sS'chief'
p6017
I25
sS'10-day'
p6018
I2
sS'furious'
p6019
I1
sS'800,000'
p6020
I1
sS'wahlen'
p6021
I2
sS'announcement.party'
p6022
I1
sS'symbols'
p6023
I2
sS'agf'
p6024
I2
sS'agricultural'
p6025
I1
sS'tiedtke'
p6026
I1
sS'industries'
p6027
I8
sS'zeyer'
p6028
I1
sS'revived'
p6029
I1
sS'lb'
p6030
I25
sS'acres'
p6031
I3
sS'raba'
p6032
I1
sS'whites'
p6033
I3
sS'12.07'
p6034
I1
sS'market.if'
p6035
I1
sS'friday.the'
p6036
I2
sS'dag'
p6037
I2
sS'greater'
p6038
I1
sS'cutting'
p6039
I5
sS'insisting'
p6040
I4
sS'dax'
p6041
I66
sS'day'
p6042
I54
sS'february'
p6043
I79
sS'19.22/19.46'
p6044
I1
sS'warned'
p6045
I6
sS'identified'
p6046
I1
sS'berliner'
p6047
I5
sS'slipping'
p6048
I1
sS'challenges.in'
p6049
I1
sS'3,000'
p6050
I2
sS'lfa'
p6051
I3
sS'kefer'
p6052
I3
sS'day.the'
p6053
I2
sS'slumped'
p6054
I3
sS'programmes'
p6055
I2
sS'salesman'
p6056
I1
sS'rex'
p6057
I3
sS'260,000'
p6058
I2
sS'announcer'
p6059
I1
sS'announces'
p6060
I5
sS'defend'
p6061
I3
sS'wholly'
p6062
I2
sS'barley'
p6063
I1
sS'grebe'
p6064
I9
sS'rem'
p6065
I2
sS'postpone'
p6066
I2
sS'red'
p6067
I2
sS'franc'
p6068
I1
sS'approached'
p6069
I1
sS'fluctuates'
p6070
I1
sS'pharmaceutical'
p6071
I2
sS'payroll'
p6072
I6
sS'group.unforeseen'
p6073
I1
sS'clarify'
p6074
I1
sS'franz'
p6075
I9
sS'receipts'
p6076
I1
sS'allies'
p6077
I7
sS'1430'
p6078
I1
sS'14-1/2'
p6079
I1
sS'retain'
p6080
I1
sS'retail'
p6081
I10
sS'south'
p6082
I31
sS'serviceplan'
p6083
I3
sS'plastics'
p6084
I7
sS'braced'
p6085
I3
sS'2,001'
p6086
I1
sS'2,000'
p6087
I4
sS'strategic'
p6088
I3
sS'improvements'
p6089
I2
sS'reached'
p6090
I22
sS'wednesday.helge'
p6091
I1
sS'intermediate'
p6092
I13
sS'strikes.elsewhere'
p6093
I1
sS'christians.they'
p6094
I1
sS'plantings'
p6095
I3
sS'10,818'
p6096
I1
sS'explanation'
p6097
I2
sS'acquire'
p6098
I2
sS'environmental'
p6099
I3
sS'spiegel'
p6100
I4
sS'resist'
p6101
I1
sS'slack'
p6102
I1
sS'0851'
p6103
I1
sS'compensation'
p6104
I4
sS'doctorate'
p6105
I1
sS'interrupted'
p6106
I1
sS'38.1'
p6107
I1
sS'comfortably'
p6108
I2
sS'unlikely'
p6109
I4
sS'countryman'
p6110
I1
sS'percent.all'
p6111
I1
sS'acceleration'
p6112
I2
sS'press.allianz'
p6113
I1
sS'dallas'
p6114
I5
sS'mid'
p6115
I6
sS'1.38'
p6116
I1
sS'1.39'
p6117
I2
sS'320'
p6118
I3
sS'concerns'
p6119
I3
sS'327'
p6120
I1
sS'provoked'
p6121
I1
sS'1.31'
p6122
I1
sS'1.34'
p6123
I1
sS'1.35'
p6124
I2
sS'1.37'
p6125
I1
sS'unless'
p6126
I5
sS'worthley'
p6127
I4
sS'procure'
p6128
I1
sS'preliminary'
p6129
I2
sS'212-7'
p6130
I1
sS'payment'
p6131
I6
sS'beets'
p6132
I1
sS'enthusiastic'
p6133
I3
sS'gather'
p6134
I2
sS'request'
p6135
I2
sS'disease'
p6136
I6
sS'1,000'
p6137
I5
sS'2.4overseas'
p6138
I1
sS'occasion'
p6139
I2
sS'normally'
p6140
I1
sS'attacks.germany'
p6141
I1
sS'selection'
p6142
I1
sS'33.10/33.50'
p6143
I1
sS'supported'
p6144
I4
sS'share.two'
p6145
I1
sS'portfolio'
p6146
I4
sS'thicker'
p6147
I1
sS'staff'
p6148
I9
sS'matisse'
p6149
I1
sS'controls'
p6150
I1
sS'unable'
p6151
I2
sS'a310'
p6152
I1
sS'communist'
p6153
I6
sS'mechanism.the'
p6154
I1
sS'a319'
p6155
I1
sS'349.85'
p6156
I1
sS'regularly'
p6157
I6
sS'476,688'
p6158
I1
sS'polyurethane'
p6159
I4
sS'exceptional'
p6160
I3
sS'beat'
p6161
I5
sS'369'
p6162
I1
sS'bear'
p6163
I2
sS'divisions'
p6164
I4
sS'reinsurance'
p6165
I3
sS'bean'
p6166
I1
sS'occupant'
p6167
I1
sS'deputies'
p6168
I2
sS'thrives'
p6169
I1
sS'areas'
p6170
I6
sS'monopoly'
p6171
I1
sS'teams'
p6172
I3
sS"wasn't"
p6173
I2
sS'mercedes'
p6174
I1
sS'tightening'
p6175
I3
sS'cycles'
p6176
I2
sS'national'
p6177
I24
sS'dlrs/100'
p6178
I2
sS'greece'
p6179
I1
sS'36.5'
p6180
I2
sS'36.4'
p6181
I2
sS'36.7'
p6182
I4
sS'36.0'
p6183
I4
sS'36.3'
p6184
I2
sS'bargains'
p6185
I2
sS'turks'
p6186
I24
sS'reform'
p6187
I16
sS'president.herzog'
p6188
I1
sS'difficulties'
p6189
I1
sS'bruno'
p6190
I1
sS'routine'
p6191
I1
sS'progress'
p6192
I2
sS'wembley'
p6193
I1
sS'rueck'
p6194
I1
sS'profit.didier'
p6195
I1
sS'colombian'
p6196
I2
sS'implementing'
p6197
I1
sS'trogen'
p6198
I2
sS'joke'
p6199
I1
sS'taking'
p6200
I16
sS'luftwaffe'
p6201
I2
sS'attributed'
p6202
I2
sS'trips'
p6203
I1
sS'fulfilled'
p6204
I4
sS'anacafe'
p6205
I2
sS'labour.the'
p6206
I1
sS'102,900'
p6207
I1
sS'regimes'
p6208
I1
sS'comment'
p6209
I12
sS'detailed'
p6210
I2
sS'56.7'
p6211
I1
sS'54,174'
p6212
I1
sS'marks.bertelsmann'
p6213
I1
sS'deflected'
p6214
I1
sS'thyssen'
p6215
I13
sS'hatred.turkey'
p6216
I1
sS'7095'
p6217
I1
sS'prince'
p6218
I1
sS'indicators'
p6219
I2
sS'upbeat'
p6220
I7
sS'old.sat1'
p6221
I1
sS'foes'
p6222
I1
sS'460'
p6223
I1
sS'al'
p6224
I1
sS'bulk'
p6225
I4
sS'98,100'
p6226
I1
sS'3,215'
p6227
I1
sS'nosedived'
p6228
I1
sS'3,211'
p6229
I1
sS'fellow'
p6230
I5
sS'lebanese'
p6231
I1
sS'multi'
p6232
I1
sS'imbalance'
p6233
I1
sS'23.17'
p6234
I2
sS'134,117'
p6235
I1
sS'7-3'
p6236
I1
sS'appearance'
p6237
I1
sS'7-6'
p6238
I1
sS'value'
p6239
I17
sS'6.05/6.30'
p6240
I1
sS'reais'
p6241
I1
sS'promoted'
p6242
I3
sS'24,200'
p6243
I1
sS'conference.new'
p6244
I1
sS'helped'
p6245
I10
sS'partner'
p6246
I9
sS'inspector'
p6247
I1
sS'tumbled'
p6248
I5
sS'productivity'
p6249
I2
sS'99.80'
p6250
I1
sS'30/360'
p6251
I1
sS'7.40'
p6252
I1
sS'orthodox'
p6253
I1
sS'administration'
p6254
I1
sS'tumbling'
p6255
I3
sS'casualty'
p6256
I1
sS'n.c.capital'
p6257
I1
sS'said.he'
p6258
I3
sS'tribemen'
p6259
I1
sS'dmitry'
p6260
I1
sS'injured'
p6261
I16
sS'reporting'
p6262
I9
sS'sauna'
p6263
I1
sS'takers'
p6264
I2
sS'judgment'
p6265
I1
sS'insure'
p6266
I1
sS'10.7/12.5'
p6267
I1
sS'kidnappings'
p6268
I1
sS'builder'
p6269
I1
sS'4017'
p6270
I2
sS'overshadowed'
p6271
I1
sS'antonio'
p6272
I1
sS'thought'
p6273
I9
sS'procurement'
p6274
I1
sS'govern'
p6275
I2
sS'sets'
p6276
I1
sS'position'
p6277
I10
sS'arising'
p6278
I2
sS'usual'
p6279
I5
sS'stores'
p6280
I1
sS'executive'
p6281
I9
sS'domestic'
p6282
I52
sS'underlying'
p6283
I4
sS'seats'
p6284
I5
sS'dakota'
p6285
I1
sS'tone'
p6286
I2
sS'1,121,078'
p6287
I1
sS'adv'
p6288
I28
sS'ads'
p6289
I2
sS'affections'
p6290
I1
sS'close.while'
p6291
I1
sS'rebate'
p6292
I1
sS'muranyi'
p6293
I1
sS'add'
p6294
I9
sS'280'
p6295
I2
sS'hurry'
p6296
I2
sS'landlords.german'
p6297
I1
sS'match'
p6298
I13
sS'gmt'
p6299
I36
sS'creutzfeldt'
p6300
I1
sS'1,610'
p6301
I1
sS'1,612'
p6302
I1
sS'israel.thayer'
p6303
I1
sS'phenom'
p6304
I1
sS'broking'
p6305
I3
sS'mahathir'
p6306
I1
sS'string'
p6307
I1
sS'motorola'
p6308
I1
sS'like'
p6309
I25
sS'success'
p6310
I10
sS'admitted'
p6311
I2
sS'kuala'
p6312
I2
sS'204,300'
p6313
I1
sS'2000.bayer'
p6314
I1
sS'praecipuum'
p6315
I6
sS'marks.asked'
p6316
I2
sS'soft'
p6317
I1
sS'italian'
p6318
I9
sS'ashgabat'
p6319
I1
sS'authority'
p6320
I4
sS'bundesobligationen'
p6321
I1
sS'recommendation'
p6322
I1
sS'supportive'
p6323
I1
sS'moenchengladbach'
p6324
I8
sS'happens'
p6325
I1
sS'turkmenistan'
p6326
I1
sS'0.25'
p6327
I1
sS'0.26'
p6328
I1
sS'0.20'
p6329
I1
sS'0.22'
p6330
I1
sS'3,200.but'
p6331
I1
sS'31,100'
p6332
I1
sS'ralf'
p6333
I4
sS'ft.worth'
p6334
I1
sS'kidnappers'
p6335
I1
sS'1.6744/54'
p6336
I1
sS'islander'
p6337
I1
sS'noise'
p6338
I2
sS'slight'
p6339
I7
sS'lieutenant'
p6340
I2
sS'host'
p6341
I1
sS'expire'
p6342
I2
sS'marketable'
p6343
I1
sS'preventative'
p6344
I1
sS'reoffer'
p6345
I5
sS'beef'
p6346
I2
sS'1997raw'
p6347
I1
sS'sudholt'
p6348
I3
sS'legendary'
p6349
I1
sS'bank.de'
p6350
I1
sS'introduced'
p6351
I5
sS'rebounded'
p6352
I1
sS'arson.on'
p6353
I1
sS'copperplate'
p6354
I2
sS'terry'
p6355
I1
sS'3,024'
p6356
I1
sS'billions'
p6357
I5
sS'chemists'
p6358
I1
sS'tackle'
p6359
I5
sS'guard'
p6360
I1
sS'female'
p6361
I2
sS'midfielder'
p6362
I4
sS'1987'
p6363
I3
sS'1982'
p6364
I8
sS'3211'
p6365
I1
sS'3212'
p6366
I1
sS'rushed'
p6367
I2
sS'1988'
p6368
I1
sS'awarded'
p6369
I2
sS'france.the'
p6370
I1
sS'2.0two'
p6371
I1
sS'turkey.the'
p6372
I1
sS'biggest'
p6373
I16
sS'relishing'
p6374
I2
sS'ivory'
p6375
I1
sS'buy'
p6376
I11
sS'instead.feed'
p6377
I1
sS'insurer'
p6378
I4
sS'problem.on'
p6379
I1
sS'565'
p6380
I2
sS'566'
p6381
I1
sS'repeated'
p6382
I1
sS'matters.media'
p6383
I1
sS'dax-30'
p6384
I1
sS'glory'
p6385
I1
sS'dangerous'
p6386
I1
sS'4,293'
p6387
I2
sS'knoop'
p6388
I1
sS'minutes'
p6389
I1
sS'penetrating'
p6390
I3
sS'replying'
p6391
I1
sS'time.he'
p6392
I1
sS'deaths'
p6393
I4
sS'exceeded'
p6394
I1
sS'7.8refined'
p6395
I1
sS'periods'
p6396
I5
sS'commentators'
p6397
I8
sS'pit'
p6398
I1
sS'proceeds'
p6399
I3
sS'pantaenius'
p6400
I4
sS'month.annan'
p6401
I1
sS'1,432,643'
p6402
I1
sS'48'
p6403
I6
sS'49'
p6404
I78
sS'46'
p6405
I1
sS'47'
p6406
I3
sS'44'
p6407
I53
sS'45'
p6408
I2
sS'42'
p6409
I7
sS'mortimer'
p6410
I1
sS'40'
p6411
I10
sS'41'
p6412
I9
sS'conference.several'
p6413
I1
sS'motoren'
p6414
I1
sS'mertens'
p6415
I1
sS'ubs'
p6416
I4
sS'bundle'
p6417
I2
sS'24,000'
p6418
I3
sS'prevalent'
p6419
I2
sS'resolution'
p6420
I3
sS'32-year'
p6421
I1
sS'hikes'
p6422
I3
sS'479/489'
p6423
I1
sS'accidents'
p6424
I3
sS'sveta'
p6425
I1
sS'limited'
p6426
I11
sS'comparatively'
p6427
I1
sS'destroyed'
p6428
I3
sS'investment.the'
p6429
I1
sS'facilities'
p6430
I1
sS'appetite'
p6431
I2
sS'undisputed'
p6432
I2
sS'1.15'
p6433
I1
sS'1.12'
p6434
I1
sS'1.10'
p6435
I3
sS'paris'
p6436
I4
sS'wilkhahn'
p6437
I1
sS'year.orders'
p6438
I1
sS'mwb'
p6439
I1
sS'341'
p6440
I1
sS'343'
p6441
I1
sS'pride'
p6442
I1
sS'million.this'
p6443
I1
sS'divergent'
p6444
I1
sS'applied'
p6445
I1
sS'risk'
p6446
I8
sS'rise'
p6447
I70
sS'encounter'
p6448
I1
sS'adenauer'
p6449
I2
sS'hypothekenbank'
p6450
I4
sS'calif'
p6451
I2
sS'results.rival'
p6452
I1
sS'guiding'
p6453
I1
sS'statement.deutsche'
p6454
I1
sS'glued'
p6455
I1
sS'enjoy'
p6456
I1
sS'leaders'
p6457
I14
sS'estimates'
p6458
I6
sS'direct'
p6459
I13
sS'nail'
p6460
I1
sS'surrounding'
p6461
I2
sS'street'
p6462
I34
sS'borrowings'
p6463
I4
sS'friendships'
p6464
I1
sS'estimated'
p6465
I4
sS'blue'
p6466
I15
sS'beaten'
p6467
I2
sS'profitability'
p6468
I1
sS'supplier'
p6469
I2
sS'supplies'
p6470
I4
sS'seeks'
p6471
I2
sS'92,640'
p6472
I1
sS'kicked'
p6473
I3
sS'379,026'
p6474
I1
sS'hundreds'
p6475
I1
sS'percent.economists'
p6476
I1
sS'path'
p6477
I2
sS'levels.clement'
p6478
I1
sS'forum'
p6479
I1
sS'auction'
p6480
I3
sS'borussia'
p6481
I11
sS'30-share'
p6482
I9
sS'museums'
p6483
I2
sS'tv'
p6484
I1
sS'wdr'
p6485
I1
sS'analysts'
p6486
I31
sS'generali'
p6487
I2
sS'weakens'
p6488
I1
sS'changes'
p6489
I18
sS'punishment'
p6490
I2
sS'96/97'
p6491
I1
sS'offs'
p6492
I2
sS'canola'
p6493
I1
sS'kniola'
p6494
I3
sS'conservatives'
p6495
I2
sS'julia'
p6496
I1
sS'feelings'
p6497
I2
sS'5,708'
p6498
I2
sS'accident.transport'
p6499
I1
sS'tuesday.1'
p6500
I1
sS'100.782'
p6501
I1
sS'hospital'
p6502
I3
sS'tenders'
p6503
I1
sS'thursdays'
p6504
I1
sS'noting'
p6505
I4
sS'asset'
p6506
I10
sS'm3'
p6507
I1
sS'25th'
p6508
I1
sS'assessment'
p6509
I3
sS'a-319'
p6510
I1
sS'excellent'
p6511
I1
sS'anatoly'
p6512
I1
sS'outdated'
p6513
I2
sS'shoot'
p6514
I1
sS'join'
p6515
I4
sS'mn'
p6516
I47
sS'conc'
p6517
I6
sS'install'
p6518
I1
sS'mr'
p6519
I2
sS'shook'
p6520
I1
sS'botha'
p6521
I2
sS'53.7'
p6522
I1
sS'seat.government'
p6523
I1
sS'coonan'
p6524
I4
sS'scheduling'
p6525
I1
sS'attract'
p6526
I3
sS'guarantee'
p6527
I3
sS'ceremony'
p6528
I2
sS'end'
p6529
I48
sS'bund'
p6530
I35
sS'returning'
p6531
I3
sS'audiences.with'
p6532
I1
sS'148,012'
p6533
I1
sS'accusations'
p6534
I4
sS'cent.brazil'
p6535
I1
sS'dietrich'
p6536
I2
sS'demanding'
p6537
I1
sS'polycarbonate'
p6538
I2
sS'jumping'
p6539
I3
sS'burly'
p6540
I1
sS'bremen.the'
p6541
I1
sS'amid'
p6542
I14
sS'1995-2000'
p6543
I1
sS'reuters.spd'
p6544
I1
sS'upside'
p6545
I5
sS"ja'afar"
p6546
I1
sS'ago.but'
p6547
I1
sS'interpretation'
p6548
I2
sS'46,229sales'
p6549
I2
sS'expects'
p6550
I18
sS'2.6'
p6551
I10
sS'london'
p6552
I37
sS'reformers'
p6553
I1
sS'eu.earlier'
p6554
I1
sS'borneo'
p6555
I1
sS'expectations'
p6556
I15
sS'embalmed'
p6557
I1
sS'16.7'
p6558
I2
sS'16.6'
p6559
I2
sS'16.4'
p6560
I1
sS'16.3'
p6561
I1
sS'16.2'
p6562
I1
sS'400'
p6563
I5
sS'goose'
p6564
I1
sS'centimetre'
p6565
I1
sS'16.8'
p6566
I1
sS'ftse'
p6567
I1
sS'tourist'
p6568
I2
sS'said.an'
p6569
I1
sS'gloom'
p6570
I1
sS'30-year'
p6571
I4
sS'netherlands'
p6572
I11
sS'116.9'
p6573
I1
sS'potatoes'
p6574
I1
sS'116.2'
p6575
I1
sS'693,546'
p6576
I1
sS'steelworkers'
p6577
I1
sS'victory'
p6578
I7
sS'combining'
p6579
I2
sS'saturday'
p6580
I7
sS'islanders'
p6581
I3
sS'driving'
p6582
I3
sS'quality'
p6583
I2
sS'11,470'
p6584
I1
sS'laid'
p6585
I1
sS'cheered'
p6586
I2
sS'120.8'
p6587
I2
sS'got'
p6588
I11
sS'newly'
p6589
I2
sS'gov'
p6590
I7
sS'market.the'
p6591
I1
sS'perception'
p6592
I1
sS'scottish'
p6593
I2
sS'eternal'
p6594
I1
sS'free'
p6595
I18
sS'management'
p6596
I11
sS'boosting'
p6597
I1
sS'freq'
p6598
I6
sS'5.489'
p6599
I1
sS'789,802'
p6600
I1
sS'longterm'
p6601
I1
sS'days'
p6602
I22
sS'filter'
p6603
I3
sS'corrections'
p6604
I1
sS'pfandbrief'
p6605
I2
sS'138.76'
p6606
I1
sS'rand'
p6607
I4
sS'industrial'
p6608
I43
sS'encouraging'
p6609
I1
sS'rank'
p6610
I1
sS'sharpest'
p6611
I2
sS'withheld'
p6612
I2
sS'46.76'
p6613
I1
sS'0.06'
p6614
I1
sS'period.colombia'
p6615
I1
sS'percentage'
p6616
I16
sS'stg'
p6617
I4
sS'ceiling'
p6618
I3
sS'murder'
p6619
I3
sS'oymen'
p6620
I3
sS'tool'
p6621
I1
sS'season.fundamentalsico'
p6622
I1
sS'took'
p6623
I16
sS'negotiating'
p6624
I3
sS'tageszeitung'
p6625
I1
sS'western'
p6626
I13
sS'nudging'
p6627
I1
sS'101.065'
p6628
I1
sS'99.7'
p6629
I1
sS'classed'
p6630
I1
sS'1979'
p6631
I1
sS'118.1'
p6632
I1
sS'banque'
p6633
I1
sS'9-21.dates'
p6634
I2
sS'immigrants'
p6635
I2
sS'marking'
p6636
I1
sS'99.1'
p6637
I1
sS'18.9'
p6638
I3
sS'1600'
p6639
I1
sS'18.3'
p6640
I1
sS'dealers.losses'
p6641
I2
sS'18.5'
p6642
I1
sS'18.7'
p6643
I1
sS'lbs'
p6644
I1
sS'60.32'
p6645
I1
sS'ran'
p6646
I3
sS'eps'
p6647
I4
sS'raw'
p6648
I12
sS'rau'
p6649
I1
sS'advising'
p6650
I1
sS'tuesday.output'
p6651
I1
sS'botswana'
p6652
I1
sS'seminar'
p6653
I1
sS'relatively'
p6654
I13
sS'96.4'
p6655
I1
sS'thoroughly'
p6656
I2
sS'1612'
p6657
I1
sS'snow'
p6658
I2
sS'area.a'
p6659
I1
sS'contact'
p6660
I4
sS'schleswig'
p6661
I1
sS'sepeng'
p6662
I1
sS'added.he'
p6663
I1
sS'value.hoechst'
p6664
I2
sS'doomed'
p6665
I1
sS'2.96'
p6666
I2
sS'westfalen'
p6667
I3
sS'uptrend'
p6668
I1
sS'nuremberg.but'
p6669
I1
sS'plenty'
p6670
I2
sS'bse'
p6671
I2
sS'prostitute'
p6672
I1
sS'origins.dortmund'
p6673
I1
sS'1.671'
p6674
I1
sS'1.670'
p6675
I6
sS'1.672'
p6676
I2
sS'metal'
p6677
I4
sS'5,572'
p6678
I1
sS'treaty'
p6679
I1
sS'48.2'
p6680
I1
sS'reputation'
p6681
I3
sS'elite.in'
p6682
I1
sS'48.7'
p6683
I2
sS'enterprise'
p6684
I2
sS'48.8'
p6685
I1
sS'254,844'
p6686
I1
sS'reductions'
p6687
I1
sS'radio'
p6688
I4
sS'pkk'
p6689
I4
sS'availability'
p6690
I1
sS'most.while'
p6691
I2
sS'market.billing'
p6692
I1
sS'delays'
p6693
I2
sS'542'
p6694
I47
sS'trade.shares'
p6695
I2
sS'0.4europe'
p6696
I1
sS'announce'
p6697
I12
sS'548'
p6698
I1
sS'inlatest'
p6699
I1
sS'oct'
p6700
I9
sS'said.with'
p6701
I2
sS'evn.the'
p6702
I1
sS'abendzeitung'
p6703
I2
sS'guatemala'
p6704
I2
sS'borrower'
p6705
I9
sS'despite'
p6706
I18
sS'report'
p6707
I36
sS'knocks'
p6708
I1
sS'holland'
p6709
I3
sS'countries'
p6710
I26
sS'85,000'
p6711
I2
sS'twice'
p6712
I5
sS'automatic'
p6713
I1
sS'transporting'
p6714
I1
sS'revealing'
p6715
I1
sS'year.on'
p6716
I1
sS'287,000'
p6717
I1
sS'detection'
p6718
I1
sS'79,521'
p6719
I1
sS'revenues.analysts'
p6720
I1
sS'recently.some'
p6721
I1
sS'euro-2'
p6722
I1
sS'disturbing'
p6723
I1
sS'capacity'
p6724
I6
sS'3,400'
p6725
I1
sS'brakes.daimler'
p6726
I1
sS'interviewing'
p6727
I1
sS'tuesday.in'
p6728
I1
sS'hopefully'
p6729
I1
sS'approach'
p6730
I4
sS'360'
p6731
I1
sS'discovery'
p6732
I2
sS'sarawak'
p6733
I1
sS'29.apr.97'
p6734
I1
sS'jose'
p6735
I1
sS'wellwishers'
p6736
I1
sS'weak'
p6737
I19
sS'wear'
p6738
I1
sS'6176'
p6739
I1
sS'news'
p6740
I52
sS'improve'
p6741
I6
sS'faced'
p6742
I8
sS'protect'
p6743
I5
sS'favourable'
p6744
I7
sS'fault'
p6745
I1
sS'angenendt'
p6746
I3
sS'participating'
p6747
I1
sS'players'
p6748
I12
sS'games'
p6749
I6
sS'faces'
p6750
I9
sS'election.to'
p6751
I1
sS'magnetics'
p6752
I1
sS'group.triplex'
p6753
I1
sS'standings'
p6754
I2
sS'kanzlerdaemmerung'
p6755
I1
sS'charges.mama'
p6756
I1
sS'kidnappers.germany'
p6757
I1
sS'trust'
p6758
I4
sS'hitler'
p6759
I4
sS'conference'
p6760
I30
sS'jobless'
p6761
I8
sS'decoupling'
p6762
I4
sS'ropes'
p6763
I1
sS'said.syria'
p6764
I1
sS'quickly'
p6765
I5
sS'confident'
p6766
I8
sS'beet'
p6767
I5
sS'expected'
p6768
I64
sS'out.competition'
p6769
I1
sS'fleeting'
p6770
I1
sS'30-day'
p6771
I1
sS'publisher'
p6772
I2
sS'drugs'
p6773
I12
sS'speeches'
p6774
I2
sS'274,237'
p6775
I1
sS'catch'
p6776
I1
sS'30.under'
p6777
I1
sS'heartland'
p6778
I1
sS'n'
p6779
I12
sS'forsa'
p6780
I15
sS'dept'
p6781
I5
sS'dashboard'
p6782
I1
sS'hornhues'
p6783
I5
sS'1.445'
p6784
I1
sS'yeltsin.the'
p6785
I1
sS'expenses'
p6786
I2
sS'experts'
p6787
I1
sS'3,235.35'
p6788
I1
sS'surcharge'
p6789
I1
sS'suggest'
p6790
I4
sS'complex'
p6791
I4
sS'unit.man'
p6792
I1
sS'14,300'
p6793
I1
sS'persist.fundamentalsunited'
p6794
I1
sS'peaks'
p6795
I2
sS'autumn.an'
p6796
I1
sS'added.creating'
p6797
I1
sS'social'
p6798
I30
sS'greeted'
p6799
I1
sS'fridays'
p6800
I1
sS'reuters.allianz'
p6801
I2
sS'insisted'
p6802
I1
sS'essen.the'
p6803
I1
sS'cycle'
p6804
I9
sS'shortly'
p6805
I2
sS'21,200'
p6806
I1
sS'w.german'
p6807
I2
sS'savings'
p6808
I8
sS'greatest'
p6809
I5
sS'detained'
p6810
I5
sS'december.hoechst'
p6811
I1
sS'injuring'
p6812
I1
sS'conference.erbakan'
p6813
I1
sS'seasonal'
p6814
I3
sS'leagues'
p6815
I1
sS'mollenbeck'
p6816
I1
sS'proposed'
p6817
I3
sS'unemployment'
p6818
I25
sS'l-06.may.97'
p6819
I1
sS'ag.schindler'
p6820
I1
sS'judge'
p6821
I1
sS'grades'
p6822
I1
sS'battles'
p6823
I3
sS'added.spring'
p6824
I1
sS'victoria.a'
p6825
I1
sS'investment.bayerische'
p6826
I1
sS'ibca'
p6827
I4
sS'respectively.the'
p6828
I2
sS'els'
p6829
I2
sS'dm/100'
p6830
I2
sS'interprets'
p6831
I1
sS'gave'
p6832
I21
sS'clydeside'
p6833
I1
sS'breaks'
p6834
I2
sS'upturn'
p6835
I2
sS'wholesaler'
p6836
I3
sS'advanced'
p6837
I3
sS'apart'
p6838
I4
sS'melting'
p6839
I1
sS'59'
p6840
I2
sS'58'
p6841
I1
sS'55'
p6842
I1
sS'54'
p6843
I1
sS'57'
p6844
I3
sS'hunt'
p6845
I1
sS'51'
p6846
I2
sS'50'
p6847
I20
sS'53'
p6848
I2
sS'52'
p6849
I3
sS'specific'
p6850
I4
sS'offices'
p6851
I2
sS'officer'
p6852
I5
sS'26,783'
p6853
I1
sS'308.00'
p6854
I1
sS'afternoon.the'
p6855
I1
sS'bremerhaven'
p6856
I1
sS'56'
p6857
I1
sS'frustrations'
p6858
I1
sS'jennifer'
p6859
I1
sS'malaysia'
p6860
I6
sS'clubs'
p6861
I4
sS'election'
p6862
I32
sS'escape'
p6863
I2
sS'537'
p6864
I1
sS'ico'
p6865
I1
sS'rhine'
p6866
I4
sS'126.45'
p6867
I1
sS'establish'
p6868
I4
sS'lubavitcher'
p6869
I1
sS'2,230'
p6870
I1
sS'core'
p6871
I4
sS'expires'
p6872
I2
sS'2.82'
p6873
I1
sS'brawl'
p6874
I1
sS'discount'
p6875
I12
sS'corp'
p6876
I9
sS'dealer.in'
p6877
I1
sS'permitted'
p6878
I4
sS'meyer'
p6879
I1
sS'12.the'
p6880
I1
sS'attacks'
p6881
I21
sS'campaign.when'
p6882
I1
sS'ensure'
p6883
I5
sS'steadily'
p6884
I1
sS'efforts'
p6885
I9
sS'sept'
p6886
I2
sS'15.26'
p6887
I1
sS'presence'
p6888
I3
sS'civil'
p6889
I2
sS'41-1-631'
p6890
I1
sS'coffee.norway'
p6891
I1
sS'bielefeld'
p6892
I4
sS'bats'
p6893
I1
sS'electorate'
p6894
I1
sS'policies.in'
p6895
I2
sS'year.the'
p6896
I9
sS'134,102'
p6897
I1
sS'year.kohl'
p6898
I1
sS'stuck'
p6899
I2
sS'fought'
p6900
I1
sS'6,798'
p6901
I1
sS'563,850'
p6902
I1
sS'head'
p6903
I14
sS'medium'
p6904
I7
sS'attempted'
p6905
I3
sS'differences'
p6906
I5
sS'88.30'
p6907
I1
sS'payable'
p6908
I1
sS'heat'
p6909
I1
sS'hear'
p6910
I1
sS'sustained'
p6911
I1
sS'removed'
p6912
I1
sS'bargain'
p6913
I3
sS'wipes'
p6914
I1
sS'2.2domestic'
p6915
I1
sS'precious'
p6916
I1
sS'trim'
p6917
I1
sS'pelted'
p6918
I1
sS'fury'
p6919
I1
sS'suspicions'
p6920
I3
sS'0.65'
p6921
I2
sS'liberalise'
p6922
I1
sS'cyclicals'
p6923
I1
sS'check'
p6924
I15
sS'124.50s'
p6925
I1
sS'6.91'
p6926
I1
sS'na'
p6927
I10
sS'nc'
p6928
I1
sS'tip'
p6929
I1
sS'loosening'
p6930
I2
sS'tin'
p6931
I1
sS'setting'
p6932
I4
sS'whet'
p6933
I1
sS'papers'
p6934
I1
sS'picture'
p6935
I4
sS'writedowns'
p6936
I1
sS'preceding'
p6937
I2
sS'football'
p6938
I7
sS'wuerttembergische'
p6939
I2
sS'rapeseed'
p6940
I8
sS'meeting.the'
p6941
I1
sS'e.german'
p6942
I2
sS'westlb'
p6943
I5
sS'younger'
p6944
I3
sS'longer'
p6945
I11
sS'1800'
p6946
I1
sS'fears'
p6947
I21
sS'changed'
p6948
I4
sS'memorial'
p6949
I1
sS'vietnam'
p6950
I3
sS'varying'
p6951
I1
sS'rod'
p6952
I1
sS'focus'
p6953
I8
sS'deliveries'
p6954
I1
sS'leads'
p6955
I5
sS'marion'
p6956
I1
sS'abedi'
p6957
I1
sS'ros'
p6958
I2
sS'privatisations'
p6959
I1
sS'row'
p6960
I1
sS'ryurikov'
p6961
I1
sS'landeskreditbank'
p6962
I1
sS'1946'
p6963
I3
sS'contemplating'
p6964
I1
sS'passage'
p6965
I1
sS'environment'
p6966
I2
sS'charge'
p6967
I3
sS'quash'
p6968
I1
sS'discovering'
p6969
I1
sS'4.070'
p6970
I1
sS'federation'
p6971
I13
sS'broadly'
p6972
I4
sS'122.58/68'
p6973
I1
sS'aginst'
p6974
I1
sS'1.125'
p6975
I2
sS'1.120'
p6976
I1
sS'tanks'
p6977
I1
sS'cool'
p6978
I1
sS'tietmeyertietmeyer'
p6979
I1
sS'efficiantly'
p6980
I1
sS'beseiged'
p6981
I1
sS'61.50'
p6982
I1
sS'level'
p6983
I28
sS'2,054'
p6984
I2
sS'standards'
p6985
I4
sS'duisburg'
p6986
I7
sS'science'
p6987
I1
sS'quick'
p6988
I3
sS'samaranch'
p6989
I2
sS'payments.hermann'
p6990
I1
sS'mid-1998'
p6991
I2
sS'heinz'
p6992
I3
sS'says'
p6993
I24
sS'trend'
p6994
I11
sS'said.despite'
p6995
I1
sS'baku'
p6996
I1
sS'inland'
p6997
I2
sS'widened'
p6998
I1
sS'slowed'
p6999
I4
sS'3,290.29'
p7000
I1
sS'port'
p7001
I4
sS'endangering'
p7002
I2
sS'stands'
p7003
I5
sS'contracted'
p7004
I1
sS'agrees'
p7005
I1
sS'tarmac'
p7006
I3
sS'525'
p7007
I1
sS'goes'
p7008
I1
sS'baltics'
p7009
I1
sS'nizny'
p7010
I1
sS'123.00'
p7011
I1
sS'187,000'
p7012
I1
sS'4,128'
p7013
I1
sS'water'
p7014
I3
sS'fluke'
p7015
I1
sS'baseball'
p7016
I1
sS'groups'
p7017
I6
sS'crippled'
p7018
I1
sS'ago.for'
p7019
I1
sS'6-7'
p7020
I1
sS'6-4'
p7021
I2
sS'chancellorship'
p7022
I8
sS'6-3'
p7023
I5
sS'6-0'
p7024
I1
sS'56,000'
p7025
I1
sS'382,151'
p7026
I1
sS'services.it'
p7027
I1
sS'healthy'
p7028
I10
sS'overrides'
p7029
I1
sS'guilty'
p7030
I2
sS'mauritius'
p7031
I1
sS'sharpening'
p7032
I1
sS'156,000'
p7033
I1
sS'assassinations.prosecutors'
p7034
I1
sS'emerge'
p7035
I2
sS'soybeans'
p7036
I1
sS'capriati'
p7037
I3
sS'union.mannheim'
p7038
I1
sS'paralyzed'
p7039
I1
sS'341.7'
p7040
I1
sS'crisis'
p7041
I7
sS'handled'
p7042
I8
sS'do.jackson'
p7043
I1
sS'baumann'
p7044
I1
sS'andy'
p7045
I1
sS'criteria'
p7046
I9
sS'australian'
p7047
I1
sS'today'
p7048
I17
sS'6,300'
p7049
I1
sS'sessions'
p7050
I3
sS'flying'
p7051
I3
sS'148.2'
p7052
I1
sS'chocolate'
p7053
I1
sS'attained'
p7054
I1
sS'13,321'
p7055
I1
sS'kayser'
p7056
I3
sS'cases'
p7057
I16
sS'33,797'
p7058
I1
sS'industry.other'
p7059
I1
sS'states'
p7060
I24
sS'25,753'
p7061
I1
sS'julius'
p7062
I6
sS'thousands'
p7063
I5
sS'minimum'
p7064
I2
sS'performer'
p7065
I2
sS'figure'
p7066
I16
sS'percent.labour'
p7067
I1
sS'performed'
p7068
I1
sS'butterfly.brokers'
p7069
I1
sS'provoke'
p7070
I1
sS'verlag'
p7071
I2
sS'parliamentary'
p7072
I5
sS'0652'
p7073
I1
sS'requirements'
p7074
I6
sS'secured'
p7075
I3
sS'155.3two-month'
p7076
I1
sS'492.50'
p7077
I1
sS'1'
p7078
I28
sS'rubin'
p7079
I7
sS'recuperating'
p7080
I1
sS'fourth'
p7081
I11
sS'plus'
p7082
I1
sS'speaks'
p7083
I1
sS'60,800'
p7084
I1
sS'unbelievable'
p7085
I2
sS'irrational'
p7086
I2
sS'crashes'
p7087
I1
sS'3.40'
p7088
I1
sS'286,859'
p7089
I1
sS'birthday'
p7090
I2
sS'6,606,992'
p7091
I1
sS'128,000'
p7092
I1
sS'eighth'
p7093
I1
sS'branches'
p7094
I2
sS'drained'
p7095
I4
sS'commodity'
p7096
I7
sS'121'
p7097
I2
sS'point.separately'
p7098
I1
sS'equities'
p7099
I5
sS'legitimate'
p7100
I2
sS'exclusive'
p7101
I1
sS'comfort'
p7102
I1
sS'17.8metals'
p7103
I1
sS'127'
p7104
I1
sS'mainly'
p7105
I6
sS'99.90.but'
p7106
I1
sS'aa1/aa'
p7107
I2
sS'125.50s'
p7108
I1
sS'86'
p7109
I2
sS'waffenschmidt'
p7110
I1
sS'chips'
p7111
I4
sS'organisation'
p7112
I2
sS'civic'
p7113
I1
sS'offers'
p7114
I7
sS'ssupport'
p7115
I1
sS'qualifier'
p7116
I1
sS'chemie'
p7117
I1
sS'hambros'
p7118
I1
sS'qualified'
p7119
I1
sS'february.analysts'
p7120
I1
sS'26.0'
p7121
I1
sS'up.warmer'
p7122
I1
sS'term'
p7123
I35
sS'duesseldorf'
p7124
I14
sS'opera'
p7125
I1
sS'belts'
p7126
I2
sS'realistic'
p7127
I3
sS'bullion'
p7128
I1
sS'realise'
p7129
I4
sS'regulation'
p7130
I2
sS'semifinal'
p7131
I2
sS'liesbeth'
p7132
I1
sS'85,900'
p7133
I1
sS'ago.feb'
p7134
I1
sS'catching'
p7135
I1
sS'begun'
p7136
I6
sS'70th'
p7137
I1
sS'reckons'
p7138
I1
sS'plans'
p7139
I53
sS'ultimately'
p7140
I2
sS'factors'
p7141
I13
sS'profit'
p7142
I32
sS'tensions'
p7143
I1
sS'factory'
p7144
I7
sS'trader.but'
p7145
I1
sS'wiebusch'
p7146
I1
sS'belarus.the'
p7147
I1
sS"shouldn't"
p7148
I2
sS'unch'
p7149
I2
sS'attended'
p7150
I4
sS'theory'
p7151
I1
sS'contain'
p7152
I1
sS'dillinger.the'
p7153
I1
sS'07.may.99'
p7154
I1
sS'germany.the'
p7155
I2
sS'mirka'
p7156
I1
sS'motion'
p7157
I4
sS'turn'
p7158
I5
sS'place'
p7159
I19
sS'retreating'
p7160
I4
sS'swing'
p7161
I1
sS'view'
p7162
I11
sS'1003'
p7163
I2
sS'1000'
p7164
I1
sS'origin'
p7165
I6
sS'suspend'
p7166
I1
sS'merrill'
p7167
I1
sS'clinton.kohl'
p7168
I1
sS'revenue'
p7169
I3
sS'requirement'
p7170
I2
sS'insist'
p7171
I2
sS'engineer'
p7172
I2
sS'airbus'
p7173
I6
sS'given'
p7174
I8
sS'ian'
p7175
I1
sS'leverkusen'
p7176
I7
sS'3,212.82'
p7177
I1
sS'hannoversche'
p7178
I1
sS'province.an'
p7179
I1
sS'returns'
p7180
I1
sS'white'
p7181
I3
sS'wrongdoing'
p7182
I2
sS'hub'
p7183
I4
sS'turbulent'
p7184
I1
sS'braun'
p7185
I1
sS'alan'
p7186
I2
sS'released'
p7187
I14
sS'5.875'
p7188
I1
sS'immigrant'
p7189
I4
sS'28.4'
p7190
I1
sS'specify'
p7191
I2
sS'population'
p7192
I1
sS'wide'
p7193
I8
sS'unfortunately'
p7194
I1
sS'3.125/3.15'
p7195
I1
sS'require'
p7196
I3
sS'diplomatic'
p7197
I6
sS'spokeswoman'
p7198
I10
sS'gmt.strong'
p7199
I1
sS'officials'
p7200
I16
sS'year.it'
p7201
I2
sS'yugoslavia'
p7202
I1
sS'outcome'
p7203
I3
sS'pre'
p7204
I18
sS'lowest'
p7205
I1
sS'unprecedentedly'
p7206
I1
sS'rene'
p7207
I1
sS'1,412'
p7208
I1
sS'pro'
p7209
I2
sS'pfalz'
p7210
I1
sS'mates'
p7211
I3
sS'2,706,876'
p7212
I1
sS'sells'
p7213
I1
sS'jobs.the'
p7214
I1
sS'masterminded'
p7215
I1
sS'marathon'
p7216
I2
sS'reshuffle.speculation'
p7217
I1
sS'costs.volkswagen'
p7218
I2
sS'said.travel'
p7219
I1
sS'dining'
p7220
I1
sS'giovane'
p7221
I1
sS'closer'
p7222
I2
sS'gleason'
p7223
I3
sS'sure'
p7224
I2
sS'clearer'
p7225
I3
sS'falls'
p7226
I7
sS'wednesday.bryan'
p7227
I1
sS'year.party'
p7228
I1
sS'icon'
p7229
I1
sS'considered'
p7230
I3
sS'188,832'
p7231
I1
sS'politics.the'
p7232
I1
sS'later'
p7233
I19
sS'thursday.its'
p7234
I1
sS'senior'
p7235
I14
sS'detective'
p7236
I1
sS'102.9'
p7237
I1
sS'urge'
p7238
I2
sS'102.2'
p7239
I1
sS'cheap'
p7240
I1
sS'102.6'
p7241
I1
sS'astonished'
p7242
I1
sS'troy'
p7243
I2
sS'match.most'
p7244
I1
sS'said.american'
p7245
I1
sS'husband'
p7246
I1
sS'44.6'
p7247
I2
sS'767-300'
p7248
I3
sS'cautioned'
p7249
I2
sS'viewpoint'
p7250
I1
sS'absent'
p7251
I1
sS'kohl.his'
p7252
I1
sS'23,488'
p7253
I1
sS'installed'
p7254
I1
sS'outperform'
p7255
I2
sS'orphans'
p7256
I1
sS'jokes'
p7257
I1
sS'embassy'
p7258
I5
sS'predicted'
p7259
I13
sS'2417'
p7260
I1
sS'strube'
p7261
I13
sS'spaniard'
p7262
I1
sS'bought'
p7263
I9
sS'discussing'
p7264
I1
sS'places.werder'
p7265
I1
sS'somebody'
p7266
I1
sS'artworks'
p7267
I1
sS'86.67'
p7268
I1
sS'31,168'
p7269
I1
sS'connections'
p7270
I1
sS'rmc'
p7271
I5
sS'week.but'
p7272
I2
sS'statement.american'
p7273
I1
sS'encouraged'
p7274
I5
sS'farmers'
p7275
I1
sS'ways'
p7276
I3
sS'definite'
p7277
I1
sS'commitments'
p7278
I2
sS'weapons'
p7279
I5
sS'outside'
p7280
I5
sS'49-69-7565-1213'
p7281
I3
sS'49-69-7565-1210'
p7282
I1
sS'racism.on'
p7283
I1
sS'rumours'
p7284
I23
sS'otto.spiegel'
p7285
I1
sS'cities'
p7286
I5
sS'come'
p7287
I22
sS'originates'
p7288
I2
sS'reaction'
p7289
I5
sS'january.if'
p7290
I1
sS'acquiring'
p7291
I2
sS'pests'
p7292
I1
sS'region'
p7293
I14
sS'quiet'
p7294
I1
sS'contract'
p7295
I32
sS'prompted'
p7296
I2
sS'mykonos'
p7297
I1
sS'january.imports'
p7298
I1
sS'duty'
p7299
I5
sS'period'
p7300
I40
sS'pop'
p7301
I2
sS'60'
p7302
I11
sS'61'
p7303
I2
sS'62'
p7304
I2
sS'65'
p7305
I3
sS'racism.but'
p7306
I1
sS'67'
p7307
I2
sS'68'
p7308
I4
sS'69'
p7309
I51
sS'poll'
p7310
I22
sS'63.34'
p7311
I1
sS'turkey'
p7312
I33
sS'squaring'
p7313
I1
sS'didier'
p7314
I1
sS'february.but'
p7315
I1
sS'5.38'
p7316
I1
sS'189,477'
p7317
I1
sS'504'
p7318
I2
sS'booming'
p7319
I1
sS'hardly'
p7320
I4
sS'500'
p7321
I6
sS'engine'
p7322
I3
sS'631'
p7323
I2
sS'1210'
p7324
I1
sS'633'
p7325
I1
sS'robbed'
p7326
I1
sS'hits'
p7327
I2
sS'ltrs'
p7328
I4
sS'minister'
p7329
I39
sS'88920.sugar'
p7330
I2
sS'careful'
p7331
I3
sS'champions'
p7332
I2
sS'paying'
p7333
I3
sS'gliwice'
p7334
I3
sS'amend'
p7335
I1
sS'mount'
p7336
I2
sS'cash'
p7337
I18
sS'cast'
p7338
I1
sS'said.taiwan'
p7339
I1
sS'abducted'
p7340
I1
sS'32.50/32.90'
p7341
I3
sS'coupled'
p7342
I2
sS'ferrostall'
p7343
I1
sS'telephone'
p7344
I7
sS'history.but'
p7345
I1
sS'eintracht'
p7346
I1
sS'0.69'
p7347
I1
sS'metalworkers'
p7348
I2
sS'101.50'
p7349
I1
sS'author'
p7350
I1
sS'postwar'
p7351
I1
sS'growth.but'
p7352
I1
sS'magyar'
p7353
I1
sS'attributing'
p7354
I1
sS'insurers'
p7355
I12
sS'emtn'
p7356
I3
sS'events'
p7357
I1
sS'week'
p7358
I70
sS'6,364'
p7359
I1
sS'6.92'
p7360
I1
sS'6,368'
p7361
I1
sS'refusal'
p7362
I1
sS'producers'
p7363
I3
sS'macroeconomic'
p7364
I1
sS'canister'
p7365
I1
sS'karsten'
p7366
I1
sS'changing'
p7367
I3
sS'3,500'
p7368
I1
sS'information.last'
p7369
I1
sS'fasting'
p7370
I1
sS'news.els'
p7371
I1
sS'relegation'
p7372
I2
sS'845,200'
p7373
I1
sS'relief'
p7374
I6
sS'components'
p7375
I1
sS'4.4notes'
p7376
I2
sS'model'
p7377
I2
sS'reward'
p7378
I3
sS'billion.bayer'
p7379
I1
sS'bodies'
p7380
I1
sS'schmieding'
p7381
I2
sS'19.34/19.58'
p7382
I1
sS'fitzgerald'
p7383
I1
sS'novgorod'
p7384
I1
sS'investment.above'
p7385
I1
sS'1,887'
p7386
I1
sS'spain.the'
p7387
I1
sS'polish'
p7388
I3
sS'halfway'
p7389
I1
sS'points.while'
p7390
I1
sS'announcement'
p7391
I15
sS'hint'
p7392
I1
sS'rose'
p7393
I44
sS'casablanca'
p7394
I1
sS'complain'
p7395
I1
sS'association'
p7396
I27
sS'poised'
p7397
I1
sS'scheduled'
p7398
I9
sS'evasive'
p7399
I1
sS'point.but'
p7400
I1
sS'virginia'
p7401
I1
sS'inflation'
p7402
I17
sS'confined'
p7403
I1
sS'accepted'
p7404
I1
sS'daewoo'
p7405
I1
sS'kennedy'
p7406
I1
sS'patrick'
p7407
I2
sS'reduces'
p7408
I1
sS'tower'
p7409
I1
sS'reduced'
p7410
I6
sS'tribesmen'
p7411
I2
sS'burdens'
p7412
I1
sS'madrid'
p7413
I6
sS'competition'
p7414
I9
sS'respect'
p7415
I5
sS'6,574.79'
p7416
I2
sS'intact'
p7417
I1
sS'provided'
p7418
I2
sS'mood'
p7419
I3
sS'prolific'
p7420
I1
sS'1996aluminium'
p7421
I2
sS'stops'
p7422
I2
sS'27,182'
p7423
I2
sS'barabanschikova'
p7424
I1
sS'friday.officials'
p7425
I1
sS'provides'
p7426
I2
sS'provider'
p7427
I2
sS'45,000'
p7428
I1
sS'275.fob'
p7429
I1
sS'calmed'
p7430
I1
sS'szbinden'
p7431
I2
sS'1.1-tonne'
p7432
I1
sS'slaughter'
p7433
I1
sS'sale.a'
p7434
I1
sS'subdued'
p7435
I3
sS'oh'
p7436
I2
sS'og'
p7437
I1
sS'stand'
p7438
I19
sS'tariffs'
p7439
I1
sS'instruments'
p7440
I2
sS'0.9note'
p7441
I1
sS'friday.state'
p7442
I1
sS'rising'
p7443
I11
sS'speculated'
p7444
I1
sS'bluem'
p7445
I2
sS'businesses.shareholders'
p7446
I2
sS'theoretically'
p7447
I1
sS'percent.traders'
p7448
I1
sS'normalised'
p7449
I1
sS'gunter'
p7450
I1
sS'alleged'
p7451
I2
sS'interfax'
p7452
I2
sS'strict'
p7453
I1
sS'racist'
p7454
I28
sS'cultures'
p7455
I1
sS'alleges'
p7456
I2
sS'countermeasures.the'
p7457
I1
sS'europe.new'
p7458
I1
sS'101.7'
p7459
I1
sS'750'
p7460
I1
sS'756'
p7461
I1
sS'101.1'
p7462
I1
sS'fundamentals'
p7463
I8
sS'regard'
p7464
I2
sS'january.but'
p7465
I1
sS'101.8'
p7466
I1
sS'promote'
p7467
I3
sS'august.a'
p7468
I1
sS'faster'
p7469
I3
sS'internationals'
p7470
I3
sS'1996.cumulative'
p7471
I1
sS'wholesale'
p7472
I2
sS'd.c.software'
p7473
I1
sS'tens'
p7474
I1
sS'strongly'
p7475
I10
sS'done.weber'
p7476
I1
sS'repatriation'
p7477
I1
sS'yacht'
p7478
I2
sS'2,415'
p7479
I1
sS'britain'
p7480
I9
sS'yemeni'
p7481
I3
sS'99.05'
p7482
I1
sS'controlled'
p7483
I1
sS'99.06'
p7484
I1
sS'99.00'
p7485
I2
sS'4.5'
p7486
I13
sS'4.4'
p7487
I4
sS'4.7'
p7488
I11
sS'4.6'
p7489
I7
sS'4.1'
p7490
I4
sS'4.0'
p7491
I18
sS'4.3'
p7492
I4
sS'4.2'
p7493
I2
sS'4.9'
p7494
I5
sS'4.8'
p7495
I5
sS'schallschutz'
p7496
I1
sS'5'
p7497
I23
sS'u.s.with'
p7498
I1
sS'20.0'
p7499
I1
sS'briefly'
p7500
I2
sS'championship'
p7501
I1
sS'gordon.mackenzie@reuters.comjohn'
p7502
I1
sS'separate'
p7503
I6
sS'170,210'
p7504
I1
sS'intermed'
p7505
I2
sS'includes'
p7506
I2
sS'bounded'
p7507
I1
sS'included'
p7508
I9
sS'4040'
p7509
I1
sS'stocks'
p7510
I24
sS'bilateral'
p7511
I1
sS'calls'
p7512
I2
sS'wife'
p7513
I10
sS'invest'
p7514
I4
sS'odds'
p7515
I1
sS'curve'
p7516
I5
sS'barcelona'
p7517
I1
sS'respond.kohl'
p7518
I1
sS'term.in'
p7519
I1
sS'window.the'
p7520
I1
sS'ali'
p7521
I1
sS'lack'
p7522
I2
sS'discouraging'
p7523
I1
sS'2.7470'
p7524
I1
sS'312,800'
p7525
I1
sS'settlement'
p7526
I3
sS'pts'
p7527
I2
sS'group.the'
p7528
I1
sS'apartment'
p7529
I9
sS'acting'
p7530
I1
sS'thursday'
p7531
I91
sS'death.the'
p7532
I1
sS'33.70/34.10german'
p7533
I1
sS'wissmann'
p7534
I1
sS'flowed'
p7535
I1
sS'activities'
p7536
I6
sS'belonging'
p7537
I3
sS'global'
p7538
I11
sS'worse'
p7539
I1
sS'song'
p7540
I1
sS'far'
p7541
I28
sS'alternatives'
p7542
I1
sS'combustible'
p7543
I2
sS'fat'
p7544
I4
sS'icao'
p7545
I1
sS'sons'
p7546
I2
sS'worst'
p7547
I8
sS'fag'
p7548
I1
sS'uwe'
p7549
I3
sS'restaurant.the'
p7550
I1
sS'legislation.the'
p7551
I1
sS'stimulus'
p7552
I2
sS'124.40.also'
p7553
I1
sS'list'
p7554
I4
sS'event.israel'
p7555
I1
sS'quipped'
p7556
I1
sS'lisa'
p7557
I1
sS'est/1600'
p7558
I1
sS'added.meanwhile'
p7559
I1
sS'programme'
p7560
I8
sS'tel'
p7561
I30
sS'germany.lambert'
p7562
I1
sS'90.0'
p7563
I1
sS'17.apr.02'
p7564
I1
sS'reins'
p7565
I1
sS'bergmann'
p7566
I2
sS'rate'
p7567
I94
sS'design'
p7568
I2
sS'7,255'
p7569
I2
sS'sue'
p7570
I1
sS'chng'
p7571
I4
sS'sub'
p7572
I1
sS'sun'
p7573
I1
sS'brief'
p7574
I3
sS'cinemas'
p7575
I1
sS'said.nonetheless'
p7576
I2
sS'unquestioned'
p7577
I2
sS'christian'
p7578
I22
sS'prognoses'
p7579
I1
sS'behaviour'
p7580
I3
sS'wild'
p7581
I2
sS'berkeley'
p7582
I2
sS'directions'
p7583
I2
sS'extraordinary'
p7584
I6
sS'riedel'
p7585
I1
sS'allows'
p7586
I1
sS'spd.kohl'
p7587
I1
sS'options'
p7588
I8
sS'bodes'
p7589
I1
sS'sticking'
p7590
I4
sS'99.84.while'
p7591
I1
sS'tightness'
p7592
I1
sS'themselves.a'
p7593
I1
sS'screens'
p7594
I2
sS'1944'
p7595
I1
sS'demir'
p7596
I1
sS'open.dealers'
p7597
I1
sS'1945'
p7598
I1
sS'clifford'
p7599
I4
sS'chancellor.public'
p7600
I1
sS'two.in'
p7601
I1
sS'denominated'
p7602
I1
sS'said.shares'
p7603
I2
sS'markets'
p7604
I52
sS'minor'
p7605
I2
sS'flat'
p7606
I9
sS'israel'
p7607
I6
sS'knows'
p7608
I1
sS'bumped'
p7609
I1
sS'world.a'
p7610
I1
sS'mire'
p7611
I1
sS'flag'
p7612
I2
sS'basically'
p7613
I2
sS'known'
p7614
I11
sS'commercially'
p7615
I1
sS'shielded'
p7616
I1
sS'bags.sweden'
p7617
I1
sS'v'
p7618
I9
sS'finland'
p7619
I2
sS'prompting'
p7620
I1
sS'1996.the'
p7621
I1
sS'profit.admittedly'
p7622
I1
sS'allege'
p7623
I2
sS'5.0'
p7624
I33
sS'influenced'
p7625
I2
sS'5.2'
p7626
I13
sS'5.3'
p7627
I5
sS'5.4'
p7628
I8
sS'advantage'
p7629
I3
sS'5.6'
p7630
I2
sS'5.7'
p7631
I2
sS'5.8'
p7632
I4
sS'5.9'
p7633
I2
sS'johannesburg'
p7634
I4
sS'playmaker'
p7635
I1
sS'stemming'
p7636
I1
sS'297,993'
p7637
I1
sS'24,183'
p7638
I1
sS'reflect'
p7639
I6
sS'dvfa'
p7640
I4
sS'carmaker'
p7641
I16
sS'profited'
p7642
I2
sS'short'
p7643
I18
sS'susan'
p7644
I1
sS'cooperatives'
p7645
I5
sS'america.while'
p7646
I1
sS'turnover'
p7647
I7
sS'september'
p7648
I15
sS'developed'
p7649
I4
sS'326,600'
p7650
I1
sS'quarrels'
p7651
I1
sS'1.93'
p7652
I1
sS'1.90'
p7653
I1
sS'style'
p7654
I5
sS'blast'
p7655
I1
sS'protectionist'
p7656
I2
sS'announcedby'
p7657
I1
sS'environmentalist'
p7658
I1
sS'sale'
p7659
I20
sS'age.indonesian'
p7660
I3
sS'clashes'
p7661
I2
sS'resort'
p7662
I6
sS'66.40'
p7663
I2
sS'bout'
p7664
I1
sS'soccer'
p7665
I7
sS'alter'
p7666
I1
sS'17.8'
p7667
I1
sS'6.03'
p7668
I1
sS'return'
p7669
I16
sS'norddeutsche'
p7670
I1
sS'governorate'
p7671
I1
sS'6.05'
p7672
I1
sS'framework'
p7673
I2
sS'party'
p7674
I36
sS'bigger'
p7675
I3
sS'impressive'
p7676
I3
sS'scuffles'
p7677
I1
sS'presented'
p7678
I6
sS'percent.despite'
p7679
I1
sS'weight'
p7680
I2
sS'generation'
p7681
I2
sS'examinations.the'
p7682
I2
sS'fixture'
p7683
I1
sS'40,000'
p7684
I3
sS'expect'
p7685
I21
sS'organised'
p7686
I2
sS'west.a'
p7687
I1
sS'gangland'
p7688
I1
sS'realising'
p7689
I1
sS'state.the'
p7690
I2
sS'health'
p7691
I26
sS'shipment'
p7692
I1
sS'tactician'
p7693
I1
sS'compounding'
p7694
I1
sS'concern.last'
p7695
I1
sS'benjamin'
p7696
I1
sS'3.09'
p7697
I1
sS'3.08'
p7698
I1
sS'3.00'
p7699
I2
sS'3.05'
p7700
I1
sS'organising'
p7701
I1
sS'4541'
p7702
I6
sS'182,400'
p7703
I1
sS'generate'
p7704
I1
sS'thrown'
p7705
I1
sS'total.west'
p7706
I1
sS'top.he'
p7707
I1
sS'1,796'
p7708
I1
sS'files.one'
p7709
I1
sS'threat'
p7710
I4
sS'said.saa'
p7711
I2
sS'feed'
p7712
I3
sS'usda'
p7713
I1
sS'feel'
p7714
I4
sS'radical'
p7715
I5
sS'pork'
p7716
I3
sS'feet'
p7717
I2
sS'sympathy'
p7718
I1
sS'11.90'
p7719
I1
sS'fees'
p7720
I9
sS'attacks.die'
p7721
I1
sS'48.35'
p7722
I1
sS'edna'
p7723
I1
sS'passes'
p7724
I2
sS'story'
p7725
I2
sS'leading'
p7726
I24
sS'interviews'
p7727
I3
sS'yekaterinburg'
p7728
I1
sS'passed'
p7729
I3
sS'aa1'
p7730
I2
sS'recovered'
p7731
I2
sS'233,642'
p7732
I1
sS'option'
p7733
I2
sS'warm.the'
p7734
I1
sS'said.engineering'
p7735
I1
sS'delegation.a'
p7736
I1
sS'treasures'
p7737
I12
sS'aircraft.under'
p7738
I1
sS'king'
p7739
I3
sS'kind'
p7740
I7
sS'double'
p7741
I7
sS'aims'
p7742
I1
sS'83,600'
p7743
I1
sS'risks'
p7744
I3
sS'risky'
p7745
I1
sS'liabilities'
p7746
I2
sS'22duisburg'
p7747
I1
sS'vanes'
p7748
I1
sS'outstanding'
p7749
I1
sS'strengthen'
p7750
I1
sS'imports'
p7751
I37
sS'noelle'
p7752
I2
sS'birthday.among'
p7753
I1
sS'528,365'
p7754
I1
sS'alike'
p7755
I1
sS'wilson'
p7756
I1
sS'imf'
p7757
I1
sS'chairman'
p7758
I25
sS'genetically'
p7759
I1
sS'populous'
p7760
I3
sS'hurling'
p7761
I1
sS'injured.on'
p7762
I1
sS'93.6'
p7763
I1
sS'added'
p7764
I34
sS'42,900'
p7765
I1
sS'warnings'
p7766
I2
sS'goldman'
p7767
I3
sS'percent.there'
p7768
I1
sS'measures'
p7769
I4
sS'reach'
p7770
I14
sS'93.8'
p7771
I1
sS'react'
p7772
I4
sS'76'
p7773
I2
sS'75'
p7774
I5
sS'shareholder'
p7775
I4
sS'72'
p7776
I1
sS'70'
p7777
I1
sS'gruner'
p7778
I2
sS'died.on'
p7779
I1
sS'measured'
p7780
I1
sS'soared'
p7781
I2
sS'constitution'
p7782
I1
sS'dealers'
p7783
I31
sS'5,473'
p7784
I1
sS'53,819'
p7785
I1
sS'ag.die'
p7786
I1
sS'traditional'
p7787
I1
sS'0.823'
p7788
I1
sS'lying'
p7789
I1
sS'painewebber'
p7790
I1
sS'cda'
p7791
I4
sS'4305'
p7792
I1
sS'rtl'
p7793
I2
sS'5-50-500'
p7794
I1
sS'23-year'
p7795
I1
sS'cdu'
p7796
I46
sS'inflexible'
p7797
I1
sS'99.28'
p7798
I2
sS'vereinsbank'
p7799
I11
sS'99.25'
p7800
I1
sS'disclosed.thayer'
p7801
I1
sS'1,100'
p7802
I1
sS'commentary.the'
p7803
I1
sS'hit'
p7804
I13
sS'gains'
p7805
I7
sS'212-859-1646'
p7806
I1
sS'whistle'
p7807
I1
sS'5,000'
p7808
I2
sS'longest'
p7809
I5
sS'banquet'
p7810
I1
sS'compiles'
p7811
I1
sS'grievances'
p7812
I1
sS'budapest'
p7813
I11
sS'appeal'
p7814
I2
sS'273.4'
p7815
I1
sS'activity'
p7816
I2
sS'trafficmaster'
p7817
I4
sS'sanaa'
p7818
I3
sS'wrote'
p7819
I8
sS'art'
p7820
I12
sS'achieved'
p7821
I2
sS'intelligence'
p7822
I2
sS'upsurge'
p7823
I3
sS'2.9'
p7824
I4
sS'2.8'
p7825
I5
sS'ard'
p7826
I7
sS'duma'
p7827
I13
sS'2.3'
p7828
I11
sS'thayer'
p7829
I3
sS'2.1'
p7830
I4
sS'2.0'
p7831
I10
sS'2.7'
p7832
I9
sS'arm'
p7833
I2
sS'2.5'
p7834
I15
sS'2.4'
p7835
I8
sS'levels.traders'
p7836
I1
sS'threats'
p7837
I1
sS'unions'
p7838
I27
sS'determined'
p7839
I2
sS'various'
p7840
I3
sS'downturn'
p7841
I1
sS'numerous'
p7842
I2
sS'lower.analysts'
p7843
I1
sS'32.20/32.60'
p7844
I4
sS'latin'
p7845
I5
sS'recently'
p7846
I8
sS'creating'
p7847
I2
sS'initially'
p7848
I5
sS'sold'
p7849
I10
sS'attention'
p7850
I7
sS'aspin'
p7851
I1
sS'19.12/19.36'
p7852
I1
sS'importers'
p7853
I1
sS'opposition'
p7854
I18
sS'competent'
p7855
I1
sS'bronze'
p7856
I1
sS'erhard'
p7857
I1
sS'c'
p7858
I3
sS'share.tarmac'
p7859
I1
sS'roman'
p7860
I5
sS'died.germany'
p7861
I1
sS'flies'
p7862
I5
sS'reasons'
p7863
I2
sS'1995.sueddeutsche'
p7864
I1
sS'regulated'
p7865
I1
sS'fibres'
p7866
I2
sS'eyewitness'
p7867
I1
sS'decline'
p7868
I16
sS'political'
p7869
I24
sS'privatisation.the'
p7870
I1
sS'reduction'
p7871
I1
sS'tasks.ig'
p7872
I2
sS'tutak'
p7873
I1
sS'pm'
p7874
I2
sS'datenbanken.the'
p7875
I1
sS'flight'
p7876
I10
sS'ages'
p7877
I1
sS'transferring'
p7878
I1
sS'1860'
p7879
I6
sS'argued.but'
p7880
I1
sS'brokers'
p7881
I4
sS'demand'
p7882
I23
sS'plants'
p7883
I7
sS'29.69'
p7884
I2
sS'stolen'
p7885
I1
sS'boast'
p7886
I1
sS'footballer'
p7887
I1
sS'hbg'
p7888
I2
sS'fernandes'
p7889
I1
sS'446/455'
p7890
I1
sS'19.5'
p7891
I1
sS'19.6'
p7892
I1
sS'19.1'
p7893
I1
sS'19.2'
p7894
I1
sS'disappointing'
p7895
I2
sS'rio'
p7896
I1
sS'awakening'
p7897
I1
sS'obstacle'
p7898
I1
sS'lodged'
p7899
I1
sS'attack.handelsblatt'
p7900
I1
sS'alliances'
p7901
I1
sS'5,640'
p7902
I1
sS'santos'
p7903
I2
sS'confirms'
p7904
I2
sS'fate'
p7905
I1
sS'retroactively'
p7906
I1
sS'sowings'
p7907
I1
sS'well.for'
p7908
I1
sS'widely'
p7909
I7
sS'peoples'
p7910
I1
sS'9'
p7911
I19
sS'160,000'
p7912
I1
sS'daughters'
p7913
I1
sS'higher'
p7914
I49
sS'restraint'
p7915
I3
sS'holidays'
p7916
I2
sS'flown'
p7917
I16
sS'trade.but'
p7918
I1
sS'gravitis'
p7919
I1
sS'noticeably'
p7920
I1
sS'263'
p7921
I1
sS'lower'
p7922
I56
sS'equalled'
p7923
I1
sS'schindler'
p7924
I16
sS'anybody'
p7925
I3
sS'analysis'
p7926
I1
sS'edgy'
p7927
I1
sS'cover.poland'
p7928
I1
sS'cheer'
p7929
I2
sS'edge'
p7930
I4
sS'bounced'
p7931
I1
sS'ffmno'
p7932
I1
sS'polled'
p7933
I6
sS'competitive'
p7934
I6
sS'questions'
p7935
I4
sS'racially'
p7936
I3
sS'retired'
p7937
I2
sS'reliance'
p7938
I1
sS'continent'
p7939
I1
sS'sat-1'
p7940
I1
sS'profitable'
p7941
I2
sS'tables'
p7942
I10
sS'loading'
p7943
I1
sS'67,900'
p7944
I1
sS'5.85/5.95'
p7945
I1
sS'workers'
p7946
I37
sS'muenchen'
p7947
I1
sS'tuesday.lombard'
p7948
I1
sS'contractor'
p7949
I1
sS'problematic'
p7950
I1
sS'2.15'
p7951
I5
sS'profitably'
p7952
I1
sS'associations'
p7953
I1
sS'ipma'
p7954
I3
sS'customers'
p7955
I4
sS'advocate'
p7956
I2
sS'moody'
p7957
I9
sS'springbok'
p7958
I1
sS'sizes'
p7959
I1
sS'marlin'
p7960
I1
sS'separately'
p7961
I1
sS'collect'
p7962
I1
sS'essential'
p7963
I1
sS'butler.the'
p7964
I1
sS'continued.while'
p7965
I1
sS'stagnating'
p7966
I1
sS'hinted'
p7967
I5
sS'arrived'
p7968
I2
sS'3.6'
p7969
I7
sS'3.7'
p7970
I3
sS'3.4'
p7971
I5
sS'3.5'
p7972
I4
sS'3.2'
p7973
I1
sS'3.3'
p7974
I3
sS'3.0'
p7975
I8
sS'3.1'
p7976
I2
sS'newsletter'
p7977
I4
sS'3.8'
p7978
I5
sS'added.three'
p7979
I1
sS'dombre'
p7980
I1
sS'19.59/19.89'
p7981
I1
sS'ticking'
p7982
I1
sS'beleaguered'
p7983
I2
sS'refused'
p7984
I2
sS'2,339'
p7985
I2
sS'0904'
p7986
I1
sS'100.00.he'
p7987
I1
sS'bayern'
p7988
I12
sS'intense'
p7989
I1
sS'125,306'
p7990
I1
sS'cautious'
p7991
I7
sS'117.6'
p7992
I1
sS'117.5'
p7993
I1
sS'entrepreneurs'
p7994
I1
sS'completing'
p7995
I1
sS'firing'
p7996
I1
sS'range'
p7997
I11
sS'youthful'
p7998
I1
sS'credible'
p7999
I1
sS'on.the'
p8000
I1
sS'66-year'
p8001
I1
sS'59.69'
p8002
I2
sS'impressed'
p8003
I3
sS'madagascar'
p8004
I1
sS'tumble'
p8005
I1
sS'question'
p8006
I7
sS'vieker.estimates'
p8007
I1
sS'amidst'
p8008
I1
sS'assauer'
p8009
I1
sS'49-228'
p8010
I4
sS"we're"
p8011
I3
sS'statement.sales'
p8012
I1
sS'mountains'
p8013
I1
sS'plunge'
p8014
I4
sS'1,153'
p8015
I1
sS'release.dates'
p8016
I1
sS'1,095'
p8017
I1
sS'glamour'
p8018
I1
sS'repeatedly'
p8019
I1
sS'delta'
p8020
I11
sS'forbidding'
p8021
I1
sS'wny'
p8022
I1
sS'junior'
p8023
I3
sS'raising'
p8024
I4
sS'attribute'
p8025
I2
sS'nuremberg'
p8026
I1
sS'fulfilling'
p8027
I1
sS'arsenal.police'
p8028
I1
sS'months.dealers'
p8029
I1
sS'955,000'
p8030
I1
sS'barring'
p8031
I1
sS'carmakers'
p8032
I3
sS'called'
p8033
I28
sS'steepen'
p8034
I1
sS'informationssyteme'
p8035
I1
sS'vyakhirov'
p8036
I1
sS'warning'
p8037
I2
sS'rally'
p8038
I5
sS'tentative'
p8039
I1
sS'rains'
p8040
I1
sS'119'
p8041
I1
sS'peace'
p8042
I4
sS'backs'
p8043
I2
sS'3.21'
p8044
I1
sS'3.20'
p8045
I1
sS'income'
p8046
I14
sS'nice'
p8047
I2
sS'users'
p8048
I2
sS'problems'
p8049
I20
sS'helping'
p8050
I1
sS'generated'
p8051
I2
sS'rate.lombard'
p8052
I1
sS'fyffe'
p8053
I1
sS'america.the'
p8054
I1
sS'suffers'
p8055
I1
sS'vice'
p8056
I4
sS'veba'
p8057
I2
sS'issued'
p8058
I8
sS'differently.if'
p8059
I1
sS'resistance'
p8060
I9
sS'475-495'
p8061
I1
sS'issues'
p8062
I10
sS'3,211.13'
p8063
I1
sS'disposal'
p8064
I1
sS'dissidents'
p8065
I2
sS'languages'
p8066
I1
sS'haffner'
p8067
I1
sS'stable'
p8068
I7
sS'include'
p8069
I14
sS'dramatically'
p8070
I6
sS'confirmation'
p8071
I1
sS'seized'
p8072
I8
sS'lloyds'
p8073
I2
sS'engineered'
p8074
I1
sS'side.kurds'
p8075
I1
sS'spook'
p8076
I1
sS'autumn.issen'
p8077
I1
sS'100.47'
p8078
I1
sS'5,455'
p8079
I1
sS'zeit'
p8080
I2
sS'95,500'
p8081
I1
sS'notes'
p8082
I13
sS'hartle'
p8083
I4
sS'735,910'
p8084
I1
sS'dealt'
p8085
I2
sS'noted'
p8086
I9
sS'99.40'
p8087
I1
sS'smaller'
p8088
I10
sS'freight'
p8089
I11
sS'dagmar'
p8090
I1
sS'99.46'
p8091
I1
sS'germanypan'
p8092
I1
sS'turboprop'
p8093
I1
sS'gmbh'
p8094
I10
sS'defender'
p8095
I2
sS'feingusswerk'
p8096
I2
sS'11,025'
p8097
I1
sS'growers'
p8098
I4
sS'makers'
p8099
I4
sS'successor.witneses'
p8100
I3
sS'hourly'
p8101
I2
sS'gainers'
p8102
I4
sS'500.the'
p8103
I1
sS'tuesdays'
p8104
I1
sS'bdi'
p8105
I2
sS'bearish'
p8106
I3
sS'outlasted'
p8107
I1
sS'pixley'
p8108
I1
sS'19th'
p8109
I4
sS'bds'
p8110
I1
sS'capital'
p8111
I41
sS'34,258'
p8112
I1
sS'ammunition'
p8113
I1
sS'nazis'
p8114
I5
sS'pushing'
p8115
I1
sS'ingolstadt'
p8116
I2
sS'youngest'
p8117
I2
sS'333,250'
p8118
I1
sS'added.the'
p8119
I8
sS'solingen'
p8120
I7
sS'settling'
p8121
I5
sS'103,406'
p8122
I1
sS'guarantor'
p8123
I1
sS'larger'
p8124
I4
sS'elektronik'
p8125
I1
sS'leaving'
p8126
I3
sS'evading'
p8127
I1
sS'again.finance'
p8128
I1
sS'lambsdorff'
p8129
I1
sS'payoffs'
p8130
I2
sS'feverishly'
p8131
I1
sS'deputy'
p8132
I4
sS'egypt'
p8133
I1
sS'7,600'
p8134
I1
sS'herzog'
p8135
I6
sS'motor'
p8136
I6
sS'a300-600'
p8137
I1
sS'use'
p8138
I8
sS'feb'
p8139
I90
sS'usa'
p8140
I1
sS'term.his'
p8141
I1
sS'examination'
p8142
I1
sS'december'
p8143
I18
sS'timetable'
p8144
I4
sS'subsidies'
p8145
I2
sS'sort'
p8146
I3
sS'166,100'
p8147
I1
sS'journalists'
p8148
I5
sS'equity'
p8149
I5
sS'heir'
p8150
I1
sS'639.58'
p8151
I3
sS'ural'
p8152
I1
sS'half.the'
p8153
I1
sS'women'
p8154
I7
sS'hebridean'
p8155
I1
sS'weighting'
p8156
I1
sS'5bundesliga'
p8157
I1
sS'145,000'
p8158
I1
sS'ag.the'
p8159
I1
sS'1,300'
p8160
I2
sS'each.the'
p8161
I1
sS'dropped'
p8162
I12
sS'0.9'
p8163
I6
sS'0.8'
p8164
I6
sS'0.1'
p8165
I3
sS'0.0'
p8166
I1
sS'0.3'
p8167
I3
sS'0.2'
p8168
I9
sS'0.5'
p8169
I8
sS'0.4'
p8170
I2
sS'0.7'
p8171
I5
sS'0.6'
p8172
I9
sS'assumptions'
p8173
I1
sS'6,600'
p8174
I1
sS'serial'
p8175
I1
sS'rape'
p8176
I2
sS'sir'
p8177
I1
sS'united'
p8178
I26
sS'struggles'
p8179
I1
sS'traders'
p8180
I27
sS'instead'
p8181
I3
sS'struggled'
p8182
I1
sS'panic'
p8183
I2
sS'47.6'
p8184
I1
sS'tension'
p8185
I1
sS'hurdles'
p8186
I2
sS'attend'
p8187
I1
sS'bestsellers'
p8188
I1
sS'ethnic'
p8189
I5
sS'toddlers'
p8190
I1
sS'highlands'
p8191
I1
sS'purely'
p8192
I1
sS'33.30/33.80'
p8193
I1
sS'light'
p8194
I6
sS'chapman'
p8195
I1
sS'martina'
p8196
I1
sS'billion.the'
p8197
I1
sS'5,660'
p8198
I1
sS'reeling'
p8199
I1
sS'interpreted'
p8200
I1
sS'assets.fund'
p8201
I1
sS'131'
p8202
I1
sS'looks'
p8203
I6
sS'write'
p8204
I1
sS'complicate'
p8205
I1
sS'csce'
p8206
I1
sS'choosy'
p8207
I1
sS'160,029'
p8208
I2
sS'permanent'
p8209
I3
sS'choose'
p8210
I2
sS'saying.opel'
p8211
I1
sS'covered'
p8212
I4
sS'holiday'
p8213
I12
sS'33.00/33.40'
p8214
I1
sS'pending'
p8215
I3
sS'eastward'
p8216
I2
sS'crash'
p8217
I1
sS'enemy'
p8218
I1
sS'wolfgang'
p8219
I7
sS'material'
p8220
I4
sS'212,100'
p8221
I1
sS'flew'
p8222
I3
sS'campaigner'
p8223
I1
sS'43,600'
p8224
I1
sS'investor'
p8225
I2
sS'worlds'
p8226
I2
sS'eased'
p8227
I2
sS'latvia'
p8228
I7
sS'guenter'
p8229
I1
sS'bills'
p8230
I1
sS'erratic'
p8231
I1
sS'upheavals'
p8232
I1
sS'centuries.christie'
p8233
I1
sS'privatisation'
p8234
I2
sS'spielberg'
p8235
I1
sS'related'
p8236
I3
sS'weeks.first'
p8237
I1
sS'remove'
p8238
I1
sS'82'
p8239
I1
sS'83'
p8240
I1
sS'80'
p8241
I5
sS'81'
p8242
I2
sS'ag.it'
p8243
I1
sS'laboratory.the'
p8244
I1
sS'84'
p8245
I2
sS'85'
p8246
I4
sS'category'
p8247
I1
sS'2.30'
p8248
I1
sS'sentiment'
p8249
I16
sS'bawe'
p8250
I1
sS'chaos'
p8251
I2
sS'liberalisation'
p8252
I2
sS'exporting'
p8253
I2
sS'disclose'
p8254
I1
sS'volker'
p8255
I1
sS'promptly'
p8256
I1
sS'42,000'
p8257
I1
sS'york'
p8258
I15
sS'conflicts'
p8259
I1
sS'philip'
p8260
I1
sS'natwest'
p8261
I1
sS'3,304.16'
p8262
I1
sS'fund.but'
p8263
I1
sS'adrian'
p8264
I2
sS'rudolf'
p8265
I1
sS'gmt.a'
p8266
I1
sS'said.basf'
p8267
I1
sS'adjustments.separate'
p8268
I1
sS'26.064'
p8269
I1
sS'destinations'
p8270
I10
sS"doesn't"
p8271
I6
sS'unknown'
p8272
I2
sS'riga'
p8273
I3
sS'rigg'
p8274
I5
sS'bonn.for'
p8275
I1
sS'1500'
p8276
I4
sS'1506'
p8277
I1
sS'653'
p8278
I3
sS'holding.a'
p8279
I1
sS'oettinger'
p8280
I2
sS'reversed'
p8281
I1
sS'4.40'
p8282
I4
sS'reflecting'
p8283
I1
sS'4.45'
p8284
I1
sS'july'
p8285
I18
sS'institution'
p8286
I1
sS'marks.call'
p8287
I1
sS'liquid'
p8288
I1
sS'boring'
p8289
I1
sS'aggressive'
p8290
I2
sS'fuehrer'
p8291
I1
sS'1.4'
p8292
I6
sS'1.5'
p8293
I13
sS'1.6'
p8294
I13
sS'1.7'
p8295
I5
sS'1.0'
p8296
I4
sS'1.1'
p8297
I6
sS'1.2'
p8298
I11
sS'1.3'
p8299
I8
sS'1.8'
p8300
I7
sS'1.9'
p8301
I11
sS'percent.basf'
p8302
I1
sS'tender'
p8303
I7
sS'steepened'
p8304
I1
sS'linked'
p8305
I8
sS'catholic'
p8306
I1
sS'afraid'
p8307
I1
sS'angle'
p8308
I1
sS'russians'
p8309
I2
sS's.a.at'
p8310
I1
sS'agency'
p8311
I23
sS'12,373'
p8312
I1
sS'bosnian'
p8313
I2
sS'steady.last'
p8314
I1
sS'124.9'
p8315
I1
sS'underestimating'
p8316
I1
sS'combat'
p8317
I2
sS'centre'
p8318
I14
sS'petrol'
p8319
I1
sS'collaboration'
p8320
I1
sS'harmful'
p8321
I1
sS'werke'
p8322
I2
sS'emancipation'
p8323
I1
sS'class'
p8324
I12
sS'said.when'
p8325
I2
sS'44.71'
p8326
I4
sS'neutral'
p8327
I1
sS'looked'
p8328
I4
sS'deactivate'
p8329
I1
sS'guinea'
p8330
I2
sS'uefa'
p8331
I5
sS'goals'
p8332
I4
sS'market.one'
p8333
I2
sS'chances'
p8334
I2
sS'agreed'
p8335
I12
sS'whole.volkswagen'
p8336
I2
sS'0detailed'
p8337
I1
sS'planning'
p8338
I4
sS'turek'
p8339
I1
sS'democrats'
p8340
I24
sS'97.2'
p8341
I1
sS'97.3'
p8342
I1
sS'fear'
p8343
I4
sS'97.1'
p8344
I3
sS'debate'
p8345
I6
sS'day.but'
p8346
I1
sS'97.5'
p8347
I1
sS'unanimously'
p8348
I4
sS'3,313.82'
p8349
I1
sS'operational'
p8350
I2
sS'here.uguz'
p8351
I1
sS'march.ralph'
p8352
I1
sS'weakness.the'
p8353
I1
sS'local'
p8354
I7
sS'indignant'
p8355
I1
sS'watching'
p8356
I1
sS'midnight'
p8357
I1
sS'wednesday.for'
p8358
I2
sS'ones'
p8359
I1
sS'words'
p8360
I5
sS'coordinating'
p8361
I1
sS'spur'
p8362
I2
sS'ghetto'
p8363
I1
sS'business.lafontaine'
p8364
I1
sS'ended'
p8365
I32
sS'differential'
p8366
I1
sS'queries'
p8367
I6
sS'marks.investment'
p8368
I1
sS'available'
p8369
I4
sS'shedding'
p8370
I1
sS'eilat'
p8371
I2
sS'acquired'
p8372
I3
sS'landesanstalt'
p8373
I2
sS'growth.as'
p8374
I2
sS'briefing.for'
p8375
I1
sS'0ht'
p8376
I1
sS'mexicana'
p8377
I1
sS'closes'
p8378
I1
sS'televised'
p8379
I1
sS'arguably'
p8380
I1
sS'dlr'
p8381
I2
sS'closed'
p8382
I26
sS'bundesbank'
p8383
I76
sS'267,441'
p8384
I1
sS'159,600'
p8385
I1
sS'postponed.asked'
p8386
I1
sS'ability'
p8387
I2
sS'44,695'
p8388
I1
sS'opening'
p8389
I6
sS'joy'
p8390
I2
sS'agencies'
p8391
I1
sS'5.35'
p8392
I1
sS'job'
p8393
I10
sS'takeover'
p8394
I8
sS'joe'
p8395
I2
sS'swift'
p8396
I2
sS'barrett'
p8397
I2
sS'100.20'
p8398
I1
sS'100.25'
p8399
I1
sS'norbert'
p8400
I1
sS'goal'
p8401
I7
sS'daily.others'
p8402
I2
sS'april'
p8403
I64
sS'grain'
p8404
I1
sS'urging'
p8405
I3
sS'far.according'
p8406
I2
sS'safely'
p8407
I1
sS'grounds'
p8408
I1
sS'unclear'
p8409
I2
sS'99.69'
p8410
I1
sS'wall'
p8411
I35
sS'32.10/32.50'
p8412
I2
sS'narrower'
p8413
I1
sS'99.62'
p8414
I1
sS'99.60'
p8415
I1
sS'sales.asked'
p8416
I1
sS'100-day'
p8417
I1
sS'table'
p8418
I1
sS'zinc'
p8419
I1
sS'withdrawn'
p8420
I1
sS'756525'
p8421
I46
sS'charts'
p8422
I1
sS'730'
p8423
I1
sS'agreements'
p8424
I3
sS'737'
p8425
I2
sS'nickel'
p8426
I1
sS'painted'
p8427
I5
sS'sufficient'
p8428
I2
sS'scrutiny'
p8429
I1
sS'consecutive'
p8430
I2
sS'overturn'
p8431
I3
sS'present'
p8432
I9
sS'said.lufthansa'
p8433
I1
sS'unlike'
p8434
I2
sS'choices'
p8435
I4
sS'hovering'
p8436
I2
sS'15.american'
p8437
I1
sS'meeting.in'
p8438
I1
sS'2007'
p8439
I1
sS'henkel'
p8440
I2
sS'marks.weber'
p8441
I1
sS'said.suharto'
p8442
I3
sS'relativise'
p8443
I1
sS'draining'
p8444
I1
sS'dual'
p8445
I2
sS'1.65'
p8446
I1
sS'1-31'
p8447
I4
sS'member'
p8448
I16
sS'temptingly'
p8449
I1
sS'unity'
p8450
I2
sS'thon'
p8451
I1
sS'exuberance'
p8452
I2
sS'largest'
p8453
I29
sS'units'
p8454
I12
sS'gets'
p8455
I5
sS'incl'
p8456
I3
sS'tomatoes'
p8457
I1
sS'difficult'
p8458
I22
sS'issuance'
p8459
I1
sS'collar'
p8460
I1
sS'fighting'
p8461
I3
sS'english'
p8462
I7
sS'1.68'
p8463
I2
sS'tuesday.the'
p8464
I1
sS'riveted'
p8465
I1
sS'heavily'
p8466
I4
sS'gyrations'
p8467
I1
sS'mighty'
p8468
I1
sS'rocked'
p8469
I1
sS'allgemeine'
p8470
I11
sS'rapid'
p8471
I5
sS'0732'
p8472
I1
sS'supply'
p8473
I10
sS'hall'
p8474
I1
sS'concourse'
p8475
I1
sS'attractive'
p8476
I1
sS'tax'
p8477
I49
sS'unprecedented'
p8478
I3
sS'1.5two'
p8479
I1
sS'protesters'
p8480
I1
sS'1,585'
p8481
I1
sS'siemens'
p8482
I8
sS'1990.he'
p8483
I1
sS'know'
p8484
I5
sS'press'
p8485
I7
sS'87.6-million'
p8486
I2
sS'miami'
p8487
I8
sS'29-year'
p8488
I1
sS'james'
p8489
I2
sS'latvenergo'
p8490
I3
sS'exceed'
p8491
I2
sS'sequence'
p8492
I1
sS'elevators'
p8493
I1
sS'church'
p8494
I2
sS'searching'
p8495
I1
sS'115'
p8496
I2
sS'growth'
p8497
I58
sS'export'
p8498
I16
sS'110'
p8499
I1
sS'113'
p8500
I1
sS'employment'
p8501
I12
sS'5427717'
p8502
I1
sS'lead'
p8503
I23
sS'leak'
p8504
I1
sS'miner'
p8505
I1
sS'3,254.0'
p8506
I1
sS'leap'
p8507
I1
sS'lire'
p8508
I1
sS'leader'
p8509
I25
sS'86hg'
p8510
I1
sS'yet.three'
p8511
I1
sS'reality.gaining'
p8512
I1
sS'tamaulipas'
p8513
I1
sS'27.5'
p8514
I1
sS'stay'
p8515
I12
sS'raise'
p8516
I17
sS'rare'
p8517
I3
sS'carried'
p8518
I12
sS'getting'
p8519
I2
sS'column'
p8520
I3
sS'urged'
p8521
I6
sS'surge'
p8522
I4
sS'carries'
p8523
I3
sS'carrier'
p8524
I10
sS'fatally'
p8525
I3
sS'suharto'
p8526
I18
sS'outset'
p8527
I1
sS'warrants'
p8528
I1
sS'weather'
p8529
I6
sS'promise'
p8530
I1
sS'novosibirsk'
p8531
I1
sS'tuesday.last'
p8532
I2
sS'maize'
p8533
I1
sS'2.50'
p8534
I10
sS'2.55'
p8535
I1
sS'2.54'
p8536
I1
sS'transfer'
p8537
I1
sS'2.59'
p8538
I1
sS'1-10-100'
p8539
I3
sS'germany.jackson'
p8540
I1
sS'marks.additionally'
p8541
I1
sS'overtime'
p8542
I2
sS'vax'
p8543
I3
sS'stymied'
p8544
I1
sS'triggered'
p8545
I3
sS"i've"
p8546
I1
sS'funds'
p8547
I19
sS'volume'
p8548
I9
sS'contradictory'
p8549
I1
sS'percent.new'
p8550
I1
sS'morning.stock'
p8551
I3
sS'tactics'
p8552
I1
sS'kurds'
p8553
I3
sS'distract'
p8554
I1
sS'record'
p8555
I32
sS'gaps'
p8556
I2
sS'ruling'
p8557
I6
sS'infants'
p8558
I1
sS'200,000'
p8559
I1
sS'team.the'
p8560
I1
sS'5,522'
p8561
I1
sS'heralding'
p8562
I1
sS'resumption'
p8563
I1
sS'1.648'
p8564
I1
sS'99.70.by'
p8565
I1
sS'agencies.more'
p8566
I1
sS'volumes.this'
p8567
I1
sS'diplomat'
p8568
I1
sS'silenced'
p8569
I1
sS'percent'
p8570
I403
sS'book'
p8571
I1
sS'republic.the'
p8572
I1
sS'clicks'
p8573
I1
sS'conclusion'
p8574
I1
sS'kinds'
p8575
I1
sS'767-300.a'
p8576
I1
sS'june'
p8577
I36
sS'risked'
p8578
I3
sS'margaret'
p8579
I1
sS'61.45'
p8580
I1
sS'29.9'
p8581
I2
sS'priced'
p8582
I5
sS'4.25'
p8583
I1
sS'upwards'
p8584
I3
sS'ranks'
p8585
I2
sS'fritz'
p8586
I1
sS'volumes'
p8587
I9
sS'ideological'
p8588
I1
sS'tonnes'
p8589
I117
sS'marks.it'
p8590
I1
s.