(dp0
S'ali'
p1
I5
sS'issued'
p2
I2
sS'thai'
p3
I2
sS'resistance'
p4
I1
sS'month'
p5
I1
sS'zine'
p6
I1
sS'softer'
p7
I1
sS'invitation'
p8
I3
sS'talks'
p9
I3
sS'religious'
p10
I2
sS'establishment'
p11
I1
sS'increase'
p12
I3
sS'votes'
p13
I1
sS'uneven'
p14
I1
sS'turkish'
p15
I8
sS'paris'
p16
I1
sS'concerned'
p17
I1
sS'dissidents'
p18
I2
sS'contained'
p19
I1
sS'thursday'
p20
I4
sS'presents'
p21
I2
sS'iraqi'
p22
I2
sS'charge'
p23
I2
sS'asking'
p24
I2
sS'outlooks'
p25
I1
sS'rials'
p26
I9
sS'include'
p27
I1
sS'worth'
p28
I1
sS'sent'
p29
I1
sS'nioc'
p30
I2
sS'1991'
p31
I2
sS'appointment'
p32
I1
sS'risk'
p33
I2
sS'lebanese'
p34
I2
sS'said.there'
p35
I1
sS'implicitly'
p36
I4
sS'ibrahim'
p37
I1
sS'detention'
p38
I3
sS'ankara'
p39
I3
sS'rebuked'
p40
I2
sS'250-260'
p41
I1
sS'difference'
p42
I1
sS'wickramaratne'
p43
I2
sS'look'
p44
I2
sS'press.he'
p45
I1
sS'26.77'
p46
I1
sS'investigator'
p47
I5
sS'did'
p48
I1
sS'1996'
p49
I7
sS'wednesday'
p50
I1
sS'standards'
p51
I1
sS'large'
p52
I1
sS'progress'
p53
I1
sS'el'
p54
I1
sS'assadi'
p55
I4
sS'ceasefire'
p56
I1
sS'originally'
p57
I1
sS'6,000'
p58
I1
sS'concluded'
p59
I1
sS'work'
p60
I1
sS'uruguayan'
p61
I1
sS'leaders'
p62
I3
sS'reuters.iran'
p63
I1
sS'deutsch'
p64
I1
sS'tea'
p65
I5
sS'tunisian'
p66
I1
sS'estimates'
p67
I1
sS'muammar'
p68
I1
sS'past'
p69
I1
sS'second'
p70
I2
sS'mullahs'
p71
I1
sS'lawyer'
p72
I2
sS'pass'
p73
I1
sS'akbar'
p74
I2
sS'port'
p75
I2
sS'brokered'
p76
I1
sS'lukman'
p77
I1
sS'imported'
p78
I1
sS'richard'
p79
I1
sS'consortium'
p80
I2
sS'section'
p81
I2
sS'brief'
p82
I2
sS'expressed'
p83
I1
sS'enjoyed'
p84
I1
sS'spokesman'
p85
I9
sS'version'
p86
I1
sS'conduct'
p87
I1
sS'new'
p88
I4
sS'jurist'
p89
I2
sS'officially'
p90
I1
sS'public'
p91
I2
sS'contrast'
p92
I2
sS'told'
p93
I9
sS'body'
p94
I2
sS'friday'
p95
I6
sS'iran'
p96
I51
sS'left.one'
p97
I1
sS'stance'
p98
I1
sS'exchange'
p99
I2
sS'added.this'
p100
I2
sS'men'
p101
I2
sS'glimpse'
p102
I1
sS'behaviour'
p103
I1
sS'believed'
p104
I4
sS'protection'
p105
I1
sS'added.the'
p106
I2
sS'groups'
p107
I2
sS'aid'
p108
I1
sS'november'
p109
I1
sS'iraq'
p110
I4
sS'kidnapped'
p111
I4
sS'change'
p112
I7
sS'suggest'
p113
I1
sS'publisher'
p114
I1
sS'property'
p115
I1
sS'bangkok'
p116
I2
sS'ahead'
p117
I1
sS'canadian'
p118
I4
sS'involved'
p119
I1
sS'pressure'
p120
I1
sS'changed'
p121
I1
sS'reason'
p122
I1
sS'reports'
p123
I4
sS'detonate'
p124
I1
sS'products'
p125
I3
sS'fernas'
p126
I2
sS'killed.the'
p127
I1
sS'pick'
p128
I1
sS'patriotic'
p129
I1
sS'military'
p130
I3
sS'criticism'
p131
I1
sS'freemasons'
p132
I1
sS'family'
p133
I1
sS'servicemen'
p134
I1
sS'chaired'
p135
I1
sS'330'
p136
I1
sS'bloody'
p137
I1
sS'10,000'
p138
I1
sS'names'
p139
I1
sS'welch'
p140
I1
sS'total'
p141
I1
sS'armed'
p142
I2
sS'market'
p143
I1
sS'opponents'
p144
I1
sS'use'
p145
I1
sS'working'
p146
I1
sS'army'
p147
I1
sS'met'
p148
I1
sS'positive'
p149
I1
sS'bazak'
p150
I1
sS'visit'
p151
I3
sS'law.turkey'
p152
I2
sS'bombings'
p153
I1
sS'dissent'
p154
I1
sS'assessment'
p155
I1
sS'subsidies'
p156
I3
sS'demand.some'
p157
I1
sS'residents.oil'
p158
I1
sS'kerosene'
p159
I1
sS'fuel.state'
p160
I1
sS'feared'
p161
I1
sS'pipeline'
p162
I8
sS'carrying'
p163
I1
sS'sharply'
p164
I1
sS'particular'
p165
I2
sS'known'
p166
I1
sS'sarnadi'
p167
I2
sS'badri'
p168
I1
sS'harvest'
p169
I1
sS'appointed'
p170
I1
sS'behalf'
p171
I1
sS'women'
p172
I8
sS'town'
p173
I3
sS'states'
p174
I7
sS'keeping'
p175
I1
sS'1992'
p176
I1
sS'1995'
p177
I4
sS'1994'
p178
I1
sS'1997'
p179
I1
sS'rights'
p180
I15
sS'phrasing'
p181
I1
sS'cap'
p182
I1
sS'gasoline'
p183
I1
sS'after.uruguay'
p184
I1
sS'values'
p185
I2
sS'montevideo'
p186
I1
sS'growing'
p187
I1
sS'meet'
p188
I1
sS'adequately'
p189
I1
sS'purchases'
p190
I1
sS'sri'
p191
I3
sS'council'
p192
I1
sS'uruguay'
p193
I2
sS'process'
p194
I1
sS'december'
p195
I2
sS'cited'
p196
I2
sS'share'
p197
I1
sS'high'
p198
I3
sS'effectively'
p199
I1
sS'mussavi'
p200
I1
sS'firm'
p201
I1
sS'sought'
p202
I1
sS'premium'
p203
I1
sS'parliamentary'
p204
I1
sS'litre'
p205
I1
sS'united'
p206
I10
sS'end'
p207
I1
sS'winter'
p208
I1
sS'hashemi'
p209
I1
sS'imminent'
p210
I2
sS'53-member'
p211
I3
sS'holds'
p212
I1
sS'1'
p213
I2
sS'botas'
p214
I2
sS'writers'
p215
I1
sS'buenos'
p216
I1
sS'resignation'
p217
I1
sS'added.similar'
p218
I1
sS'mar'
p219
I1
sS'information'
p220
I1
sS'earlier'
p221
I1
sS'rival.the'
p222
I1
sS'reflect'
p223
I1
sS'islamic'
p224
I9
sS'membership'
p225
I1
sS'5.3'
p226
I1
sS'involvement'
p227
I1
sS'president'
p228
I6
sS'revealed'
p229
I2
sS'executions'
p230
I1
sS'erzurum'
p231
I2
sS'retail'
p232
I1
sS'natural'
p233
I2
sS'commodity'
p234
I1
sS'amid'
p235
I1
sS'mohsen'
p236
I1
sS'headquarters'
p237
I1
sS'1995-2000'
p238
I1
sS'newsroom'
p239
I2
sS'frequent'
p240
I1
sS'media'
p241
I1
sS'democratic'
p242
I1
sS'began'
p243
I1
sS'said.dealers'
p244
I1
sS'executed'
p245
I1
sS'25.33'
p246
I1
sS'help'
p247
I1
sS'office'
p248
I1
sS'september'
p249
I1
sS'reporters'
p250
I1
sS'raised'
p251
I1
sS'trade'
p252
I7
sS'iran.mohammadi'
p253
I1
sS'paper'
p254
I1
sS'including'
p255
I3
sS'committee'
p256
I3
sS'signs'
p257
I2
sS'clinton'
p258
I2
sS'24'
p259
I1
sS'saigon'
p260
I2
sS'accepted'
p261
I1
sS'20'
p262
I1
sS'10.4'
p263
I1
sS'termed'
p264
I1
sS'300,000'
p265
I2
sS'organisation'
p266
I2
sS'28'
p267
I1
sS'sunday'
p268
I1
sS'late'
p269
I3
sS'thursday.the'
p270
I1
sS'reuters'
p271
I4
sS'disclosed'
p272
I1
sS'annual'
p273
I1
sS'weeks'
p274
I1
sS'societies'
p275
I1
sS'friday.the'
p276
I1
sS'evening'
p277
I1
sS'seeking'
p278
I2
sS'dan'
p279
I1
sS'material'
p280
I3
sS'organisation.it'
p281
I1
sS'kish'
p282
I1
sS'number'
p283
I3
sS'confiscation'
p284
I1
sS'course'
p285
I1
sS'mohammadi'
p286
I1
sS'escaping'
p287
I1
sS'documented'
p288
I1
sS'iranians'
p289
I5
sS'discuss'
p290
I1
sS'maintaining'
p291
I2
sS'moqaddam.the'
p292
I1
sS'8-10.the'
p293
I1
sS'exiles'
p294
I3
sS'notified'
p295
I1
sS'warned'
p296
I2
sS'world.habiballah'
p297
I1
sS'hizbollah'
p298
I2
sS'deteriorated'
p299
I1
sS'entered'
p300
I1
sS'rising'
p301
I1
sS'amnesty'
p302
I3
sS'quarter'
p303
I2
sS'said.copithorne'
p304
I1
sS'heavy'
p305
I2
sS'status'
p306
I4
sS'lifted'
p307
I1
sS'christian'
p308
I1
sS'citizens'
p309
I1
sS'independent'
p310
I1
sS'250,000'
p311
I1
sS'crimes'
p312
I1
sS'reduce'
p313
I2
sS'1993'
p314
I2
sS'related'
p315
I1
sS'group'
p316
I5
sS'constitute'
p317
I2
sS'society'
p318
I1
sS'oil'
p319
I13
sS'trading'
p320
I1
sS'year'
p321
I19
sS'saturday'
p322
I1
sS'special'
p323
I1
sS'secretly'
p324
I2
sS'decree'
p325
I1
sS'robert'
p326
I1
sS'diesel'
p327
I1
sS'vessels'
p328
I1
sS'looking'
p329
I1
sS'litre.it'
p330
I1
sS'acting'
p331
I1
sS'171'
p332
I1
sS'velayati'
p333
I2
sS'issue'
p334
I3
sS'benjamin'
p335
I1
sS'arrested'
p336
I3
sS'risen'
p337
I2
sS'puk'
p338
I3
sS'said.david'
p339
I1
sS'million'
p340
I9
sS'threatened'
p341
I2
sS'delegates'
p342
I1
sS'free'
p343
I1
sS'like'
p344
I1
sS'embassy'
p345
I5
sS'cut'
p346
I1
sS'completely'
p347
I1
sS'backed'
p348
I2
sS'wanted'
p349
I1
sS'curtailed'
p350
I1
sS'revolutionary'
p351
I1
sS'advance'
p352
I1
sS'river'
p353
I1
sS'bring'
p354
I1
sS'ministry'
p355
I4
sS'retrogressive.in'
p356
I1
sS'times'
p357
I3
sS'american'
p358
I1
sS'place'
p359
I2
sS'then.state'
p360
I1
sS'unknown'
p361
I1
sS'review.an'
p362
I1
sS'view'
p363
I1
sS'south'
p364
I1
sS'rafsanjani'
p365
I1
sS'major'
p366
I2
sS'rapporteurs'
p367
I1
sS'grade'
p368
I3
sS'overtaken'
p369
I1
sS'reflected'
p370
I1
sS'alleged'
p371
I4
sS'opec'
p372
I6
sS'improvements'
p373
I1
sS'relations'
p374
I1
sS'message'
p375
I2
sS'awarded'
p376
I4
sS'evin'
p377
I1
sS'traders'
p378
I1
sS'enforced'
p379
I1
sS'city'
p380
I3
sS'little'
p381
I2
sS'explosives'
p382
I2
sS'lanka'
p383
I3
sS'adopted'
p384
I1
sS'tonnes'
p385
I12
sS'statement'
p386
I9
sS'abstentions'
p387
I1
sS'nigeria'
p388
I1
sS'final'
p389
I1
sS'summit'
p390
I1
sS'ceiling'
p391
I1
sS'selling'
p392
I1
sS'inefficient'
p393
I1
sS'geneva'
p394
I2
sS'mably'
p395
I1
sS'ncr'
p396
I3
sS'rejected'
p397
I1
sS'released'
p398
I1
sS'western'
p399
I2
sS'focusing'
p400
I1
sS'shortly'
p401
I1
sS'july'
p402
I1
sS'believe'
p403
I1
sS'unrealistic'
p404
I2
sS'renewed'
p405
I1
sS'ahmed'
p406
I1
sS'b'
p407
I1
sS'ben'
p408
I2
sS'14'
p409
I1
sS'17'
p410
I2
sS'iranian'
p411
I26
sS'rival'
p412
I1
sS'rate'
p413
I3
sS'nations'
p414
I3
sS'60,000'
p415
I1
sS'sourcing'
p416
I1
sS'determined'
p417
I2
sS'briefing'
p418
I2
sS'powers'
p419
I1
sS'prospect'
p420
I1
sS'accusing'
p421
I1
sS'tonnes.the'
p422
I1
sS'fashion'
p423
I1
sS'false'
p424
I1
sS'confessional'
p425
I1
sS'350,000'
p426
I1
sS'ran'
p427
I1
sS'imports'
p428
I2
sS'pro'
p429
I2
sS'organisations'
p430
I1
sS'review.the'
p431
I1
sS'talking'
p432
I1
sS'buried'
p433
I1
sS'sentences'
p434
I2
sS'close'
p435
I2
sS'border'
p436
I2
sS'linked'
p437
I1
sS'affairs'
p438
I1
sS'separate'
p439
I1
sS'agency'
p440
I1
sS'mid'
p441
I1
sS'purchasing'
p442
I1
sS'build'
p443
I2
sS'forces'
p444
I3
sS'nazareth'
p445
I1
sS'battled'
p446
I1
sS'beirut'
p447
I1
sS'failing'
p448
I1
sS'shipments'
p449
I2
sS'200'
p450
I1
sS'added'
p451
I4
sS'normal'
p452
I1
sS'petrol'
p453
I1
sS'price'
p454
I2
sS'measures'
p455
I1
sS'quota'
p456
I1
sS'falls'
p457
I1
sS'regular'
p458
I2
sS'plan'
p459
I1
sS'significant'
p460
I2
sS'prisoner'
p461
I1
sS'said.mohammadi'
p462
I1
sS'sudjana'
p463
I1
sS'dealers'
p464
I1
sS'goodwill'
p465
I1
sS'said.amnesty'
p466
I1
sS'clear'
p467
I3
sS'gather'
p468
I3
sS'request'
p469
I1
sS'sale'
p470
I1
sS'barred'
p471
I1
sS'rupees'
p472
I2
sS'occasion'
p473
I1
sS'senior'
p474
I2
sS'massoud'
p475
I1
sS'turcoman'
p476
I1
sS'came'
p477
I2
sS'sector'
p478
I2
sS'saying'
p479
I4
sS'emerging'
p480
I1
sS'assassinations'
p481
I1
sS'stfa'
p482
I2
sS'coup'
p483
I1
sS'violation'
p484
I2
sS'662'
p485
I1
sS'23-year'
p486
I2
sS'favour'
p487
I1
sS'tehran'
p488
I10
sS'session'
p489
I1
sS'radio'
p490
I1
sS'sustained'
p491
I1
sS'debate'
p492
I1
sS'current'
p493
I1
sS'execution'
p494
I2
sS'based'
p495
I3
sS'just'
p496
I1
sS'northern'
p497
I2
sS'litre.fuel'
p498
I1
sS'escaped'
p499
I1
sS'writer'
p500
I1
sS'outside'
p501
I2
sS'atrocities'
p502
I1
sS'542'
p503
I1
sS'masked'
p504
I1
sS'abidine'
p505
I1
sS'fuel'
p506
I1
sS'rice'
p507
I6
sS'local'
p508
I1
sS'sure'
p509
I1
sS'attend.opec'
p510
I1
sS'plate'
p511
I1
sS'exports'
p512
I6
sS'dominant'
p513
I1
sS'closed'
p514
I1
sS'permission'
p515
I2
sS'beat'
p516
I2
sS'assistant'
p517
I1
sS'condemning'
p518
I1
sS'capital'
p519
I3
sS'stop'
p520
I1
sS'kind'
p521
I2
sS"d'affaires"
p522
I1
sS'soon'
p523
I1
sS'joint'
p524
I1
sS'actions'
p525
I2
sS'international'
p526
I4
sS'report'
p527
I13
sS'arranged'
p528
I1
sS'parlance'
p529
I1
sS'argues'
p530
I2
sS'diplomat.his'
p531
I1
sS'four.israel'
p532
I1
sS'areas'
p533
I1
sS'prime'
p534
I1
sS'nicholas'
p535
I3
sS'scene'
p536
I1
sS'invaded'
p537
I1
sS'countries'
p538
I6
sS'kazem'
p539
I1
sS'11-member'
p540
I1
sS'ahmad'
p541
I1
sS'it.however'
p542
I2
sS'130'
p543
I1
sS'filled'
p544
I1
sS'murdered'
p545
I2
sS'london'
p546
I2
sS'movement'
p547
I1
sS'secretary'
p548
I2
sS'habiballah'
p549
I3
sS'declared'
p550
I2
sS'akhavan'
p551
I1
sS'victim'
p552
I1
sS'maurice'
p553
I3
sS'responsible.the'
p554
I1
sS'national'
p555
I2
sS'310'
p556
I1
sS'operates'
p557
I1
sS'touch'
p558
I2
sS'officials'
p559
I7
sS'mahmoud'
p560
I1
sS'agricultural'
p561
I1
sS'etete'
p562
I1
sS'sporadic'
p563
I1
sS'aires'
p564
I1
sS'rilwanu'
p565
I1
sS'2.5'
p566
I1
sS'report.the'
p567
I1
sS'enerkom'
p568
I2
sS'israeli'
p569
I5
sS'said'
p570
I51
sS'1995.total'
p571
I1
sS'review'
p572
I2
sS'currently'
p573
I3
sS'representatives'
p574
I1
sS'pressures'
p575
I2
sS'state'
p576
I8
sS'difficulties'
p577
I1
sS'cooperation'
p578
I2
sS'isfahan'
p579
I2
sS'crude'
p580
I1
sS'probably'
p581
I2
sS'approach'
p582
I1
sS'bought'
p583
I1
sS'recently'
p584
I1
sS'august'
p585
I3
sS'rumours'
p586
I1
sS'missing'
p587
I5
sS'sold'
p588
I1
sS'killing'
p589
I1
sS'death'
p590
I3
sS'opposition'
p591
I3
sS'news'
p592
I4
sS'mujahideen'
p593
I1
sS'come'
p594
I1
sS'undermine'
p595
I1
sS'monitor'
p596
I1
sS'faced'
p597
I1
sS'received'
p598
I1
sS'climate'
p599
I4
sS'accused'
p600
I3
sS'libya'
p601
I7
sS'reported'
p602
I4
sS'country'
p603
I9
sS'trader'
p604
I1
sS'rescheduled'
p605
I1
sS'according'
p606
I2
sS'contract'
p607
I6
sS'minorities'
p608
I2
sS'philippines.vietnam'
p609
I1
sS's'
p610
I4
sS'planned'
p611
I1
sS'photographer'
p612
I1
sS'reply'
p613
I1
sS'report.copithorne'
p614
I1
sS'women.copithorne'
p615
I1
sS'parliament.but'
p616
I1
sS'asked'
p617
I1
sS'comes'
p618
I1
sS'yearly'
p619
I1
sS'libyan'
p620
I2
sS'supply'
p621
I3
sS'tunisia'
p622
I1
sS'tuesday'
p623
I3
sS'excess'
p624
I1
sS'period'
p625
I2
sS'satisfaction'
p626
I1
sS'exploit'
p627
I1
sS'written'
p628
I1
sS'anti'
p629
I1
sS'1994.israel'
p630
I1
sS'68'
p631
I1
sS'sees'
p632
I2
sS'details.the'
p633
I1
sS'1.74'
p634
I1
sS'100'
p635
I1
sS'runaway'
p636
I1
sS'considering'
p637
I1
sS'cheapest'
p638
I1
sS'raise'
p639
I2
sS'arbil'
p640
I1
sS'union'
p641
I1
sS'west'
p642
I1
sS'condemned'
p643
I2
sS'political'
p644
I1
sS'criticised'
p645
I3
sS'turkey'
p646
I6
sS'commission'
p647
I12
sS'secret'
p648
I1
sS'production'
p649
I2
sS'detrimental'
p650
I1
sS'rapporteur'
p651
I1
sS'expected'
p652
I4
sS'irna'
p653
I1
sS'assassinated'
p654
I1
sS'meeting'
p655
I5
sS'killed'
p656
I1
sS'wants'
p657
I1
sS'suggested'
p658
I1
sS'eastern'
p659
I3
sS'trends.by'
p660
I1
sS'concerning'
p661
I1
sS'prison'
p662
I4
sS'gas'
p663
I7
sS'netanyahu'
p664
I1
sS'al'
p665
I1
sS'guerrillas'
p666
I1
sS'minister'
p667
I7
sS'gasolines'
p668
I1
sS'demand'
p669
I3
sS'prices'
p670
I5
sS'regretted'
p671
I1
sS'160'
p672
I1
sS'argentina'
p673
I1
sS'present'
p674
I1
sS'mohammad'
p675
I1
sS'killings'
p676
I2
sS'criminal'
p677
I1
sS'conception'
p678
I1
sS'survey'
p679
I1
sS'appearance'
p680
I1
sS'lebanon.habiballah'
p681
I1
sS'aim'
p682
I1
sS'near'
p683
I1
sS'specialises'
p684
I1
sS'32'
p685
I1
sS'situation'
p686
I4
sS'abducted'
p687
I1
sS'balance'
p688
I1
sS'negotiating'
p689
I1
sS'real'
p690
I1
sS'compliance'
p691
I2
sS'aghazadeh'
p692
I1
sS'cents'
p693
I1
sS'thursday.five'
p694
I1
sS'kurdistan'
p695
I2
sS'commander'
p696
I1
sS'said.ben'
p697
I1
sS'8060'
p698
I1
sS'exile'
p699
I2
sS'kenya'
p700
I2
sS'iran.but'
p701
I1
sS'teheran'
p702
I2
sS'capture'
p703
I1
sS'150'
p704
I1
sS'lankan'
p705
I1
sS'severity'
p706
I1
sS'colombo.he'
p707
I1
sS'pay'
p708
I1
sS'make'
p709
I1
sS'atlit'
p710
I1
sS'administration'
p711
I1
sS'admit'
p712
I1
sS'trip'
p713
I1
sS'member'
p714
I1
sS'32,000'
p715
I1
sS'party'
p716
I1
sS'shah'
p717
I1
sS'document'
p718
I1
sS'tonne.traders'
p719
I1
sS'conference.opec'
p720
I1
sS'european'
p721
I1
sS'week'
p722
I8
sS'meets'
p723
I1
sS'used'
p724
I2
sS'austrian'
p725
I1
sS'forced'
p726
I1
sS'stressed'
p727
I1
sS'driver'
p728
I1
sS'possible'
p729
I2
sS'director'
p730
I1
sS'action'
p731
I5
sS'ankara.last'
p732
I2
sS'opportunity'
p733
I1
sS'blamed'
p734
I1
sS'identity'
p735
I1
sS'recent'
p736
I2
sS'652-0642'
p737
I1
sS'kurdish'
p738
I2
sS'tracking'
p739
I1
sS'kept'
p740
I1
sS'1979'
p741
I4
sS'charges'
p742
I2
sS'weapon'
p743
I1
sS'indonesia'
p744
I1
sS'substantive'
p745
I1
sS'gaddafi'
p746
I1
sS'march.it'
p747
I1
sS'report.in'
p748
I1
sS'position'
p749
I1
sS'clearance'
p750
I1
sS'ambassador'
p751
I3
sS'quoted'
p752
I6
sS'tip'
p753
I1
sS'domestic'
p754
I1
sS'rest'
p755
I1
sS'militiamen'
p756
I1
sS'sources'
p757
I3
sS'interim'
p758
I1
sS'kill'
p759
I1
sS'handed'
p760
I2
sS'human'
p761
I11
sS'years'
p762
I3
sS'rajavi'
p763
I1
sS'mohamed'
p764
I1
sS'previous'
p765
I2
sS'blow'
p766
I1
sS'announcement'
p767
I2
sS'loading'
p768
I1
sS'dissenters'
p769
I2
sS"we've"
p770
I3
sS'assassination'
p771
I1
sS'day'
p772
I2
sS'arrest'
p773
I1
sS'overthrow'
p774
I1
sS'280'
p775
I1
sS'record.foreign'
p776
I1
sS'submissions'
p777
I1
sS'momentum'
p778
I1
sS'gave'
p779
I4
sS'scheduled'
p780
I3
sS'assyrian'
p781
I1
sS'march'
p782
I2
sS'copithorne'
p783
I10
sS'government'
p784
I16
sS'big'
p785
I1
sS'couple'
p786
I1
sS'condemnation'
p787
I1
sS'february'
p788
I6
sS'early'
p789
I3
sS'increases'
p790
I1
sS'know'
p791
I1
sS'tabriz'
p792
I2
sS'30'
p793
I1
sS'press'
p794
I1
sS'world'
p795
I2
sS'burns'
p796
I3
sS'usually'
p797
I1
sS'bpd'
p798
I3
sS'58'
p799
I1
sS'defended'
p800
I1
sS'maintained'
p801
I1
sS'abdalla'
p802
I1
sS'continue'
p803
I2
sS'officer'
p804
I1
sS'occasions'
p805
I2
sS'output'
p806
I2
sS'soft'
p807
I2
sS'deal'
p808
I6
sS'people'
p809
I2
sS'spring'
p810
I1
sS'lebanon'
p811
I3
sS'envoys'
p812
I1
sS'delegation'
p813
I1
sS'economic'
p814
I3
sS'export'
p815
I1
sS'election'
p816
I1
sS'home'
p817
I1
sS'kdp'
p818
I3
sS'118'
p819
I2
sS'happens'
p820
I1
sS'provided'
p821
I1
sS'sentenced'
p822
I1
sS'encouraging'
p823
I1
sS'reportedly'
p824
I1
sS'lead'
p825
I3
sS'confirm'
p826
I1
sS'decision'
p827
I1
sS'400,000'
p828
I2
sS'legal'
p829
I1
sS'foreign'
p830
I1
sS'critical'
p831
I2
sS'sponsoring'
p832
I2
sS'deficit'
p833
I1
sS'fob'
p834
I2
sS'denied'
p835
I2
sS'1995.the'
p836
I1
sS'record.this'
p837
I1
sS'leader'
p838
I2
sS'conference'
p839
I1
sS'biased'
p840
I2
sS'run'
p841
I4
sS'1980s'
p842
I1
sS'power'
p843
I1
sS'slight'
p844
I1
sS'problems'
p845
I1
sS'equivalent'
p846
I1
sS'agreement'
p847
I2
sS'refused'
p848
I2
sS'broken'
p849
I2
sS'step'
p850
I1
sS'corp'
p851
I1
sS'thailand'
p852
I1
sS'abroad'
p853
I5
sS'conducting'
p854
I1
sS'carried'
p855
I1
sS'impose'
p856
I2
sS'attacks'
p857
I1
sS'island'
p858
I1
sS'months'
p859
I2
sS'gholamareza'
p860
I1
sS'practical'
p861
I1
sS'monthly'
p862
I1
sS'militia'
p863
I1
sS'halabja'
p864
I1
sS'act'
p865
I6
sS'reuters.shai'
p866
I1
sS'taqi'
p867
I1
sS'ida'
p868
I1
sS'baseless'
p869
I1
sS'barrels'
p870
I1
sS'179.4'
p871
I1
sS'12,000'
p872
I1
sS'letters'
p873
I1
sS'facility'
p874
I1
sS'bundles'
p875
I1
sS'prisoners'
p876
I2
sS'scores'
p877
I1
sS'washington'
p878
I2
sS'3,000'
p879
I1
sS'authorities'
p880
I4
sS'guard'
p881
I1
sS'accounts'
p882
I1
sS'determine'
p883
I4
sS'refined'
p884
I1
sS'quiet'
p885
I1
sS'mere'
p886
I1
sS'exporter'
p887
I2
sS'rastegar'
p888
I1
sS'23'
p889
I2
sS'terrorism'
p890
I2
sS'1982'
p891
I3
sS'1980'
p892
I1
sS'area'
p893
I1
sS'support'
p894
I1
sS'sovereign'
p895
I1
sS'240-250'
p896
I1
sS'avail'
p897
I1
sS'trigger'
p898
I2
sS'low'
p899
I1
sS'way'
p900
I4
sS'factions'
p901
I1
sS'energy'
p902
I1
sS'billion'
p903
I3
sS'head'
p904
I1
sS'jewish'
p905
I1
sS'attempted'
p906
I1
sS'smuggling'
p907
I1
sS'hoped'
p908
I1
sS'volume'
p909
I1
sS'said.the'
p910
I2
sS'neutral'
p911
I1
sS'link'
p912
I2
sS'repeatedly'
p913
I1
sS'hopes'
p914
I2
sS'unreliable'
p915
I1
sS'line'
p916
I1
sS'22-page'
p917
I1
sS'true'
p918
I1
sS'considerable'
p919
I3
sS'220'
p920
I1
sS'october'
p921
I1
sS'imports.a'
p922
I1
sS'largest'
p923
I1
sS'inside'
p924
I1
sS'official'
p925
I6
sS'signed'
p926
I3
sS'record'
p927
I1
sS'countries.though'
p928
I1
sS'200,000'
p929
I2
sS'similar'
p930
I3
sS'average'
p931
I1
sS'zionists'
p932
I1
sS'tonne'
p933
I3
sS'later'
p934
I2
sS'associated'
p935
I1
sS'certain'
p936
I2
sS'israel'
p937
I7
sS'general'
p938
I1
sS'khalq'
p939
I1
sS'held'
p940
I5
sS'violated'
p941
I2
sS'said.sri'
p942
I1
sS'authority'
p943
I2
sS'constructed'
p944
I2
sS'effected'
p945
I1
sS'credibility'
p946
I1
sS'44'
p947
I1
sS'peace'
p948
I2
sS'percent'
p949
I5
sS'40'
p950
I2
sS'monitors'
p951
I1
sS'purchase'
p952
I2
sS'neighbouring'
p953
I1
sS'republic'
p954
I3
sS'details'
p955
I5
sS'holding'
p956
I3
sS'department'
p957
I5
sS'company'
p958
I4
sS'10'
p959
I1
sS'cleric'
p960
I1
sS'repeat'
p961
I1
sS'monday'
p962
I2
sS'delivered'
p963
I1
sS'prosecution'
p964
I1
sS'years.in'
p965
I1
sS'fell'
p966
I1
sS'invested'
p967
I2
sS'exported'
p968
I1
sS'kingsley'
p969
I1
sS'62-72'
p970
I1
sS'persecution'
p971
I1
sS'25.03'
p972
I1
sS'friends'
p973
I1
sS'condifence'
p974
I1
sS'bagus'
p975
I1
sS'ago'
p976
I2
sS'alive.he'
p977
I1
sS'sanctions'
p978
I8
sS'regime'
p979
I1
sS'oral'
p980
I1
sS'fears'
p981
I1
sS'zalzadeh'
p982
I1
sS'walked'
p983
I1
sS'vietnam'
p984
I3
sS'motavasselian'
p985
I1
sS'time'
p986
I1
sS'fresh'
p987
I2
sS'resolution'
p988
I3
sS'having'
p989
I1
sS'revolvers'
p990
I1
s.