(dp0
S'aided'
p1
I1
sS'limited'
p2
I2
sS'comparatively'
p3
I1
sS'protest'
p4
I1
sS'captain'
p5
I1
sS'marching'
p6
I1
sS'161.8'
p7
I1
sS'swan'
p8
I1
sS'investigation'
p9
I1
sS'lord'
p10
I1
sS'regan'
p11
I1
sS'pride'
p12
I5
sS'protestants'
p13
I7
sS'risk'
p14
I3
sS'said.there'
p15
I1
sS'void'
p16
I1
sS'rise'
p17
I7
sS'mowlem'
p18
I1
sS'bringing'
p19
I3
sS'look'
p20
I2
sS'believed'
p21
I2
sS"we'll"
p22
I3
sS'prize'
p23
I1
sS'companies'
p24
I5
sS'wednesday'
p25
I11
sS'unrelated'
p26
I1
sS'mopped'
p27
I2
sS'get.go'
p28
I1
sS'triumph'
p29
I1
sS'force'
p30
I5
sS'leaders'
p31
I2
sS'miller'
p32
I1
sS'consistent'
p33
I1
sS'estimates'
p34
I1
sS'direct'
p35
I3
sS'budget'
p36
I7
sS'arms.ministers'
p37
I1
sS'likely'
p38
I9
sS'street'
p39
I3
sS'borrowings'
p40
I1
sS'estimated'
p41
I1
sS'automobile'
p42
I1
sS'established'
p43
I1
sS'hide'
p44
I2
sS'pace'
p45
I2
sS'worsen'
p46
I1
sS'contributed'
p47
I1
sS'spokesman'
p48
I4
sS'cars'
p49
I1
sS'new'
p50
I10
sS'net'
p51
I6
sS'poorly'
p52
I1
sS'discrimination'
p53
I1
sS'told'
p54
I6
sS'deemed'
p55
I1
sS'hero'
p56
I1
sS'zlotys'
p57
I1
sS'statement.dairy'
p58
I1
sS'met'
p59
I2
sS'protection'
p60
I2
sS'possibility'
p61
I1
sS'represented'
p62
I1
sS'100'
p63
I1
sS'106'
p64
I1
sS'borrowers'
p65
I1
sS'said.finance'
p66
I1
sS'items'
p67
I1
sS'reports'
p68
I1
sS'controversy'
p69
I1
sS'credit'
p70
I19
sS"i'd"
p71
I1
sS'analysts'
p72
I9
sS'changes'
p73
I1
sS'ridiculed'
p74
I1
sS'campaign'
p75
I5
sS'birthright'
p76
I1
sS'visibly'
p77
I1
sS'meath'
p78
I1
sS'brought'
p79
I1
sS'sizeable'
p80
I1
sS'opportunities'
p81
I1
sS'total'
p82
I1
sS'statement.goulandris'
p83
I1
sS'unit'
p84
I1
sS'army'
p85
I5
sS'likelihood'
p86
I2
sS'hospital'
p87
I2
sS'negative'
p88
I2
sS'm5'
p89
I3
sS'm6'
p90
I4
sS'm1'
p91
I4
sS'asset'
p92
I1
sS'type'
p93
I2
sS'tell'
p94
I2
sS'successful'
p95
I3
sS'quinnell'
p96
I1
sS'month.much'
p97
I1
sS'resurfaced'
p98
I1
sS'disruption'
p99
I3
sS'uncertain'
p100
I1
sS'excellent'
p101
I2
sS'90'
p102
I1
sS'ware'
p103
I1
sS'94'
p104
I1
sS'9-1'
p105
I1
sS'1990'
p106
I2
sS'1993'
p107
I2
sS'join'
p108
I1
sS'1994'
p109
I2
sS'1997'
p110
I4
sS'rights'
p111
I3
sS'1998'
p112
I1
sS'mo'
p113
I1
sS'feedstuff'
p114
I1
sS'mr'
p115
I1
sS'erm'
p116
I1
sS'revenues'
p117
I1
sS'said.whereas'
p118
I1
sS'53.1'
p119
I1
sS'53.6'
p120
I1
sS'10,000'
p121
I1
sS'said.wbk'
p122
I1
sS'dalymount'
p123
I1
sS'want'
p124
I7
sS'times'
p125
I8
sS'osbornecurrent'
p126
I1
sS'guarantee'
p127
I1
sS'hospital.irish'
p128
I1
sS'end'
p129
I14
sS'healey'
p130
I1
sS'provide'
p131
I1
sS'reconciliation'
p132
I1
sS'travel'
p133
I2
sS'months.irish'
p134
I1
sS'hot'
p135
I1
sS'interview'
p136
I1
sS'chase'
p137
I1
sS'dossetter'
p138
I2
sS'regional'
p139
I2
sS'minority'
p140
I1
sS'lad'
p141
I3
sS'earlier'
p142
I6
sS'grandam'
p143
I1
sS'modest'
p144
I2
sS'jumping'
p145
I1
sS'assitant'
p146
I1
sS'midlands'
p147
I1
sS'authenticated'
p148
I1
sS'law'
p149
I1
sS'distance.lo'
p150
I1
sS'purchase'
p151
I1
sS'chilled'
p152
I2
sS'attempt'
p153
I1
sS'splendid'
p154
I1
sS'overtaken'
p155
I2
sS'amid'
p156
I4
sS'supermarkets'
p157
I2
sS'suggest'
p158
I1
sS'plumbing'
p159
I1
sS'democratic'
p160
I4
sS'order'
p161
I2
sS'7.3sales'
p162
I1
sS'operations'
p163
I1
sS'office'
p164
I3
sS'consent'
p165
I3
sS'sheltering'
p166
I1
sS'expects'
p167
I1
sS'6.6'
p168
I2
sS'6.5'
p169
I3
sS'london'
p170
I2
sS'japan'
p171
I1
sS'doncaster'
p172
I1
sS'6.9'
p173
I1
sS'bombing'
p174
I1
sS'remainder'
p175
I1
sS'resumes.his'
p176
I1
sS'personal'
p177
I2
sS'highlights'
p178
I3
sS'trying'
p179
I1
sS'striking'
p180
I1
sS'expectations'
p181
I4
sS'better'
p182
I3
sS'16.6'
p183
I1
sS'16.3'
p184
I1
sS'400'
p185
I1
sS'wales'
p186
I8
sS'weeks'
p187
I4
sS'16.9'
p188
I1
sS'16.8'
p189
I1
sS'combination'
p190
I1
sS'safe'
p191
I1
sS'break'
p192
I1
sS'band'
p193
I4
sS'unionist'
p194
I1
sS'schools'
p195
I1
sS'bank'
p196
I27
sS'shadows'
p197
I1
sS'gloom'
p198
I2
sS'meat'
p199
I2
sS'reasonably'
p200
I1
sS'disputed'
p201
I2
sS'tsb'
p202
I5
sS'101.00'
p203
I2
sS'101.03'
p204
I1
sS'victory'
p205
I2
sS"o'connell"
p206
I1
sS'went'
p207
I1
sS'114.1'
p208
I1
sS'bond'
p209
I9
sS'lifted'
p210
I1
sS'financial'
p211
I3
sS'4-km'
p212
I1
sS'series'
p213
I4
sS'250,000'
p214
I1
sS'stockbrokers'
p215
I4
sS'allan'
p216
I1
sS'sled'
p217
I1
sS'1-51'
p218
I1
sS'trading'
p219
I1
sS'mcdonagh'
p220
I1
sS'rovers'
p221
I1
sS'saturday'
p222
I4
sS'merchants'
p223
I3
sS'network'
p224
I1
sS'crucial'
p225
I3
sS'encourage'
p226
I2
sS'120.5'
p227
I1
sS'surprise'
p228
I1
sS'size'
p229
I1
sS'perception'
p230
I1
sS'turning'
p231
I1
sS'resume'
p232
I1
sS'outperformed'
p233
I1
sS'threatened'
p234
I1
sS'little'
p235
I5
sS'standard'
p236
I3
sS'struggle'
p237
I1
sS'forcibly'
p238
I2
sS'estimate'
p239
I3
sS'wanted'
p240
I2
sS'wrath'
p241
I1
sS'created'
p242
I1
sS'days'
p243
I1
sS'pence'
p244
I6
sS'renew'
p245
I1
sS'oppose'
p246
I1
sS'lithuania'
p247
I1
sS'industrial'
p248
I3
sS'carryover'
p249
I1
sS'grade'
p250
I1
sS'saddling'
p251
I1
sS'television.labour'
p252
I1
sS'agri'
p253
I1
sS'170'
p254
I1
sS'exchequer'
p255
I6
sS'tensions'
p256
I1
sS'recruiting'
p257
I1
sS'attack'
p258
I1
sS'ballistic'
p259
I2
sS'tom'
p260
I4
sS'percentage'
p261
I3
sS'john'
p262
I9
sS'inflow'
p263
I1
sS'murder'
p264
I2
sS'jangle'
p265
I1
sS'gambled'
p266
I1
sS'albert'
p267
I3
sS'took'
p268
I5
sS'rejected'
p269
I1
sS'esha'
p270
I1
sS'madcow'
p271
I1
sS'somewhat'
p272
I1
sS'positively'
p273
I1
sS'target'
p274
I6
sS'showed'
p275
I11
sS'hike'
p276
I2
sS'second'
p277
I2
sS'matter'
p278
I1
sS'silly'
p279
I2
sS'williams'
p280
I1
sS'1600'
p281
I2
sS'18.1'
p282
I1
sS'gives'
p283
I1
sS'minus'
p284
I1
sS'acquisition'
p285
I2
sS'power.his'
p286
I1
sS'ran'
p287
I4
sS'snarling'
p288
I2
sS'lunchtime'
p289
I1
sS'seen'
p290
I4
sS'seek'
p291
I3
sS'relatively'
p292
I3
sS'forced'
p293
I1
sS'strength'
p294
I1
sS'responsible'
p295
I2
sS'snow'
p296
I1
sS'garvaghy'
p297
I1
sS'causing'
p298
I1
sS'forces'
p299
I1
sS'14-1'
p300
I1
sS'davidson'
p301
I1
sS'iceland'
p302
I1
sS'looming'
p303
I1
sS'regular'
p304
I1
sS'germany'
p305
I2
sS'plenty'
p306
I1
sS'codeword'
p307
I1
sS'phase'
p308
I1
sS'bse'
p309
I2
sS'assisting'
p310
I1
sS'flow'
p311
I2
sS'treaty'
p312
I1
sS'motorways'
p313
I5
sS'points'
p314
I9
sS'said.dairygold'
p315
I1
sS'principle'
p316
I1
sS'enterprise'
p317
I1
sS'bateman'
p318
I1
sS'came'
p319
I3
sS'reserve'
p320
I3
sS'treasuries'
p321
I2
sS'bomb'
p322
I10
sS'said.whatever'
p323
I1
sS'halftime.mcateer'
p324
I1
sS'ending'
p325
I2
sS'7.2'
p326
I1
sS'winslow.the'
p327
I1
sS'gauge'
p328
I1
sS'7.4'
p329
I3
sS'7.5'
p330
I1
sS'7.8'
p331
I2
sS'7.9'
p332
I1
sS'enjoyed'
p333
I1
sS'12-p'
p334
I1
sS'busy'
p335
I1
sS'consciousness'
p336
I1
sS'delays'
p337
I1
sS'trip.go'
p338
I1
sS'judged'
p339
I1
sS'rushhour.police'
p340
I1
sS'announce'
p341
I4
sS'streaker'
p342
I1
sS'saturday.victory'
p343
I1
sS'exports'
p344
I1
sS'10'
p345
I3
sS'13'
p346
I1
sS'economies.the'
p347
I1
sS'despite'
p348
I4
sS'report'
p349
I1
sS'12-1'
p350
I2
sS'ulster'
p351
I2
sS'increasing'
p352
I2
sS'gareth'
p353
I1
sS'countries'
p354
I4
sS'accordance'
p355
I1
sS'bay'
p356
I3
sS'emu'
p357
I1
sS'twice'
p358
I4
sS'bad'
p359
I1
sS'16-1'
p360
I1
sS'ban'
p361
I3
sS'secretary'
p362
I3
sS'traverse'
p363
I2
sS'leasing'
p364
I1
sS'victim'
p365
I2
sS'fair'
p366
I1
sS'353-1-661-33377'
p367
I1
sS'result'
p368
I3
sS'fail'
p369
I14
sS'interruptions'
p370
I2
sS'resigned'
p371
I1
sS'best'
p372
I5
sS'subject'
p373
I1
sS'said'
p374
I95
sS'capacity'
p375
I1
sS'away'
p376
I3
sS'future'
p377
I3
sS'olympics'
p378
I1
sS'props'
p379
I1
sS'ira'
p380
I27
sS'approach'
p381
I3
sS'glasgow'
p382
I2
sS'discovery'
p383
I1
sS'preserve'
p384
I1
sS'terms'
p385
I1
sS'year.it'
p386
I1
sS'extent'
p387
I1
sS'clues'
p388
I4
sS'debt'
p389
I2
sS'faced'
p390
I1
sS'received'
p391
I4
sS'protect'
p392
I1
sS'country'
p393
I12
sS'heating'
p394
I1
sS'macedonia'
p395
I8
sS'players'
p396
I2
sS'games'
p397
I4
sS'confronted'
p398
I1
sS'asked'
p399
I1
sS'60.2'
p400
I1
sS'peacefully'
p401
I1
sS'pre'
p402
I3
sS'standings'
p403
I1
sS'tough'
p404
I2
sS'appeared'
p405
I3
sS'betting'
p406
I1
sS'quinn'
p407
I2
sS'tony'
p408
I5
sS'false'
p409
I1
sS'thursday.economists'
p410
I1
sS'points.by'
p411
I1
sS'targeting'
p412
I1
sS'beef'
p413
I4
sS'basis'
p414
I4
sS'holdings'
p415
I1
sS'warehouses'
p416
I1
sS'referendum'
p417
I1
sS'lovell'
p418
I1
sS'commission'
p419
I3
sS'recognised'
p420
I3
sS'expected'
p421
I13
sS'said.paisley'
p422
I2
sS'attacked'
p423
I1
sS'drugs'
p424
I2
sS'enterprises'
p425
I1
sS'dave'
p426
I2
sS'lift'
p427
I1
sS'runup'
p428
I2
sS'slowdown'
p429
I1
sS'reuters.earlier'
p430
I1
sS'jams'
p431
I1
sS'economies'
p432
I1
sS'balance'
p433
I1
sS'launched'
p434
I1
sS'aib'
p435
I6
sS'veronica'
p436
I3
sS'seven'
p437
I3
sS'cash.nahthen'
p438
I1
sS'21f4'
p439
I1
sS'session.looking'
p440
I1
sS'player'
p441
I1
sS'guscott'
p442
I1
sS'exile'
p443
I1
sS'campaigning'
p444
I2
sS'mainland.last'
p445
I2
sS'confirmed'
p446
I2
sS'merchanting'
p447
I3
sS'things'
p448
I2
sS'make'
p449
I3
sS'dorans'
p450
I4
sS'split'
p451
I1
sS'overstates'
p452
I1
sS'advances'
p453
I1
sS'676'
p454
I9
sS'european'
p455
I8
sS'independent'
p456
I3
sS'parades.blair'
p457
I1
sS'marches'
p458
I2
sS'rail'
p459
I8
sS'hand'
p460
I1
sS'fuse'
p461
I1
sS'opportunity'
p462
I1
sS'blamed'
p463
I1
sS'cycle'
p464
I1
sS'combined.yet'
p465
I1
sS'shortly'
p466
I2
sS'1979'
p467
I1
sS'paralysed'
p468
I1
sS'charlie'
p469
I3
sS'factors.by'
p470
I1
sS'game'
p471
I1
sS'centres'
p472
I1
sS'million.there'
p473
I1
sS'left'
p474
I5
sS'harney'
p475
I2
sS'appease'
p476
I1
sS'traditions'
p477
I1
sS'just'
p478
I5
sS'unemployment'
p479
I6
sS'sporting'
p480
I1
sS'fastish'
p481
I1
sS'birmingham'
p482
I1
sS'thanks'
p483
I1
sS'human'
p484
I4
sS'plight'
p485
I1
sS'previous'
p486
I3
sS'adding'
p487
I2
sS'buyers'
p488
I1
sS'belfast'
p489
I1
sS'got'
p490
I1
sS'ease'
p491
I1
sS'royal'
p492
I2
sS'spread'
p493
I3
sS'board'
p494
I1
sS'easy'
p495
I1
sS'prison'
p496
I1
sS'east'
p497
I2
sS'gave'
p498
I3
sS'opt'
p499
I1
sS'said.corporation'
p500
I1
sS'bands'
p501
I1
sS'mayo'
p502
I1
sS'newcastly'
p503
I1
sS'possible'
p504
I1
sS'sterling.immediately'
p505
I1
sS'possibly'
p506
I3
sS'nationalists'
p507
I2
sS'sanitary'
p508
I1
sS'fairyhouse'
p509
I4
sS'advanced'
p510
I1
sS'd'
p511
I1
sS'county'
p512
I1
sS'beecher'
p513
I1
sS'mcloughlin'
p514
I2
sS'brutality'
p515
I1
sS'54'
p516
I1
sS'performing'
p517
I1
sS'injuries.latest'
p518
I1
sS'securities'
p519
I3
sS'remind'
p520
I1
sS'night'
p521
I6
sS'security'
p522
I3
sS'mudahim'
p523
I2
sS'flattered'
p524
I1
sS'right'
p525
I8
sS'old'
p526
I4
sS'squander'
p527
I1
sS'people'
p528
I12
sS'said.grafton'
p529
I1
sS'dead'
p530
I3
sS'5.63/5.75'
p531
I1
sS'election'
p532
I23
sS'year.examiner'
p533
I1
sS'ice'
p534
I1
sS'4-0'
p535
I1
sS'surging'
p536
I1
sS'cord'
p537
I1
sS'core'
p538
I1
sS'applause.paisley'
p539
I1
sS'burn'
p540
I1
sS'plc'
p541
I3
sS'confrontation'
p542
I1
sS'post'
p543
I1
sS'hardliners'
p544
I1
sS'dollars'
p545
I1
sS'months'
p546
I4
sS'routings'
p547
I2
sS'misleading'
p548
I1
sS'ensure'
p549
I2
sS'afternoon'
p550
I6
sS'logistical'
p551
I1
sS'efforts'
p552
I1
sS'slightly'
p553
I2
sS'amounted'
p554
I4
sS'civil'
p555
I1
sS'balances'
p556
I1
sS'gearing'
p557
I1
sS'dunwoodycurrent'
p558
I1
sS'poperey'
p559
I1
sS'electorate'
p560
I2
sS'reducing'
p561
I1
sS'year.the'
p562
I1
sS'murderers'
p563
I1
sS'support'
p564
I4
sS'disease.in'
p565
I1
sS'stuck'
p566
I1
sS'plus.negative'
p567
I1
sS'fought'
p568
I1
sS'way'
p569
I2
sS'jane'
p570
I1
sS'head'
p571
I4
sS'pitmanjockey'
p572
I2
sS'secondhand'
p573
I1
sS'form'
p574
I5
sS'attempted'
p575
I1
sS'hemisphere'
p576
I1
sS'jeffell'
p577
I1
sS'surrender'
p578
I1
sS'protestant'
p579
I4
sS'3.7'
p580
I1
sS'devices'
p581
I1
sS'3.5'
p582
I1
sS'plumbers'
p583
I1
sS'151'
p584
I3
sS'150'
p585
I2
sS'moore'
p586
I1
sS'fury'
p587
I2
sS'stronger'
p588
I1
sS'3.1'
p589
I1
sS'evidence'
p590
I2
sS'promised'
p591
I1
sS'beatmacedonia'
p592
I1
sS'trip'
p593
I1
sS'6.96'
p594
I1
sS'6.95'
p595
I3
sS'phelan'
p596
I1
sS'alerts'
p597
I2
sS'tim'
p598
I2
sS'setting'
p599
I2
sS'republic'
p600
I2
sS'holding'
p601
I3
sS'test'
p602
I1
sS'jenkins'
p603
I1
sS'operators'
p604
I1
sS'disastrously'
p605
I1
sS"o'clock"
p606
I2
sS'football'
p607
I1
sS'fell'
p608
I5
sS'invested'
p609
I1
sS'variable'
p610
I1
sS'wielkopolski'
p611
I1
sS'weekend'
p612
I1
sS'arm.but'
p613
I2
sS'billion'
p614
I9
sS'say.the'
p615
I2
sS'january.but'
p616
I1
sS'doddie'
p617
I1
sS'longer'
p618
I1
sS'corresponding'
p619
I1
sS'proposed'
p620
I1
sS'fears'
p621
I3
sS'1961.lord'
p622
I1
sS'uncovered'
p623
I1
sS'time'
p624
I16
sS'push'
p625
I2
sS'profits'
p626
I2
sS'outspoken'
p627
I2
sS'rob'
p628
I2
sS'global'
p629
I1
sS'keast'
p630
I1
sS'deliveries'
p631
I2
sS'manager'
p632
I3
sS'mile'
p633
I2
sS'9779'
p634
I9
sS'battle'
p635
I1
sS'chair'
p636
I1
sS'milk'
p637
I1
sS'row'
p638
I2
sS'gael'
p639
I3
sS'depend'
p640
I2
sS'1945'
p641
I2
sS'environment'
p642
I1
sS'0'
p643
I11
sS'suffered'
p644
I1
sS'division'
p645
I5
sS'broadly'
p646
I3
sS'gloomy'
p647
I1
sS'lynch'
p648
I2
sS'anonymous'
p649
I1
sS'10-year'
p650
I1
sS'trouble'
p651
I2
sS'minute'
p652
I2
sS'governments'
p653
I2
sS'million.with'
p654
I1
sS'level'
p655
I4
sS'altering'
p656
I2
sS'1996'
p657
I5
sS'democrat'
p658
I3
sS'leave'
p659
I1
sS'item'
p660
I2
sS'team'
p661
I4
sS'speculation'
p662
I4
sS'round'
p663
I2
sS"it'll"
p664
I2
sS'olympic'
p665
I1
sS'work'
p666
I1
sS'says'
p667
I3
sS'detonated'
p668
I3
sS'19.938'
p669
I1
sS'trend'
p670
I1
sS'dealing'
p671
I1
sS'sign'
p672
I1
sS'slowed'
p673
I1
sS'cost'
p674
I7
sS'substitute'
p675
I1
sS'6.23.on'
p676
I1
sS'stands'
p677
I1
sS'norris'
p678
I2
sS'unchanged.but'
p679
I1
sS'assistance'
p680
I1
sS'shares'
p681
I2
sS'current'
p682
I9
sS'suspect'
p683
I1
sS'goes'
p684
I3
sS'fans.they'
p685
I1
sS'international'
p686
I8
sS'falling'
p687
I1
sS'boost'
p688
I1
sS'22-year'
p689
I1
sS'explosion'
p690
I1
sS'weir'
p691
I1
sS'area.protestant'
p692
I1
sS'groups'
p693
I4
sS'congestion'
p694
I3
sS'appears'
p695
I1
sS'change'
p696
I6
sS'wait'
p697
I3
sS'box'
p698
I1
sS'boast'
p699
I1
sS'impacted'
p700
I1
sS'1961.irish'
p701
I1
sS'dublin'
p702
I28
sS'gyllene'
p703
I2
sS'timings'
p704
I1
sS'trial'
p705
I2
sS'bob'
p706
I1
sS'useful'
p707
I1
sS'extra'
p708
I3
sS'lending'
p709
I7
sS'prefer'
p710
I2
sS'crisis'
p711
I1
sS'market'
p712
I27
sS'handled'
p713
I1
sS'working'
p714
I2
sS'soccerchampionship'
p715
I1
sS'positive'
p716
I2
sS'france'
p717
I2
sS'live'
p718
I1
sS'wood'
p719
I1
sS'andy'
p720
I1
sS'14-1positive'
p721
I1
sS'today'
p722
I5
sS'economy.despite'
p723
I1
sS'riot'
p724
I1
sS'club'
p725
I1
sS'treasury'
p726
I1
sS'fianna'
p727
I12
sS'fly'
p728
I1
sS'currency'
p729
I4
sS'local'
p730
I2
sS'abortion'
p731
I1
sS'16-1positive'
p732
I2
sS'growing'
p733
I5
sS'totalled'
p734
I2
sS'claim'
p735
I1
sS'performer'
p736
I1
sS'figure'
p737
I5
sS'december'
p738
I4
sS'locks'
p739
I1
sS'unveiled'
p740
I1
sS'inflows'
p741
I2
sS'winter'
p742
I1
sS'secured'
p743
I1
sS'bonds'
p744
I6
sS'favouritepositive'
p745
I1
sS'1'
p746
I19
sS'naivety'
p747
I1
sS'fourth'
p748
I2
sS'absolute'
p749
I1
sS'economy'
p750
I3
sS'telfer'
p751
I1
sS'product'
p752
I1
sS'145'
p753
I1
sS'influenced'
p754
I1
sS'impartial'
p755
I1
sS'dive'
p756
I1
sS'steadily'
p757
I3
sS'southern'
p758
I1
sS'needs'
p759
I1
sS'motorway'
p760
I6
sS'osborne'
p761
I1
sS'tipped'
p762
I4
sS'designed'
p763
I1
sS'date'
p764
I4
sS'heroes'
p765
I1
sS'data'
p766
I13
sS'eighth'
p767
I1
sS'man'
p768
I1
sS'johnson'
p769
I1
sS'possible.last'
p770
I1
sS'borrowing'
p771
I11
sS'african'
p772
I1
sS'tall'
p773
I1
sS'truce'
p774
I1
sS'pulled'
p775
I4
sS'said.dealers'
p776
I1
sS'pointed'
p777
I1
sS'12.79'
p778
I1
sS'years'
p779
I9
sS'ended'
p780
I2
sS'partners.goulandris'
p781
I1
sS'cold'
p782
I1
sS'worship'
p783
I2
sS'police'
p784
I23
sS'thank'
p785
I1
sS'interesting'
p786
I2
sS'jim'
p787
I1
sS'coaching'
p788
I1
sS'107.05'
p789
I2
sS'policy'
p790
I8
sS'decreased'
p791
I1
sS'main'
p792
I13
sS'decades'
p793
I2
sS'parades'
p794
I1
sS'closure'
p795
I2
sS'non'
p796
I7
sS'finance'
p797
I4
sS'killer'
p798
I3
sS'anson'
p799
I2
sS'half'
p800
I4
sS'9700'
p801
I1
sS'26.5'
p802
I1
sS'june.his'
p803
I1
sS'14.5'
p804
I1
sS'14.7'
p805
I1
sS'14.1'
p806
I2
sS'14.0'
p807
I1
sS'stabilize'
p808
I1
sS'january'
p809
I12
sS'drop'
p810
I1
sS'47'
p811
I1
sS'amnesty'
p812
I3
sS'quarter'
p813
I12
sS'weighted'
p814
I1
sS'significantly'
p815
I2
sS'monday.by'
p816
I1
sS'revised'
p817
I2
sS'conventions'
p818
I1
sS'challenger'
p819
I1
sS'manifesto'
p820
I3
sS'begun'
p821
I1
sS'year'
p822
I59
sS'eu'
p823
I8
sS'bouyant'
p824
I1
sS'ultimately'
p825
I1
sS'factors'
p826
I8
sS'profit'
p827
I3
sS'139.6'
p828
I1
sS'fixturesdundalk'
p829
I1
sS'increase'
p830
I18
sS'attracted'
p831
I1
sS'seriously'
p832
I1
sS'priest'
p833
I1
sS'imperative'
p834
I1
sS"shouldn't"
p835
I1
sS'wainwright'
p836
I1
sS'assurance'
p837
I1
sS'shows'
p838
I3
sS'rights.he'
p839
I1
sS'4-335'
p840
I1
sS'million'
p841
I48
sS'incentives'
p842
I2
sS'governing'
p843
I1
sS'quite'
p844
I6
sS'jockey'
p845
I6
sS'unnamed'
p846
I1
sS'keith'
p847
I1
sS'care'
p848
I2
sS'15-year'
p849
I1
sS'advance'
p850
I1
sS'language'
p851
I1
sS'ministry'
p852
I7
sS'british'
p853
I21
sS'thing'
p854
I1
sS'place'
p855
I1
sS'massive'
p856
I2
sS'routes'
p857
I3
sS'think'
p858
I4
sS'romania'
p859
I1
sS'620'
p860
I1
sS'fleeing'
p861
I1
sS'629'
p862
I1
sS'reopen'
p863
I1
sS'long'
p864
I4
sS'carry'
p865
I1
sS'fight'
p866
I1
sS'tomorrow'
p867
I2
sS'millions'
p868
I3
sS'city'
p869
I2
sS'given'
p870
I4
sS'ian'
p871
I2
sS'sheet'
p872
I1
sS'best.but'
p873
I1
sS'district'
p874
I1
sS'breed'
p875
I1
sS'parades.police'
p876
I1
sS'indicate'
p877
I1
sS'returns'
p878
I2
sS'2'
p879
I2
sS'draft'
p880
I1
sS'proclaimed'
p881
I1
sS'shoppers'
p882
I1
sS'wednesday.irish'
p883
I1
sS'speaking'
p884
I2
sS'araquipa.the'
p885
I1
sS'cutty'
p886
I1
sS'eyes'
p887
I1
sS'releases'
p888
I2
sS'season'
p889
I7
sS'telephoned'
p890
I2
sS'alan'
p891
I3
sS'released'
p892
I3
sS'bookmaker'
p893
I1
sS'deceleration'
p894
I1
sS'specialists'
p895
I1
sS'representing'
p896
I1
sS'greenwood'
p897
I1
sS'11'
p898
I5
sS'wide'
p899
I1
sS'television'
p900
I1
sS'12'
p901
I3
sS'15'
p902
I2
sS'14'
p903
I2
sS'17'
p904
I3
sS'16'
p905
I1
sS'27-year'
p906
I1
sS'transferred'
p907
I1
sS'spokeswoman'
p908
I2
sS'r'
p909
I2
sS'riada'
p910
I2
sS'wins'
p911
I3
sS'titleycurrent'
p912
I1
sS'prospect'
p913
I1
sS'addressing'
p914
I1
sS'investors'
p915
I2
sS'remained'
p916
I4
sS'pro'
p917
I1
sS'premier'
p918
I2
sS'locations'
p919
I1
sS'say'
p920
I4
sS'process.sinn'
p921
I2
sS'recover'
p922
I1
sS'saw'
p923
I2
sS'kevin'
p924
I3
sS'warsaw'
p925
I1
sS'offering'
p926
I3
sS'equipment'
p927
I1
sS'squad'
p928
I2
sS'performance'
p929
I2
sS'1,250'
p930
I1
sS'channel'
p931
I1
sS'bets'
p932
I1
sS'equestrian'
p933
I1
sS'trace'
p934
I1
sS'normal'
p935
I1
sS'price'
p936
I13
sS'paid'
p937
I1
sS'falls'
p938
I1
sS'knee'
p939
I1
sS'america'
p940
I1
sS'operate'
p941
I1
sS'especially'
p942
I6
sS'room'
p943
I1
sS'average'
p944
I3
sS'later'
p945
I7
sS'implications'
p946
I1
sS'wing'
p947
I4
sS'senior'
p948
I1
sS'condemnation.no'
p949
I2
sS'shot'
p950
I2
sS'pursuant'
p951
I1
sS'discovered'
p952
I2
sS'britian'
p953
I1
sS'policy.meanwhile'
p954
I1
sS'appointments.fianna'
p955
I2
sS'fifth'
p956
I1
sS'ground'
p957
I4
sS'title'
p958
I2
sS'dick'
p959
I1
sS'proportion'
p960
I1
sS'crime'
p961
I8
sS'stamina.negative'
p962
I1
sS'going'
p963
I4
sS'pollsters'
p964
I2
sS'6.56'
p965
I2
sS'250-1'
p966
I1
sS'assistant'
p967
I1
sS'ruairi'
p968
I1
sS'expectation'
p969
I1
sS'nearly'
p970
I2
sS'awaiting'
p971
I2
sS'trade'
p972
I3
sS'prime'
p973
I9
sS'busiest'
p974
I1
sS'yield'
p975
I9
sS'morning'
p976
I4
sS'paper'
p977
I1
sS'losers'
p978
I1
sS'predicted'
p979
I1
sS'bombs'
p980
I13
sS'finishing'
p981
I1
sS'worrying'
p982
I3
sS'declared'
p983
I1
sS'committed'
p984
I4
sS'seat'
p985
I1
sS'june.the'
p986
I1
sS'stanley'
p987
I3
sS'353-1-6613377'
p988
I2
sS'concern'
p989
I8
sS'loudspeaker'
p990
I1
sS'353-1-661-3377'
p991
I1
sS'mortgage'
p992
I9
sS'farmers'
p993
I1
sS'federal'
p994
I3
sS'forecasting'
p995
I1
sS'seekers'
p996
I1
sS'forecast'
p997
I1
sS'3'
p998
I6
sS'ousted.the'
p999
I2
sS'drugs.heroin'
p1000
I2
sS'49.997'
p1001
I1
sS'notice'
p1002
I1
sS'jobs'
p1003
I7
sS'style'
p1004
I1
sS'78,700'
p1005
I1
sS'arteries'
p1006
I2
sS'republic.major'
p1007
I1
sS'cities'
p1008
I2
sS'come'
p1009
I1
sS'reaction'
p1010
I2
sS'ryanair'
p1011
I1
sS'according'
p1012
I6
sS'contract'
p1013
I2
sS's'
p1014
I7
sS'present.riada'
p1015
I1
sS'yearly'
p1016
I2
sS'stretches'
p1017
I2
sS'passenger'
p1018
I1
sS'period'
p1019
I4
sS'50,000'
p1020
I1
sS'said.total'
p1021
I2
sS'maintained'
p1022
I2
sS'63'
p1023
I2
sS'65'
p1024
I3
sS'approval'
p1025
I1
sS'69'
p1026
I2
sS'buoyancy'
p1027
I2
sS'poll'
p1028
I20
sS'oliver'
p1029
I1
sS'goce'
p1030
I2
sS'barry'
p1031
I1
sS'recaptured'
p1032
I1
sS'mark'
p1033
I3
sS'dangers'
p1034
I1
sS'constituencies'
p1035
I1
sS'helicopter'
p1036
I1
sS'borders'
p1037
I1
sS'mary'
p1038
I2
sS'wants'
p1039
I1
sS'637'
p1040
I2
sS'thousand'
p1041
I1
sS'external'
p1042
I2
sS'suspected'
p1043
I4
sS'hidden'
p1044
I1
sS'sound'
p1045
I1
sS'9-1positive'
p1046
I2
sS'mangan'
p1047
I3
sS'mount'
p1048
I1
sS'polls'
p1049
I1
sS'cash'
p1050
I3
sS'handicapped'
p1051
I1
sS'cast'
p1052
I1
sS'policies'
p1053
I1
sS'promising'
p1054
I2
sS'investigating'
p1055
I1
sS'invited'
p1056
I1
sS'telephone'
p1057
I5
sS'quiet'
p1058
I1
sS'sudden'
p1059
I2
sS'trimming'
p1060
I2
sS'everyday'
p1061
I2
sS'rowntree'
p1062
I1
sS'warnings.a'
p1063
I1
sS'pat'
p1064
I1
sS'ride.northern'
p1065
I1
sS'out.suny'
p1066
I1
sS'granted'
p1067
I1
sS'tour'
p1068
I4
sS'dealer'
p1069
I9
sS'17.7'
p1070
I1
sS'17.9'
p1071
I1
sS'week'
p1072
I9
sS'manifesto.opinion'
p1073
I1
sS'centuries'
p1074
I1
sS'ness'
p1075
I1
sS'driven'
p1076
I1
sS'running'
p1077
I1
sS'percent.this'
p1078
I1
sS'relies'
p1079
I2
sS'charges'
p1080
I1
sS'shuttleway.as'
p1081
I1
sS'wessex'
p1082
I3
sS'mortgages'
p1083
I3
sS'dairygold'
p1084
I3
sS'said.a'
p1085
I1
sS'1,249'
p1086
I1
sS'charged'
p1087
I1
sS'summer'
p1088
I2
sS'stake'
p1089
I3
sS'money'
p1090
I5
sS'adjusted'
p1091
I3
sS'violent'
p1092
I1
sS'relevant'
p1093
I1
sS'statement.but'
p1094
I1
sS'snarled'
p1095
I1
sS'polish'
p1096
I2
sS'announcement'
p1097
I3
sS'death'
p1098
I1
sS'flood'
p1099
I1
sS"we've"
p1100
I3
sS'suppliers.ahern'
p1101
I1
sS'favouring'
p1102
I1
sS'perth'
p1103
I1
sS'4'
p1104
I9
sS'halftime'
p1105
I2
sS'pitman'
p1106
I6
sS'scheduled'
p1107
I1
sS'affairs.paisley'
p1108
I1
sS'read'
p1109
I1
sS'3.64'
p1110
I1
sS'early'
p1111
I10
sS'inflation'
p1112
I4
sS'grid'
p1113
I1
sS'schedules'
p1114
I2
sS'using'
p1115
I2
sS'0.54'
p1116
I1
sS'ruled'
p1117
I1
sS'wednesday.scorers'
p1118
I1
sS'fractionally'
p1119
I1
sS'pounds'
p1120
I31
sS'suppliers'
p1121
I1
sS'facing'
p1122
I1
sS'benefit'
p1123
I1
sS'grants'
p1124
I1
sS'served'
p1125
I1
sS'reduced'
p1126
I4
sS'grouping'
p1127
I2
sS'bradleycurrent'
p1128
I1
sS'scored'
p1129
I2
sS'satisfactory'
p1130
I1
sS'him.negative'
p1131
I1
sS'imprisonment'
p1132
I1
sS'competition'
p1133
I1
sS'l'
p1134
I1
sS'election.blair'
p1135
I1
sS'106.88'
p1136
I1
sS'booming'
p1137
I1
sS'gross'
p1138
I1
sS'mood'
p1139
I1
sS'10-years'
p1140
I1
sS'confirm'
p1141
I1
sS'footing'
p1142
I1
sS'legal'
p1143
I2
sS'critical'
p1144
I2
sS'deficit'
p1145
I4
sS'provides'
p1146
I1
sS'moderate'
p1147
I1
sS'paedophile'
p1148
I1
sS'business'
p1149
I7
sS'quit'
p1150
I1
sS'detail.it'
p1151
I1
sS'1930'
p1152
I1
sS'terrified'
p1153
I1
sS'throw'
p1154
I1
sS'comparison'
p1155
I1
sS'subdued'
p1156
I1
sS'central'
p1157
I25
sS'package'
p1158
I1
sS'industry'
p1159
I10
sS'violence'
p1160
I1
sS'fein'
p1161
I8
sS'greatly'
p1162
I1
sS'underway'
p1163
I1
sS'provisional'
p1164
I2
sS'confidence'
p1165
I4
sS'skilled'
p1166
I1
sS'spinal'
p1167
I2
sS'rising'
p1168
I5
sS'parties'
p1169
I4
sS'neil'
p1170
I2
sS'intervention'
p1171
I2
sS'60ireland'
p1172
I1
sS'prepare'
p1173
I1
sS'area'
p1174
I4
sS'qualifying'
p1175
I2
sS'start'
p1176
I6
sS'lions'
p1177
I1
sS'low'
p1178
I1
sS'aintree.negative'
p1179
I1
sS'exceptional'
p1180
I1
sS'year.but'
p1181
I1
sS'hookers'
p1182
I1
sS'media'
p1183
I2
sS'complete'
p1184
I2
sS'delayed'
p1185
I1
sS'cabinet'
p1186
I1
sS'mick'
p1187
I1
sS'40-1'
p1188
I2
sS'138.8'
p1189
I1
sS'proposal'
p1190
I1
sS'buying'
p1191
I1
sS'woman'
p1192
I2
sS'sensibly'
p1193
I1
sS'deadlock'
p1194
I2
sS'builders'
p1195
I5
sS'strongly'
p1196
I2
sS'gone'
p1197
I1
sS'contributors'
p1198
I1
sS'certain'
p1199
I2
sS'moved'
p1200
I3
sS'sales'
p1201
I7
sS'camachojockey'
p1202
I1
sS'general'
p1203
I13
sS'said.non'
p1204
I2
sS'britain'
p1205
I10
sS'politics'
p1206
I2
sS'encompass'
p1207
I1
sS'moves'
p1208
I3
sS'film'
p1209
I1
sS'ideally'
p1210
I1
sS'novice'
p1211
I1
sS'narcotics'
p1212
I1
sS'tight'
p1213
I1
sS'narrowing'
p1214
I3
sS'1112'
p1215
I1
sS'6.22'
p1216
I2
sS'forcing'
p1217
I1
sS'offered'
p1218
I1
sS'preoccupation'
p1219
I2
sS'4,000'
p1220
I1
sS'tailbacks.coded'
p1221
I1
sS'tuesday.third'
p1222
I1
sS'reached'
p1223
I1
sS'1996.indirect'
p1224
I1
sS'important'
p1225
I6
sS'suited'
p1226
I1
sS'terry'
p1227
I1
sS'ridden'
p1228
I2
sS'oriel'
p1229
I1
sS'assets'
p1230
I1
sS'calls'
p1231
I5
sS'invest'
p1232
I1
sS'odds'
p1233
I4
sS'100.88'
p1234
I1
sS'nagano'
p1235
I1
sS'3-2'
p1236
I3
sS'3-1'
p1237
I2
sS'repay'
p1238
I1
sS'overseas'
p1239
I1
sS'starting'
p1240
I2
sS'minister'
p1241
I16
sS'suny'
p1242
I2
sS'caused'
p1243
I7
sS'lack'
p1244
I1
sS'month'
p1245
I18
sS'unrest'
p1246
I1
sS'coach'
p1247
I2
sS'guerrillas.the'
p1248
I1
sS'talks'
p1249
I5
sS'fixtures'
p1250
I1
sS'settlement'
p1251
I1
sS'pts'
p1252
I1
sS'gmt.bohemians'
p1253
I1
sS'tait'
p1254
I1
sS'laid'
p1255
I1
sS'thursday'
p1256
I19
sS'injury.negative'
p1257
I1
sS'crest'
p1258
I1
sS'activities'
p1259
I1
sS'kredytowy'
p1260
I1
sS'returned'
p1261
I1
sS'divisions'
p1262
I1
sS'focus'
p1263
I3
sS'fai'
p1264
I1
sS'worst'
p1265
I2
sS'fall'
p1266
I8
sS'difference'
p1267
I1
sS'condition'
p1268
I1
sS'treating'
p1269
I1
sS'highways'
p1270
I2
sS'17th'
p1271
I1
sS'broderick'
p1272
I3
sS'joined'
p1273
I2
sS'large'
p1274
I3
sS'issue.petty'
p1275
I2
sS'sane'
p1276
I2
sS"o'sullivan"
p1277
I1
sS'small'
p1278
I1
sS'gmt.national'
p1279
I1
sS'penalties'
p1280
I1
sS'streets'
p1281
I1
sS'cresta'
p1282
I1
sS'3.17'
p1283
I1
sS'past'
p1284
I4
sS'rate'
p1285
I26
sS'titley'
p1286
I1
sS'7-4'
p1287
I1
sS'investment'
p1288
I6
sS'defence'
p1289
I2
sS'richard'
p1290
I5
sS'77,000'
p1291
I2
sS'sun'
p1292
I1
sS'section'
p1293
I2
sS'racing'
p1294
I1
sS'public'
p1295
I5
sS'12-1positive'
p1296
I1
sS'movement'
p1297
I2
sS'sparked'
p1298
I1
sS'conflict.but'
p1299
I1
sS'hours'
p1300
I3
sS'favourable'
p1301
I2
sS'operating'
p1302
I1
sS'situation'
p1303
I1
sS'november'
p1304
I6
sS'strong'
p1305
I11
sS'search'
p1306
I1
sS'ahead'
p1307
I6
sS'5.5'
p1308
I1
sS'losses'
p1309
I1
sS'unproved'
p1310
I1
sS'airport'
p1311
I1
sS'ira.the'
p1312
I1
sS'rory'
p1313
I1
sS'published'
p1314
I5
sS'action'
p1315
I1
sS'options'
p1316
I1
sS'trainer'
p1317
I13
sS'said.aib'
p1318
I1
sS'marginal'
p1319
I1
sS'africa'
p1320
I1
sS'aimed'
p1321
I1
sS'trained'
p1322
I1
sS'armed'
p1323
I2
sS'consharon'
p1324
I1
sS'shareholders'
p1325
I1
sS'composure'
p1326
I1
sS'wiped'
p1327
I1
sS'denominated'
p1328
I2
sS'chaotic'
p1329
I1
sS'6'
p1330
I1
sS'taken'
p1331
I5
sS'injury'
p1332
I1
sS'markets'
p1333
I8
sS'minor'
p1334
I4
sS'company'
p1335
I8
sS'leonard'
p1336
I1
sS'site'
p1337
I1
sS'6.247'
p1338
I1
sS'landed'
p1339
I2
sS'year.negative'
p1340
I1
sS'particular'
p1341
I1
sS'known'
p1342
I1
sS'mounted'
p1343
I1
sS'town'
p1344
I3
sS'hour'
p1345
I3
sS'damien'
p1346
I2
sS'coalition'
p1347
I14
sS'remain'
p1348
I4
sS'examined'
p1349
I1
sS'indicating'
p1350
I1
sS'morgan'
p1351
I3
sS'history'
p1352
I1
sS'challenging'
p1353
I2
sS'creation.bruton'
p1354
I1
sS'share'
p1355
I6
sS'accept'
p1356
I2
sS'pushed'
p1357
I1
sS'numbers'
p1358
I3
sS'sharp'
p1359
I3
sS'swung'
p1360
I1
sS'firmly'
p1361
I1
sS'information'
p1362
I2
sS'cso'
p1363
I1
sS'goal'
p1364
I3
sS'5.6'
p1365
I2
sS'muggings'
p1366
I2
sS'5.9'
p1367
I1
sS'breaking'
p1368
I1
sS'mcateer'
p1369
I1
sS'dismissed'
p1370
I1
sS'hampered'
p1371
I2
sS'tuesday.scorers'
p1372
I1
sS'earnings'
p1373
I2
sS'fed'
p1374
I1
sS'stayer'
p1375
I1
sS'slackening'
p1376
I1
sS'wylde'
p1377
I2
sS'intended'
p1378
I2
sS'stimpson'
p1379
I1
sS'aldaniti'
p1380
I2
sS'denial'
p1381
I1
sS'hristov'
p1382
I2
sS'coming'
p1383
I2
sS'response'
p1384
I1
sS'investigating.the'
p1385
I2
sS'acquisitions'
p1386
I1
sS'refuse'
p1387
I2
sS'short'
p1388
I2
sS'mcgeechan'
p1389
I1
sS'year.revenue'
p1390
I1
sS'percent.the'
p1391
I1
sS'overnight'
p1392
I1
sS'broadcasting'
p1393
I1
sS'responsibility'
p1394
I5
sS'11.5'
p1395
I1
sS'banks'
p1396
I2
sS'million.but'
p1397
I1
sS'playing'
p1398
I2
sS'turnover'
p1399
I1
sS'help'
p1400
I2
sS'soon'
p1401
I1
sS'setback'
p1402
I1
sS'dunwoody'
p1403
I2
sS'held'
p1404
I5
sS'appeals'
p1405
I1
sS'scott'
p1406
I2
sS'committee'
p1407
I1
sS'signs'
p1408
I2
sS'shareholding'
p1409
I2
sS'24'
p1410
I1
sS'25'
p1411
I1
sS'26'
p1412
I1
sS'27'
p1413
I2
sS'22'
p1414
I3
sS'23'
p1415
I2
sS'29'
p1416
I1
sS'ireland.no'
p1417
I1
sS'thursday.the'
p1418
I5
sS'40-strong'
p1419
I1
sS'founders'
p1420
I1
sS'ally'
p1421
I2
sS"o'brien"
p1422
I3
sS'good'
p1423
I10
sS'return'
p1424
I1
sS'northwestern'
p1425
I3
sS'food'
p1426
I2
sS'largest'
p1427
I3
sS'units'
p1428
I3
sS'party'
p1429
I16
sS'communities'
p1430
I1
sS'hunted'
p1431
I1
sS'association'
p1432
I4
sS'did'
p1433
I2
sS'haydock'
p1434
I2
sS'mater'
p1435
I1
sS'heavy'
p1436
I5
sS'sterling'
p1437
I2
sS'2.608'
p1438
I1
sS'england'
p1439
I25
sS'weight'
p1440
I2
sS'generation'
p1441
I1
sS'house'
p1442
I4
sS'hard'
p1443
I1
sS'reduce'
p1444
I2
sS'idea'
p1445
I1
sS'btween'
p1446
I1
sS'expect'
p1447
I7
sS'organised'
p1448
I2
sS'insurance'
p1449
I2
sS'really'
p1450
I1
sS'try'
p1451
I1
sS'funding'
p1452
I1
sS'garvey'
p1453
I2
sS'acting'
p1454
I1
sS'dominated'
p1455
I1
sS'hill'
p1456
I1
sS'7'
p1457
I1
sS'150th'
p1458
I1
sS'issue'
p1459
I5
sS'highway'
p1460
I1
sS'risen'
p1461
I1
sS'lawrence'
p1462
I1
sS'friday'
p1463
I16
sS'horse'
p1464
I3
sS'3.05'
p1465
I1
sS'reason'
p1466
I1
sS'base'
p1467
I3
sS'members'
p1468
I3
sS'backed'
p1469
I2
sS'mitko'
p1470
I2
sS'rises'
p1471
I1
sS'generate'
p1472
I1
sS'cheers'
p1473
I1
sS'owners'
p1474
I1
sS'benefits'
p1475
I1
sS'launch'
p1476
I3
sS'needing'
p1477
I1
sS'terrible'
p1478
I1
sS'noted'
p1479
I1
sS'conducted'
p1480
I1
sS'threat'
p1481
I2
sS'136.6'
p1482
I1
sS'fallen'
p1483
I7
sS'major'
p1484
I24
sS'slipped'
p1485
I2
sS'number'
p1486
I7
sS'plummet'
p1487
I1
sS'55.0'
p1488
I1
sS'fearing'
p1489
I1
sS'story'
p1490
I2
sS'leading'
p1491
I3
sS'moderately'
p1492
I1
sS'180'
p1493
I1
sS'station'
p1494
I2
sS'statement'
p1495
I11
sS'regained'
p1496
I2
sS'rates'
p1497
I3
sS'scheme'
p1498
I1
sS'finances'
p1499
I1
sS'recovered'
p1500
I1
sS'selling'
p1501
I1
sS'option'
p1502
I3
sS'jamie'
p1503
I1
sS'park'
p1504
I2
sS'dobbincurrent'
p1505
I1
sS'focusing'
p1506
I1
sS'days.paisley'
p1507
I1
sS'believe'
p1508
I1
sS"you'd"
p1509
I1
sS'189'
p1510
I1
sS'double'
p1511
I1
sS'grey'
p1512
I2
sS'determined'
p1513
I1
sS'contrary'
p1514
I1
sS'outstanding'
p1515
I2
sS'strengthen'
p1516
I1
sS'substantial'
p1517
I1
sS'aged'
p1518
I1
sS'orders'
p1519
I1
sS'vulnerable'
p1520
I1
sS'sell'
p1521
I1
sS'sa'
p1522
I1
sS'built'
p1523
I1
sS'fiasco.this'
p1524
I1
sS'self'
p1525
I1
sS'scotland'
p1526
I6
sS'severe'
p1527
I2
sS'lit'
p1528
I1
sS'majority'
p1529
I2
sS'labour'
p1530
I14
sS'chairman'
p1531
I3
sS'command'
p1532
I4
sS'province'
p1533
I9
sS'play'
p1534
I1
sS'added'
p1535
I4
sS'warnings'
p1536
I5
sS'reckon'
p1537
I1
sS'serve'
p1538
I1
sS'measures'
p1539
I2
sS'reunited'
p1540
I1
sS'hired'
p1541
I2
sS'significant'
p1542
I1
sS'run.but'
p1543
I1
sS'services'
p1544
I5
sS'soared'
p1545
I1
sS'78'
p1546
I1
sS'5-1'
p1547
I1
sS'dealers'
p1548
I8
sS'clear'
p1549
I5
sS'popularity'
p1550
I2
sS'km'
p1551
I3
sS'giving'
p1552
I2
sS'barred'
p1553
I1
sS'clean'
p1554
I1
sS'latest'
p1555
I5
sS'western'
p1556
I1
sS'sector'
p1557
I6
sS'bomb.police'
p1558
I1
sS'particularly'
p1559
I5
sS'gold'
p1560
I6
sS'cheltenham'
p1561
I5
sS'said.dorans'
p1562
I1
sS'get.nahthen'
p1563
I1
sS'661'
p1564
I3
sS'businesses'
p1565
I1
sS'freight'
p1566
I3
sS'fine'
p1567
I3
sS'ncb'
p1568
I4
sS'costing'
p1569
I3
sS'completion'
p1570
I1
sS'indicator'
p1571
I1
sS'northern'
p1572
I17
sS'derry'
p1573
I1
sS'nervous'
p1574
I1
sS'penalty'
p1575
I1
sS'pretty'
p1576
I2
sS'equity'
p1577
I1
sS'8'
p1578
I5
sS'indifference'
p1579
I1
sS'policing'
p1580
I1
sS'hit'
p1581
I2
sS'ever.negative'
p1582
I1
sS'famous'
p1583
I1
sS'preparing'
p1584
I1
sS'closely'
p1585
I2
sS'reporters'
p1586
I2
sS'cancer.but'
p1587
I1
sS'intensify'
p1588
I2
sS'bonds.non'
p1589
I1
sS'progressive'
p1590
I6
sS'stirling'
p1591
I1
sS'banking'
p1592
I1
sS'enclosure'
p1593
I1
sS'becher'
p1594
I1
sS'set'
p1595
I6
sS'brookshawjockey'
p1596
I1
sS'maurice'
p1597
I1
sS'flankers'
p1598
I1
sS'geoff'
p1599
I2
sS'wales.now'
p1600
I1
sS'2.3'
p1601
I2
sS'2.2'
p1602
I3
sS'2.7'
p1603
I1
sS'2.6'
p1604
I1
sS'howley'
p1605
I1
sS'2.4'
p1606
I1
sS'halved'
p1607
I2
sS'muted'
p1608
I1
sS'currently'
p1609
I1
sS'slapped'
p1610
I1
sS'case'
p1611
I2
sS'won'
p1612
I8
sS'various'
p1613
I1
sS'probably'
p1614
I5
sS'burned'
p1615
I1
sS'conditions'
p1616
I1
sS'europe'
p1617
I2
sS'paisley'
p1618
I2
sS'78th'
p1619
I1
sS'unconscious'
p1620
I1
sS'attention'
p1621
I2
sS'june.bruton'
p1622
I1
sS'incident'
p1623
I1
sS'spokeswoman.police'
p1624
I1
sS'opposition'
p1625
I11
sS'hardline'
p1626
I1
sS'league'
p1627
I3
sS'improved'
p1628
I1
sS"wouldn't"
p1629
I1
sS'annual'
p1630
I6
sS'foreign'
p1631
I11
sS'roman'
p1632
I2
sS'forsyth'
p1633
I1
sS'rose'
p1634
I5
sS'undershoot'
p1635
I1
sS'qualifieron'
p1636
I1
sS'headed'
p1637
I1
sS'retaliating.the'
p1638
I1
sS'loan'
p1639
I1
sS'crippled'
p1640
I1
sS'sweep'
p1641
I2
sS'community'
p1642
I2
sS'years.bruton'
p1643
I1
sS'church'
p1644
I2
sS'described'
p1645
I3
sS'monthly'
p1646
I5
sS'create'
p1647
I1
sS'acceptance'
p1648
I1
sS'political'
p1649
I11
sS'runner'
p1650
I1
sS'reduction'
p1651
I3
sS'ireland'
p1652
I54
sS'said.the'
p1653
I5
sS'napm'
p1654
I2
sS'meeting'
p1655
I1
sS'pl'
p1656
I1
sS'121.8'
p1657
I1
sS'firm'
p1658
I4
sS'35-man'
p1659
I1
sS'repayments'
p1660
I1
sS'champion'
p1661
I3
sS'gap'
p1662
I5
sS'fund'
p1663
I2
sS'races'
p1664
I1
sS'lives'
p1665
I1
sS'prices'
p1666
I7
sS'towns'
p1667
I2
sS'plants'
p1668
I1
sS'10-12'
p1669
I1
sS'politician'
p1670
I1
sS'inexperienced.the'
p1671
I1
sS'order.analysts'
p1672
I1
sS'straight'
p1673
I1
sS'elections'
p1674
I5
sS'technical'
p1675
I1
sS'match'
p1676
I2
sS'32'
p1677
I2
sS'real'
p1678
I4
sS'pound'
p1679
I9
sS'voters'
p1680
I2
sS'percent.looking'
p1681
I1
sS'avro'
p1682
I1
sS'creation.they'
p1683
I1
sS'aintree'
p1684
I11
sS'mudahim.the'
p1685
I1
sS'italy'
p1686
I1
sS'shaw'
p1687
I1
sS'grant'
p1688
I1
sS'lengths'
p1689
I1
sS'shorter'
p1690
I1
sS'widely'
p1691
I1
sS'grand'
p1692
I7
sS'9'
p1693
I1
sS'conflict'
p1694
I2
sS'higher'
p1695
I3
sS'development'
p1696
I3
sS'currencies'
p1697
I1
sS'affairs'
p1698
I1
sS'blair'
p1699
I2
sS'yesterday'
p1700
I2
sS'alert'
p1701
I1
sS'ira.key'
p1702
I1
sS'levels'
p1703
I1
sS'moving'
p1704
I2
sS'm3e'
p1705
I1
sS'recent'
p1706
I3
sS'lower'
p1707
I4
sS'15.4'
p1708
I1
sS'15.5'
p1709
I2
sS'araquipa'
p1710
I2
sS'ieuan'
p1711
I1
sS'person'
p1712
I1
sS'5.81'
p1713
I1
sS'kelly'
p1714
I2
sS'traffic'
p1715
I10
sS'1615'
p1716
I1
sS'said.lending'
p1717
I1
sS'25-3u'
p1718
I1
sS'issue.the'
p1719
I1
sS'world'
p1720
I10
sS'alternative'
p1721
I3
sS'doran'
p1722
I2
sS'injuries'
p1723
I1
sS'cut'
p1724
I2
sS'cup'
p1725
I12
sS'scenario'
p1726
I1
sS'workers'
p1727
I1
sS'revenue'
p1728
I2
sS'deliberately'
p1729
I3
sS'added.sane'
p1730
I2
sS'violations'
p1731
I2
sS'easter'
p1732
I3
sS'surprised'
p1733
I1
sS'build'
p1734
I2
sS'cordon'
p1735
I1
sS'customers'
p1736
I1
sS'australia'
p1737
I2
sS'march'
p1738
I16
sS'big'
p1739
I4
sS'showing'
p1740
I4
sS'suffering'
p1741
I1
sS'standstill'
p1742
I1
sS'bit'
p1743
I3
sS'wings'
p1744
I1
sS'projects'
p1745
I4
sS'success'
p1746
I1
sS'semi'
p1747
I2
sS'follows'
p1748
I1
sS'kennedy'
p1749
I1
sS'rider'
p1750
I1
sS'arthur'
p1751
I1
sS'continue'
p1752
I2
sS'yields'
p1753
I1
sS'wrecked'
p1754
I1
sS'refinements.ex'
p1755
I1
sS'parade'
p1756
I5
sS'lastest'
p1757
I1
sS'spring'
p1758
I1
sS'creation'
p1759
I7
sS'pierre'
p1760
I1
sS'ahern'
p1761
I5
sS'3.4'
p1762
I1
sS'spot.the'
p1763
I1
sS'1995.turnover'
p1764
I1
sS'tuesday.as'
p1765
I1
sS'scale'
p1766
I1
sS'describing'
p1767
I1
sS'decision'
p1768
I1
sS'exceeding'
p1769
I1
sS'pen'
p1770
I2
sS'payments'
p1771
I1
sS'brooksjockey'
p1772
I1
sS'run'
p1773
I3
sS'7.28'
p1774
I1
sS'300'
p1775
I2
sS'continuing'
p1776
I1
sS'agreement'
p1777
I6
sS'lending.residential'
p1778
I1
sS'fee'
p1779
I1
sS'relating'
p1780
I1
sS'raider'
p1781
I1
sS'troops'
p1782
I1
sS'1,200'
p1783
I1
sS'thursday.irish'
p1784
I1
sS'piles'
p1785
I1
sS'refugees'
p1786
I5
sS'wbk'
p1787
I8
sS'ground.smith'
p1788
I1
sS'economic'
p1789
I7
sS'year.turnover'
p1790
I1
sS'ida'
p1791
I5
sS'gear.thousands'
p1792
I1
sS'85.9'
p1793
I1
sS'cronin'
p1794
I1
sS'steady'
p1795
I1
sS'neutrality'
p1796
I1
sS'stojkovski'
p1797
I3
sS'primarily'
p1798
I1
sS'sports'
p1799
I1
sS'rolls'
p1800
I1
sS'statistics'
p1801
I8
sS'computer'
p1802
I1
sS'spending'
p1803
I1
sS'question'
p1804
I1
sS'fast'
p1805
I3
sS'irelandjockey'
p1806
I1
sS"we're"
p1807
I1
sS'suit'
p1808
I1
sS'sections'
p1809
I2
sS'opponent'
p1810
I2
sS'blueprint'
p1811
I1
sS'mountains'
p1812
I1
sS'goulandris'
p1813
I1
sS'invite'
p1814
I1
sS'collapsed'
p1815
I3
sS'hoped'
p1816
I1
sS'link'
p1817
I1
sS'hopes'
p1818
I1
sS'line'
p1819
I7
sS'rejection'
p1820
I1
sS'caller'
p1821
I1
sS'u-021'
p1822
I1
sS'uk'
p1823
I7
sS'highlight'
p1824
I1
sS'similar'
p1825
I2
sS'called'
p1826
I1
sS'inch'
p1827
I1
sS'interventions'
p1828
I1
sS'surpassing'
p1829
I2
sS'engineering'
p1830
I1
sS'warning'
p1831
I5
sS'rally'
p1832
I2
sS'said.it'
p1833
I1
sS'graham'
p1834
I2
sS'cotton'
p1835
I1
sS'sligo'
p1836
I1
sS'tentative'
p1837
I1
sS'employment'
p1838
I2
sS'peace'
p1839
I6
sS'investment.prime'
p1840
I2
sS'backs'
p1841
I3
sS'nick'
p1842
I1
sS'coded'
p1843
I4
sS'income'
p1844
I2
sS'department'
p1845
I2
sS'marches.the'
p1846
I1
sS'reportedly'
p1847
I1
sS'favourite'
p1848
I4
sS'scrum'
p1849
I1
sS'helping'
p1850
I1
sS'cater'
p1851
I2
sS'allowing'
p1852
I2
sS'posters'
p1853
I1
sS'sides'
p1854
I1
sS'ago'
p1855
I4
sS'miles'
p1856
I1
sS'age'
p1857
I1
sS'vehicles'
p1858
I2
sS'walked'
p1859
I1
sS'6.26'
p1860
I1
sS'2000'
p1861
I1
sS'2001'
p1862
I3
sS'2006'
p1863
I3
sS'fresh'
p1864
I2
sS'having'
p1865
I1
sS'rte'
p1866
I2
sS'jason'
p1867
I4
sS'saying'
p1868
I1
sS'issued'
p1869
I1
sS'evacuated'
p1870
I1
sS'produce'
p1871
I1
sS'steve'
p1872
I1
sS'adjustment'
p1873
I2
sS'nivencurrent'
p1874
I1
sS'outperforming'
p1875
I1
sS'simon'
p1876
I1
sS'baron'
p1877
I2
sS'disposal'
p1878
I2
sS'young'
p1879
I2
sS'expelling'
p1880
I1
sS'intensive'
p1881
I2
sS'169.4'
p1882
I1
sS'excluded'
p1883
I2
sS'waterford'
p1884
I6
sS'fences'
p1885
I5
sS'sent'
p1886
I3
sS'50-percent'
p1887
I1
sS'confirmation'
p1888
I1
sS'seized'
p1889
I1
sS'reopened'
p1890
I3
sS'wave'
p1891
I3
sS'artery'
p1892
I2
sS'entire'
p1893
I1
sS'experiencing'
p1894
I1
sS'michael'
p1895
I2
sS'deals'
p1896
I2
sS'race'
p1897
I13
sS'extraditing'
p1898
I1
sS'polling'
p1899
I1
sS'finalswaterford'
p1900
I1
sS'ceasefire'
p1901
I5
sS'havens'
p1902
I1
sS'stepping'
p1903
I1
sS'wedgwood'
p1904
I5
sS'index'
p1905
I3
sS'economy.by'
p1906
I1
sS'power'
p1907
I9
sS'apparatus'
p1908
I1
sS'concessions'
p1909
I1
sS'cheltenham.avro'
p1910
I1
sS'swancurrent'
p1911
I1
sS'access'
p1912
I1
sS'capital'
p1913
I7
sS'firms'
p1914
I1
sS'exercise'
p1915
I2
sS'impact'
p1916
I7
sS'led'
p1917
I3
sS'degree'
p1918
I1
sS'exchange'
p1919
I3
sS'respectively'
p1920
I2
sS'underwood'
p1921
I1
sS'1330'
p1922
I2
sS'sinn'
p1923
I6
sS'following'
p1924
I8
sS'focused'
p1925
I1
sS'making'
p1926
I1
sS'consideration'
p1927
I2
sS'confiscating'
p1928
I1
sS'39'
p1929
I1
sS'stalks'
p1930
I1
sS'athlete.smith'
p1931
I1
sS'areas.paisley'
p1932
I1
sS'involved'
p1933
I2
sS'30'
p1934
I1
sS'37'
p1935
I3
sS'36'
p1936
I2
sS'35'
p1937
I1
sS'survey'
p1938
I3
sS'1530'
p1939
I2
sS'81.75'
p1940
I1
sS'opinion'
p1941
I6
sS'residents'
p1942
I2
sS'control'
p1943
I2
sS'1.the'
p1944
I1
sS'17-month'
p1945
I2
sS'win'
p1946
I7
sS'manage'
p1947
I1
sS'private'
p1948
I7
sS'scandal'
p1949
I1
sS'standing'
p1950
I2
sS'use'
p1951
I3
sS'cheered'
p1952
I1
sS'remains'
p1953
I5
sS'gregor'
p1954
I1
sS'doubt'
p1955
I1
sS'bitterly'
p1956
I1
sS'timing'
p1957
I4
sS'reflects'
p1958
I1
sS'parliament'
p1959
I4
sS'started'
p1960
I1
sS'0.5'
p1961
I1
sS'factor'
p1962
I2
sS'benchmark'
p1963
I3
sS'trail'
p1964
I2
sS'sharply'
p1965
I4
sS'payrolls'
p1966
I3
sS'albanians'
p1967
I1
sS'potential'
p1968
I1
sS'hints'
p1969
I1
sS'customer'
p1970
I1
sS'f'
p1971
I1
sS'20-1'
p1972
I1
sS'challenge'
p1973
I1
sS'meet'
p1974
I1
sS'closing'
p1975
I2
sS'drops'
p1976
I1
sS'0.9'
p1977
I1
sS'weaker'
p1978
I1
sS'links'
p1979
I2
sS'process'
p1980
I1
sS'0.3'
p1981
I1
sS'0.2'
p1982
I1
sS'tax'
p1983
I18
sS'0.4'
p1984
I1
sS'bruton'
p1985
I13
sS'0.6'
p1986
I2
sS'high'
p1987
I4
sS'effectively'
p1988
I1
sS'reserves'
p1989
I5
sS'pulling'
p1990
I1
sS'percent.overall'
p1991
I1
sS'serial'
p1992
I1
sS'reynolds'
p1993
I3
sS'united'
p1994
I2
sS'hoardings'
p1995
I3
sS'traders'
p1996
I1
sS'winners'
p1997
I1
sS'animal'
p1998
I1
sS'said.but'
p1999
I2
sS'delap'
p2000
I1
sS'establishment'
p2001
I2
sS'stock'
p2002
I7
sS'farm'
p2003
I5
sS'fran'
p2004
I1
sS'bertie'
p2005
I4
sS'abuse'
p2006
I2
sS'solidarity'
p2007
I1
sS'light'
p2008
I3
sS'lines'
p2009
I2
sS'130.0'
p2010
I1
sS'chief'
p2011
I1
sS'road'
p2012
I1
sS'looking'
p2013
I2
sS'divided'
p2014
I1
sS'fastest'
p2015
I1
sS'institutional'
p2016
I1
sS'percent.dealers'
p2017
I2
sS'131'
p2018
I1
sS'including'
p2019
I2
sS'looks'
p2020
I3
sS'grayson'
p2021
I1
sS'agricultural'
p2022
I1
sS'athlete.negative'
p2023
I1
sS'operative'
p2024
I2
sS'bunch'
p2025
I1
sS'394,000'
p2026
I1
sS'guerrilla'
p2027
I3
sS'ships'
p2028
I1
sS'winning'
p2029
I4
sS'15.2'
p2030
I4
sS'dermot'
p2031
I2
sS'underpin'
p2032
I1
sS'orange'
p2033
I1
sS'holiday'
p2034
I1
sS'junction'
p2035
I3
sS'wheels.this'
p2036
I1
sS'repercussions'
p2037
I2
sS'practice'
p2038
I1
sS'6p2p'
p2039
I1
sS'cutting'
p2040
I2
sS'republican'
p2041
I5
sS'investor'
p2042
I2
sS'day'
p2043
I4
sS'february'
p2044
I17
sS'nfc'
p2045
I2
sS'kpw'
p2046
I1
sS'manoeuvre'
p2047
I1
sS'slipping'
p2048
I1
sS'magnitude'
p2049
I1
sS'nationals'
p2050
I2
sS'anxiously'
p2051
I1
sS'bentley'
p2052
I1
sS'doing'
p2053
I2
sS'reported.sections'
p2054
I1
sS'society'
p2055
I1
sS'investigative'
p2056
I2
sS'measure'
p2057
I1
sS'82'
p2058
I1
sS'slumped'
p2059
I2
sS'80'
p2060
I1
sS'special'
p2061
I1
sS'matt'
p2062
I1
sS'2.36'
p2063
I1
sS'disarray'
p2064
I1
sS'chaos'
p2065
I5
sS'outings'
p2066
I1
sS'critics'
p2067
I1
sS'electronics'
p2068
I1
sS'cause'
p2069
I2
sS'announced'
p2070
I3
sS'shut'
p2071
I2
sS'backwashes'
p2072
I2
sS'payroll'
p2073
I5
sS'motorists'
p2074
I1
sS'release'
p2075
I2
sS'point.commentators'
p2076
I2
sS'receipts'
p2077
I11
sS'route'
p2078
I2
sS'tatejockey'
p2079
I1
sS'wednesday.in'
p2080
I1
sS'stride'
p2081
I1
sS'allied'
p2082
I1
sS'qualification'
p2083
I1
sS'resumes'
p2084
I2
sS'10-1positive'
p2085
I1
sS'retail'
p2086
I1
sS'austin'
p2087
I1
sS'8-1'
p2088
I1
sS'south'
p2089
I6
sS'finest'
p2090
I1
sS'evans'
p2091
I1
sS'owner'
p2092
I1
sS'unabating'
p2093
I1
sS'quality'
p2094
I1
sS'percent.analysts'
p2095
I1
sS'management'
p2096
I2
sS'relations'
p2097
I1
sS'priority'
p2098
I1
sS'1500'
p2099
I1
sS'contenders'
p2100
I1
sS'653'
p2101
I1
sS'chaser'
p2102
I1
sS'final'
p2103
I2
sS'townsend'
p2104
I1
sS"o'reilly"
p2105
I1
sS'2-0'
p2106
I1
sS'2-1'
p2107
I1
sS'reversed'
p2108
I1
sS'depressing'
p2109
I2
sS'nahthen'
p2110
I1
sS'july'
p2111
I1
sS'fitzgeraldcurrent'
p2112
I1
sS'bid'
p2113
I1
sS'priority.the'
p2114
I2
sS'pointers'
p2115
I1
sS'reacted'
p2116
I1
sS'10-1'
p2117
I2
sS'negatively'
p2118
I1
sS'10-3'
p2119
I1
sS'1.5'
p2120
I1
sS'1.0'
p2121
I2
sS'1.1'
p2122
I2
sS'catholics'
p2123
I5
sS'unchanged'
p2124
I7
sS'partnership'
p2125
I1
sS'1.8'
p2126
I1
sS'unlikely'
p2127
I6
sS'close'
p2128
I8
sS'need'
p2129
I1
sS'apparently'
p2130
I1
sS'viewed'
p2131
I1
sS'acceleration'
p2132
I3
sS'catholic'
p2133
I5
sS'cavan'
p2134
I1
sS'agency'
p2135
I2
sS'mid'
p2136
I2
sS'anglo'
p2137
I1
sS'arm'
p2138
I2
sS'560'
p2139
I1
sS'concerns'
p2140
I1
sS'brokers.examiner'
p2141
I1
sS'unless'
p2142
I2
sS'combat'
p2143
I1
sS'centre'
p2144
I1
sS'skopje'
p2145
I1
sS'funds.aib'
p2146
I1
sS'device'
p2147
I1
sS'percent.irish'
p2148
I1
sS'payment'
p2149
I2
sS'deny'
p2150
I4
sS'pencilling'
p2151
I1
sS'upset'
p2152
I1
sS'disease'
p2153
I1
sS'1,000'
p2154
I1
sS'ignited'
p2155
I1
sS'occasion'
p2156
I1
sS'fact'
p2157
I1
sS'bunds'
p2158
I1
sS'impression'
p2159
I1
sS'recess'
p2160
I1
sS'chadwick'
p2161
I1
sS'chances'
p2162
I1
sS'supported'
p2163
I1
sS'brother'
p2164
I2
sS'stockbroking'
p2165
I1
sS'bring'
p2166
I3
sS'democrats'
p2167
I3
sS'fear'
p2168
I2
sS'asylum'
p2169
I2
sS'economist'
p2170
I5
sS'pleased'
p2171
I2
sS'principal'
p2172
I1
sS'partners'
p2173
I2
sS'forex'
p2174
I1
sS'based'
p2175
I2
sS'halves'
p2176
I2
sS'stabilises'
p2177
I1
sS'winner'
p2178
I3
sS'controls'
p2179
I1
sS'employer'
p2180
I1
sS'planted'
p2181
I3
sS'employee'
p2182
I1
sS'riding'
p2183
I3
sS'thousands'
p2184
I1
sS'hope'
p2185
I1
sS'handle'
p2186
I1
sS'means'
p2187
I2
sS'beat'
p2188
I3
sS'overall'
p2189
I1
sS'bear'
p2190
I1
sS'beal'
p2191
I1
sS'joint'
p2192
I1
sS'drawn'
p2193
I1
sS'burglary'
p2194
I2
sS'procedures'
p2195
I2
sS'areas'
p2196
I1
sS'trucks'
p2197
I2
sS'course'
p2198
I2
sS'group.fitzwilton'
p2199
I1
sS'rodber'
p2200
I1
sS'taxes'
p2201
I1
sS'rein'
p2202
I2
sS'fixed'
p2203
I1
sS'view'
p2204
I1
sS'enhances'
p2205
I1
sS'requirement'
p2206
I3
sS'acquired'
p2207
I4
sS'national'
p2208
I13
sS'officials'
p2209
I3
sS'ebr'
p2210
I10
sS'shelbourne'
p2211
I1
sS'operated'
p2212
I1
sS'36.3'
p2213
I1
sS'creating'
p2214
I1
sS'unionists'
p2215
I1
sS'pattern'
p2216
I2
sS'junction.the'
p2217
I1
sS'state'
p2218
I1
sS'difficulties'
p2219
I1
sS'closed'
p2220
I7
sS'explosive'
p2221
I1
sS'importance'
p2222
I1
sS'joy'
p2223
I1
sS'job'
p2224
I7
sS'firmness'
p2225
I1
sS'key'
p2226
I6
sS'group'
p2227
I15
sS'w'
p2228
I1
sS'david'
p2229
I3
sS'grass'
p2230
I1
sS'2.44'
p2231
I1
sS'career'
p2232
I1
sS'taking'
p2233
I2
sS'drug'
p2234
I4
sS'april'
p2235
I3
sS'figures'
p2236
I12
sS'deputised'
p2237
I1
sS'hold'
p2238
I3
sS'agents'
p2239
I2
sS'conclude'
p2240
I1
sS'wall'
p2241
I1
sS'brook'
p2242
I2
sS'tuesday'
p2243
I9
sS'clohessy'
p2244
I1
sS'walk'
p2245
I1
sS'guerin'
p2246
I3
sS'denis'
p2247
I1
sS'government.paisley'
p2248
I1
sS'sark'
p2249
I1
sS'outsider'
p2250
I1
sS'tremendous'
p2251
I2
sS'catholicism'
p2252
I1
sS'107.00'
p2253
I2
sS'cent'
p2254
I12
sS'poured'
p2255
I1
sS'hotel'
p2256
I1
sS'curtain'
p2257
I1
sS'500-1'
p2258
I1
sS'liverpool.power'
p2259
I1
sS'suggested'
p2260
I1
sS'controlled'
p2261
I3
sS'climate'
p2262
I1
sS'shuttleway'
p2263
I3
sS'guerrillas'
p2264
I3
sS'orchestrating'
p2265
I1
sS'finished'
p2266
I1
sS'ensuring'
p2267
I1
sS'expenditure'
p2268
I6
sS'mrbi'
p2269
I5
sS'present'
p2270
I1
sS'homes'
p2271
I1
sS'bipartisan'
p2272
I1
sS'broderick.broderick'
p2273
I1
sS'value'
p2274
I8
sS'emotional'
p2275
I1
sS'180,000'
p2276
I1
sS'depreciation'
p2277
I1
sS'truce.the'
p2278
I2
sS'offending'
p2279
I1
sS'examiner'
p2280
I1
sS'resident'
p2281
I1
sS'320.8'
p2282
I1
sS'completed'
p2283
I1
sS'wilmslow.transport'
p2284
I2
sS'surface'
p2285
I2
sS'vs'
p2286
I3
sS'watched'
p2287
I2
sS'claimed'
p2288
I5
sS'partner'
p2289
I2
sS'324.5'
p2290
I1
sS'newsroom'
p2291
I17
sS'farrelly74attendance'
p2292
I1
sS'began'
p2293
I1
sS'strange'
p2294
I1
sS'northwest'
p2295
I2
sS'gibbs'
p2296
I1
sS'auto'
p2297
I2
sS'hendricks'
p2298
I1
sS'outbreak'
p2299
I1
sS'negotiate'
p2300
I3
sS'gets'
p2301
I2
sS'injured'
p2302
I1
sS'ball'
p2303
I1
sS"o'sheajockey"
p2304
I1
sS'absorb'
p2305
I1
sS'grafton'
p2306
I3
sS'effect'
p2307
I2
sS'forecasts'
p2308
I1
sS'poultry'
p2309
I1
sS'discounted'
p2310
I1
sS'gmt.fai'
p2311
I1
sS'fighting'
p2312
I2
sS'thought'
p2313
I4
sS'sheer'
p2314
I1
sS'353'
p2315
I12
sS'deadly'
p2316
I1
sS'position'
p2317
I2
sS'usual'
p2318
I1
sS'heavily'
p2319
I3
sS'executive'
p2320
I1
sS'domestic'
p2321
I4
sS'sources'
p2322
I2
sS'trust'
p2323
I3
sS'underlying'
p2324
I4
sS'seats'
p2325
I1
sS'paul'
p2326
I1
sS'portadown'
p2327
I1
sS'residential'
p2328
I2
sS'supply'
p2329
I3
sS'smith'
p2330
I6
sS'component.the'
p2331
I1
sS'arrest'
p2332
I1
sS'bobsleigh'
p2333
I1
sS'nato'
p2334
I1
sS'developments'
p2335
I1
sS'combing'
p2336
I1
sS'stregone'
p2337
I1
sS'unprecedented'
p2338
I3
sS'kick'
p2339
I1
sS'gmt'
p2340
I9
sS'resolved'
p2341
I1
sS'tests'
p2342
I1
sS'increased'
p2343
I8
sS'ample'
p2344
I1
sS'government'
p2345
I37
sS'term'
p2346
I1
sS'propelled'
p2347
I1
sS'press'
p2348
I4
sS'hauliers'
p2349
I2
sS'necessary'
p2350
I1
sS'like'
p2351
I4
sS'lost'
p2352
I1
sS'admitted'
p2353
I1
sS'journalist'
p2354
I3
sS'martin'
p2355
I1
sS'nerves'
p2356
I1
sS'paddy'
p2357
I1
sS'soft'
p2358
I2
sS'inexperienced'
p2359
I3
sS'foreseeable'
p2360
I1
sS'scottish'
p2361
I2
sS'tempered'
p2362
I1
sS'wider'
p2363
I1
sS'growth'
p2364
I14
sS'home'
p2365
I1
sS'peter'
p2366
I3
sS'119'
p2367
I1
sS'transport'
p2368
I4
sS'moderates'
p2369
I1
sS'jeremy'
p2370
I2
sS'lead'
p2371
I3
sS'broad'
p2372
I2
sS'avoid'
p2373
I2
sS'ira.even'
p2374
I1
sS'masked'
p2375
I1
sS'16-19'
p2376
I1
sS'leader'
p2377
I5
sS'regain'
p2378
I1
sS'bombs.the'
p2379
I2
sS'haulage'
p2380
I2
sS'monetary'
p2381
I6
sS'expansion'
p2382
I2
sS'worthy'
p2383
I1
sS'loans'
p2384
I1
sS'entirely'
p2385
I2
sS'stage'
p2386
I2
sS'rare'
p2387
I1
sS'carried'
p2388
I2
sS'getting'
p2389
I1
sS'sectarian'
p2390
I1
sS'23.7'
p2391
I1
sS'union'
p2392
I5
sS'hauliers.the'
p2393
I1
sS'1981.only'
p2394
I1
sS'software'
p2395
I3
sS'alliance'
p2396
I1
sS'previously'
p2397
I2
sS'commitment'
p2398
I1
sS'roads'
p2399
I6
sS'utility'
p2400
I1
sS'1630'
p2401
I2
sS'northamptonshire'
p2402
I1
sS'1985'
p2403
I1
sS'accused'
p2404
I1
sS'housing'
p2405
I1
sS'jodami'
p2406
I1
sS'stamina'
p2407
I1
sS'biggest'
p2408
I4
sS'vat'
p2409
I2
sS'buy'
p2410
I1
sS'north'
p2411
I4
sS'start.power'
p2412
I1
sS'triggered'
p2413
I1
sS'shane'
p2414
I4
sS'561'
p2415
I3
sS'volume'
p2416
I2
sS'lowered'
p2417
I1
sS'larger'
p2418
I1
sS'percent.new'
p2419
I1
sS'valuation'
p2420
I1
sS'count'
p2421
I1
sS'places'
p2422
I3
sS'drumcree'
p2423
I1
sS'3377'
p2424
I3
sS'official'
p2425
I3
sS'signed'
p2426
I2
sS'record'
p2427
I4
sS'stories'
p2428
I3
sS'fitzwilton'
p2429
I2
sS'problem'
p2430
I3
sS'piece'
p2431
I1
sS'display'
p2432
I1
sS'irish'
p2433
I95
sS'padraic'
p2434
I1
sS'jenny'
p2435
I4
sS'curve'
p2436
I2
sS'water'
p2437
I1
sS'83'
p2438
I1
sS'dawson'
p2439
I1
sS'trailing'
p2440
I1
sS'eric'
p2441
I1
sS'month.the'
p2442
I1
sS'planting'
p2443
I1
sS'compared'
p2444
I10
sS'48'
p2445
I1
sS'variety'
p2446
I1
sS'corporation'
p2447
I2
sS'44'
p2448
I4
sS'percent'
p2449
I67
sS'43'
p2450
I2
sS'40'
p2451
I1
sS'under-21'
p2452
I1
sS'boom'
p2453
I3
sS'621.4'
p2454
I1
sS'penpix'
p2455
I1
sS'volumes'
p2456
I1
sS'monday'
p2457
I4
sS'class'
p2458
I2
sS'june'
p2459
I3
sS'january.the'
p2460
I3
sS'stay'
p2461
I1
sS'chance'
p2462
I5
sS'pumps'
p2463
I2
sS'spokesmen'
p2464
I1
sS'rule'
p2465
I4
sS'hikes'
p2466
I3
sS'status'
p2467
I1
sS'pension'
p2468
I1
sS'dallaglio'
p2469
I1
sS'spectactulars'
p2470
I1
s.