(dp0
S'ghosheh'
p1
I3
sS'director.the'
p2
I1
sS'consolidated'
p3
I1
sS'15-km'
p4
I3
sS'doubts'
p5
I1
sS'desirable'
p6
I1
sS'yellow'
p7
I1
sS'hitch'
p8
I1
sS'indicates'
p9
I1
sS'facilities'
p10
I1
sS'protest'
p11
I11
sS'jihad'
p12
I54
sS'katyusha'
p13
I2
sS'controversial'
p14
I1
sS'2,200'
p15
I2
sS'hastily'
p16
I2
sS'hate'
p17
I1
sS'relationships'
p18
I3
sS'arafat.thirteen'
p19
I1
sS'amr'
p20
I2
sS'167'
p21
I1
sS'attacks.in'
p22
I1
sS'arrested.family'
p23
I1
sS'james'
p24
I1
sS'neighbours'
p25
I3
sS'exploding'
p26
I4
sS'voted'
p27
I1
sS'whatsoever'
p28
I1
sS'towns.israeli'
p29
I1
sS'hermann'
p30
I2
sS'nearby.palestinians'
p31
I1
sS'sped'
p32
I1
sS'sway'
p33
I1
sS'worth'
p34
I1
sS'placed'
p35
I3
sS'netzarim.witnesses'
p36
I1
sS'rescue'
p37
I7
sS'battles'
p38
I3
sS'apropo'
p39
I1
sS'said.there'
p40
I4
sS'rise'
p41
I19
sS'45.6'
p42
I1
sS'troubleshooter'
p43
I1
sS'raviv.the'
p44
I2
sS'zannex'
p45
I4
sS'violence.an'
p46
I1
sS'jacob'
p47
I5
sS'affect'
p48
I3
sS'exporters'
p49
I1
sS'bringing'
p50
I1
sS'copy'
p51
I2
sS'identity'
p52
I1
sS'reuters.one'
p53
I1
sS'school'
p54
I26
sS'state.as'
p55
I1
sS'prize'
p56
I4
sS'said.weisberg'
p57
I1
sS'said.motorists'
p58
I1
sS'skills'
p59
I1
sS'supports'
p60
I1
sS'soldiers.the'
p61
I1
sS'venue'
p62
I1
sS'wednesday'
p63
I63
sS'relentlessly'
p64
I1
sS'cafe.but'
p65
I1
sS'roadblock'
p66
I9
sS'solid'
p67
I2
sS'red'
p68
I3
sS'month.a'
p69
I1
sS'friday.reuters'
p70
I1
sS'explosion.the'
p71
I1
sS'undercover'
p72
I3
sS'clothes'
p73
I1
sS'dwindled'
p74
I1
sS'charter'
p75
I1
sS'force'
p76
I7
sS'acting.the'
p77
I1
sS'gerstenfeld'
p78
I9
sS'miller'
p79
I4
sS'bacon'
p80
I5
sS'direct'
p81
I2
sS'elections'
p82
I5
sS'surrounding'
p83
I3
sS'likely'
p84
I6
sS'street'
p85
I10
sS'kentucky'
p86
I1
sS'follow'
p87
I2
sS'akbar'
p88
I2
sS'sterile'
p89
I2
sS'pollution'
p90
I2
sS'blue'
p91
I3
sS'errors'
p92
I1
sS'hide'
p93
I1
sS'recession.a'
p94
I1
sS'sneh'
p95
I1
sS'wellcome'
p96
I2
sS'blast.israeli'
p97
I1
sS'profitability'
p98
I1
sS'supplied'
p99
I2
sS'spokesman'
p100
I59
sS'lights'
p101
I1
sS'drug'
p102
I8
sS'provident'
p103
I1
sS'interest.turbowicz'
p104
I2
sS'cars'
p105
I3
sS'new'
p106
I109
sS'net'
p107
I11
sS'violence.mordechai'
p108
I1
sS'officially'
p109
I4
sS'seeks'
p110
I3
sS'told'
p111
I124
sS"they'll"
p112
I1
sS'agreement'
p113
I15
sS'dispatched'
p114
I2
sS'clashes.israel'
p115
I1
sS'thursday.netanyahu'
p116
I1
sS'statehood'
p117
I1
sS'men'
p118
I20
sS'3,515,777'
p119
I1
sS'drew'
p120
I1
sS'hundreds'
p121
I1
sS'specialise'
p122
I1
sS'reported'
p123
I8
sS'protection'
p124
I1
sS'possibility'
p125
I10
sS'war.more'
p126
I1
sS'active'
p127
I10
sS'path'
p128
I2
sS'100'
p129
I10
sS"aren't"
p130
I4
sS'year.erel'
p131
I1
sS'netanyahu.the'
p132
I1
sS'netanyahyu'
p133
I1
sS'enron'
p134
I1
sS'obtained'
p135
I3
sS'plates'
p136
I1
sS'michal'
p137
I2
sS'property'
p138
I7
sS'70-80'
p139
I1
sS'forum'
p140
I1
sS'ventures'
p141
I1
sS'oman'
p142
I3
sS'settler'
p143
I13
sS'changed'
p144
I3
sS'envoy'
p145
I5
sS'reports'
p146
I20
sS'sla'
p147
I4
sS'city.investors'
p148
I1
sS'credit'
p149
I3
sS"i'd"
p150
I1
sS'yield'
p151
I1
sS'stressed'
p152
I9
sS'military'
p153
I53
sS"i'm"
p154
I17
sS'settled'
p155
I5
sS'cancellation'
p156
I1
sS'criticism'
p157
I4
sS'jihad.the'
p158
I2
sS'divide'
p159
I1
sS'campaign'
p160
I4
sS'petrochemicals'
p161
I1
sS'negotiations.he'
p162
I3
sS'kaul'
p163
I2
sS'kidwa'
p164
I3
sS'hamas'
p165
I80
sS'brought'
p166
I5
sS'busses'
p167
I1
sS'hamad'
p168
I1
sS'agenda.it'
p169
I1
sS'assure'
p170
I1
sS'tertiary'
p171
I2
sS'morag'
p172
I1
sS'plot'
p173
I1
sS'quasi'
p174
I1
sS'reflected'
p175
I1
sS'spoke'
p176
I11
sS'army'
p177
I60
sS'mccurry'
p178
I4
sS'42'
p179
I1
sS'negative'
p180
I4
sS'insult'
p181
I1
sS'statesmanship'
p182
I2
sS'zim.haaretz'
p183
I1
sS'212-859-1610'
p184
I1
sS'calm'
p185
I5
sS'raids'
p186
I7
sS'recommend'
p187
I2
sS'operations.hapoalim'
p188
I1
sS'bullets.hebron'
p189
I2
sS'type'
p190
I1
sS'tell'
p191
I7
sS'said.wafa'
p192
I2
sS'42,141'
p193
I1
sS'2.7372'
p194
I1
sS'supporters'
p195
I2
sS'holy'
p196
I4
sS'training'
p197
I3
sS'aware'
p198
I2
sS'posture'
p199
I1
sS'phone'
p200
I2
sS'warm'
p201
I1
sS'charged'
p202
I16
sS'radical'
p203
I1
sS'grounds.abu'
p204
I1
sS'casualties'
p205
I5
sS'blocking'
p206
I3
sS'96'
p207
I7
sS'shoot'
p208
I4
sS'1990'
p209
I3
sS'1993'
p210
I18
sS'1995'
p211
I32
sS'1994'
p212
I10
sS'1997'
p213
I17
sS'1996'
p214
I28
sS'pursue'
p215
I1
sS'1998'
p216
I2
sS'aqsa'
p217
I1
sS'work'
p218
I34
sS'gasoline'
p219
I2
sS'2.63'
p220
I1
sS'unfortunately'
p221
I3
sS'jeopardised'
p222
I1
sS'bungalow'
p223
I1
sS'era'
p224
I3
sS'mr'
p225
I4
sS'intervening'
p226
I3
sS'revenues'
p227
I4
sS'root'
p228
I1
sS'grenade'
p229
I11
sS'2,108,018incomenet'
p230
I1
sS'559'
p231
I1
sS'unilateral'
p232
I1
sS'indicated'
p233
I3
sS'cited'
p234
I1
sS'artillery'
p235
I1
sS'india'
p236
I1
sS'stressing'
p237
I1
sS'involve'
p238
I1
sS'currency'
p239
I31
sS'reviewing'
p240
I5
sS'want'
p241
I20
sS'peoples'
p242
I3
sS'premium'
p243
I1
sS'drive'
p244
I2
sS'wednesday.in'
p245
I1
sS'association'
p246
I2
sS'advancing'
p247
I1
sS'guarantee'
p248
I2
sS'issues.netanyahu'
p249
I1
sS'ones'
p250
I1
sS'said.both'
p251
I1
sS'end'
p252
I31
sS'recovery'
p253
I2
sS'post.bezeq'
p254
I1
sS'thing'
p255
I3
sS'provide'
p256
I6
sS'travel'
p257
I5
sS'egyptian'
p258
I7
sS'damage'
p259
I5
sS'turbowicz'
p260
I2
sS'low'
p261
I7
sS'accusations'
p262
I6
sS'interview'
p263
I14
sS'gate'
p264
I1
sS'widespread'
p265
I1
sS'3,438,454doubtful'
p266
I1
sS'frenkel'
p267
I7
sS'charging'
p268
I7
sS'20/4'
p269
I1
sS'yoffie'
p270
I1
sS'badly'
p271
I1
sS'regional'
p272
I1
sS'fakhouri'
p273
I1
sS'undergoing'
p274
I2
sS'mess'
p275
I1
sS'1948'
p276
I1
sS'earlier'
p277
I27
sS'land.the'
p278
I1
sS'containing'
p279
I1
sS'demanding'
p280
I3
sS'customs'
p281
I1
sS'exploding.he'
p282
I2
sS'monday.a'
p283
I1
sS'schoolchildren'
p284
I2
sS'president'
p285
I94
sS'community.a'
p286
I1
sS'meaningful'
p287
I1
sS'thailandliberty'
p288
I1
sS'types'
p289
I1
sS'ago.mansour'
p290
I1
sS'tourism'
p291
I1
sS'purchase'
p292
I6
sS'retail'
p293
I2
sS'maryland.at'
p294
I2
sS'alienate'
p295
I1
sS'communities'
p296
I2
sS'amid'
p297
I1
sS'youths'
p298
I4
sS'said.abu'
p299
I1
sS'hebrew.the'
p300
I1
sS'headquarters'
p301
I1
sS'95revenue'
p302
I2
sS'luring'
p303
I2
sS'maintain'
p304
I5
sS'green'
p305
I20
sS'ultimate'
p306
I1
sS'things'
p307
I7
sS'preventive'
p308
I2
sS'violence.assistant'
p309
I1
sS'athletes'
p310
I3
sS'wing'
p311
I35
sS'triggering'
p312
I4
sS'settlement.rescue'
p313
I1
sS'operations'
p314
I4
sS'reuters.arab'
p315
I1
sS'aharon'
p316
I1
sS'interpretation'
p317
I1
sS'demonstrating'
p318
I1
sS'office'
p319
I21
sS'enter'
p320
I2
sS'telecom'
p321
I4
sS'sidelined'
p322
I1
sS'fall'
p323
I4
sS'ramadan'
p324
I5
sS'parts'
p325
I3
sS'6.7'
p326
I2
sS'6.6'
p327
I1
sS'london'
p328
I1
sS'6.1'
p329
I1
sS'dispatch'
p330
I2
sS'killed.in'
p331
I2
sS'mayor'
p332
I1
sS'6.9'
p333
I1
sS'bombing'
p334
I32
sS'million.defence'
p335
I1
sS'movement.answering'
p336
I1
sS'fit'
p337
I1
sS'10.6'
p338
I1
sS'personal'
p339
I11
sS'soaking'
p340
I2
sS'surgery.after'
p341
I1
sS'bibi'
p342
I1
sS'50,000'
p343
I2
sS'immediatley'
p344
I1
sS'better'
p345
I2
sS'police.a'
p346
I2
sS'youths.albright'
p347
I1
sS'production'
p348
I2
sS'children.the'
p349
I4
sS'400'
p350
I9
sS'weeks'
p351
I37
sS'overcome'
p352
I4
sS'split'
p353
I1
sS'trials'
p354
I1
sS'donors'
p355
I1
sS'revitalise'
p356
I1
sS'affected'
p357
I3
sS'revenues.jerusalem'
p358
I1
sS'743,422eps'
p359
I1
sS'weakness'
p360
I3
sS'grand'
p361
I3
sS'birth'
p362
I1
sS"we'll"
p363
I6
sS'country.the'
p364
I1
sS'scene'
p365
I1
sS'break'
p366
I7
sS'band'
p367
I13
sS'therapy'
p368
I1
sS'owned'
p369
I1
sS'arrested'
p370
I22
sS'monarch'
p371
I7
sS'permits'
p372
I1
sS'recorded'
p373
I2
sS'agents.shami'
p374
I1
sS'811,560'
p375
I1
sS'bank'
p376
I202
sS'months.the'
p377
I2
sS'rhetoric'
p378
I1
sS'130,000'
p379
I2
sS'notified'
p380
I3
sS'1.08'
p381
I1
sS'reasonably'
p382
I4
sS'controls.arafat'
p383
I1
sS'hizbollah'
p384
I6
sS'rocks'
p385
I3
sS'tsur'
p386
I1
sS'town.the'
p387
I1
sS'improvements'
p388
I1
sS'7.98'
p389
I1
sS'reasonable'
p390
I3
sS'jalazoun'
p391
I3
sS'european'
p392
I1
sS'375'
p393
I1
sS'meal'
p394
I3
sS'confiscations'
p395
I1
sS'brodett'
p396
I1
sS'perimeter'
p397
I1
sS'lifted'
p398
I2
sS'correctional'
p399
I3
sS'financial'
p400
I12
sS'suspended'
p401
I8
sS'collapse.palestinian'
p402
I1
sS'threatening'
p403
I2
sS'series'
p404
I3
sS'crimes'
p405
I4
sS'emphasise'
p406
I1
sS'aide'
p407
I3
sS'carry'
p408
I1
sS'taught'
p409
I2
sS'trading'
p410
I17
sS"we'd"
p411
I1
sS'2,500'
p412
I2
sS'hosted'
p413
I2
sS'substantially'
p414
I1
sS'lawyers'
p415
I3
sS'saturday'
p416
I7
sS'18,708'
p417
I1
sS'contend'
p418
I9
sS'decree'
p419
I1
sS'driving'
p420
I7
sS'god'
p421
I3
sS'tried'
p422
I4
sS'matar'
p423
I1
sS'gaza.both'
p424
I2
sS'companies'
p425
I3
sS'encourage'
p426
I1
sS'got'
p427
I9
sS'engineer'
p428
I3
sS'sluggish'
p429
I1
sS'independence'
p430
I2
sS'market.the'
p431
I3
sS'disputed'
p432
I4
sS'telecommunication'
p433
I1
sS'resume'
p434
I13
sS'veto'
p435
I3
sS'eternal'
p436
I4
sS'revenge'
p437
I2
sS'free'
p438
I4
sS'yesterday'
p439
I6
sS'targets.the'
p440
I1
sS'management'
p441
I1
sS'struggle'
p442
I9
sS'rulings'
p443
I2
sS'checked'
p444
I1
sS'estimate'
p445
I1
sS'wanted'
p446
I6
sS'said.coalition'
p447
I1
sS'restarting'
p448
I1
sS'created'
p449
I5
sS'starts'
p450
I2
sS'refugee'
p451
I10
sS'14,110'
p452
I1
sS'messages'
p453
I1
sS'days'
p454
I30
sS'heading'
p455
I1
sS'correction'
p456
I1
sS'renew'
p457
I1
sS'oppose'
p458
I4
sS'rajoub'
p459
I1
sS'revnue'
p460
I1
sS'moving'
p461
I2
sS'loud'
p462
I1
sS'enraged'
p463
I3
sS'industrial'
p464
I6
sS'economists'
p465
I4
sS'clinical'
p466
I1
sS'haaretz'
p467
I1
sS'encouraging'
p468
I3
sS'hearing'
p469
I9
sS'1992.hamas'
p470
I1
sS'adopted'
p471
I3
sS'sober'
p472
I1
sS'bicycle'
p473
I1
sS'23,750'
p474
I1
sS'shot.hospital'
p475
I1
sS'leaders'
p476
I23
sS'agriculture'
p477
I1
sS'0.09'
p478
I2
sS'razek'
p479
I1
sS'service'
p480
I18
sS'rejects'
p481
I1
sS'0.02'
p482
I1
sS'0.03'
p483
I2
sS'18.the'
p484
I1
sS'0.06'
p485
I1
sS'1500'
p486
I1
sS'0.04'
p487
I4
sS'0.05'
p488
I1
sS'needed'
p489
I4
sS'blame.similarly'
p490
I1
sS'example'
p491
I1
sS'rates'
p492
I12
sS'witnessing'
p493
I1
sS'capitalisation'
p494
I3
sS'abstentions'
p495
I2
sS'ordered'
p496
I7
sS'john'
p497
I3
sS'penalties'
p498
I1
sS'reporters.he'
p499
I1
sS'flawed.they'
p500
I1
sS'raviv'
p501
I2
sS'uh-60l'
p502
I2
sS'asset'
p503
I1
sS'tone'
p504
I1
sS'estimates'
p505
I1
sS'villages'
p506
I1
sS'serve'
p507
I3
sS'took'
p508
I18
sS'rejected'
p509
I9
sS'accords.cohen'
p510
I1
sS'western'
p511
I9
sS'jamhara'
p512
I1
sS'kept'
p513
I4
sS'brushed'
p514
I2
sS'marxist'
p515
I1
sS'december'
p516
I4
sS'ahmed'
p517
I4
sS'104.71'
p518
I1
sS'104.76'
p519
I1
sS'target'
p520
I12
sS'showed'
p521
I10
sS'city.lashing'
p522
I1
sS'state.globes'
p523
I1
sS'51.3'
p524
I1
sS'second'
p525
I22
sS'nations'
p526
I7
sS'project'
p527
I13
sS'matter'
p528
I8
sS'972-3-537-2211'
p529
I21
sS'state.netanyahu'
p530
I1
sS'iron'
p531
I2
sS'15.9'
p532
I1
sS'tackled'
p533
I1
sS'enables'
p534
I1
sS'powers'
p535
I1
sS'minus'
p536
I1
sS'acquisition'
p537
I1
sS'instantly.such'
p538
I1
sS'jeopardise'
p539
I1
sS'paths'
p540
I1
sS'donkey'
p541
I1
sS'blackhawks'
p542
I1
sS'sees'
p543
I3
sS'entail'
p544
I1
sS'market.credit'
p545
I1
sS'speech.a'
p546
I2
sS'ran'
p547
I5
sS'mind'
p548
I2
sS'21.islamic'
p549
I1
sS'talking'
p550
I3
sS'lull'
p551
I1
sS'arba'
p552
I4
sS'seen'
p553
I6
sS'unaffected'
p554
I1
sS'seek'
p555
I2
sS'tells'
p556
I1
sS'seminar'
p557
I1
sS'dozen'
p558
I2
sS'gives'
p559
I2
sS'forced'
p560
I5
sS'traders.oppenheimer'
p561
I1
sS'estimated'
p562
I6
sS'secure'
p563
I1
sS'laden'
p564
I2
sS'climate'
p565
I2
sS'hussein.asked'
p566
I1
sS'responsible'
p567
I9
sS'2.75'
p568
I1
sS'isolated'
p569
I8
sS'predominantly'
p570
I1
sS'recommended'
p571
I2
sS'subjects'
p572
I2
sS'absorbed'
p573
I1
sS'96.1'
p574
I1
sS'forces'
p575
I21
sS'impediment'
p576
I1
sS'congressmen.the'
p577
I1
sS'dragged'
p578
I1
sS'completed'
p579
I2
sS'shipments'
p580
I1
sS'week.a'
p581
I1
sS'salaries'
p582
I1
sS'batucha'
p583
I2
sS'explode'
p584
I1
sS'object'
p585
I1
sS'catastrophe'
p586
I1
sS'sanctioned'
p587
I1
sS'regular'
p588
I2
sS'germany'
p589
I3
sS'dahlan'
p590
I1
sS'letter'
p591
I4
sS'conceded'
p592
I4
sS'phase'
p593
I5
sS'own.netanyahu'
p594
I1
sS'palestinians.the'
p595
I1
sS'contain'
p596
I2
sS'materials'
p597
I2
sS'loss-2,240earnings'
p598
I1
sS'explosives'
p599
I10
sS'arabic.all'
p600
I2
sS'stupid'
p601
I2
sS'medical'
p602
I7
sS'camp'
p603
I34
sS'metal'
p604
I3
sS'vouch'
p605
I4
sS'crowd'
p606
I3
sS'treaty'
p607
I6
sS'leaflet'
p608
I5
sS'definitely'
p609
I3
sS'tech'
p610
I6
sS'principle'
p611
I4
sS'sun'
p612
I1
sS'left'
p613
I4
sS'consumer'
p614
I4
sS'dow'
p615
I5
sS'came'
p616
I17
sS'reserve'
p617
I1
sS'saying'
p618
I12
sS'seizing'
p619
I1
sS'bomb'
p620
I34
sS'biotechnology'
p621
I1
sS'directors'
p622
I1
sS'alight'
p623
I4
sS'meetings'
p624
I7
sS'queen'
p625
I1
sS'survive'
p626
I1
sS'shohat'
p627
I1
sS'treaties'
p628
I1
sS'attempts'
p629
I3
sS'showing'
p630
I3
sS'radio'
p631
I18
sS'estate'
p632
I2
sS'thursday.reuters'
p633
I1
sS'valley.an'
p634
I1
sS'ashtrays'
p635
I1
sS'7.9'
p636
I1
sS'refusing'
p637
I1
sS'pilgrimage'
p638
I1
sS'692'
p639
I1
sS'crush'
p640
I1
sS'added.bezeq'
p641
I3
sS'20-year'
p642
I3
sS'quoted'
p643
I10
sS'fight.it'
p644
I1
sS'implementation'
p645
I1
sS'representing'
p646
I2
sS'unemployment'
p647
I2
sS'israel.oman'
p648
I1
sS'minnesota'
p649
I8
sS'week.foreign'
p650
I1
sS'543'
p651
I1
sS'unleashed'
p652
I1
sS'telecom.the'
p653
I1
sS'touched'
p654
I8
sS'rich'
p655
I1
sS'6.last'
p656
I1
sS'549'
p657
I1
sS'jailed'
p658
I6
sS'jailisrael'
p659
I1
sS'policy.israeli'
p660
I1
sS'wearing'
p661
I2
sS'back.clashes'
p662
I1
sS'exports'
p663
I8
sS'761'
p664
I1
sS'10'
p665
I9
sS'stop'
p666
I27
sS'television'
p667
I12
sS'foremost'
p668
I1
sS'criticized'
p669
I1
sS'certificates'
p670
I3
sS'eitan'
p671
I1
sS'cracks'
p672
I1
sS'spirit'
p673
I1
sS'supplies'
p674
I3
sS'report'
p675
I20
sS'policymakers'
p676
I1
sS'onboard'
p677
I1
sS'said.jabara'
p678
I1
sS'dr'
p679
I1
sS'14'
p680
I1
sS'diasonics'
p681
I2
sS'bar'
p682
I3
sS'countries'
p683
I12
sS'baz'
p684
I5
sS'collusion'
p685
I3
sS'illegitimate'
p686
I1
sS'twice'
p687
I12
sS'war.the'
p688
I1
sS'locked'
p689
I1
sS'lurched'
p690
I2
sS'troop'
p691
I4
sS'shots'
p692
I1
sS'18'
p693
I4
sS'release'
p694
I10
sS'wheat.the'
p695
I1
sS'said.u.s'
p696
I3
sS'secretary'
p697
I48
sS'respond'
p698
I5
sS'respone'
p699
I1
sS'blew'
p700
I25
sS'hagai'
p701
I1
sS'products.he'
p702
I1
sS'questions'
p703
I10
sS'fair'
p704
I1
sS'clarified'
p705
I1
sS'testing'
p706
I2
sS'year.in'
p707
I2
sS'unexpectedly'
p708
I2
sS'breaching'
p709
I1
sS'decided'
p710
I7
sS'street.customers'
p711
I1
sS'result'
p712
I6
sS'discussions'
p713
I4
sS'sporadic'
p714
I1
sS'reporters.asked'
p715
I1
sS'hammer'
p716
I2
sS'best'
p717
I6
sS'grave'
p718
I3
sS'instance'
p719
I1
sS'said'
p720
I711
sS'mull'
p721
I1
sS'pressured'
p722
I1
sS'instead.israel'
p723
I2
sS'credits'
p724
I1
sS'away'
p725
I9
sS'legislation.rabbi'
p726
I1
sS'121.8'
p727
I1
sS'mud'
p728
I1
sS'tuesday.in'
p729
I4
sS'unable'
p730
I1
sS'cooperation'
p731
I5
sS'kucera'
p732
I1
sS'366'
p733
I1
sS'orchestrated'
p734
I1
sS'mukhtar'
p735
I1
sS'tolerance'
p736
I3
sS'erel'
p737
I7
sS'preserve'
p738
I1
sS'disavowed'
p739
I7
sS'accord'
p740
I9
sS'terms'
p741
I3
sS'jose'
p742
I1
sS'ultraorthodox'
p743
I2
sS'deteriorated'
p744
I1
sS'weak'
p745
I2
sS'haj'
p746
I1
sS'religious'
p747
I3
sS'somebody'
p748
I1
sS'eli'
p749
I6
sS'extent'
p750
I4
sS'downgrade'
p751
I4
sS'news'
p752
I24
sS'115'
p753
I1
sS'debt'
p754
I1
sS'1,178'
p755
I1
sS'downgraded'
p756
I2
sS'roller'
p757
I3
sS'hills'
p758
I1
sS'suggested'
p759
I4
sS'boycott.the'
p760
I2
sS'essentially'
p761
I1
sS'embarked'
p762
I1
sS'hasib'
p763
I1
sS'sunflower'
p764
I1
sS'irregular'
p765
I1
sS'met'
p766
I15
sS'process.palestinians'
p767
I1
sS'country'
p768
I16
sS'112,000'
p769
I1
sS'bolt'
p770
I1
sS'demanded'
p771
I4
sS'said.friday'
p772
I1
sS'jordan.abu'
p773
I1
sS'planned'
p774
I3
sS'photographer'
p775
I1
sS'operating'
p776
I6
sS'unlinked'
p777
I18
sS'argue'
p778
I1
sS'asked'
p779
I27
sS'negotiation'
p780
I2
sS'widen'
p781
I4
sS'1.5'
p782
I13
sS'appeared'
p783
I2
sS'betting'
p784
I2
sS'civilians'
p785
I2
sS'20s'
p786
I1
sS'bank.dealers'
p787
I1
sS'offerings'
p788
I1
sS'bank.the'
p789
I1
sS'written'
p790
I2
sS'initiative'
p791
I11
sS'affiliated'
p792
I1
sS'false'
p793
I1
sS'250'
p794
I4
sS'trust'
p795
I7
sS'telecommunications'
p796
I11
sS'panel'
p797
I1
sS'alia'
p798
I2
sS'conference'
p799
I11
sS'question'
p800
I3
sS'said.witnesses'
p801
I1
sS'tins'
p802
I1
sS'jerusalem.jewish'
p803
I1
sS'basis'
p804
I5
sS'union'
p805
I2
sS'condemned'
p806
I1
sS'khaled'
p807
I1
sS'criticised'
p808
I4
sS'tiny'
p809
I2
sS'quickly'
p810
I8
sS'britain.israel'
p811
I1
sS'ultranationalist'
p812
I1
sS'belongs'
p813
I1
sS'four.in'
p814
I1
sS'basic'
p815
I10
sS'expected'
p816
I14
sS'flexible'
p817
I2
sS'entered'
p818
I4
sS'desirable.netanyahu'
p819
I1
sS'unchanged'
p820
I12
sS'threw'
p821
I3
sS'instating'
p822
I3
sS'life'
p823
I1
sS'families'
p824
I2
sS'innocent'
p825
I1
sS'relaxing'
p826
I1
sS'eastern'
p827
I9
sS'quantities'
p828
I2
sS'pecked'
p829
I1
sS'raviv.rotlevy'
p830
I2
sS'joined'
p831
I2
sS'0.14'
p832
I1
sS'0.17'
p833
I1
sS'lift'
p834
I1
sS'0.11'
p835
I3
sS'0.10'
p836
I1
sS'shoman'
p837
I11
sS'personally'
p838
I30
sS'adjunctive'
p839
I1
sS'daughter'
p840
I1
sS'worked'
p841
I5
sS'masri'
p842
I1
sS'0.18'
p843
I1
sS'mohammad'
p844
I1
sS'reporters.noting'
p845
I1
sS'gnp'
p846
I1
sS'east'
p847
I191
sS'reuters.earlier'
p848
I2
sS'easter'
p849
I1
sS'censors'
p850
I1
sS'organisers'
p851
I1
sS'control.in'
p852
I2
sS'gains.meitav'
p853
I1
sS'air'
p854
I7
sS'lesser'
p855
I1
sS'information'
p856
I8
sS'near'
p857
I63
sS'conspiracy'
p858
I3
sS'suppose'
p859
I3
sS'unloading'
p860
I2
sS'items'
p861
I1
sS'appeals'
p862
I2
sS'aid'
p863
I11
sS'jews.palestinian'
p864
I1
sS'balance'
p865
I1
sS'flooding'
p866
I2
sS'leaves'
p867
I1
sS'launched'
p868
I5
sS'mistake'
p869
I1
sS'exploding.arabs'
p870
I2
sS'seven'
p871
I16
sS'economics'
p872
I4
sS'doha'
p873
I2
sS'played'
p874
I1
sS'noor'
p875
I1
sS'contrasted'
p876
I1
sS'magen'
p877
I1
sS'defeated'
p878
I2
sS'conditioned'
p879
I2
sS'anger'
p880
I4
sS'eve'
p881
I2
sS'straits'
p882
I2
sS'pavements'
p883
I1
sS'tugged'
p884
I1
sS'hebrew'
p885
I9
sS'comparative'
p886
I2
sS'march'
p887
I55
sS'1995.profit'
p888
I1
sS'shami'
p889
I7
sS'diagnostic'
p890
I1
sS'tuesday.underscoring'
p891
I1
sS'grown'
p892
I1
sS'3.3580'
p893
I2
sS'confirmed'
p894
I6
sS'104.62'
p895
I1
sS'talks.he'
p896
I1
sS'hochman'
p897
I2
sS'edict'
p898
I1
sS'occupied'
p899
I17
sS'make'
p900
I34
sS'hurt.there'
p901
I1
sS'wound'
p902
I1
sS'clearly'
p903
I1
sS'3.3610'
p904
I2
sS'concluded.israel'
p905
I1
sS'amman'
p906
I1
sS'said.an'
p907
I1
sS'couple'
p908
I3
sS'omar'
p909
I2
sS'wheel'
p910
I1
sS'independent'
p911
I4
sS'directing'
p912
I5
sS'instructors'
p913
I2
sS'partners'
p914
I4
sS'community.but'
p915
I1
sS'venue.the'
p916
I1
sS'denise'
p917
I1
sS'hand'
p918
I12
sS'effectively'
p919
I1
sS'cessation'
p920
I2
sS'unyielding'
p921
I2
sS'bus.palestinian'
p922
I1
sS'groundbreaking'
p923
I4
sS'insisted'
p924
I2
sS'opportunity'
p925
I4
sS'blamed'
p926
I17
sS'normalization'
p927
I1
sS'cycle'
p928
I5
sS'detainer'
p929
I4
sS'equilibriun'
p930
I1
sS'shortly'
p931
I5
sS'1979'
p932
I2
sS'1978'
p933
I8
sS'1977'
p934
I1
sS'ziad'
p935
I1
sS'failing'
p936
I2
sS'eps'
p937
I3
sS'echoed'
p938
I1
sS'anbar'
p939
I1
sS'faxed'
p940
I1
sS'client'
p941
I1
sS'resuming'
p942
I5
sS'greatest'
p943
I2
sS'detained'
p944
I5
sS'mother'
p945
I2
sS'claims'
p946
I6
sS'honours.in'
p947
I1
sS'investments'
p948
I3
sS'2.7136'
p949
I2
sS'jersualem'
p950
I3
sS'just'
p951
I8
sS'yen'
p952
I10
sS'isolate'
p953
I1
sS'through.hamas'
p954
I1
sS'biodegradable'
p955
I1
sS'ideas'
p956
I14
sS'majaida'
p957
I3
sS'silverman'
p958
I1
sS'brigade'
p959
I1
sS'financially'
p960
I5
sS'identify'
p961
I3
sS'mechanism'
p962
I2
sS'human'
p963
I1
sS'jerusalam'
p964
I1
sS'facts'
p965
I1
sS'limor'
p966
I3
sS'yes'
p967
I7
sS'32'
p968
I2
sS'impending'
p969
I1
sS'previous'
p970
I4
sS'adding'
p971
I9
sS'reuters.last'
p972
I3
sS'unique'
p973
I2
sS'politburo'
p974
I6
sS'candidate'
p975
I1
sS'equipment'
p976
I1
sS'devaluation'
p977
I1
sS'ease'
p978
I1
sS'assassination'
p979
I1
sS'states.a'
p980
I1
sS'weiss'
p981
I1
sS'thickening'
p982
I3
sS'israelis.israel'
p983
I4
sS'sprinkled'
p984
I1
sS'usda'
p985
I1
sS'teenager'
p986
I6
sS'easy'
p987
I6
sS'prison'
p988
I11
sS'har'
p989
I32
sS'save'
p990
I13
sS'expelled'
p991
I1
sS'gave'
p992
I22
sS'desire'
p993
I2
sS'relating'
p994
I7
sS'said.violence'
p995
I1
sS'sectors'
p996
I6
sS'tricking'
p997
I1
sS'possible'
p998
I15
sS'mideast'
p999
I1
sS'arab'
p1000
I169
sS'possibly'
p1001
I1
sS'21.hamas'
p1002
I1
sS'injuring'
p1003
I5
sS'rahman'
p1004
I8
sS'background'
p1005
I1
sS'signals'
p1006
I1
sS'judge'
p1007
I6
sS'homayedioth'
p1008
I1
sS'burns'
p1009
I21
sS'unfounded'
p1010
I1
sS'retreat'
p1011
I7
sS'apart'
p1012
I9
sS'shoulder'
p1013
I1
sS'discounting'
p1014
I1
sS'beirut'
p1015
I1
sS'59'
p1016
I2
sS'ministerial'
p1017
I3
sS'sector.total'
p1018
I1
sS'104.65'
p1019
I1
sS'51'
p1020
I6
sS'50'
p1021
I3
sS'53'
p1022
I1
sS'52'
p1023
I3
sS'securities'
p1024
I8
sS'steps'
p1025
I5
sS'officer'
p1026
I5
sS'polished'
p1027
I2
sS'night'
p1028
I9
sS'excellency'
p1029
I2
sS'security'
p1030
I78
sS'deliberately.the'
p1031
I2
sS'pillar'
p1032
I2
sS'musameh'
p1033
I8
sS'attorney'
p1034
I12
sS'right'
p1035
I44
sS'old'
p1036
I32
sS'deal'
p1037
I35
sS'people'
p1038
I37
sS'understand'
p1039
I4
sS'reuters.after'
p1040
I1
sS'successfully'
p1041
I1
sS'tournament'
p1042
I1
sS'begin'
p1043
I5
sS'dead'
p1044
I41
sS'mianly'
p1045
I1
sS'malaysia'
p1046
I2
sS'clubs'
p1047
I2
sS'peace.protesters'
p1048
I3
sS'escape'
p1049
I1
sS'billboard'
p1050
I1
sS'unless'
p1051
I5
sS'seized'
p1052
I3
sS'denies'
p1053
I7
sS'specific'
p1054
I4
sS'icc'
p1055
I2
sS'establish'
p1056
I1
sS'zionist'
p1057
I8
sS'comments'
p1058
I2
sS'creative'
p1059
I1
sS'settlement.while'
p1060
I2
sS'asking'
p1061
I4
sS'unit'
p1062
I8
sS'denied'
p1063
I28
sS'umm'
p1064
I1
sS'offices'
p1065
I1
sS'opponents'
p1066
I1
sS'ajaz'
p1067
I1
sS'22-nation'
p1068
I1
sS'coordinator'
p1069
I1
sS'18,124'
p1070
I1
sS'annan'
p1071
I7
sS'2.82'
p1072
I1
sS'marketing'
p1073
I3
sS'corn'
p1074
I5
sS'predicting'
p1075
I1
sS'confer'
p1076
I1
sS'said.this'
p1077
I1
sS'discount'
p1078
I6
sS'jerusalem.witnesses'
p1079
I1
sS'brigades'
p1080
I1
sS'corp'
p1081
I7
sS'confrontation'
p1082
I7
sS'poppies'
p1083
I1
sS'plo'
p1084
I61
sS'post'
p1085
I7
sS'permitted'
p1086
I1
sS'proceed'
p1087
I1
sS'trophy'
p1088
I1
sS'limitation'
p1089
I4
sS'efforts.they'
p1090
I1
sS'weighing'
p1091
I7
sS'flourished'
p1092
I1
sS'derailed'
p1093
I2
sS'intentions'
p1094
I1
sS'attacks'
p1095
I70
sS'5.29'
p1096
I1
sS'dollars'
p1097
I10
sS'2.0100'
p1098
I2
sS'accepts'
p1099
I1
sS'donation'
p1100
I1
sS'dinner'
p1101
I2
sS'despair'
p1102
I1
sS'plus'
p1103
I2
sS'afternoon'
p1104
I4
sS'efforts'
p1105
I12
sS'palestinians'
p1106
I164
sS'slightly'
p1107
I4
sS'hospital'
p1108
I8
sS'considerations'
p1109
I1
sS'raised'
p1110
I9
sS'statements'
p1111
I2
sS'governments'
p1112
I5
sS'presence'
p1113
I2
sS'hosni'
p1114
I4
sS'son.maariv'
p1115
I1
sS'float'
p1116
I3
sS'settlement.bazak'
p1117
I1
sS'appoints'
p1118
I1
sS'son'
p1119
I3
sS'commuters'
p1120
I3
sS'remarks'
p1121
I4
sS'3,550'
p1122
I1
sS'raises'
p1123
I2
sS'28.kennedy'
p1124
I1
sS'reducing'
p1125
I4
sS'year.the'
p1126
I4
sS'bows'
p1127
I1
sS'bonds.israel'
p1128
I1
sS'amidst'
p1129
I2
sS'fabric'
p1130
I1
sS'real'
p1131
I10
sS'waits'
p1132
I1
sS'marzook'
p1133
I100
sS'support'
p1134
I16
sS'initial'
p1135
I5
sS'knowing'
p1136
I1
sS'fight'
p1137
I22
sS'47-year'
p1138
I6
sS'stuck'
p1139
I3
sS'1,722'
p1140
I1
sS'editor'
p1141
I1
sS'way'
p1142
I23
sS'accords'
p1143
I5
sS'boom'
p1144
I1
sS'factions'
p1145
I1
sS'cafe.israeli'
p1146
I1
sS'war'
p1147
I20
sS'happy'
p1148
I4
sS'lowest'
p1149
I1
sS"b'rith"
p1150
I1
sS'head'
p1151
I21
sS'medium'
p1152
I1
sS'form'
p1153
I1
sS'offer'
p1154
I8
sS'clinton.asked'
p1155
I2
sS'differences'
p1156
I4
sS'ceded'
p1157
I2
sS'wireless'
p1158
I8
sS'failure'
p1159
I2
sS'fahd'
p1160
I1
sS'hear'
p1161
I5
sS'metres'
p1162
I1
sS'assimilation'
p1163
I1
sS'border.hizbollah'
p1164
I1
sS'sustained'
p1165
I3
sS'225'
p1166
I1
sS'surrender'
p1167
I7
sS'analyst'
p1168
I2
sS'normalising'
p1169
I4
sS'begins'
p1170
I2
sS'3.7'
p1171
I2
sS'clashes.in'
p1172
I1
sS'inside'
p1173
I3
sS'klalit'
p1174
I1
sS'staged'
p1175
I11
sS'empt'
p1176
I1
sS'release.hamas'
p1177
I1
sS'different'
p1178
I1
sS'terms.borrowers'
p1179
I2
sS'3.5'
p1180
I1
sS'conservatives'
p1181
I1
sS'reporters.a'
p1182
I2
sS'prematurely'
p1183
I1
sS'reinstitutes'
p1184
I1
sS'2,750'
p1185
I1
sS'4,444net'
p1186
I1
sS'150'
p1187
I2
sS'shin'
p1188
I2
sS'report.arafat'
p1189
I2
sS'157'
p1190
I1
sS'3.53'
p1191
I1
sS'stronger'
p1192
I1
sS'scanner.the'
p1193
I1
sS'binding.peleg'
p1194
I1
sS'situation.asked'
p1195
I1
sS'suspicions'
p1196
I1
sS'evidence'
p1197
I6
sS'peres'
p1198
I7
sS'0.61'
p1199
I1
sS'shqaqi'
p1200
I3
sS'promised'
p1201
I2
sS'0.66'
p1202
I2
sS'hapoel'
p1203
I1
sS'floating'
p1204
I3
sS'1996.imports'
p1205
I1
sS'dealer'
p1206
I5
sS'negotiations'
p1207
I29
sS'regime'
p1208
I1
sS'palestinian'
p1209
I380
sS'1967.leiter'
p1210
I1
sS'brother'
p1211
I1
sS'polarisation'
p1212
I2
sS'agreeing'
p1213
I2
sS'stake'
p1214
I6
sS'handed'
p1215
I1
sS'flood'
p1216
I1
sS'interested'
p1217
I2
sS'role'
p1218
I19
sS'protester'
p1219
I5
sS'holding'
p1220
I6
sS'104.74'
p1221
I1
sS'test'
p1222
I1
sS'tie'
p1223
I1
sS'taher'
p1224
I3
sS'areas.in'
p1225
I1
sS'reuters.an'
p1226
I1
sS'intend'
p1227
I1
sS'brothers'
p1228
I1
sS'cede'
p1229
I1
sS'preceding'
p1230
I1
sS'felt'
p1231
I1
sS'gradually'
p1232
I3
sS'casualities'
p1233
I1
sS'neigbours'
p1234
I1
sS'6-4karol'
p1235
I1
sS'fell'
p1236
I13
sS'invested'
p1237
I2
sS'rapeseed'
p1238
I1
sS'deliberately.on'
p1239
I1
sS'scores'
p1240
I17
sS'authorities'
p1241
I13
sS'honour'
p1242
I1
sS'hurt'
p1243
I11
sS'weekend'
p1244
I5
sS'dispersed'
p1245
I6
sS'explosions'
p1246
I42
sS'billion'
p1247
I43
sS'said.jewish'
p1248
I1
sS'islamists.netanyahu'
p1249
I1
sS'outskirts'
p1250
I7
sS'bullet'
p1251
I5
sS'violence.in'
p1252
I1
sS'104.55'
p1253
I1
sS'proposed'
p1254
I2
sS'fears'
p1255
I2
sS'daily'
p1256
I13
sS'performed'
p1257
I1
sS'time'
p1258
I46
sS'push'
p1259
I3
sS'conferred'
p1260
I4
sS'overturned'
p1261
I7
sS'laws'
p1262
I2
sS'aliberty'
p1263
I1
sS'profits'
p1264
I3
sS'stick'
p1265
I1
sS'neighbors'
p1266
I1
sS'chlorohexidine'
p1267
I1
sS'managed'
p1268
I2
sS'doctor'
p1269
I1
sS'3.3550'
p1270
I1
sS'diplomacy'
p1271
I2
sS'skip'
p1272
I2
sS'resources'
p1273
I1
sS'155.8'
p1274
I1
sS'focus'
p1275
I4
sS'expenses.amiram'
p1276
I1
sS'leads'
p1277
I1
sS'crocodile'
p1278
I1
sS'mild'
p1279
I2
sS'mile'
p1280
I2
sS'israel.but'
p1281
I1
sS'103.66volume'
p1282
I1
sS'gdp.but'
p1283
I1
sS'battle'
p1284
I4
sS'convoy'
p1285
I1
sS'bomber'
p1286
I30
sS'privatisations'
p1287
I1
sS'arele'
p1288
I1
sS'competition'
p1289
I1
sS'row'
p1290
I1
sS'certainly'
p1291
I13
sS'suicide'
p1292
I109
sS'zone'
p1293
I6
sS'groups.all'
p1294
I1
sS'buy.israel'
p1295
I1
sS'95'
p1296
I3
sS'week.under'
p1297
I1
sS'father'
p1298
I1
sS'governmenthaaretz'
p1299
I1
sS'suspending'
p1300
I5
sS'environment'
p1301
I10
sS'iraqi'
p1302
I1
sS'finally'
p1303
I4
sS'promoting'
p1304
I1
sS'rushes'
p1305
I1
sS'weakening'
p1306
I1
sS'text'
p1307
I1
sS'terror'
p1308
I35
sS'6-1'
p1309
I1
sS'812'
p1310
I1
sS'circumstances'
p1311
I2
sS'bump'
p1312
I1
sS'swap'
p1313
I1
sS'adviser'
p1314
I10
sS'unrest.all'
p1315
I2
sS'pre-1967'
p1316
I1
sS'string'
p1317
I2
sS'advantage'
p1318
I5
sS'incident.clashes'
p1319
I1
sS'bacon.he'
p1320
I2
sS'ibrahim'
p1321
I1
sS'expenses'
p1322
I2
sS'choice'
p1323
I1
sS'peacefully'
p1324
I2
sS'687'
p1325
I1
sS'mourned'
p1326
I2
sS'kidra'
p1327
I1
sS'celebrations'
p1328
I1
sS'word'
p1329
I2
sS'blast'
p1330
I17
sS'92.5'
p1331
I1
sS'wore'
p1332
I6
sS'stiffen'
p1333
I1
sS'judaism'
p1334
I4
sS'divorced'
p1335
I1
sS'18-month'
p1336
I6
sS'level'
p1337
I10
sS'did'
p1338
I44
sS'bank.netanyahu'
p1339
I2
sS'rights'
p1340
I2
sS'proposals'
p1341
I2
sS'gun'
p1342
I3
sS'muscat'
p1343
I1
sS'leave'
p1344
I13
sS'1999'
p1345
I2
sS'domestically'
p1346
I3
sS'settle'
p1347
I10
sS'team'
p1348
I6
sS'quick'
p1349
I7
sS'guy'
p1350
I1
sS'round'
p1351
I4
sS'unaware'
p1352
I2
sS'civilians.israeli'
p1353
I2
sS'prevent'
p1354
I10
sS'mid-1998'
p1355
I1
sS'yitzhak'
p1356
I14
sS'says'
p1357
I11
sS'regret'
p1358
I2
sS'trend'
p1359
I4
sS'dealing'
p1360
I4
sS'blast.they'
p1361
I2
sS'50th'
p1362
I1
sS'sign'
p1363
I7
sS'captures'
p1364
I1
sS'detonates'
p1365
I1
sS'310.4'
p1366
I2
sS'year.improvement'
p1367
I1
sS'passengers.ahmed'
p1368
I1
sS'forging'
p1369
I4
sS'blast.the'
p1370
I3
sS'targets'
p1371
I6
sS'cargo'
p1372
I1
sS'0.45'
p1373
I1
sS'adds'
p1374
I2
sS'stands'
p1375
I6
sS'moments'
p1376
I2
sS'qallil'
p1377
I2
sS'abdullah'
p1378
I1
sS'debated'
p1379
I1
sS'shares'
p1380
I21
sS'uniform'
p1381
I9
sS'current'
p1382
I18
sS'quickly.government'
p1383
I2
sS'annals'
p1384
I2
sS'suspect'
p1385
I2
sS'international'
p1386
I18
sS'falling'
p1387
I4
sS'appeal'
p1388
I9
sS'boost'
p1389
I1
sS'filled'
p1390
I2
sS'drafted'
p1391
I1
sS'burn'
p1392
I1
sS'explosion'
p1393
I12
sS'slower'
p1394
I2
sS'months'
p1395
I19
sS'acted'
p1396
I1
sS'unrest.three'
p1397
I3
sS'funeral'
p1398
I6
sS'area.the'
p1399
I1
sS'french'
p1400
I4
sS'understanding'
p1401
I11
sS'water'
p1402
I2
sS'knocked'
p1403
I4
sS'youths.near'
p1404
I1
sS'groups'
p1405
I13
sS'kilometers'
p1406
I1
sS'albright.palestinians'
p1407
I2
sS'dwindling'
p1408
I1
sS'taylor'
p1409
I2
sS'6-3'
p1410
I3
sS'change'
p1411
I5
sS'wait'
p1412
I1
sS'passengers'
p1413
I6
sS'522,387'
p1414
I1
sS'male'
p1415
I1
sS'mubarak'
p1416
I4
sS'state.palestinians'
p1417
I1
sS'battling'
p1418
I4
sS'shift'
p1419
I1
sS'0.16'
p1420
I1
sS'studied'
p1421
I1
sS'jerusalem.israeli'
p1422
I2
sS'said.palestinian'
p1423
I3
sS'gluconate'
p1424
I1
sS'litter'
p1425
I1
sS'trial'
p1426
I7
sS'accomplished'
p1427
I2
sS'hone'
p1428
I1
sS'usually'
p1429
I2
sS'plc'
p1430
I3
sS'weird'
p1431
I1
sS'devices'
p1432
I1
sS'studies'
p1433
I1
sS'slackened'
p1434
I1
sS'beautiful'
p1435
I1
sS'shootings'
p1436
I3
sS'useful'
p1437
I1
sS'raise'
p1438
I6
sS'shelled'
p1439
I1
sS'extra'
p1440
I4
sS'lending'
p1441
I1
sS'prefer'
p1442
I5
sS'103.70volume'
p1443
I1
sS'referee'
p1444
I1
sS'losing'
p1445
I1
sS'found.in'
p1446
I1
sS'schoolgirls'
p1447
I1
sS'licensing'
p1448
I1
sS'friday.results'
p1449
I1
sS'ailing'
p1450
I2
sS'scam'
p1451
I1
sS'nablus'
p1452
I15
sS'parking'
p1453
I1
sS'crisis'
p1454
I36
sS'market'
p1455
I43
sS'hotels'
p1456
I1
sS'everybody'
p1457
I3
sS'opposes'
p1458
I3
sS'troops'
p1459
I47
sS'working'
p1460
I4
sS'prove'
p1461
I2
sS'ariel'
p1462
I1
sS'positive'
p1463
I8
sS'bazak'
p1464
I16
sS'6-0'
p1465
I1
sS'visit'
p1466
I39
sS'tears'
p1467
I1
sS'intense'
p1468
I1
sS'reported.backing'
p1469
I1
sS'territories'
p1470
I2
sS'live'
p1471
I6
sS'explicitly'
p1472
I2
sS'proposes'
p1473
I3
sS'opposed'
p1474
I6
sS'thursday.prime'
p1475
I1
sS'tuesday.on'
p1476
I1
sS'44.2'
p1477
I1
sS'anniversary'
p1478
I1
sS'briefs'
p1479
I1
sS'resuscitation'
p1480
I1
sS'95sales'
p1481
I1
sS'today'
p1482
I21
sS'assassination.jihad'
p1483
I1
sS'commissioner'
p1484
I1
sS'riot'
p1485
I2
sS'faith'
p1486
I2
sS'afford'
p1487
I1
sS'acceptable'
p1488
I1
sS'apparent'
p1489
I12
sS'nane'
p1490
I1
sS'malay'
p1491
I1
sS'refrain'
p1492
I1
sS'soldiers.nine'
p1493
I1
sS'fuel'
p1494
I1
sS'invitation'
p1495
I1
sS'beers'
p1496
I2
sS'investigation'
p1497
I2
sS'olive'
p1498
I4
sS'weidelfeld'
p1499
I3
sS'cases'
p1500
I3
sS'effort'
p1501
I10
sS'behalf'
p1502
I6
sS'said.teva'
p1503
I1
sS'614,301'
p1504
I1
sS'pushed'
p1505
I4
sS'2.7425'
p1506
I2
sS'car'
p1507
I26
sS'originally'
p1508
I2
sS'tightening'
p1509
I1
sS'brakes'
p1510
I1
sS'printing'
p1511
I2
sS'incidents'
p1512
I8
sS'hope'
p1513
I7
sS'majid'
p1514
I1
sS'albright'
p1515
I36
sS'following'
p1516
I17
sS'making'
p1517
I5
sS'arrive'
p1518
I3
sS'newspapers'
p1519
I4
sS'exchanged'
p1520
I3
sS'citizens'
p1521
I4
sS'road.but'
p1522
I1
sS'figure'
p1523
I4
sS'3,304,914'
p1524
I1
sS'recalled'
p1525
I1
sS'expanding'
p1526
I2
sS'chip'
p1527
I3
sS'9,534'
p1528
I1
sS'heard'
p1529
I4
sS'critic'
p1530
I2
sS'dropped'
p1531
I10
sS'council'
p1532
I14
sS'allowed'
p1533
I1
sS'capsules'
p1534
I1
sS'dennis'
p1535
I5
sS'stole'
p1536
I1
sS'occur'
p1537
I1
sS'233'
p1538
I1
sS'parliamentary'
p1539
I2
sS'process.but'
p1540
I3
sS'winter'
p1541
I2
sS'policy.u.s'
p1542
I1
sS'oslo'
p1543
I5
sS'discussion'
p1544
I2
sS'bonds'
p1545
I38
sS'sudden'
p1546
I1
sS'pine'
p1547
I2
sS'registering'
p1548
I1
sS'1'
p1549
I16
sS'thursday.it'
p1550
I2
sS'sunday'
p1551
I15
sS'vital'
p1552
I1
sS'israel.the'
p1553
I1
sS'fourth'
p1554
I8
sS'bank.israeli'
p1555
I1
sS'nyc'
p1556
I1
sS'eisenberg'
p1557
I1
sS'firmly'
p1558
I1
sS'year.israel'
p1559
I3
sS'100-year'
p1560
I4
sS'economy'
p1561
I19
sS'incidents.near'
p1562
I2
sS'product'
p1563
I3
sS'stood'
p1564
I3
sS'cocktail'
p1565
I2
sS'said.asked'
p1566
I3
sS'liberalisation'
p1567
I4
sS'dive'
p1568
I1
sS'southern'
p1569
I7
sS'motorists'
p1570
I2
sS'weapon.the'
p1571
I2
sS'islamic'
p1572
I89
sS'rdainah'
p1573
I1
sS'produce'
p1574
I7
sS'designed'
p1575
I9
sS'africanzone'
p1576
I1
sS'said.maher'
p1577
I1
sS'shekels.it'
p1578
I1
sS'ideologically'
p1579
I1
sS'dove'
p1580
I4
sS'hebron.youths'
p1581
I2
sS'man'
p1582
I27
sS'relinquish'
p1583
I2
sS'visitors'
p1584
I1
sS'natural'
p1585
I4
sS'outline'
p1586
I1
sS'commodity'
p1587
I1
sS'motorist'
p1588
I1
sS'purportedly'
p1589
I1
sS'thursday.tamar'
p1590
I1
sS'borrowing'
p1591
I3
sS'accord.netanyahu'
p1592
I1
sS'wednesday.within'
p1593
I1
sS'accelerated'
p1594
I1
sS'105,660'
p1595
I1
sS'jail'
p1596
I7
sS'silence'
p1597
I1
sS'unleash'
p1598
I1
sS'basket'
p1599
I11
sS'hilltop'
p1600
I5
sS'strip.the'
p1601
I2
sS'thursday.israel'
p1602
I1
sS'pulled'
p1603
I1
sS'talk'
p1604
I11
sS'proposal'
p1605
I3
sS'miracles'
p1606
I1
sS'hoped'
p1607
I7
sS'acts'
p1608
I13
sS'neighbourhoods'
p1609
I1
sS'seeing'
p1610
I1
sS'pointed'
p1611
I1
sS'activitymaariv'
p1612
I1
sS'mainly'
p1613
I3
sS'consulting'
p1614
I2
sS'years'
p1615
I38
sS'stability'
p1616
I1
sS'ended'
p1617
I3
sS'shaka'
p1618
I1
sS'back.the'
p1619
I1
sS'cuts'
p1620
I9
sS'argued'
p1621
I6
sS'origingankis.k'
p1622
I1
sS'cole'
p1623
I1
sS'shudders'
p1624
I1
sS'glaxo'
p1625
I2
sS'bullets.in'
p1626
I1
sS'group'
p1627
I70
sS'illan'
p1628
I3
sS'internationally'
p1629
I1
sS'talks.palestinians'
p1630
I1
sS'organisation'
p1631
I15
sS'mosque.chief'
p1632
I1
sS"he'd"
p1633
I2
sS'civil'
p1634
I3
sS'gazan'
p1635
I4
sS'offers'
p1636
I2
sS'11,953'
p1637
I1
sS'constitutes'
p1638
I1
sS'listing'
p1639
I1
sS'policy'
p1640
I23
sS'suspension'
p1641
I1
sS'main'
p1642
I15
sS'decades'
p1643
I2
sS'ugly'
p1644
I1
sS'petition'
p1645
I3
sS'happened'
p1646
I4
sS'closure'
p1647
I4
sS'non'
p1648
I4
sS'unspecified'
p1649
I1
sS'halt'
p1650
I22
sS'tucked'
p1651
I1
sS'civilian'
p1652
I1
sS'enclave'
p1653
I2
sS'100,000'
p1654
I2
sS'ros'
p1655
I1
sS'undisclosed'
p1656
I1
sS'alight.israel'
p1657
I1
sS'nation'
p1658
I1
sS'shekels.officials'
p1659
I1
sS'lunch'
p1660
I3
sS'1950'
p1661
I1
sS'26.8'
p1662
I1
sS'half'
p1663
I14
sS'arriving'
p1664
I2
sS'jail.abu'
p1665
I1
sS'provision'
p1666
I1
sS'killed'
p1667
I95
sS'maintaining'
p1668
I1
sS'14.5'
p1669
I1
sS'wagon'
p1670
I1
sS'term'
p1671
I9
sS'shouted'
p1672
I3
sS'nations.he'
p1673
I1
sS'peace.hermann'
p1674
I1
sS'january'
p1675
I21
sS'times'
p1676
I7
sS'drop'
p1677
I7
sS'appropriate'
p1678
I3
sS'rates.on'
p1679
I2
sS'establishing'
p1680
I1
sS'possibilities'
p1681
I1
sS'breach'
p1682
I1
sS'based.his'
p1683
I1
sS'rock'
p1684
I2
sS'quarter'
p1685
I25
sS'yanai'
p1686
I3
sS'el'
p1687
I9
sS'stalling'
p1688
I4
sS'married'
p1689
I1
sS'fired'
p1690
I10
sS'challenged'
p1691
I1
sS'8,827volgodon'
p1692
I1
sS'cairo'
p1693
I6
sS'peace.the'
p1694
I1
sS'said.clinton'
p1695
I4
sS'rates.the'
p1696
I3
sS'opposition.islamic'
p1697
I1
sS'sponsor'
p1698
I7
sS'begun'
p1699
I2
sS'year'
p1700
I56
sS'eu'
p1701
I1
sS'et'
p1702
I1
sS'happen'
p1703
I1
sS'worried'
p1704
I2
sS'monitors'
p1705
I1
sS'neighbourhood'
p1706
I2
sS'plans'
p1707
I10
sS'canada'
p1708
I1
sS'living'
p1709
I3
sS'shown'
p1710
I1
sS'jerusalem.palestinians'
p1711
I1
sS'actively'
p1712
I1
sS'opened'
p1713
I16
sS'state.an'
p1714
I1
sS'profit'
p1715
I22
sS'tensions'
p1716
I8
sS'balah.both'
p1717
I1
sS'added.teva'
p1718
I1
sS'requires'
p1719
I2
sS'increase'
p1720
I9
sS'seriously'
p1721
I3
sS'nominal'
p1722
I2
sS'office.the'
p1723
I1
sS'weakened'
p1724
I1
sS'answer.palestinian'
p1725
I1
sS'formula'
p1726
I2
sS'dominate'
p1727
I1
sS'bordering'
p1728
I1
sS'risala'
p1729
I1
sS'attended'
p1730
I1
sS'anwar'
p1731
I6
sS'said.david'
p1732
I1
sS'million'
p1733
I72
sS'fahm'
p1734
I1
sS'cart'
p1735
I2
sS'quite'
p1736
I3
sS'said.israel'
p1737
I3
sS'stones.he'
p1738
I1
sS'day.palestinians'
p1739
I1
sS'complicated'
p1740
I1
sS'taxi.palestinian'
p1741
I1
sS'welcomed'
p1742
I2
sS'mizrahi'
p1743
I3
sS'obligation'
p1744
I1
sS'remainder'
p1745
I1
sS'aznar'
p1746
I1
sS'care'
p1747
I2
sS'advance'
p1748
I2
sS'however.the'
p1749
I1
sS'roofless'
p1750
I1
sS'language'
p1751
I1
sS'ministry'
p1752
I11
sS'kuwait'
p1753
I1
sS'collapsing'
p1754
I1
sS'added.weidelfeld'
p1755
I1
sS'vehemently'
p1756
I1
sS'british'
p1757
I3
sS'honest'
p1758
I3
sS'turn'
p1759
I1
sS'person'
p1760
I5
sS'place'
p1761
I7
sS'massive'
p1762
I2
sS'cafes'
p1763
I4
sS'routes'
p1764
I1
sS'margin'
p1765
I3
sS'global'
p1766
I6
sS'think'
p1767
I34
sS'frequent'
p1768
I1
sS'added.saudi'
p1769
I1
sS'conversions'
p1770
I5
sS'suspend'
p1771
I5
sS'saving'
p1772
I7
sS'own.in'
p1773
I1
sS'spoken'
p1774
I3
sS'besieged'
p1775
I1
sS'million.operating'
p1776
I1
sS'shadowed'
p1777
I1
sS'downturn'
p1778
I1
sS'kudria'
p1779
I1
sS'104.93'
p1780
I1
sS'americans'
p1781
I10
sS'fast'
p1782
I4
sS'directly'
p1783
I4
sS'spanish'
p1784
I3
sS'vote'
p1785
I2
sS'message'
p1786
I3
sS'drove'
p1787
I1
sS'open'
p1788
I2
sS'george'
p1789
I1
sS'millions'
p1790
I3
sS'city'
p1791
I12
sS'given'
p1792
I11
sS'sayed'
p1793
I7
sS'ghazi'
p1794
I1
sS'silent'
p1795
I1
sS'district'
p1796
I1
sS'modernise'
p1797
I1
sS'23'
p1798
I2
sS'establishment'
p1799
I1
sS'indicate'
p1800
I1
sS'cooling'
p1801
I2
sS'2'
p1802
I4
sS'draft'
p1803
I3
sS'bleak'
p1804
I2
sS'convene'
p1805
I1
sS'white'
p1806
I30
sS'5,300'
p1807
I1
sS'bits'
p1808
I1
sS'260.37'
p1809
I1
sS'speaking'
p1810
I6
sS'5,363bodaybo'
p1811
I1
sS'companies.israel'
p1812
I1
sS'eyes'
p1813
I6
sS'allegedly'
p1814
I6
sS'clashes.israeli'
p1815
I1
sS'cup'
p1816
I1
sS'continuous'
p1817
I1
sS'region.the'
p1818
I1
sS'rabbi.government'
p1819
I1
sS'released'
p1820
I6
sS'peleg'
p1821
I1
sS'attempt'
p1822
I12
sS'operates'
p1823
I1
sS'surged'
p1824
I2
sS'population'
p1825
I1
sS'11'
p1826
I15
sS'wide'
p1827
I9
sS'13'
p1828
I7
sS'12'
p1829
I3
sS'15'
p1830
I10
sS'bonfire.the'
p1831
I1
sS'17'
p1832
I2
sS'16'
p1833
I11
sS'19'
p1834
I2
sS'scraping'
p1835
I2
sS'require'
p1836
I3
sS'diplomatic'
p1837
I6
sS'transferred'
p1838
I2
sS'optimism'
p1839
I1
sS'spokeswoman'
p1840
I4
sS'monopolies'
p1841
I3
sS'future'
p1842
I21
sS'opens'
p1843
I1
sS'venture'
p1844
I1
sS'letters'
p1845
I1
sS'extinguish'
p1846
I3
sS'outcome'
p1847
I2
sS'oath'
p1848
I1
sS'russia'
p1849
I4
sS'transport'
p1850
I1
sS'pre'
p1851
I9
sS'gathering'
p1852
I2
sS'march.yedioth'
p1853
I1
sS'20,871'
p1854
I1
sS'marrying'
p1855
I1
sS'investors'
p1856
I18
sS'remained'
p1857
I5
sS'slaw'
p1858
I1
sS'pro'
p1859
I6
sS'premier'
p1860
I1
sS'turned'
p1861
I11
sS'strip.he'
p1862
I2
sS'reno'
p1863
I9
sS'danger'
p1864
I9
sS'13th'
p1865
I15
sS'245.03'
p1866
I2
sS'say'
p1867
I38
sS'rained'
p1868
I6
sS'buried'
p1869
I3
sS'control.asked'
p1870
I1
sS'voiced'
p1871
I2
sS'sells'
p1872
I3
sS'saw'
p1873
I6
sS'authority.the'
p1874
I2
sS'marathon'
p1875
I3
sS'sat'
p1876
I3
sS'0400'
p1877
I7
sS'conversion'
p1878
I5
sS'added.mordechai'
p1879
I1
sS'offering'
p1880
I13
sS'sivan'
p1881
I1
sS'cigarettes'
p1882
I1
sS'spending.in'
p1883
I2
sS'aside'
p1884
I6
sS'malta'
p1885
I2
sS'note'
p1886
I1
sS'overisrael'
p1887
I1
sS'danni'
p1888
I1
sS'politcal'
p1889
I1
sS'forming'
p1890
I4
sS'objective'
p1891
I5
sS'destroy'
p1892
I2
sS'ago.last'
p1893
I1
sS'collapsed'
p1894
I2
sS'channel'
p1895
I1
sS'1,700'
p1896
I1
sS'200'
p1897
I10
sS'203'
p1898
I1
sS'shabrawi'
p1899
I3
sS'aviv.meridor'
p1900
I1
sS'investigations'
p1901
I2
sS'track'
p1902
I18
sS'price'
p1903
I5
sS'knew'
p1904
I4
sS'suspects'
p1905
I3
sS'paid'
p1906
I4
sS'falls'
p1907
I1
sS'blast.an'
p1908
I1
sS'aviv.lashing'
p1909
I2
sS'years.annan'
p1910
I1
sS'stormed'
p1911
I1
sS'pair'
p1912
I4
sS'knee'
p1913
I1
sS'kemal'
p1914
I2
sS'precludes'
p1915
I3
sS'wednesday.islamic'
p1916
I1
sS'said.they'
p1917
I9
sS'forever'
p1918
I2
sS'especially'
p1919
I5
sS'surprising'
p1920
I1
sS'room'
p1921
I4
sS'considered'
p1922
I2
sS'average'
p1923
I2
sS'later'
p1924
I27
sS'steady'
p1925
I1
sS'sale'
p1926
I11
sS'order'
p1927
I15
sS'ways'
p1928
I7
sS'accord.palestinians'
p1929
I1
sS'backdrop'
p1930
I5
sS'hurled'
p1931
I13
sS'tuesday.israel'
p1932
I2
sS'senior'
p1933
I15
sS'liquidity'
p1934
I3
sS'quantity'
p1935
I1
sS'week.katz'
p1936
I1
sS'bad.finance'
p1937
I1
sS'shot'
p1938
I41
sS'surplus'
p1939
I8
sS'detainees'
p1940
I2
sS'report.israeli'
p1941
I1
sS'definite'
p1942
I2
sS'amortisation'
p1943
I2
sS'able'
p1944
I5
sS'pursuant'
p1945
I1
sS'jew'
p1946
I1
sS'commitments'
p1947
I3
sS'discovered'
p1948
I1
sS'bright'
p1949
I1
sS'jordanian'
p1950
I7
sS'behr'
p1951
I1
sS'allahu'
p1952
I2
sS'tentatively'
p1953
I1
sS'damascus'
p1954
I4
sS'authority.clashes'
p1955
I1
sS'0.43'
p1956
I1
sS'ground'
p1957
I40
sS'slow'
p1958
I1
sS'constuction'
p1959
I1
sS'gulf'
p1960
I3
sS'challenge'
p1961
I1
sS'grim'
p1962
I1
sS'assailants'
p1963
I1
sS'3'
p1964
I2
sS'considerable'
p1965
I2
sS'liberation'
p1966
I9
sS'rdeineh'
p1967
I3
sS'going'
p1968
I34
sS'black'
p1969
I7
sS'deployed'
p1970
I1
sS'treasury'
p1971
I22
sS'outrage'
p1972
I2
sS'wooden'
p1973
I1
sS'jordan.the'
p1974
I3
sS'28.it'
p1975
I1
sS'dispute'
p1976
I5
sS'guarded'
p1977
I3
sS'soldiers.it'
p1978
I1
sS'cso'
p1979
I9
sS'cannon'
p1980
I2
sS'stomp'
p1981
I1
sS'attacking'
p1982
I1
sS'freezing'
p1983
I3
sS'expectation'
p1984
I6
sS'soon'
p1985
I5
sS'rule.leiter'
p1986
I1
sS'leon'
p1987
I5
sS'hailed'
p1988
I2
sS'nearly'
p1989
I8
sS'determine'
p1990
I1
sS'seals'
p1991
I1
sS'invited'
p1992
I1
sS'awaiting'
p1993
I1
sS'installed'
p1994
I1
sS'undertand'
p1995
I4
sS'secondary'
p1996
I2
sS'prime'
p1997
I109
sS'kfar'
p1998
I29
sS'organisations.a'
p1999
I1
sS'malaysian'
p2000
I1
sS'borrow'
p2001
I1
sS'elaborate.asked'
p2002
I1
sS'morning'
p2003
I8
sS'bekaa'
p2004
I6
sS'miles'
p2005
I13
sS'euro'
p2006
I1
sS'predicted'
p2007
I1
sS'bombs'
p2008
I13
sS'liable'
p2009
I5
sS'discussing'
p2010
I2
sS'16th'
p2011
I2
sS'vision'
p2012
I1
sS'comrade'
p2013
I1
sS'3.3570'
p2014
I7
sS'likelier'
p2015
I3
sS'shara'
p2016
I5
sS'reuters.abu'
p2017
I1
sS'player'
p2018
I1
sS'city.the'
p2019
I1
sS'signs'
p2020
I3
sS'say.but'
p2021
I1
sS'closures'
p2022
I1
sS'bargain'
p2023
I1
sS'relative'
p2024
I1
sS'infrastructure'
p2025
I1
sS'declares'
p2026
I1
sS'seal'
p2027
I1
sS'report.violence'
p2028
I1
sS'wednesday.on'
p2029
I1
sS'shimon'
p2030
I4
sS'violates'
p2031
I2
sS'encouraged'
p2032
I1
sS'mecca'
p2033
I1
sS'israeli'
p2034
I501
sS'steadfast'
p2035
I4
sS'served'
p2036
I1
sS'federal'
p2037
I12
sS'review'
p2038
I2
sS'other.netanyahu'
p2039
I1
sS'representatives'
p2040
I2
sS'forecast'
p2041
I5
sS'weapons'
p2042
I1
sS'activists.netanyahu'
p2043
I1
sS'outside'
p2044
I7
sS'weapon.spokesman'
p2045
I1
sS'bureau'
p2046
I6
sS'moslems'
p2047
I4
sS'diamonds'
p2048
I10
sS'rioters'
p2049
I2
sS'import'
p2050
I1
sS'reading'
p2051
I2
sS'expatriate'
p2052
I2
sS'checks'
p2053
I1
sS'ought'
p2054
I3
sS'deletions'
p2055
I1
sS'fathi'
p2056
I2
sS'settlers.the'
p2057
I1
sS'zaro'
p2058
I9
sS'9,899'
p2059
I1
sS'33'
p2060
I1
sS'approvals'
p2061
I1
sS'domb'
p2062
I1
sS'points'
p2063
I5
sS'26'
p2064
I2
sS'killing'
p2065
I20
sS'blame'
p2066
I2
sS'18,803'
p2067
I1
sS'concentrate'
p2068
I1
sS'decison'
p2069
I1
sS'jets'
p2070
I1
sS'koor'
p2071
I6
sS'spark'
p2072
I11
sS'cities'
p2073
I4
sS'come'
p2074
I14
sS'valley.there'
p2075
I2
sS'undermine'
p2076
I4
sS'concentrated'
p2077
I5
sS'oust'
p2078
I3
sS'passenger'
p2079
I3
sS'congregations'
p2080
I1
sS'missions'
p2081
I2
sS'469'
p2082
I1
sS'residence'
p2083
I1
sS'region'
p2084
I6
sS'trades'
p2085
I7
sS'according'
p2086
I10
sS'blasts'
p2087
I42
sS'policed'
p2088
I3
sS'clever'
p2089
I1
sS's'
p2090
I27
sS'columnist'
p2091
I1
sS'qassam'
p2092
I7
sS'holders'
p2093
I2
sS'traded'
p2094
I4
sS'comes'
p2095
I5
sS'nearby'
p2096
I10
sS'duty'
p2097
I1
sS'billion.hapoalim'
p2098
I1
sS'forecasting'
p2099
I1
sS'ross.ross'
p2100
I1
sS'escorted'
p2101
I1
sS'continuation'
p2102
I3
sS'28.federal'
p2103
I1
sS'period'
p2104
I9
sS'insist'
p2105
I14
sS'expectations'
p2106
I2
sS'60'
p2107
I1
sS'twin'
p2108
I5
sS'anti'
p2109
I12
sS'rafah'
p2110
I4
sS'approval'
p2111
I2
sS'cancel'
p2112
I2
sS'pelted'
p2113
I1
sS'poll'
p2114
I9
sS'said.five'
p2115
I1
sS'custody'
p2116
I7
sS'adults'
p2117
I1
sS'considering'
p2118
I9
sS'late'
p2119
I8
sS'75-year'
p2120
I1
sS'west'
p2121
I115
sS'rebuild'
p2122
I1
sS'informed'
p2123
I1
sS'vacation'
p2124
I1
sS'mark'
p2125
I6
sS'yishai'
p2126
I1
sS'arafat.in'
p2127
I1
sS'said.israeli'
p2128
I4
sS'declining'
p2129
I2
sS'509'
p2130
I2
sS'them.both'
p2131
I1
sS'helicopter'
p2132
I2
sS'1030'
p2133
I1
sS'hardly'
p2134
I1
sS'jerusalem.without'
p2135
I1
sS'500'
p2136
I5
sS'track.israel'
p2137
I1
sS'wants'
p2138
I12
sS'reported.netanyahu'
p2139
I3
sS'enable'
p2140
I1
sS'graveyard'
p2141
I1
sS'reaction'
p2142
I8
sS'lull.clashes'
p2143
I1
sS'makams'
p2144
I12
sS'offered'
p2145
I10
sS'formed'
p2146
I1
sS'wounds'
p2147
I3
sS'hyperinflation'
p2148
I1
sS'planing'
p2149
I1
sS'dramatic'
p2150
I1
sS'wake'
p2151
I1
sS'minister'
p2152
I146
sS'asks'
p2153
I1
sS'declaration'
p2154
I1
sS'suspected'
p2155
I16
sS'hands.abdul'
p2156
I1
sS'ruby'
p2157
I1
sS'argentina'
p2158
I1
sS'colluding'
p2159
I1
sS'paying'
p2160
I3
sS'0.60'
p2161
I1
sS'leiter'
p2162
I8
sS'4-6'
p2163
I1
sS'developing'
p2164
I3
sS'wealthiest'
p2165
I1
sS'polls'
p2166
I2
sS'cash'
p2167
I1
sS'premature'
p2168
I5
sS'qasam'
p2169
I1
sS'scud'
p2170
I2
sS'bid.mousa'
p2171
I1
sS'ongoing'
p2172
I2
sS'ally'
p2173
I1
sS'policies'
p2174
I4
sS'kofi'
p2175
I2
sS'cancelled'
p2176
I1
sS'situation'
p2177
I8
sS'pitch'
p2178
I2
sS'sorghum'
p2179
I2
sS'trader'
p2180
I6
sS'slippers'
p2181
I2
sS'grounds.in'
p2182
I1
sS'polymer'
p2183
I2
sS'technical'
p2184
I4
sS'january.in'
p2185
I2
sS'jordan.security'
p2186
I1
sS'eyal'
p2187
I3
sS'engaged'
p2188
I4
sS'telephone'
p2189
I9
sS'deal.yet'
p2190
I1
sS'quiet'
p2191
I2
sS'armoured'
p2192
I1
sS'middle'
p2193
I88
sS'pressing'
p2194
I1
sS'office.it'
p2195
I1
sS'attributed'
p2196
I4
sS'dangerously'
p2197
I1
sS'13.9'
p2198
I1
sS'return'
p2199
I11
sS'14-20'
p2200
I1
sS'shooting.israeli'
p2201
I1
sS'28/4'
p2202
I1
sS'expenditures'
p2203
I1
sS'missiles'
p2204
I3
sS'verified'
p2205
I4
sS'harsh'
p2206
I1
sS'author'
p2207
I1
sS'pay'
p2208
I3
sS'occupancy.globes'
p2209
I1
sS'respondents'
p2210
I1
sS'trip'
p2211
I10
sS'17.1'
p2212
I1
sS'speech'
p2213
I7
sS"b'nai"
p2214
I1
sS'consultation'
p2215
I4
sS'stepped'
p2216
I1
sS'medis'
p2217
I1
sS'events'
p2218
I1
sS'sterling'
p2219
I3
sS'investigated'
p2220
I1
sS'ahmad'
p2221
I3
sS'closest'
p2222
I1
sS'2,570'
p2223
I1
sS'boosted'
p2224
I2
sS'5.4'
p2225
I1
sS'director'
p2226
I13
sS'persons'
p2227
I2
sS'running'
p2228
I1
sS'stones.in'
p2229
I1
sS'delicate'
p2230
I1
sS'power.many'
p2231
I1
sS'totally'
p2232
I3
sS'vowed'
p2233
I12
sS'area.both'
p2234
I1
sS'drain'
p2235
I1
sS'inhalation'
p2236
I1
sS'largely'
p2237
I1
sS'charges'
p2238
I5
sS'clashes.palestinian'
p2239
I1
sS'relegation'
p2240
I1
sS'wedge'
p2241
I1
sS'severe'
p2242
I2
sS'rabin'
p2243
I2
sS"can't"
p2244
I10
sS'alleviate'
p2245
I2
sS'easing'
p2246
I2
sS'deported'
p2247
I4
sS'convened'
p2248
I2
sS'city.palestinian'
p2249
I1
sS'them.in'
p2250
I1
sS'justify'
p2251
I1
sS'taxi'
p2252
I14
sS'gates'
p2253
I2
sS'janet'
p2254
I7
sS'noam'
p2255
I1
sS'212'
p2256
I1
sS'pakistan'
p2257
I1
sS'money'
p2258
I10
sS'ghassan'
p2259
I1
sS'jenin'
p2260
I2
sS'actions'
p2261
I3
sS'enclaves'
p2262
I8
sS'violent'
p2263
I21
sS'kill'
p2264
I6
sS'disperse'
p2265
I4
sS'aspect'
p2266
I1
sS'429,986'
p2267
I1
sS'n'
p2268
I6
sS'extradition'
p2269
I37
sS'speed'
p2270
I6
sS'captured'
p2271
I15
sS'weekly'
p2272
I5
sS'alimony'
p2273
I1
sS'announcement'
p2274
I10
sS'death'
p2275
I3
sS'staging'
p2276
I5
sS'budgetary'
p2277
I2
sS'thinking'
p2278
I5
sS"we've"
p2279
I14
sS'politicians'
p2280
I2
sS'mirrored'
p2281
I4
sS'improvement'
p2282
I1
sS'said.shoman'
p2283
I1
sS'instrument'
p2284
I3
sS'setting'
p2285
I1
sS'bloc'
p2286
I3
sS'4'
p2287
I1
sS'microphone.hefetz'
p2288
I1
sS'stagnant'
p2289
I1
sS'struck'
p2290
I6
sS'entitled'
p2291
I1
sS'momentum'
p2292
I1
sS'ross'
p2293
I4
sS'scheduled'
p2294
I11
sS'aspects'
p2295
I2
sS'strip.in'
p2296
I1
sS'kills'
p2297
I1
sS'organisation.but'
p2298
I1
sS'read'
p2299
I1
sS'replaced'
p2300
I1
sS'disappearance'
p2301
I1
sS'papers'
p2302
I1
sS'virginia'
p2303
I6
sS'early'
p2304
I16
sS'forge'
p2305
I4
sS'inflation'
p2306
I18
sS'venues'
p2307
I1
sS'confined'
p2308
I2
sS'using'
p2309
I9
sS'aiming'
p2310
I1
sS'disappointed'
p2311
I3
sS'threaten'
p2312
I1
sS'ruled'
p2313
I29
sS'loss-1,981'
p2314
I1
sS'satisfaction'
p2315
I1
sS'martyrs'
p2316
I1
sS'heightened'
p2317
I1
sS'kennedy'
p2318
I4
sS'schools'
p2319
I1
sS'collective'
p2320
I2
sS'pharm'
p2321
I1
sS'maintained'
p2322
I2
sS'yearly'
p2323
I1
sS'facing'
p2324
I3
sS'benefit'
p2325
I1
sS'superiority'
p2326
I3
sS'molotov'
p2327
I2
sS'output'
p2328
I3
sS'halim'
p2329
I1
sS'reform'
p2330
I8
sS'elscint'
p2331
I1
sS'fulfil'
p2332
I2
sS'10.9'
p2333
I1
sS'jews'
p2334
I39
sS'passers'
p2335
I2
sS'picture'
p2336
I1
sS'loss-1,962'
p2337
I1
sS'madrid'
p2338
I9
sS'homa.but'
p2339
I1
sS'lebanon'
p2340
I14
sS'said.after'
p2341
I1
sS'envoys'
p2342
I1
sS'chronology'
p2343
I1
sS'monopoly'
p2344
I3
sS'lossing'
p2345
I1
sS'said.last'
p2346
I4
sS'respect'
p2347
I4
sS'monday.the'
p2348
I2
sS'israelis.the'
p2349
I1
sS'plo.the'
p2350
I1
sS'thinks'
p2351
I2
sS'militants.in'
p2352
I2
sS'cigerette'
p2353
I1
sS'gross'
p2354
I5
sS'passions'
p2355
I3
sS'swaps'
p2356
I2
sS'confirm'
p2357
I7
sS'blasted'
p2358
I1
sS'jeep.in'
p2359
I1
sS'moslem'
p2360
I15
sS'stops'
p2361
I4
sS'considers'
p2362
I2
sS'detention'
p2363
I1
sS'habits'
p2364
I4
sS'deficit'
p2365
I21
sS'provides'
p2366
I3
sS'887,456'
p2367
I1
sS'soya'
p2368
I2
sS'moderate'
p2369
I5
sS'vetoed'
p2370
I5
sS'freed'
p2371
I5
sS'cost'
p2372
I1
sS'reactivating'
p2373
I1
sS'assembly'
p2374
I10
sS'arrow'
p2375
I12
sS'business'
p2376
I10
sS'taibe'
p2377
I3
sS'retains'
p2378
I3
sS'converts'
p2379
I1
sS'supply.yedioth'
p2380
I1
sS'broker'
p2381
I6
sS'broken'
p2382
I5
sS'meets'
p2383
I6
sS'leadership'
p2384
I12
sS'cairo.and'
p2385
I1
sS'fractured'
p2386
I3
sS'standpoint'
p2387
I2
sS'ignored'
p2388
I1
sS'went'
p2389
I11
sS'executives'
p2390
I1
sS'helping'
p2391
I2
sS'stone'
p2392
I25
sS'europematushenko'
p2393
I1
sS'central'
p2394
I29
sS'8.7'
p2395
I1
sS'mossad'
p2396
I1
sS'jeep'
p2397
I16
sS'106.3'
p2398
I1
sS'industry'
p2399
I8
sS'violence'
p2400
I86
sS'discussed'
p2401
I6
sS'generated'
p2402
I1
sS'thousands'
p2403
I5
sS'practical'
p2404
I1
sS'fraying'
p2405
I1
sS'escalating'
p2406
I1
sS'stand'
p2407
I1
sS'clampdown'
p2408
I1
sS'act'
p2409
I7
sS'month.netanyahu'
p2410
I1
sS'bond'
p2411
I1
sS'immigrate'
p2412
I1
sS'gesturing'
p2413
I1
sS'road'
p2414
I25
sS'zaki'
p2415
I1
sS'clamp'
p2416
I6
sS'quietly'
p2417
I1
sS'lands'
p2418
I3
sS'protests'
p2419
I12
sS'propelling'
p2420
I1
sS'coupon'
p2421
I3
sS'instruments'
p2422
I1
sS'defence.bacon'
p2423
I1
sS'targets.in'
p2424
I1
sS'signing'
p2425
I2
sS'renovate'
p2426
I1
sS'involvement'
p2427
I13
sS'makam'
p2428
I7
sS'strip'
p2429
I47
sS'speculated'
p2430
I1
sS'watchdog'
p2431
I2
sS'jerusalem'
p2432
I153
sS'arabic.the'
p2433
I1
sS'intervention'
p2434
I7
sS'bells'
p2435
I1
sS'pharmaceutical'
p2436
I4
sS'asfour'
p2437
I5
sS'tuesday.meitav'
p2438
I1
sS'prison.security'
p2439
I1
sS'area'
p2440
I31
sS'5043'
p2441
I1
sS'alleged'
p2442
I6
sS'meals'
p2443
I1
sS'start'
p2444
I17
sS'died'
p2445
I17
sS'lot'
p2446
I9
sS'deteriorating'
p2447
I1
sS'farid'
p2448
I1
sS'valley'
p2449
I2
sS'sold.the'
p2450
I3
sS'assumes'
p2451
I1
sS'combined'
p2452
I1
sS'jones'
p2453
I1
sS'speculate'
p2454
I3
sS'recommends'
p2455
I1
sS'deepened'
p2456
I1
sS'complete'
p2457
I2
sS'pahima'
p2458
I1
sS'reduce'
p2459
I2
sS'regard'
p2460
I2
sS'delayed'
p2461
I1
sS'inflaming'
p2462
I1
sS'cabinet'
p2463
I10
sS'wednesday.the'
p2464
I2
sS'103.6'
p2465
I1
sS'sarid'
p2466
I1
sS'them.the'
p2467
I1
sS'jerusalem.qatar'
p2468
I1
sS'technologies'
p2469
I1
sS'trying'
p2470
I16
sS'downstairs'
p2471
I1
sS'grounds.marzook'
p2472
I1
sS'buying'
p2473
I4
sS'becasue'
p2474
I1
sS'netanayahu'
p2475
I1
sS"they're"
p2476
I2
sS'abduct'
p2477
I1
sS'october'
p2478
I6
sS'arranged'
p2479
I2
sS'conglomerate'
p2480
I1
sS'rescuing'
p2481
I1
sS'rage'
p2482
I5
sS"wasn't"
p2483
I1
sS'darompalestinian'
p2484
I1
sS'clashes.mansour'
p2485
I1
sS'503'
p2486
I1
sS'ago.but'
p2487
I1
sS'pessimists'
p2488
I1
sS'miguel'
p2489
I1
sS'structure'
p2490
I1
sS'sahar'
p2491
I2
sS'embed'
p2492
I1
sS'deadlock'
p2493
I1
sS'agree'
p2494
I2
sS'reporters.in'
p2495
I1
sS'strongly'
p2496
I2
sS'gone'
p2497
I3
sS'reuters.witnesses'
p2498
I1
sS'microcosm'
p2499
I1
sS'growth.private'
p2500
I1
sS'tuesday.note'
p2501
I1
sS'invigorating'
p2502
I1
sS'1990s.a'
p2503
I1
sS'frighten'
p2504
I2
sS'arabs'
p2505
I24
sS'moved'
p2506
I2
sS'al'
p2507
I51
sS'said.some'
p2508
I2
sS'general'
p2509
I36
sS'deen'
p2510
I4
sS'alarm'
p2511
I1
sS'britain'
p2512
I3
sS'educated'
p2513
I3
sS'house.yossi'
p2514
I1
sS'aids'
p2515
I1
sS'politics'
p2516
I1
sS'moves'
p2517
I23
sS'syrian'
p2518
I6
sS'972-2-537-0502'
p2519
I7
sS'incorrect'
p2520
I4
sS'4.4'
p2521
I2
sS'4.7'
p2522
I2
sS'33,872'
p2523
I1
sS'4.1'
p2524
I1
sS'4.0'
p2525
I1
sS'stones'
p2526
I12
sS'personnel'
p2527
I1
sS'drivers'
p2528
I1
sS'adom'
p2529
I1
sS'cohen.netanyahu'
p2530
I1
sS'rubber'
p2531
I20
sS'field'
p2532
I1
sS'valid'
p2533
I1
sS'5'
p2534
I1
sS'whip'
p2535
I1
sS'639'
p2536
I1
sS'gambling'
p2537
I1
sS'forcing'
p2538
I2
sS'presenting'
p2539
I1
sS'deviation'
p2540
I1
sS'requested'
p2541
I5
sS'briefly'
p2542
I1
sS'4,000'
p2543
I3
sS'ilan'
p2544
I2
sS'separate'
p2545
I22
sS'students'
p2546
I10
sS'overwhelmingly'
p2547
I1
sS'durations'
p2548
I3
sS'teeth'
p2549
I1
sS'years.in'
p2550
I2
sS'12-mth'
p2551
I8
sS'waving'
p2552
I3
sS'important'
p2553
I14
sS'bullets'
p2554
I9
sS'israel.israeli'
p2555
I1
sS'accounts'
p2556
I4
sS'planners'
p2557
I2
sS'included'
p2558
I5
sS'maariv'
p2559
I2
sS'country.his'
p2560
I2
sS'readings'
p2561
I2
sS'building'
p2562
I47
sS'cpi'
p2563
I7
sS'bilateral'
p2564
I1
sS'calls'
p2565
I10
sS'wife'
p2566
I6
sS'invest'
p2567
I1
sS'11/4'
p2568
I1
sS'259.57.central'
p2569
I1
sS'added.tsvi'
p2570
I1
sS'precedent'
p2571
I1
sS'posts'
p2572
I1
sS'week.on'
p2573
I1
sS'boosters'
p2574
I1
sS'doubted'
p2575
I1
sS'quo'
p2576
I1
sS'nearby.israeli'
p2577
I1
sS'shortfall'
p2578
I1
sS'overseas'
p2579
I6
sS'injuries.demonstrators'
p2580
I1
sS'resolution'
p2581
I7
sS'peace.albright'
p2582
I2
sS'represent'
p2583
I1
sS'precondition'
p2584
I5
sS'settlement.western'
p2585
I1
sS'forget'
p2586
I1
sS'pointing'
p2587
I2
sS'caused'
p2588
I3
sS'suburban'
p2589
I1
sS'month.israeli'
p2590
I1
sS'dollar'
p2591
I27
sS'month'
p2592
I39
sS'founded'
p2593
I1
sS'unrest'
p2594
I8
sS'said.washington'
p2595
I1
sS'ismail'
p2596
I2
sS'deadline'
p2597
I6
sS'forged'
p2598
I5
sS'cairo.usama'
p2599
I1
sS'talks'
p2600
I93
sS'2.7205'
p2601
I1
sS'settlement'
p2602
I184
sS'decisions'
p2603
I3
sS'children'
p2604
I19
sS'islamists'
p2605
I1
sS'protests.a'
p2606
I1
sS'referring'
p2607
I20
sS'pledged'
p2608
I8
sS'switched'
p2609
I1
sS'centers'
p2610
I1
sS'participants'
p2611
I1
sS'thursday'
p2612
I64
sS'removal'
p2613
I1
sS'aaron'
p2614
I2
sS'foster'
p2615
I2
sS'commander'
p2616
I7
sS'jerusalem.u.s'
p2617
I3
sS'barely'
p2618
I1
sS'ronnie'
p2619
I1
sS'conciousness'
p2620
I1
sS'defuse'
p2621
I4
sS'longtime'
p2622
I2
sS'gidi'
p2623
I1
sS'activities'
p2624
I10
sS'capitals'
p2625
I1
sS'appointment'
p2626
I2
sS'avenge'
p2627
I2
sS'lebanese'
p2628
I1
sS'far'
p2629
I15
sS'limbo'
p2630
I2
sS'9,182'
p2631
I1
sS'multi'
p2632
I1
sS'floated'
p2633
I3
sS'resistance'
p2634
I3
sS'weighting'
p2635
I1
sS'qalqilya'
p2636
I2
sS'worst'
p2637
I2
sS'decide'
p2638
I9
sS'surprise'
p2639
I2
sS'sides.three'
p2640
I2
sS'ticket'
p2641
I1
sS'difference'
p2642
I1
sS'condition'
p2643
I14
sS'trigger'
p2644
I1
sS'induced'
p2645
I1
sS'cable'
p2646
I9
sS'accompanying'
p2647
I1
sS'accuracy.jerusalem'
p2648
I3
sS'list'
p2649
I11
sS'manager'
p2650
I2
sS'grandfather'
p2651
I1
sS'large'
p2652
I4
sS'sana'
p2653
I2
sS'small'
p2654
I2
sS'study'
p2655
I1
sS'busting'
p2656
I1
sS'periodontal'
p2657
I2
sS'day.hamas'
p2658
I1
sS'programme'
p2659
I9
sS'track.jordan'
p2660
I1
sS'tel'
p2661
I73
sS'escalation'
p2662
I2
sS'fence'
p2663
I1
sS'197'
p2664
I1
sS'clinch'
p2665
I2
sS'censuring'
p2666
I1
sS'past'
p2667
I13
sS'rate'
p2668
I32
sS'lawyer'
p2669
I3
sS'milo'
p2670
I1
sS'comedown'
p2671
I1
sS'investment'
p2672
I10
sS'returned'
p2673
I1
sS'usama'
p2674
I1
sS'defence'
p2675
I22
sS'imported'
p2676
I1
sS'risen'
p2677
I2
sS'israel.shami'
p2678
I1
sS'clock'
p2679
I1
sS'deeply'
p2680
I1
sS'europesouthern'
p2681
I1
sS'brief'
p2682
I1
sS'1995.when'
p2683
I1
sS'witnesses'
p2684
I18
sS'version'
p2685
I4
sS'abu'
p2686
I106
sS'disbursed'
p2687
I1
sS'heart.hebron'
p2688
I2
sS'public'
p2689
I16
sS'movement'
p2690
I19
sS'multinational'
p2691
I1
sS'turmoil'
p2692
I1
sS'friday'
p2693
I18
sS'strip.security'
p2694
I1
sS'investment.all'
p2695
I1
sS'nehama'
p2696
I1
sS'threatened'
p2697
I1
sS'netzarim'
p2698
I24
sS'blackhawk'
p2699
I2
sS'favourably'
p2700
I4
sS'terrorism.syria'
p2701
I1
sS'ghneim.netanyahu'
p2702
I1
sS'hours'
p2703
I12
sS'newspaper'
p2704
I5
sS'threads'
p2705
I1
sS'ramon'
p2706
I1
sS'excess'
p2707
I5
sS'103.43'
p2708
I1
sS'november'
p2709
I3
sS'strong'
p2710
I2
sS'table'
p2711
I2
sS'backlash'
p2712
I1
sS'198operating'
p2713
I1
sS'prosecutors'
p2714
I6
sS'ahead'
p2715
I22
sS'houses'
p2716
I1
sS'rating'
p2717
I2
sS'5.5'
p2718
I1
sS'losses'
p2719
I1
sS'allows'
p2720
I2
sS'missions.qatar'
p2721
I1
sS'experience'
p2722
I6
sS'28.syria'
p2723
I1
sS'soldier'
p2724
I6
sS'airport'
p2725
I6
sS'explosion.in'
p2726
I2
sS'ululated'
p2727
I1
sS'published'
p2728
I5
sS'action'
p2729
I4
sS'assuming'
p2730
I1
sS'chain'
p2731
I1
sS'narrow'
p2732
I2
sS'options'
p2733
I7
sS'corrects'
p2734
I1
sS'sticking'
p2735
I1
sS'motorised'
p2736
I1
sS'followed'
p2737
I7
sS'members'
p2738
I7
sS'family'
p2739
I8
sS'buses'
p2740
I18
sS'suddenly'
p2741
I1
sS'requiring'
p2742
I1
sS'180.8'
p2743
I1
sS'242'
p2744
I1
sS'percent.during'
p2745
I1
sS'protesters.commenting'
p2746
I1
sS'backed'
p2747
I2
sS'aimed'
p2748
I24
sS'trained'
p2749
I1
sS'abdel'
p2750
I14
sS'goldsteins'
p2751
I1
sS'armed'
p2752
I4
sS'select'
p2753
I1
sS'israel.jordan'
p2754
I1
sS'plainclothes'
p2755
I2
sS'shareholders'
p2756
I1
sS'obstructing'
p2757
I1
sS'eye'
p2758
I5
sS'takes'
p2759
I4
sS'nabil'
p2760
I3
sS'objectives'
p2761
I1
sS'destination'
p2762
I1
sS'charge'
p2763
I11
sS'casualties.the'
p2764
I1
sS'likud'
p2765
I11
sS'conspiring'
p2766
I1
sS'housing.he'
p2767
I1
sS'clara'
p2768
I1
sS'6'
p2769
I5
sS'taken'
p2770
I12
sS'markets'
p2771
I9
sS'lowering'
p2772
I3
sS'israel'
p2773
I523
sS'diamond'
p2774
I7
sS'door'
p2775
I1
sS'knows'
p2776
I2
sS'company'
p2777
I28
sS'yehuda'
p2778
I1
sS'excuse'
p2779
I2
sS'flag'
p2780
I1
sS'resolution.the'
p2781
I1
sS'controlling'
p2782
I5
sS'meitav'
p2783
I2
sS'broke'
p2784
I32
sS'particular'
p2785
I2
sS'known'
p2786
I10
sS'benefits'
p2787
I2
sS'mounted'
p2788
I3
sS'point.cohen'
p2789
I1
sS'suffered'
p2790
I1
sS'glad'
p2791
I6
sS'presumed'
p2792
I3
sS'town'
p2793
I20
sS'keeping'
p2794
I4
sS'fatal'
p2795
I3
sS'hour'
p2796
I10
sS'allotments'
p2797
I1
sS'citizen'
p2798
I1
sS'phrasing'
p2799
I1
sS'industrialists'
p2800
I1
sS'coalition'
p2801
I10
sS'intercepted'
p2802
I1
sS'dramatically'
p2803
I1
sS'tapioca'
p2804
I1
sS'remain'
p2805
I23
sS'later.abu'
p2806
I1
sS'climbed'
p2807
I1
sS'halts'
p2808
I5
sS'v'
p2809
I1
sS'abandon'
p2810
I1
sS'sahara'
p2811
I1
sS'dec'
p2812
I1
sS'jerusalem.the'
p2813
I3
sS'professions'
p2814
I1
sS'said.dollar'
p2815
I1
sS'history'
p2816
I1
sS'seucrities'
p2817
I1
sS'fundamentalist'
p2818
I9
sS'compare'
p2819
I1
sS'nautilus'
p2820
I3
sS'prompt'
p2821
I2
sS'division'
p2822
I5
sS'lives'
p2823
I5
sS'share'
p2824
I11
sS'accept'
p2825
I7
sS'boycott'
p2826
I12
sS'states'
p2827
I98
sS'arabia'
p2828
I1
sS'securities.another'
p2829
I1
sS'numbers'
p2830
I1
sS'firm'
p2831
I5
sS'sense'
p2832
I2
sS'old.an'
p2833
I1
sS'sharp'
p2834
I5
sS'lacks'
p2835
I1
sS'periochip'
p2836
I2
sS'condemn'
p2837
I1
sS'narrowly'
p2838
I1
sS'huge'
p2839
I3
sS'available'
p2840
I6
sS'answer'
p2841
I4
sS'court'
p2842
I12
sS'goal'
p2843
I4
sS'liver'
p2844
I1
sS'5.8'
p2845
I1
sS'technology'
p2846
I8
sS'disagree'
p2847
I1
sS'breaking'
p2848
I5
sS'liaison'
p2849
I1
sS'europevolgobal'
p2850
I1
sS'occasionally'
p2851
I1
sS'earnings'
p2852
I1
sS'reject'
p2853
I1
sS'collapse'
p2854
I1
sS'speedy'
p2855
I1
sS'dardona'
p2856
I2
sS'movements'
p2857
I1
sS'danniella'
p2858
I2
sS'businessmen'
p2859
I5
sS'netanyahu.but'
p2860
I1
sS'plant'
p2861
I1
sS'quoting'
p2862
I1
sS'intended'
p2863
I4
sS'rude'
p2864
I1
sS'inflationary'
p2865
I1
sS'unidentified'
p2866
I2
sS'report.witnesses'
p2867
I3
sS'infrastructure.moshe'
p2868
I3
sS'reflect'
p2869
I2
sS'pas'
p2870
I4
sS'lighting'
p2871
I1
sS'blood'
p2872
I1
sS'coming'
p2873
I10
sS'sharon'
p2874
I1
sS'develop'
p2875
I1
sS'appealed'
p2876
I2
sS'response'
p2877
I4
sS'1994.the'
p2878
I1
sS'day.an'
p2879
I1
sS'changes'
p2880
I3
sS'short'
p2881
I8
sS'collision'
p2882
I1
sS'independence.hermann'
p2883
I1
sS'overnight'
p2884
I6
sS'generic'
p2885
I5
sS'responsibility'
p2886
I23
sS'media'
p2887
I12
sS'banks'
p2888
I4
sS'killed.israeli'
p2889
I1
sS'dream'
p2890
I1
sS'playing'
p2891
I3
sS'turnover'
p2892
I6
sS'replied'
p2893
I12
sS'mousa'
p2894
I10
sS'rocketed'
p2895
I1
sS'rounded'
p2896
I2
sS'help'
p2897
I19
sS'september'
p2898
I3
sS'developed'
p2899
I1
sS'moussa'
p2900
I11
sS'arrangement.wednesday'
p2901
I1
sS'mission'
p2902
I4
sS'trade'
p2903
I10
sS'defence.israel'
p2904
I1
sS'held'
p2905
I20
sS'embassy'
p2906
I2
sS'singles'
p2907
I1
sS'committee'
p2908
I9
sS'committed'
p2909
I15
sS'bulldozers'
p2910
I10
sS'dozens'
p2911
I3
sS'shareholding'
p2912
I1
sS'mansour.the'
p2913
I1
sS'1996.hapoalim'
p2914
I1
sS'winger'
p2915
I1
sS'islam'
p2916
I1
sS'backfire'
p2917
I2
sS'25'
p2918
I22
sS'style'
p2919
I7
sS'20'
p2920
I15
sS'21'
p2921
I9
sS'22'
p2922
I2
sS'clashed'
p2923
I8
sS'report.zannex'
p2924
I1
sS'ousted'
p2925
I1
sS'botched'
p2926
I22
sS'28'
p2927
I5
sS'29'
p2928
I1
sS'pct'
p2929
I9
sS'actually'
p2930
I1
sS'clashes'
p2931
I35
sS'thursday.the'
p2932
I2
sS'reuters'
p2933
I31
sS'palestinians.baker'
p2934
I1
sS'systems'
p2935
I2
sS'elbit'
p2936
I2
sS'painstaking'
p2937
I2
sS'travelling'
p2938
I1
sS'cool'
p2939
I4
sS'schoolchidren'
p2940
I1
sS'abdul'
p2941
I4
sS"haven't"
p2942
I4
sS'angered'
p2943
I1
sS'spectron'
p2944
I5
sS'899,659'
p2945
I1
sS'rotlevy'
p2946
I4
sS'good'
p2947
I5
sS'said.netanyahu'
p2948
I5
sS'22,357'
p2949
I1
sS'risks'
p2950
I1
sS'seeking'
p2951
I3
sS'food'
p2952
I8
sS'propose'
p2953
I1
sS'9,697the'
p2954
I1
sS'protesting'
p2955
I3
sS'units'
p2956
I4
sS'commanding'
p2957
I1
sS'milestone'
p2958
I1
sS'foot'
p2959
I3
sS'militants.israel'
p2960
I2
sS'complain'
p2961
I8
sS'bigger'
p2962
I3
sS'develops'
p2963
I1
sS'easily'
p2964
I1
sS'gets'
p2965
I1
sS'banished'
p2966
I1
sS'imprisoned'
p2967
I3
sS'goldstein'
p2968
I1
sS'fully'
p2969
I2
sS'intervene'
p2970
I8
sS'bullets.a'
p2971
I1
sS'sikorsky'
p2972
I2
sS'tear'
p2973
I5
sS'6,500'
p2974
I6
sS'pime'
p2975
I1
sS'stopped'
p2976
I7
sS'shekels'
p2977
I103
sS'12th'
p2978
I3
sS'malaya'
p2979
I1
sS'ports'
p2980
I1
sS"isn't"
p2981
I1
sS'kfc'
p2982
I1
sS'heavy'
p2983
I4
sS'week'
p2984
I45
sS'harm'
p2985
I4
sS'mansour'
p2986
I11
sS'conflicting'
p2987
I2
sS'unravelling'
p2988
I1
sS'house'
p2989
I30
sS'energy'
p2990
I5
sS'hard'
p2991
I9
sS'bank.both'
p2992
I2
sS'idea'
p2993
I5
sS'slowdown'
p2994
I6
sS'engaging'
p2995
I3
sS'attacks.the'
p2996
I1
sS'expect'
p2997
I12
sS'undertake'
p2998
I1
sS'europeabusten'
p2999
I1
sS'inflated'
p3000
I1
sS'really'
p3001
I3
sS'deals'
p3002
I9
sS'initiatives'
p3003
I5
sS'wondered'
p3004
I1
sS'ritual'
p3005
I4
sS'state.the'
p3006
I1
sS'surrounded'
p3007
I1
sS'strauss'
p3008
I2
sS'unknown'
p3009
I1
sS'research'
p3010
I2
sS'blast.no'
p3011
I1
sS'acting'
p3012
I4
sS'health'
p3013
I4
sS'hill'
p3014
I9
sS'7'
p3015
I15
sS'urgent'
p3016
I5
sS'plunged'
p3017
I14
sS'izz'
p3018
I4
sS'170'
p3019
I1
sS'issue'
p3020
I8
sS'plotting'
p3021
I2
sS'salute'
p3022
I1
sS'benjamin'
p3023
I74
sS'collapse.the'
p3024
I1
sS'passes'
p3025
I2
sS'services.only'
p3026
I1
sS'sparked'
p3027
I4
sS'0.08'
p3028
I2
sS'maria'
p3029
I1
sS'reporters.two'
p3030
I1
sS'geared'
p3031
I1
sS'inscribed'
p3032
I4
sS'reason'
p3033
I5
sS'base'
p3034
I1
sS'imaging'
p3035
I1
sS'dire'
p3036
I2
sS'ask'
p3037
I1
sS'rises'
p3038
I1
sS'beginning'
p3039
I7
sS'spread'
p3040
I2
sS'wall'
p3041
I3
sS'yasser'
p3042
I47
sS'thrown'
p3043
I17
sS'owners'
p3044
I1
sS'menachem'
p3045
I1
sS'throwers'
p3046
I11
sS'launch'
p3047
I2
sS'inspection'
p3048
I1
sS'directors.about'
p3049
I1
sS'sheikh'
p3050
I7
sS'tova'
p3051
I1
sS'american'
p3052
I21
sS'worldwide.the'
p3053
I1
sS'expecting'
p3054
I3
sS'hefetz'
p3055
I2
sS'threat'
p3056
I1
sS'scouts'
p3057
I1
sS'unmanned'
p3058
I2
sS'syria'
p3059
I6
sS'added.shara'
p3060
I1
sS'undergo'
p3061
I3
sS'fallen'
p3062
I2
sS'anger.but'
p3063
I1
sS'feed'
p3064
I4
sS'payout'
p3065
I1
sS'major'
p3066
I10
sS'student'
p3067
I5
sS'pentagon'
p3068
I10
sS'feel'
p3069
I2
sS'mistakenly'
p3070
I3
sS'hamas.security'
p3071
I2
sS'number'
p3072
I13
sS'hebron'
p3073
I22
sS'liquefied'
p3074
I1
sS'smaller'
p3075
I5
sS'fees'
p3076
I1
sS'hafez'
p3077
I1
sS'heights'
p3078
I1
sS'miss'
p3079
I4
sS'causing'
p3080
I6
sS'afula'
p3081
I2
sS'checkpoint'
p3082
I13
sS'horse'
p3083
I1
sS'heads'
p3084
I4
sS'859-1610'
p3085
I1
sS'harmlessly'
p3086
I1
sS'libbaya'
p3087
I2
sS'1991.he'
p3088
I1
sS'leading'
p3089
I9
sS'financed'
p3090
I2
sS'figures.in'
p3091
I1
sS'revive'
p3092
I8
sS'harris'
p3093
I1
sS'militant'
p3094
I15
sS'station'
p3095
I1
sS'up.in'
p3096
I1
sS'expand'
p3097
I2
sS'passed'
p3098
I5
sS'sawed'
p3099
I1
sS'compromise'
p3100
I3
sS'188'
p3101
I6
sS'weave'
p3102
I1
sS'activities.abu'
p3103
I2
sS'recovered'
p3104
I1
sS'lease'
p3105
I1
sS'selling'
p3106
I6
sS'erupted'
p3107
I10
sS'6,500-unit'
p3108
I2
sS'exploded'
p3109
I5
sS'rueter'
p3110
I1
sS'immediate'
p3111
I6
sS'appreciation'
p3112
I2
sS'passersby'
p3113
I8
sS'jordan'
p3114
I74
sS'consult'
p3115
I1
sS'teeters'
p3116
I1
sS'believe'
p3117
I2
sS'convinced'
p3118
I2
sS'percentage'
p3119
I1
sS'explodes'
p3120
I1
sS'king'
p3121
I62
sS'kind'
p3122
I9
sS'2.0078'
p3123
I2
sS'savagery'
p3124
I2
sS'iranian'
p3125
I3
sS'condolences'
p3126
I3
sS'majaydeh'
p3127
I1
sS'states.israeli'
p3128
I2
sS'continue.netanyahu'
p3129
I1
sS'slowed'
p3130
I2
sS'aims'
p3131
I2
sS'youth'
p3132
I7
sS'60,000'
p3133
I2
sS'teva'
p3134
I4
sS'determined'
p3135
I6
sS'fines'
p3136
I2
sS'deaths.earlier'
p3137
I2
sS'city.hamas'
p3138
I2
sS'shlomo'
p3139
I3
sS'taxis'
p3140
I1
sS'treated'
p3141
I5
sS'normal'
p3142
I4
sS'years.operating'
p3143
I1
sS'uniforms'
p3144
I2
sS'2.0091'
p3145
I1
sS'basically'
p3146
I1
sS'outstanding'
p3147
I3
sS'strengthen'
p3148
I2
sS'imports'
p3149
I5
sS'alongside'
p3150
I1
sS'organisations'
p3151
I5
sS'needs'
p3152
I3
sS'contrary'
p3153
I1
sS'murder'
p3154
I3
sS'outpost.hizbollah'
p3155
I1
sS'wafa'
p3156
I9
sS'orders'
p3157
I1
sS'hapoalim'
p3158
I7
sS'lid'
p3159
I7
sS'perpetrate'
p3160
I2
sS'acyclovir'
p3161
I1
sS'wednesday.asked'
p3162
I1
sS'built'
p3163
I5
sS'flared'
p3164
I12
sS'depending'
p3165
I1
sS'counterterrorism'
p3166
I1
sS'self'
p3167
I25
sS'officers'
p3168
I6
sS'positions.they'
p3169
I1
sS'sale.sales'
p3170
I1
sS'slim.the'
p3171
I2
sS'majority'
p3172
I3
sS'internal'
p3173
I8
sS'chairman'
p3174
I12
sS'jews.israel'
p3175
I1
sS'steal.odeser'
p3176
I1
sS'beit'
p3177
I1
sS'commentary'
p3178
I1
sS'hurling'
p3179
I2
sS'madhoun'
p3180
I5
sS'products.bezeq'
p3181
I2
sS'club'
p3182
I2
sS'play'
p3183
I3
sS'added'
p3184
I21
sS'components'
p3185
I2
sS'index'
p3186
I13
sS'passenger.a'
p3187
I1
sS'may.syria'
p3188
I1
sS'measures'
p3189
I9
sS'reach'
p3190
I2
sS'1990s.but'
p3191
I1
sS'react'
p3192
I3
sS'76'
p3193
I5
sS'75'
p3194
I2
sS'sponsored'
p3195
I7
sS'negotiating'
p3196
I4
sS'significant'
p3197
I3
sS'70'
p3198
I1
sS'services'
p3199
I6
sS'borders'
p3200
I3
sS'approved'
p3201
I14
sS'sides.arabs'
p3202
I2
sS'baath'
p3203
I1
sS'kg'
p3204
I6
sS'dealers'
p3205
I9
sS'anz'
p3206
I1
sS'goodwill'
p3207
I1
sS'mobile'
p3208
I1
sS'clear'
p3209
I27
sS'humanitarian'
p3210
I3
sS'cover'
p3211
I4
sS'km'
p3212
I12
sS'party.palestinian'
p3213
I1
sS'traditional'
p3214
I1
sS'giving'
p3215
I2
sS'muhtaseb'
p3216
I1
sS'359'
p3217
I1
sS'allegation.the'
p3218
I1
sS'ron'
p3219
I1
sS'coincided'
p3220
I2
sS'liberate'
p3221
I1
sS'institutions'
p3222
I2
sS'lying'
p3223
I1
sS'sector'
p3224
I10
sS'gdp'
p3225
I4
sS'paul'
p3226
I1
sS'particularly'
p3227
I7
sS'phenomenon'
p3228
I1
sS'669'
p3229
I1
sS'tuesday.the'
p3230
I4
sS'667'
p3231
I2
sS'agreements.it'
p3232
I1
sS'engines'
p3233
I4
sS'doctors'
p3234
I1
sS'scattered'
p3235
I2
sS'said.perio'
p3236
I1
sS'23-year'
p3237
I1
sS'medeleine'
p3238
I1
sS'hillside'
p3239
I1
sS'session'
p3240
I7
sS'alert'
p3241
I1
sS'ghneim.the'
p3242
I1
sS'fining'
p3243
I1
sS'multilateral'
p3244
I1
sS'reuters.on'
p3245
I2
sS'fine'
p3246
I2
sS'all.shauli'
p3247
I1
sS'occupation'
p3248
I6
sS'impact'
p3249
I2
sS'103.73volume'
p3250
I1
sS'indicator'
p3251
I3
sS'regulations'
p3252
I1
sS'rocket'
p3253
I3
sS'northern'
p3254
I7
sS'justice'
p3255
I2
sS'zevulun'
p3256
I1
sS'ruin'
p3257
I1
sS'europednper'
p3258
I1
sS'percent.income'
p3259
I1
sS'worthy'
p3260
I1
sS'flareups.and'
p3261
I2
sS'penalty'
p3262
I1
sS'failed'
p3263
I9
sS'conducted'
p3264
I4
sS'arabic.palestinians'
p3265
I1
sS'securities.prime'
p3266
I1
sS'equity'
p3267
I2
sS'harmed'
p3268
I1
sS'q4'
p3269
I6
sS'discuss'
p3270
I10
sS'perio'
p3271
I1
sS'field.pas'
p3272
I1
sS'hit'
p3273
I10
sS'gains'
p3274
I3
sS'secular'
p3275
I1
sS'express'
p3276
I1
sS'brink'
p3277
I1
sS'financing'
p3278
I1
sS'letterhead'
p3279
I1
sS'grew'
p3280
I3
sS'expecially'
p3281
I1
sS'said.palestinians'
p3282
I3
sS'theft'
p3283
I3
sS'reporters'
p3284
I34
sS'track.a'
p3285
I1
sS'69'
p3286
I1
sS'restart'
p3287
I5
sS'104.77'
p3288
I1
sS'governors'
p3289
I1
sS'enemy'
p3290
I1
sS'resolve'
p3291
I6
sS'egypt.arafat'
p3292
I1
sS'settlement.the'
p3293
I4
sS'board'
p3294
I6
sS'retaliation'
p3295
I1
sS'remove'
p3296
I1
sS'bird'
p3297
I1
sS'banking'
p3298
I1
sS'recommendations'
p3299
I1
sS'sustainable'
p3300
I2
sS'peoce'
p3301
I1
sS'tanker'
p3302
I1
sS'2,169'
p3303
I1
sS'wrote'
p3304
I5
sS'intelligence.in'
p3305
I1
sS'campaigning'
p3306
I1
sS'set'
p3307
I14
sS'grain'
p3308
I1
sS'supporting'
p3309
I7
sS'throwing'
p3310
I14
sS'intelligence'
p3311
I9
sS'activists'
p3312
I11
sS'17.80'
p3313
I1
sS'sarkies'
p3314
I1
sS'humans.jerusalem'
p3315
I1
sS'defense'
p3316
I5
sS'ard'
p3317
I3
sS'bethlehem'
p3318
I10
sS'sea'
p3319
I1
sS'reporters.the'
p3320
I1
sS'close'
p3321
I4
sS'2.0'
p3322
I1
sS'bottom.the'
p3323
I2
sS'arm'
p3324
I6
sS'declined'
p3325
I8
sS'feared'
p3326
I7
sS'deir'
p3327
I7
sS'ghneim'
p3328
I13
sS'said.former'
p3329
I1
sS'potential'
p3330
I2
sS'probable'
p3331
I1
sS'negotiator'
p3332
I6
sS'visiting'
p3333
I7
sS'currently'
p3334
I8
sS'alluding'
p3335
I1
sS'case'
p3336
I3
sS'won'
p3337
I4
sS'various'
p3338
I1
sS'18,000'
p3339
I1
sS'ronen'
p3340
I1
sS'consecutive'
p3341
I9
sS'burned'
p3342
I2
sS'hold'
p3343
I2
sS'conditions'
p3344
I6
sS'law'
p3345
I21
sS'supposed'
p3346
I4
sS'europe'
p3347
I2
sS'recently'
p3348
I6
sS'creating'
p3349
I6
sS'initially'
p3350
I4
sS'complement'
p3351
I1
sS'attention'
p3352
I9
sS'stop.earlier'
p3353
I1
sS'confiscated'
p3354
I1
sS'carter'
p3355
I1
sS'said.hamas'
p3356
I1
sS'incident'
p3357
I13
sS'renewed'
p3358
I10
sS'16-year'
p3359
I1
sS'opposition'
p3360
I15
sS'franchise'
p3361
I3
sS'251.40'
p3362
I1
sS'slated'
p3363
I1
sS'judaisation'
p3364
I1
sS'hardline'
p3365
I2
sS'midpoint.however'
p3366
I2
sS'league'
p3367
I13
sS'collaborators'
p3368
I7
sS'areas.islamic'
p3369
I1
sS'improved'
p3370
I5
sS'3.6617'
p3371
I2
sS'contemplate'
p3372
I1
sS'wrote.the'
p3373
I1
sS'fitted'
p3374
I2
sS'2,900'
p3375
I1
sS'annual'
p3376
I9
sS'foreign'
p3377
I55
sS'bran'
p3378
I1
sS'sensitive'
p3379
I1
sS'paramedic'
p3380
I1
sS'newsdesk'
p3381
I2
sS'rose'
p3382
I23
sS'let'
p3383
I6
sS'expectations.the'
p3384
I1
sS'blast.abdel'
p3385
I1
sS'sadat'
p3386
I1
sS'authority.five'
p3387
I1
sS'103.45'
p3388
I1
sS'year.assets'
p3389
I1
sS'point'
p3390
I7
sS'reasons'
p3391
I9
sS'loan'
p3392
I2
sS'smashing'
p3393
I1
sS'rule.asked'
p3394
I1
sS'community'
p3395
I5
sS'however.at'
p3396
I2
sS'16.4'
p3397
I1
sS'manned'
p3398
I1
sS'agents'
p3399
I2
sS'1994.israel'
p3400
I1
sS'village'
p3401
I5
sS'vessel'
p3402
I1
sS'was.bank'
p3403
I2
sS'sammy'
p3404
I1
sS'belt'
p3405
I4
sS'bolster'
p3406
I1
sS'decline'
p3407
I11
sS'described'
p3408
I6
sS'significantly.she'
p3409
I2
sS'8,432'
p3410
I1
sS'activities.he'
p3411
I1
sS'islamists.in'
p3412
I1
sS'create'
p3413
I13
sS'political'
p3414
I56
sS'strategy'
p3415
I6
sS'hitting'
p3416
I4
sS'said.exports'
p3417
I1
sS'secret'
p3418
I12
sS'dropping'
p3419
I1
sS'empts'
p3420
I8
sS'accord.the'
p3421
I2
sS'collected'
p3422
I4
sS'1995.the'
p3423
I1
sS'territory'
p3424
I5
sS'meeting'
p3425
I64
sS'divisive'
p3426
I1
sS'said.ghalli'
p3427
I1
sS'ruth'
p3428
I2
sS'dialogue'
p3429
I4
sS'lived'
p3430
I5
sS'yossi'
p3431
I2
sS'sending'
p3432
I4
sS'kilograms'
p3433
I1
sS'patent'
p3434
I1
sS'week.the'
p3435
I3
sS'gas'
p3436
I8
sS'great'
p3437
I1
sS'anthony'
p3438
I1
sS'fund'
p3439
I2
sS'spiralling'
p3440
I2
sS'israel.malaysian'
p3441
I1
sS'determination'
p3442
I3
sS'representative'
p3443
I9
sS'weisberg'
p3444
I2
sS'demand'
p3445
I11
sS'prices'
p3446
I3
sS'spearheaded'
p3447
I1
sS'towns'
p3448
I3
sS'presented'
p3449
I3
sS'haemek'
p3450
I1
sS'indivisible'
p3451
I1
sS'advocating'
p3452
I1
sS'look'
p3453
I10
sS'frozen'
p3454
I10
sS'villagers'
p3455
I2
sS'straight'
p3456
I15
sS'months.itim'
p3457
I1
sS'budget'
p3458
I20
sS'governor'
p3459
I5
sS'3.36'
p3460
I11
sS'pace'
p3461
I5
sS'dominik'
p3462
I1
sS'15,700ivan'
p3463
I1
sS'blasts.the'
p3464
I2
sS'pressed'
p3465
I5
sS'product.pessimists'
p3466
I1
sS'withdrawing'
p3467
I1
sS'endanger'
p3468
I1
sS'criticisms.she'
p3469
I1
sS'vice'
p3470
I1
sS'kingdom'
p3471
I1
sS'netanyahu.yesha'
p3472
I2
sS'pound'
p3473
I3
sS'thursday.note'
p3474
I1
sS'hoping'
p3475
I2
sS'century'
p3476
I2
sS'backing'
p3477
I2
sS'strip.palestinian'
p3478
I1
sS'251.9'
p3479
I1
sS'said.however'
p3480
I1
sS'gunned'
p3481
I1
sS'realised'
p3482
I1
sS'qader'
p3483
I1
sS'ready'
p3484
I6
sS'leaving'
p3485
I4
sS'wahib'
p3486
I1
sS'lengthy'
p3487
I4
sS'aged'
p3488
I1
sS'pyjamas'
p3489
I2
sS'provisions'
p3490
I1
sS'878'
p3491
I1
sS'grant'
p3492
I2
sS'875'
p3493
I1
sS'sight'
p3494
I3
sS'froces'
p3495
I1
sS'virtually'
p3496
I1
sS'widely'
p3497
I2
sS'renounces'
p3498
I3
sS'9'
p3499
I1
sS'survey'
p3500
I3
sS'advise'
p3501
I1
sS'shai'
p3502
I8
sS'gaza.the'
p3503
I3
sS'conflict'
p3504
I10
sS'higher'
p3505
I13
sS'development'
p3506
I4
sS'sell'
p3507
I13
sS'used'
p3508
I8
sS'temporary'
p3509
I1
sS'fiscal'
p3510
I1
sS'affairs'
p3511
I1
sS'comprehensive'
p3512
I3
sS'katznelson'
p3513
I2
sS'talks.asked'
p3514
I1
sS'negotiate'
p3515
I2
sS'censure'
p3516
I2
sS'holidays'
p3517
I1
sS'peacemaking'
p3518
I15
sS'levels'
p3519
I3
sS'arrived'
p3520
I14
sS'purpose'
p3521
I2
sS'aggregate'
p3522
I1
sS'ab'
p3523
I1
sS'recent'
p3524
I15
sS'gestures'
p3525
I1
sS'lower'
p3526
I15
sS'15.3'
p3527
I3
sS'15.4'
p3528
I2
sS'equalled'
p3529
I1
sS'pollster'
p3530
I1
sS'anxious'
p3531
I1
sS'alleging'
p3532
I6
sS'spent'
p3533
I1
sS'obviously'
p3534
I5
sS'concrete'
p3535
I1
sS'edge'
p3536
I6
sS'3.3530'
p3537
I1
sS'withdraw'
p3538
I2
sS'building.shara'
p3539
I1
sS'landmark'
p3540
I3
sS'entry'
p3541
I1
sS'signalled'
p3542
I3
sS'clearance'
p3543
I1
sS'tast'
p3544
I1
sS'prevention'
p3545
I7
sS'ambassador'
p3546
I3
sS'1967'
p3547
I18
sS'judgments'
p3548
I1
sS'halperin'
p3549
I2
sS'polled'
p3550
I1
sS'settlements'
p3551
I53
sS'confiscation'
p3552
I2
sS'competitive'
p3553
I1
sS'militiamen'
p3554
I1
sS'347,419'
p3555
I1
sS'arrests'
p3556
I2
sS'openly'
p3557
I1
sS'ousting'
p3558
I1
sS'distanced'
p3559
I1
sS'world'
p3560
I23
sS'week.osama'
p3561
I1
sS'alternative'
p3562
I2
sS'injuries'
p3563
I12
sS'wage'
p3564
I1
sS'10,815'
p3565
I1
sS'cut'
p3566
I7
sS'wounding'
p3567
I17
sS'scenario'
p3568
I1
sS'workers'
p3569
I2
sS'deputy'
p3570
I2
sS'reports.exporters'
p3571
I1
sS'snag'
p3572
I1
sS'stabilisation'
p3573
I1
sS'source'
p3574
I2
sS'week.his'
p3575
I1
sS'labour'
p3576
I14
sS'deliberately'
p3577
I1
sS'questioned'
p3578
I1
sS'born'
p3579
I1
sS'2.16'
p3580
I1
sS'impoverished'
p3581
I1
sS'reinstate'
p3582
I2
sS'remaining'
p3583
I4
sS'surprised'
p3584
I4
sS'build'
p3585
I28
sS'unravelled'
p3586
I1
sS'victims'
p3587
I6
sS'play.he'
p3588
I1
sS'emergency'
p3589
I6
sS'demands'
p3590
I10
sS'percent.finance'
p3591
I1
sS'big'
p3592
I14
sS'bid'
p3593
I7
sS'condemnation'
p3594
I1
sS'1996.consumer'
p3595
I1
sS'game'
p3596
I2
sS'private'
p3597
I5
sS'2.0007'
p3598
I1
sS'entrenched'
p3599
I1
sS'awaken'
p3600
I1
sS'formal'
p3601
I1
sS'loss-2,374net'
p3602
I1
sS'imposed'
p3603
I2
sS'lost'
p3604
I2
sS'laser.israel'
p3605
I1
sS'defence.they'
p3606
I1
sS'nasser'
p3607
I1
sS'commanders'
p3608
I6
sS'million.sale'
p3609
I1
sS'1997.elbit'
p3610
I1
sS'years.western'
p3611
I1
sS'consensus'
p3612
I5
sS'communications'
p3613
I3
sS'continue'
p3614
I34
sS'yields'
p3615
I7
sS'popular'
p3616
I1
sS'settlment'
p3617
I1
sS'essential'
p3618
I1
sS'polisario'
p3619
I1
sS'involvement.before'
p3620
I2
sS'hinted'
p3621
I3
sS'absolutely'
p3622
I6
sS'spring'
p3623
I1
sS'week.arafat'
p3624
I2
sS'unfazed'
p3625
I1
sS'touched.exports'
p3626
I1
sS'outnumber'
p3627
I1
sS'ayyad'
p3628
I2
sS'delegation'
p3629
I1
sS'understood'
p3630
I2
sS'3.4'
p3631
I2
sS'economic'
p3632
I21
sS'3.2'
p3633
I1
sS'accelerate'
p3634
I2
sS'3.0'
p3635
I2
sS'3.1'
p3636
I1
sS'hurting'
p3637
I1
sS'strip.it'
p3638
I1
sS'control.the'
p3639
I1
sS'berger'
p3640
I1
sS'3.8'
p3641
I4
sS'electric'
p3642
I3
sS'concluded.the'
p3643
I1
sS'pronounced'
p3644
I2
sS'qatar'
p3645
I4
sS'scale'
p3646
I3
sS'dull'
p3647
I1
sS'contacts'
p3648
I4
sS'decision'
p3649
I31
sS'warnings'
p3650
I1
sS'cast'
p3651
I1
sS'erekat'
p3652
I2
sS'intervened'
p3653
I2
sS'6,583.prime'
p3654
I1
sS'bogus'
p3655
I1
sS'lehashgaha'
p3656
I1
sS'excluding'
p3657
I1
sS'durables'
p3658
I1
sS'invade'
p3659
I3
sS'minimal'
p3660
I1
sS'1,057,342'
p3661
I1
sS'overly'
p3662
I1
sS'run'
p3663
I3
sS'conscripts'
p3664
I1
sS'litterbugs'
p3665
I1
sS'300'
p3666
I2
sS'zovirax'
p3667
I1
sS'lose'
p3668
I1
sS'continuing'
p3669
I3
sS'use'
p3670
I3
sS'refused'
p3671
I5
sS'step'
p3672
I6
sS'santa'
p3673
I1
sS'zovirax.bank'
p3674
I1
sS'refuses'
p3675
I2
sS'plots'
p3676
I2
sS'shallah'
p3677
I2
sS'2/4'
p3678
I2
sS'abroad'
p3679
I9
sS'clinton.negotiations'
p3680
I2
sS'77'
p3681
I1
sS'mishtanim'
p3682
I5
sS'bakar'
p3683
I1
sS'cigarette'
p3684
I1
sS'completing'
p3685
I1
sS'situation.palestinian'
p3686
I1
sS'deserves'
p3687
I3
sS'range'
p3688
I1
sS'militia'
p3689
I3
sS'allotment'
p3690
I3
sS'suhaib'
p3691
I1
sS'whittled'
p3692
I3
sS'ltd.periochip'
p3693
I1
sS'ahronoth'
p3694
I6
sS'block'
p3695
I2
sS'plan'
p3696
I16
sS'bezeq'
p3697
I32
sS'repair'
p3698
I1
sS'12,000'
p3699
I1
sS'clinton'
p3700
I126
sS'terrorists'
p3701
I2
sS'violence.the'
p3702
I1
sS'markets.the'
p3703
I1
sS'berger.at'
p3704
I1
sS'hammered'
p3705
I1
sS'negotiations.it'
p3706
I1
sS'pullbacks'
p3707
I2
sS'recognised.the'
p3708
I1
sS'slovak'
p3709
I1
sS'reuters.he'
p3710
I1
sS'states.security'
p3711
I1
sS'lesson'
p3712
I1
sS'katif'
p3713
I3
sS'risk'
p3714
I4
sS'souces'
p3715
I1
sS'statistics'
p3716
I2
sS'computer'
p3717
I1
sS'renewal'
p3718
I1
sS'spending'
p3719
I8
sS'talks.after'
p3720
I1
sS'batons'
p3721
I1
sS'bargaining'
p3722
I1
sS'screen.the'
p3723
I1
sS'long'
p3724
I27
sS'pharmaceuticals'
p3725
I1
sS'crackdown'
p3726
I5
sS"we're"
p3727
I7
sS'deal.the'
p3728
I1
sS'forward'
p3729
I38
sS'perform'
p3730
I1
sS'glow'
p3731
I1
sS'557'
p3732
I1
sS'opponent'
p3733
I2
sS'merom'
p3734
I1
sS'plunge'
p3735
I1
sS'settled.de'
p3736
I1
sS'jewish'
p3737
I182
sS'relaxed'
p3738
I3
sS'strip.abu'
p3739
I1
sS'immigration'
p3740
I12
sS'recognising'
p3741
I1
sS'reiterated'
p3742
I4
sS'provoking'
p3743
I1
sS'mobilised'
p3744
I1
sS'link'
p3745
I5
sS'repeatedly'
p3746
I1
sS'filed'
p3747
I7
sS'hopes'
p3748
I11
sS'subsidiary'
p3749
I2
sS'line'
p3750
I5
sS'reuters.netanyahu'
p3751
I1
sS'outpost'
p3752
I4
sS'ceremonies'
p3753
I1
sS'posted'
p3754
I6
sS'fda'
p3755
I3
sS'hair'
p3756
I1
sS'1995.u.s'
p3757
I1
sS'munib'
p3758
I1
sS'skull'
p3759
I1
sS'cooperated'
p3760
I1
sS'caller'
p3761
I7
sS'fries'
p3762
I1
sS'sifting'
p3763
I3
sS'14.7'
p3764
I1
sS'15,336'
p3765
I1
sS'first.yedioth'
p3766
I1
sS'autonomous'
p3767
I1
sS'fried'
p3768
I1
sS'similar'
p3769
I3
sS'called'
p3770
I39
sS'kits'
p3771
I1
sS'said.in'
p3772
I10
sS'associated'
p3773
I1
sS'nationalist'
p3774
I1
sS'raging'
p3775
I1
sS'cafe.hamas'
p3776
I2
sS'israel.speaking'
p3777
I1
sS'influence'
p3778
I2
sS'states.jordanian'
p3779
I1
sS'package'
p3780
I8
sS'jeep.no'
p3781
I1
sS'single'
p3782
I4
sS'cure'
p3783
I1
sS'curb'
p3784
I9
sS'efforts.she'
p3785
I1
sS'rally'
p3786
I1
sS'cafe'
p3787
I11
sS'105.7'
p3788
I1
sS'kidney'
p3789
I1
sS'states.in'
p3790
I1
sS'director.erel'
p3791
I1
sS'year.finance'
p3792
I1
sS'pharamceutical'
p3793
I1
sS'unjustifiably'
p3794
I1
sS'aipac'
p3795
I1
sS'amounts'
p3796
I2
sS'119'
p3797
I2
sS'standards.maariv'
p3798
I1
sS'peace'
p3799
I263
sS'spokesmen'
p3800
I2
sS'application'
p3801
I1
sS'razik'
p3802
I3
sS'accounted'
p3803
I3
sS'3.25'
p3804
I2
sS'bases'
p3805
I2
sS'income'
p3806
I10
sS'department'
p3807
I16
sS'clashes.he'
p3808
I1
sS'kamal'
p3809
I3
sS'manhattan'
p3810
I5
sS'mock'
p3811
I5
sS'nice'
p3812
I1
sS'draw'
p3813
I1
sS'generates'
p3814
I1
sS'reportedly'
p3815
I2
sS'viral'
p3816
I2
sS'benchmark'
p3817
I3
sS'problems'
p3818
I7
sS'prepared'
p3819
I22
sS'william'
p3820
I11
sS'militants'
p3821
I27
sS'rested'
p3822
I1
sS'thursday.on'
p3823
I1
sS'haitham'
p3824
I7
sS'injuries.jewish'
p3825
I1
sS'sides'
p3826
I11
sS'leaflets'
p3827
I2
sS'mood'
p3828
I3
sS'ago'
p3829
I25
sS'worsened'
p3830
I4
sS'land'
p3831
I17
sS'rabbis'
p3832
I4
sS'dov'
p3833
I1
sS'age'
p3834
I1
sS'required'
p3835
I10
sS'holes'
p3836
I3
sS'responded'
p3837
I6
sS'moment'
p3838
I1
sS'ascertained'
p3839
I1
sS'summit'
p3840
I16
sS'reuters.a'
p3841
I1
sS'0.25'
p3842
I2
sS'fresh'
p3843
I1
sS'rates.in'
p3844
I2
sS'having'
p3845
I8
sS'reuters.plo'
p3846
I1
sS'evenly'
p3847
I1
sS'ambiguities'
p3848
I2
sS'katz'
p3849
I4
sS'reuters.the'
p3850
I4
sS'31,066'
p3851
I1
sS'baruch'
p3852
I2
sS'issued'
p3853
I12
sS'million.laser'
p3854
I1
sS'results'
p3855
I7
sS'custody.ghosheh'
p3856
I1
sS'existing'
p3857
I7
sS'own.but'
p3858
I1
sS'cohen.hussein'
p3859
I1
sS'ge'
p3860
I1
sS'legal'
p3861
I2
sS'vingmed'
p3862
I2
sS'1994.backing'
p3863
I1
sS'december.in'
p3864
I1
sS'15,000'
p3865
I2
sS'carrier'
p3866
I4
sS'issues'
p3867
I9
sS'arik'
p3868
I1
sS'transactions'
p3869
I1
sS'reporters.arab'
p3870
I1
sS'disposal'
p3871
I1
sS'concerned'
p3872
I3
sS'fiercest'
p3873
I2
sS'mosque'
p3874
I4
sS'send'
p3875
I12
sS'intensive'
p3876
I4
sS'attackers'
p3877
I1
sS'citing'
p3878
I1
sS'critical'
p3879
I2
sS'capturing'
p3880
I1
sS'debate.the'
p3881
I1
sS'stable'
p3882
I3
sS'quarterly'
p3883
I2
sS'details'
p3884
I7
sS'maryland'
p3885
I1
sS'include'
p3886
I11
sS'crises.current'
p3887
I1
sS'friendly'
p3888
I1
sS'sent'
p3889
I15
sS'maof'
p3890
I8
sS'stabbings'
p3891
I3
sS'cite'
p3892
I1
sS'probe'
p3893
I1
sS'persuade'
p3894
I1
sS'mainstream'
p3895
I2
sS'meyor'
p3896
I1
sS'tickets'
p3897
I1
sS'meeting.peace'
p3898
I1
sS'continues'
p3899
I12
sS'15.336'
p3900
I1
sS'711'
p3901
I1
sS'wave'
p3902
I11
sS'said.all'
p3903
I1
sS'wishes'
p3904
I2
sS'putting'
p3905
I1
sS'cellular'
p3906
I1
sS'9/4'
p3907
I1
sS'settlement.chief'
p3908
I1
sS'surgeon'
p3909
I1
sS'assaf'
p3910
I1
sS'continued'
p3911
I17
sS'proposal.netanyahu'
p3912
I1
sS'rad'
p3913
I1
sS'arrange'
p3914
I3
sS'hebron.police'
p3915
I1
sS'partially'
p3916
I1
sS'ephraim'
p3917
I1
sS'premature.state'
p3918
I1
sS'succeed'
p3919
I1
sS'positions'
p3920
I1
sS'omani'
p3921
I1
sS'michael'
p3922
I5
sS"they've"
p3923
I1
sS'try'
p3924
I18
sS'race'
p3925
I1
sS'extraditing'
p3926
I6
sS'dealt'
p3927
I2
sS'912'
p3928
I1
sS'settlers'
p3929
I36
sS'noted'
p3930
I4
sS'2.25'
p3931
I1
sS'concluded'
p3932
I2
sS'averaged'
p3933
I1
sS'pledge'
p3934
I5
sS'golan'
p3935
I1
sS'say.syrian'
p3936
I1
sS'finn'
p3937
I3
sS'procession'
p3938
I1
sS'42.7'
p3939
I1
sS'lethal'
p3940
I1
sS'39,000'
p3941
I1
sS'thursday.during'
p3942
I1
sS'growing'
p3943
I2
sS'wheat'
p3944
I10
sS'makers'
p3945
I2
sS'contingent'
p3946
I1
sS'reconciliation'
p3947
I3
sS'scathing'
p3948
I1
sS'power'
p3949
I6
sS'apparatus'
p3950
I2
sS'concessions'
p3951
I6
sS'colonel'
p3952
I1
sS'764,695'
p3953
I1
sS'probably'
p3954
I7
sS'bearish'
p3955
I1
sS'exacerbate'
p3956
I1
sS'practices'
p3957
I3
sS'unhelpful'
p3958
I1
sS'waiting'
p3959
I2
sS'sour'
p3960
I7
sS'poles'
p3961
I1
sS'capital'
p3962
I31
sS'loss-0.22'
p3963
I1
sS'firms'
p3964
I2
sS'nicholas'
p3965
I9
sS'loss-0.26'
p3966
I1
sS'body'
p3967
I5
sS'correspondentan'
p3968
I2
sS'scepticism'
p3969
I1
sS'led'
p3970
I8
sS'fomenting'
p3971
I3
sS'degree'
p3972
I1
sS'exchange'
p3973
I19
sS'0.1'
p3974
I1
sS'pushing'
p3975
I5
sS'commercial'
p3976
I4
sS'said.yechiel'
p3977
I1
sS'balked'
p3978
I2
sS'believed'
p3979
I13
sS'explore'
p3980
I2
sS'added.the'
p3981
I2
sS'expansion'
p3982
I1
sS'licence'
p3983
I1
sS'totalled'
p3984
I4
sS'consideration'
p3985
I1
sS'confiscating'
p3986
I1
sS'coordiation'
p3987
I1
sS'closing'
p3988
I2
sS'council.in'
p3989
I1
sS'painfully'
p3990
I3
sS'forecast.but'
p3991
I1
sS'remark'
p3992
I1
sS'engage'
p3993
I3
sS'dividing'
p3994
I2
sS'cafe.in'
p3995
I1
sS'receive'
p3996
I1
sS'involved'
p3997
I16
sS'31'
p3998
I5
sS'30'
p3999
I16
sS'murdered'
p4000
I1
sS'35'
p4001
I3
sS'34'
p4002
I5
sS'headline'
p4003
I1
sS'arabic.israel'
p4004
I1
sS'products'
p4005
I5
sS'benjamnin'
p4006
I1
sS'california'
p4007
I1
sS'opinion'
p4008
I7
sS'implement'
p4009
I2
sS'makes'
p4010
I4
sS'initials'
p4011
I1
sS'composed'
p4012
I3
sS'named'
p4013
I8
sS'338'
p4014
I1
sS'heart'
p4015
I3
sS'egypt'
p4016
I20
sS'presidents'
p4017
I1
sS'manage'
p4018
I3
sS'331'
p4019
I1
sS'kiryat'
p4020
I5
sS'332'
p4021
I1
sS'netanyahu.his'
p4022
I1
sS'streetglobes'
p4023
I1
sS'names'
p4024
I1
sS'said.indices'
p4025
I3
sS'appleson'
p4026
I2
sS'resolutions'
p4027
I11
sS'enclave.earlier'
p4028
I1
sS'witnessed'
p4029
I1
sS'galloped'
p4030
I1
sS'bent'
p4031
I3
sS'standing'
p4032
I10
sS'confidence'
p4033
I11
sS'feb'
p4034
I2
sS'che'
p4035
I1
sS'usa'
p4036
I2
sS'remains'
p4037
I3
sS'illegal'
p4038
I3
sS'1,500'
p4039
I1
sS'ministers'
p4040
I10
sS'percent.revenue'
p4041
I1
sS'nobel'
p4042
I1
sS'symbol'
p4043
I1
sS'agorot'
p4044
I5
sS'doubt'
p4045
I7
sS'fibi'
p4046
I2
sS'reviving'
p4047
I1
sS'vehicle'
p4048
I4
sS'd'
p4049
I1
sS'office.israeli'
p4050
I1
sS'jonathan'
p4051
I2
sS'screening'
p4052
I1
sS'sort'
p4053
I6
sS'jordan.mordechai'
p4054
I1
sS'laboured'
p4055
I1
sS'parliament'
p4056
I6
sS'formally'
p4057
I4
sS'journalists'
p4058
I2
sS'biblical'
p4059
I1
sS'comparison'
p4060
I1
sS'started'
p4061
I10
sS'tax'
p4062
I9
sS'hasspecified'
p4063
I1
sS'criticising'
p4064
I1
sS'testified'
p4065
I1
sS'occurred'
p4066
I18
sS'improve'
p4067
I4
sS'missile'
p4068
I11
sS'emigration'
p4069
I1
sS'enters'
p4070
I2
sS'carrying'
p4071
I10
sS'israelis'
p4072
I74
sS'agent'
p4073
I4
sS'sharply'
p4074
I7
sS'radio.yossi'
p4075
I1
sS'placard'
p4076
I1
sS'said.most'
p4077
I1
sS'appointed'
p4078
I1
sS'hrbaty'
p4079
I1
sS'women'
p4080
I21
sS'customer'
p4081
I2
sS'escaped'
p4082
I1
sS'account'
p4083
I7
sS'crosses'
p4084
I3
sS'f'
p4085
I3
sS'tunnel'
p4086
I1
sS'islamabad'
p4087
I2
sS'ride'
p4088
I1
sS'stations'
p4089
I3
sS'3.6631'
p4090
I1
sS'kelantan'
p4091
I1
sS'salam'
p4092
I4
sS'erwin'
p4093
I1
sS'said.a'
p4094
I2
sS'israel.palestinians'
p4095
I1
sS'lng'
p4096
I2
sS'meet'
p4097
I37
sS'1.47'
p4098
I1
sS'coffin'
p4099
I5
sS'1983.for'
p4100
I1
sS'proof'
p4101
I5
sS'control'
p4102
I9
sS'arafat'
p4103
I112
sS'mordechi'
p4104
I1
sS'patrol'
p4105
I3
sS'rate.the'
p4106
I1
sS'links'
p4107
I1
sS'process'
p4108
I109
sS'84,000share'
p4109
I1
sS'0.5'
p4110
I2
sS'pieces'
p4111
I1
sS'high'
p4112
I41
sS'tal'
p4113
I3
sS'reserves'
p4114
I6
sS'bloodiest'
p4115
I2
sS'sought'
p4116
I3
sS'thursday.at'
p4117
I1
sS'nickname.eli'
p4118
I1
sS'martyr'
p4119
I3
sS'1991'
p4120
I4
sS'israelis.a'
p4121
I1
sS'stemmed'
p4122
I2
sS'hesitate'
p4123
I3
sS'united'
p4124
I100
sS'dilemma'
p4125
I1
sS'democracy'
p4126
I1
sS'sit'
p4127
I1
sS'protect'
p4128
I3
sS'holds'
p4129
I4
sS'inaugural'
p4130
I1
sS'sic'
p4131
I1
sS'8,691'
p4132
I1
sS'seeds'
p4133
I3
sS'said.but'
p4134
I4
sS'instead'
p4135
I8
sS'intelligent'
p4136
I1
sS'time.jewish'
p4137
I2
sS'stock'
p4138
I16
sS'profile'
p4139
I3
sS'swedish'
p4140
I1
sS'firebombing'
p4141
I1
sS'annualised'
p4142
I6
sS'impasse.western'
p4143
I2
sS'farm'
p4144
I1
sS'watch'
p4145
I6
sS'annexed'
p4146
I3
sS'testimony'
p4147
I1
sS'monday.israeli'
p4148
I1
sS'shekels.the'
p4149
I2
sS'halted'
p4150
I2
sS'mixed'
p4151
I4
sS'road.brigadier'
p4152
I1
sS'preferring'
p4153
I2
sS'ties'
p4154
I25
sS'engineering'
p4155
I2
sS'reached.communications'
p4156
I2
sS'bombers'
p4157
I19
sS'physical'
p4158
I1
sS'concern'
p4159
I2
sS'light'
p4160
I27
sS'944'
p4161
I1
sS'counter'
p4162
I2
sS'2,175,533'
p4163
I1
sS'element'
p4164
I1
sS'chief'
p4165
I15
sS'cote'
p4166
I1
sS'spain'
p4167
I1
sS'allow'
p4168
I2
sS'healthcare'
p4169
I1
sS'subsequently'
p4170
I3
sS'looking'
p4171
I3
sS'divided'
p4172
I1
sS'3/4'
p4173
I1
sS'heavyweight'
p4174
I1
sS'reversal'
p4175
I2
sS'shekels.finance'
p4176
I1
sS'avraham'
p4177
I2
sS'interlocutor'
p4178
I1
sS'despite'
p4179
I8
sS'outset'
p4180
I1
sS'unjustified'
p4181
I1
sS'produced'
p4182
I1
sS'principles'
p4183
I1
sS'130'
p4184
I1
sS'including'
p4185
I19
sS'looks'
p4186
I1
sS'january.israel'
p4187
I1
sS'reuters.israeli'
p4188
I3
sS'139'
p4189
I1
sS'freezes'
p4190
I1
sS'operative'
p4191
I3
sS'policy.foreign'
p4192
I1
sS'industries'
p4193
I12
sS'helicopters'
p4194
I11
sS'negotiated'
p4195
I1
sS'lb'
p4196
I6
sS'chosen'
p4197
I1
sS'radio.in'
p4198
I1
sS'guerrilla'
p4199
I2
sS'bank.in'
p4200
I1
sS'elitec'
p4201
I3
sS'meantime'
p4202
I2
sS'permanent'
p4203
I4
sS'900-page'
p4204
I1
sS'choose'
p4205
I5
sS'stalled'
p4206
I9
sS'orange'
p4207
I3
sS'covered'
p4208
I2
sS'16,500'
p4209
I1
sS'holiday'
p4210
I1
sS'enshrine'
p4211
I1
sS'19,423'
p4212
I1
sS'attacks.hamas'
p4213
I2
sS'eliter'
p4214
I1
sS'scofflaws'
p4215
I1
sS'saturday.shareholders'
p4216
I1
sS'orthodox'
p4217
I7
sS'analysts'
p4218
I6
sS'said.he'
p4219
I3
sS'dan'
p4220
I14
sS'spell'
p4221
I1
sS'flew'
p4222
I3
sS'yesha'
p4223
I5
sS'140-point'
p4224
I1
sS'1.17'
p4225
I1
sS'hands'
p4226
I1
sS'children.israeli'
p4227
I1
sS'fled'
p4228
I7
sS'presidential'
p4229
I9
sS'track.before'
p4230
I1
sS'february'
p4231
I9
sS'warned'
p4232
I7
sS'university'
p4233
I6
sS'legislation'
p4234
I5
sS'identified'
p4235
I11
sS'gaza.shami'
p4236
I1
sS'rockets'
p4237
I8
sS'mode'
p4238
I2
sS'shortage'
p4239
I1
sS'rising'
p4240
I10
sS'activities.the'
p4241
I1
sS'bills'
p4242
I3
sS'shabrawi.the'
p4243
I2
sS'border'
p4244
I3
sS'3,000'
p4245
I2
sS'1.usda'
p4246
I1
sS'privatisation'
p4247
I6
sS'inputs'
p4248
I1
sS'doing'
p4249
I7
sS'million.for'
p4250
I1
sS'globe'
p4251
I2
sS'parties'
p4252
I9
sS'levy'
p4253
I7
sS'related'
p4254
I2
sS'books'
p4255
I1
sS'investments.on'
p4256
I1
sS'exceeded'
p4257
I1
sS'ambassadors'
p4258
I1
sS'80'
p4259
I5
sS'oppenheimer'
p4260
I4
sS'86'
p4261
I1
sS'special'
p4262
I8
sS'children.hours'
p4263
I1
sS'secretly'
p4264
I1
sS'ratner'
p4265
I2
sS'2.31'
p4266
I1
sS'140'
p4267
I1
sS'sentiment'
p4268
I3
sS'415'
p4269
I1
sS'announces'
p4270
I1
sS'defend'
p4271
I4
sS'criminally'
p4272
I5
sS'islamist'
p4273
I10
sS'rival'
p4274
I1
sS'escalate'
p4275
I1
sS'revenue'
p4276
I4
sS'activist'
p4277
I7
sS'messenger'
p4278
I2
sS'favours'
p4279
I1
sS'grits'
p4280
I3
sS'wednesday.note'
p4281
I1
sS'electronics'
p4282
I3
sS'cause'
p4283
I2
sS'announced'
p4284
I16
sS'said.members'
p4285
I1
sS'franc'
p4286
I3
sS'shut'
p4287
I2
sS'umbrella'
p4288
I1
sS'learns'
p4289
I1
sS'fluctuates'
p4290
I1
sS'spot'
p4291
I2
sS'jerusalem.egypt'
p4292
I3
sS'activity'
p4293
I17
sS'shekel'
p4294
I29
sS'clarify'
p4295
I4
sS'completely'
p4296
I1
sS'surely'
p4297
I6
sS'york'
p4298
I23
sS'trends'
p4299
I1
sS'advisor'
p4300
I2
sS'1982'
p4301
I1
sS'debtprovisiondoubtful'
p4302
I1
sS'stormy'
p4303
I1
sS'grenade.in'
p4304
I2
sS'incidents.al'
p4305
I1
sS'receipts'
p4306
I1
sS'resumed'
p4307
I5
sS'1991.syria'
p4308
I1
sS'once.they'
p4309
I1
sS'allies'
p4310
I4
sS'fueled'
p4311
I1
sS'concerns'
p4312
I1
sS'majali'
p4313
I6
sS'town.israeli'
p4314
I1
sS'obstacle'
p4315
I1
sS'levi'
p4316
I3
sS'david'
p4317
I33
sS'zovirax.zovirax'
p4318
I1
sS'chicken'
p4319
I3
sS'explored'
p4320
I2
sS'wing.israel'
p4321
I1
sS'courses.the'
p4322
I1
sS'davis'
p4323
I1
sS'uproot'
p4324
I5
sS'hussein'
p4325
I57
sS'restaurants'
p4326
I1
sS'lagged'
p4327
I1
sS'south'
p4328
I15
sS'abdallah'
p4329
I10
sS'said.moshe'
p4330
I1
sS'palestinians.some'
p4331
I1
sS'blown'
p4332
I11
sS'policy.jihad'
p4333
I1
sS'overshoot'
p4334
I2
sS'yousef'
p4335
I4
sS'take.the'
p4336
I1
sS'15th'
p4337
I4
sS'harfa'
p4338
I1
sS'submit'
p4339
I2
sS'lagging'
p4340
I1
sS'reached'
p4341
I5
sS'quality'
p4342
I2
sS'pflp'
p4343
I4
sS'julien'
p4344
I1
sS"doesn't"
p4345
I3
sS'cop'
p4346
I1
sS'ignited'
p4347
I3
sS'observer'
p4348
I1
sS'lands.jewish'
p4349
I1
sS'intention'
p4350
I4
sS'ordering'
p4351
I7
sS'data'
p4352
I2
sS'achieved'
p4353
I1
sS'grip'
p4354
I4
sS'relations'
p4355
I26
sS'priority'
p4356
I4
sS'attack'
p4357
I18
sS'655'
p4358
I1
sS'figures.frenkel'
p4359
I1
sS'vetoes'
p4360
I2
sS'declines'
p4361
I2
sS'palestine'
p4362
I15
sS'travelled'
p4363
I3
sS'pakistani'
p4364
I4
sS'branches'
p4365
I1
sS'final'
p4366
I34
sS'painful'
p4367
I2
sS'paved'
p4368
I3
sS'2-0'
p4369
I1
sS'shell'
p4370
I1
sS'vigorous'
p4371
I1
sS'gear'
p4372
I1
sS'2,540'
p4373
I1
sS'explanation'
p4374
I3
sS'electing'
p4375
I1
sS'rotlevy.governor'
p4376
I2
sS'liani'
p4377
I2
sS'chemicals'
p4378
I6
sS'regards'
p4379
I3
sS'temple'
p4380
I1
sS'manipulation'
p4381
I1
sS'cooperate'
p4382
I1
sS'july'
p4383
I15
sS'policeman'
p4384
I15
sS'elite'
p4385
I1
sS'assous'
p4386
I2
sS'holland'
p4387
I1
sS"weren't"
p4388
I1
sS'specific.violence'
p4389
I1
sS'days.in'
p4390
I2
sS'submitted'
p4391
I2
sS'process.israeli'
p4392
I2
sS'claim'
p4393
I4
sS'compensation'
p4394
I1
sS'individual'
p4395
I2
sS'yechiel'
p4396
I2
sS'9.2'
p4397
I2
sS'pawns'
p4398
I1
sS'briefing'
p4399
I6
sS'providing'
p4400
I2
sS'steep'
p4401
I1
sS'qaddourah'
p4402
I3
sS'bet'
p4403
I2
sS'jabara'
p4404
I1
sS'accusing'
p4405
I8
sS'1.6'
p4406
I2
sS'1.7'
p4407
I1
sS'1.0'
p4408
I2
sS'1.1'
p4409
I2
sS'bulldozer'
p4410
I1
sS'ammunition'
p4411
I1
sS'cohen'
p4412
I12
sS'1.9'
p4413
I3
sS'interrupted'
p4414
I2
sS'buildings'
p4415
I1
sS'22-member'
p4416
I1
sS'defending'
p4417
I2
sS'gunfire'
p4418
I1
sS'dictate'
p4419
I2
sS'need'
p4420
I17
sS'bnei'
p4421
I1
sS'constrained'
p4422
I1
sS'apparently'
p4423
I3
sS'linked'
p4424
I19
sS'idan'
p4425
I5
sS'bezeq.shares'
p4426
I1
sS'acceleration'
p4427
I2
sS'8,724gross'
p4428
I1
sS'documents'
p4429
I3
sS'intervention.but'
p4430
I2
sS'253.70'
p4431
I2
sS'russians'
p4432
I1
sS'studying'
p4433
I1
sS'added.dollar'
p4434
I2
sS'agency'
p4435
I12
sS'teargas'
p4436
I11
sS'mid'
p4437
I3
sS'3.6625'
p4438
I2
sS'1.38'
p4439
I1
sS'mix'
p4440
I1
sS'issuing'
p4441
I1
sS'2.5'
p4442
I2
sS'tactic'
p4443
I3
sS'funds'
p4444
I13
sS'provoked'
p4445
I3
sS'battled'
p4446
I4
sS'divert'
p4447
I7
sS'scahria'
p4448
I1
sS'ghalli'
p4449
I3
sS'1.37'
p4450
I3
sS'relatively'
p4451
I7
sS'agenda'
p4452
I4
sS'clash'
p4453
I2
sS'centre'
p4454
I6
sS'petrol'
p4455
I12
sS'attack.the'
p4456
I1
sS'israel.in'
p4457
I3
sS'expires'
p4458
I1
sS'hassan'
p4459
I5
sS'avenging'
p4460
I1
sS'vengeance'
p4461
I2
sS'95income'
p4462
I1
sS'reuters.israel'
p4463
I1
sS'preliminary'
p4464
I4
sS'qatari'
p4465
I1
sS'expired'
p4466
I1
sS'payment'
p4467
I1
sS'said.street'
p4468
I1
sS'delivery'
p4469
I1
sS'deny'
p4470
I4
sS'albright.among'
p4471
I1
sS'placement'
p4472
I1
sS'expert'
p4473
I1
sS'consequences'
p4474
I2
sS'wish'
p4475
I1
sS'farouq'
p4476
I2
sS'request'
p4477
I29
sS'disease'
p4478
I1
sS'bullets.u.s'
p4479
I2
sS'face'
p4480
I7
sS'looked'
p4481
I1
sS'1,001'
p4482
I1
sS'capita'
p4483
I1
sS'khaddam'
p4484
I4
sS'17,319'
p4485
I1
sS'wounded'
p4486
I26
sS'pyjamas.later'
p4487
I1
sS'ensued'
p4488
I1
sS'fact'
p4489
I6
sS'morocco'
p4490
I2
sS'hasty'
p4491
I2
sS'impression'
p4492
I2
sS'atmosphere'
p4493
I4
sS'survived'
p4494
I2
sS'listed'
p4495
I1
sS'sceptical'
p4496
I1
sS'agreed'
p4497
I10
sS'supported'
p4498
I7
sS'disbanded'
p4499
I1
sS'halting'
p4500
I6
sS'bring'
p4501
I5
sS'97.8'
p4502
I1
sS'serving'
p4503
I2
sS'parked'
p4504
I1
sS'reaching'
p4505
I1
sS'11.5'
p4506
I1
sS'telling'
p4507
I5
sS'soldiers'
p4508
I72
sS'rough'
p4509
I3
sS'longer'
p4510
I2
sS'economist'
p4511
I3
sS'agrees'
p4512
I1
sS'decade'
p4513
I2
sS'staff'
p4514
I2
sS'consituted'
p4515
I1
sS'gibralter'
p4516
I1
sS'forex'
p4517
I6
sS'based'
p4518
I6
sS'producer'
p4519
I1
sS'tantamount'
p4520
I1
sS'tough'
p4521
I3
sS'enflaming'
p4522
I3
sS'hopeful'
p4523
I1
sS'jan'
p4524
I1
sS'bombings.he'
p4525
I1
sS'bombings'
p4526
I57
sS'50-year'
p4527
I1
sS'astra'
p4528
I3
sS'employee'
p4529
I1
sS'riding'
p4530
I1
sS'equally'
p4531
I3
sS'seasonality'
p4532
I1
sS'local'
p4533
I13
sS'state.washington'
p4534
I1
sS'achieve'
p4535
I8
sS'regularly'
p4536
I3
sS'30,456'
p4537
I1
sS'policy.netanyahu'
p4538
I1
sS'year.usda'
p4539
I1
sS'means'
p4540
I8
sS'crumbling'
p4541
I5
sS'succeeded'
p4542
I2
sS'massacre'
p4543
I1
sS'overall'
p4544
I4
sS'lucky'
p4545
I2
sS'bear'
p4546
I1
sS'transplanted'
p4547
I1
sS'joint'
p4548
I6
sS'thursday.in'
p4549
I1
sS'intelligence.hamas'
p4550
I1
sS'words'
p4551
I11
sS'gunbattles'
p4552
I1
sS'surveyed'
p4553
I2
sS'virus.maariv'
p4554
I1
sS'entity'
p4555
I3
sS'settlements.the'
p4556
I1
sS'personally.four'
p4557
I1
sS'areas'
p4558
I19
sS'smoke.israel'
p4559
I1
sS'symbols'
p4560
I1
sS'trucks'
p4561
I1
sS'course'
p4562
I4
sS'differential'
p4563
I2
sS'mohammed'
p4564
I13
sS'taxes'
p4565
I4
sS'calling'
p4566
I3
sS'influenced'
p4567
I2
sS'gush'
p4568
I3
sS'queries'
p4569
I2
sS'mercedes'
p4570
I1
sS"won't"
p4571
I9
sS'fixed'
p4572
I16
sS'radio.talk'
p4573
I1
sS'view'
p4574
I10
sS'spotted'
p4575
I3
sS'strengthened'
p4576
I2
sS'war.israel'
p4577
I1
sS'haimowitz.hapoel'
p4578
I1
sS'135'
p4579
I1
sS'prayers'
p4580
I2
sS'acquired'
p4581
I1
sS'sabbagh'
p4582
I1
sS'national'
p4583
I13
sS'jail.but'
p4584
I2
sS'shrouded'
p4585
I1
sS'reiterate'
p4586
I1
sS'reoccupation'
p4587
I1
sS'freeze'
p4588
I13
sS'spinoff'
p4589
I1
sS'officials'
p4590
I75
sS'odeser'
p4591
I3
sS'desperate'
p4592
I1
sS'converting'
p4593
I2
sS'operated'
p4594
I1
sS'backlash.prime'
p4595
I1
sS'overturn'
p4596
I4
sS'hamas.abu'
p4597
I4
sS'expects'
p4598
I1
sS'mood.the'
p4599
I1
sS'hardship'
p4600
I1
sS'closer'
p4601
I2
sS'phases'
p4602
I2
sS'error'
p4603
I2
sS'uncut'
p4604
I4
sS'121,758'
p4605
I1
sS'pace.imports'
p4606
I1
sS'extradite'
p4607
I17
sS'nightmare'
p4608
I2
sS'laureate'
p4609
I1
sS'forgiveness'
p4610
I1
sS'respsonsiblity'
p4611
I1
sS'rolled'
p4612
I2
sS'state'
p4613
I74
sS'phased'
p4614
I2
sS'closed'
p4615
I13
sS'flexibility.prime'
p4616
I2
sS'progress'
p4617
I29
sS'blocked'
p4618
I1
sS'frustrated'
p4619
I1
sS'sold'
p4620
I9
sS'bought'
p4621
I7
sS'posses'
p4622
I1
sS'ken'
p4623
I3
sS'latif'
p4624
I1
sS'explosive'
p4625
I4
sS'ability'
p4626
I3
sS'mockery'
p4627
I1
sS'opening'
p4628
I3
sS'plc.israel'
p4629
I3
sS'agencies'
p4630
I2
sS'butts'
p4631
I1
sS'casualties.israel'
p4632
I1
sS'job'
p4633
I6
sS'details.u.s'
p4634
I1
sS'key'
p4635
I1
sS'police'
p4636
I60
sS'swift'
p4637
I2
sS'products.the'
p4638
I1
sS'arrived.the'
p4639
I1
sS'policy.state'
p4640
I1
sS'restrictions'
p4641
I1
sS'limits'
p4642
I1
sS'joke'
p4643
I2
sS'taking'
p4644
I4
sS'equal'
p4645
I1
sS'minds'
p4646
I4
sS'shipment'
p4647
I1
sS'0.8'
p4648
I3
sS'april'
p4649
I11
sS'eta'
p4650
I1
sS'figures'
p4651
I17
sS'ami'
p4652
I5
sS'passing'
p4653
I10
sS'congress.bacon'
p4654
I1
sS'21-gun'
p4655
I1
sS'32.7'
p4656
I1
sS'grounds'
p4657
I3
sS'comment'
p4658
I6
sS'vent'
p4659
I1
sS'overseen'
p4660
I1
sS'unclear'
p4661
I3
sS'diplomats'
p4662
I3
sS'fatality'
p4663
I2
sS'negotiations.palestinians'
p4664
I2
sS'116,767net'
p4665
I1
sS'authorised'
p4666
I3
sS'tuesday'
p4667
I98
sS'speaker'
p4668
I1
sS'amounted'
p4669
I1
sS'kufr'
p4670
I2
sS'mohamad'
p4671
I1
sS'businessman'
p4672
I3
sS'dividend'
p4673
I4
sS'jimmy'
p4674
I1
sS'normalisation'
p4675
I4
sS'details.the'
p4676
I1
sS'earning'
p4677
I1
sS'aviv'
p4678
I69
sS'accomplishing'
p4679
I1
sS'8.4'
p4680
I1
sS'activists.backing'
p4681
I2
sS'8.6'
p4682
I1
sS'addition'
p4683
I5
sS'8.8'
p4684
I1
sS'thanked'
p4685
I1
sS'cent'
p4686
I1
sS'expressed'
p4687
I3
sS'reuters.later'
p4688
I1
sS'3,821,944pre-tax'
p4689
I1
sS'europeklia'
p4690
I1
sS'willing'
p4691
I4
sS'slowly'
p4692
I1
sS'agreements'
p4693
I8
sS'europejatay'
p4694
I1
sS'gaza'
p4695
I130
sS'indicators'
p4696
I3
sS'yoram'
p4697
I2
sS'said.settlers'
p4698
I1
sS'curtail'
p4699
I1
sS'ramallah'
p4700
I3
sS'contribute'
p4701
I3
sS'controlled'
p4702
I11
sS'received'
p4703
I4
sS'harshest'
p4704
I3
sS'post.communications'
p4705
I1
sS'10,184note'
p4706
I1
sS'prospects'
p4707
I2
sS'netanyahu'
p4708
I220
sS'sales'
p4709
I16
sS'guerrillas'
p4710
I5
sS'orchestrating'
p4711
I3
sS'finished'
p4712
I1
sS'zero'
p4713
I7
sS'tense'
p4714
I4
sS'deep'
p4715
I5
sS'decreased'
p4716
I1
sS'foreclose'
p4717
I1
sS'ins'
p4718
I5
sS'tanks'
p4719
I3
sS'present'
p4720
I5
sS'250.32'
p4721
I1
sS'homes'
p4722
I14
sS'58.7'
p4723
I1
sS'troubled'
p4724
I1
sS'laser'
p4725
I12
sS'abandoned'
p4726
I2
sS'crisis.hussein'
p4727
I1
sS'loophole'
p4728
I1
sS'restaurant'
p4729
I2
sS'horsecart'
p4730
I2
sS'divorce'
p4731
I1
sS'value'
p4732
I1
sS'250,000.for'
p4733
I1
sS'withdrawal'
p4734
I1
sS'salem'
p4735
I2
sS'pending'
p4736
I1
sS'depreciation'
p4737
I2
sS'madeleine'
p4738
I20
sS'brain'
p4739
I1
sS'backtrack'
p4740
I1
sS'husam'
p4741
I1
sS'hurt.palestinian'
p4742
I2
sS'uncertainty'
p4743
I1
sS'ringing'
p4744
I1
sS'ripe'
p4745
I1
sS'resident'
p4746
I7
sS'site'
p4747
I10
sS'helped'
p4748
I7
sS'bystanders'
p4749
I1
sS'excessively'
p4750
I1
sS'tampered'
p4751
I1
sS'optimistic'
p4752
I4
sS'swinging'
p4753
I1
sS'watched'
p4754
I1
sS'claimed'
p4755
I24
sS'partner'
p4756
I4
sS'arabic'
p4757
I2
sS'miracle'
p4758
I1
sS'finance'
p4759
I7
sS'point.netanyahu'
p4760
I3
sS'terrorist'
p4761
I13
sS'productivity'
p4762
I3
sS'gilon'
p4763
I3
sS'bomb.netanyahu'
p4764
I2
sS'newsroom'
p4765
I28
sS'said.arabs'
p4766
I1
sS'began'
p4767
I9
sS'views'
p4768
I6
sS'administration'
p4769
I17
sS'cross'
p4770
I2
sS'eric'
p4771
I1
sS'member'
p4772
I9
sS'unity'
p4773
I26
sS'process.netanyahu'
p4774
I1
sS'slammed'
p4775
I1
sS'digging'
p4776
I1
sS'largest'
p4777
I2
sS'shuttle'
p4778
I1
sS'party'
p4779
I22
sS'terrorism'
p4780
I53
sS'said.king'
p4781
I4
sS'solution'
p4782
I1
sS'yedioth'
p4783
I2
sS'years.globes'
p4784
I1
sS'difficult'
p4785
I8
sS'injured'
p4786
I7
sS'4.5'
p4787
I3
sS'tighten'
p4788
I3
sS'practice'
p4789
I4
sS'context'
p4790
I1
sS'absorb'
p4791
I3
sS'hamas.the'
p4792
I1
sS'jerusalem.israel'
p4793
I1
sS'time.in'
p4794
I1
sS'forecasts'
p4795
I3
sS'13,974'
p4796
I1
sS'courageously'
p4797
I1
sS'indyk'
p4798
I2
sS'hevra'
p4799
I1
sS'deadliest'
p4800
I1
sS'frequently'
p4801
I3
sS'lobby'
p4802
I1
sS'1990-92'
p4803
I1
sS'pull'
p4804
I1
sS'mordechai'
p4805
I27
sS'transaction'
p4806
I1
sS'extradited'
p4807
I6
sS'realises'
p4808
I1
sS'weapon'
p4809
I2
sS'obstacles'
p4810
I2
sS'said.it'
p4811
I1
sS'fighting'
p4812
I7
sS'gaza.one'
p4813
I1
sS'thought'
p4814
I5
sS'aviv.senior'
p4815
I1
sS'credibility'
p4816
I2
sS'position'
p4817
I7
sS'soviet'
p4818
I1
sS'conservative'
p4819
I4
sS'1.25'
p4820
I1
sS'latest'
p4821
I4
sS'restore'
p4822
I11
sS'coaster'
p4823
I3
sS'teacher'
p4824
I1
sS'cohen.albright'
p4825
I1
sS'heavily'
p4826
I4
sS'increasingly'
p4827
I6
sS'percent'
p4828
I141
sS'8,501evandros.k'
p4829
I1
sS'executive'
p4830
I1
sS'domestic'
p4831
I17
sS'peacemaking.clinton'
p4832
I1
sS'indicative'
p4833
I1
sS'sources'
p4834
I41
sS'interim'
p4835
I11
sS'voting'
p4836
I1
sS'1997/98'
p4837
I1
sS'rest'
p4838
I14
sS'coordination'
p4839
I1
sS'cards.such'
p4840
I1
sS'i.b.i'
p4841
I1
sS'rapid'
p4842
I3
sS'europeomsky'
p4843
I1
sS'entire'
p4844
I6
sS'headed'
p4845
I1
sS'humphrey'
p4846
I1
sS'deposits'
p4847
I4
sS'recommending'
p4848
I1
sS'day'
p4849
I38
sS'arresting'
p4850
I2
sS'arrest'
p4851
I5
sS'2.8'
p4852
I3
sS'104.89'
p4853
I1
sS'attractive'
p4854
I2
sS'crack'
p4855
I8
sS'adherence'
p4856
I2
sS'hurry'
p4857
I1
sS'smart'
p4858
I1
sS'ski'
p4859
I4
sS'ravel'
p4860
I1
sS'match'
p4861
I8
sS'gmt'
p4862
I8
sS'resolved'
p4863
I1
sS'f-16s'
p4864
I1
sS'education'
p4865
I2
sS'increased'
p4866
I9
sS'fate'
p4867
I2
sS'government'
p4868
I106
sS'checking'
p4869
I11
sS'neds'
p4870
I1
sS'protesters'
p4871
I14
sS'falters'
p4872
I1
sS'assert'
p4873
I1
sS'increases'
p4874
I1
sS'260'
p4875
I1
sS'know'
p4876
I7
sS'incidents.the'
p4877
I1
sS'press'
p4878
I3
sS'immediately'
p4879
I6
sS'mahathir'
p4880
I2
sS'hauling'
p4881
I1
sS'cell'
p4882
I2
sS'loss'
p4883
I9
sS'wing.the'
p4884
I1
sS'necessary'
p4885
I11
sS'like'
p4886
I14
sS'success'
p4887
I5
sS'hebron.he'
p4888
I1
sS'ring'
p4889
I1
sS'perpetual'
p4890
I2
sS'accelerating'
p4891
I4
sS'sides.egypt'
p4892
I2
sS'24.4'
p4893
I1
sS'exhausted'
p4894
I1
sS'traders'
p4895
I6
sS'24'
p4896
I2
sS'payments'
p4897
I1
sS'surgery'
p4898
I5
sS'martin'
p4899
I2
sS'violence.abu'
p4900
I3
sS'soft'
p4901
I4
sS'replacement'
p4902
I1
sS'exisiting'
p4903
I1
sS'representation'
p4904
I1
sS'propel'
p4905
I3
sS'foreseeable'
p4906
I2
sS'3.6587'
p4907
I1
sS'phenomena'
p4908
I1
sS'process.king'
p4909
I1
sS'authority'
p4910
I63
sS'certain'
p4911
I5
sS'growth'
p4912
I15
sS'export'
p4913
I4
sS'debating'
p4914
I1
sS'recommendation'
p4915
I2
sS'darom'
p4916
I28
sS'home'
p4917
I12
sS'little'
p4918
I4
sS'supportive'
p4919
I1
sS'employment'
p4920
I1
sS'homa'
p4921
I30
sS'recognition'
p4922
I1
sS'minnesota.king'
p4923
I1
sS'granted.the'
p4924
I1
sS'organisational'
p4925
I1
sS'focused'
p4926
I1
sS'congress'
p4927
I4
sS'lead'
p4928
I7
sS'naturalisation'
p4929
I5
sS'broad'
p4930
I7
sS'avoid'
p4931
I11
sS'tech.the'
p4932
I1
sS'said.borrowers'
p4933
I2
sS'demonstrators'
p4934
I4
sS'marched'
p4935
I2
sS'does'
p4936
I7
sS'3,540'
p4937
I1
sS'leader'
p4938
I69
sS'demonstrated'
p4939
I1
sS'constructing'
p4940
I1
sS'jordan.israel'
p4941
I1
sS'ripped'
p4942
I5
sS'blowing'
p4943
I4
sS'coated'
p4944
I3
sS'slight'
p4945
I1
sS'say.they'
p4946
I1
sS'week.jewish'
p4947
I1
sS'brokering'
p4948
I1
sS'analysed'
p4949
I2
sS'happening'
p4950
I1
sS'pressure'
p4951
I22
sS'decade.the'
p4952
I1
sS'jumpsuit.asked'
p4953
I3
sS'mount'
p4954
I1
sS'them.israeli'
p4955
I1
sS'offset'
p4956
I4
sS'includes'
p4957
I2
sS'loans'
p4958
I7
sS'periodically'
p4959
I1
sS'swept'
p4960
I1
sS'stage'
p4961
I9
sS'gained'
p4962
I5
sS'4.83'
p4963
I1
sS'situation.palestinians'
p4964
I1
sS'carried'
p4965
I10
sS'egypt.enron'
p4966
I1
sS'freedom'
p4967
I1
sS'withdrew'
p4968
I1
sS'said.leon'
p4969
I2
sS'urged'
p4970
I8
sS'surge'
p4971
I2
sS'zalikha'
p4972
I1
sS'holdings'
p4973
I3
sS'fear'
p4974
I5
sS'statement'
p4975
I18
sS'jawboning'
p4976
I2
sS'insufficient'
p4977
I2
sS'concession'
p4978
I1
sS'1,083,613provisionoperating'
p4979
I1
sS'software'
p4980
I1
sS'strewn'
p4981
I1
sS'bed'
p4982
I1
sS'faltering'
p4983
I1
sS'negotiations.after'
p4984
I2
sS'tourists'
p4985
I2
sS'cohen.bacon'
p4986
I1
sS'washington'
p4987
I93
sS'commitment'
p4988
I10
sS'bended'
p4989
I1
sS'getting'
p4990
I2
sS'soaks'
p4991
I2
sS'ultrasound'
p4992
I2
sS'guard'
p4993
I3
sS'militiaman'
p4994
I2
sS'promise'
p4995
I1
sS'jerusalem.when'
p4996
I2
sS'hoteliers'
p4997
I1
sS'registration'
p4998
I1
sS'managing'
p4999
I11
sS'said.burns'
p5000
I3
sS'honouring'
p5001
I2
sS'prompted'
p5002
I5
sS'cradling'
p5003
I1
sS'maize'
p5004
I3
sS'1985'
p5005
I1
sS'accused'
p5006
I17
sS'additional'
p5007
I4
sS'rushed'
p5008
I1
sS'transfer'
p5009
I5
sS'housing'
p5010
I15
sS'reduction'
p5011
I1
sS'1988'
p5012
I1
sS'awarded'
p5013
I2
sS'livnat'
p5014
I3
sS'uniting'
p5015
I1
sS'recognised'
p5016
I1
sS'slovakia'
p5017
I1
sS'frustration'
p5018
I3
sS'biggest'
p5019
I10
sS'timed'
p5020
I1
sS'companies.the'
p5021
I1
sS'9.0'
p5022
I1
sS'9.1'
p5023
I1
sS'13,567'
p5024
I1
sS'naturally'
p5025
I1
sS'stopping'
p5026
I3
sS'cricket'
p5027
I5
sS'buy'
p5028
I10
sS'north'
p5029
I9
sS'triggered'
p5030
I2
sS'1993.they'
p5031
I1
sS'aircraft'
p5032
I2
sS'bus'
p5033
I24
sS'562'
p5034
I1
sS'miraculously'
p5035
I2
sS'yassser'
p5036
I1
sS'bacteria'
p5037
I1
sS'blaming'
p5038
I2
sS'volume'
p5039
I13
sS'said.the'
p5040
I23
sS'repeated'
p5041
I2
sS'construction'
p5042
I22
sS'bun'
p5043
I1
sS'gain'
p5044
I2
sS'courts'
p5045
I1
sS'gail'
p5046
I2
sS'beat'
p5047
I2
sS'violence.he'
p5048
I2
sS'anonymous'
p5049
I7
sS'strident'
p5050
I1
sS'witness'
p5051
I8
sS'assets'
p5052
I2
sS'jews.a'
p5053
I1
sS'leumi'
p5054
I3
sS'8/4'
p5055
I1
sS'europebaltisky'
p5056
I1
sS'itim'
p5057
I1
sS'places'
p5058
I6
sS'avi'
p5059
I2
sS'march.dealers'
p5060
I2
sS'official'
p5061
I44
sS'signed'
p5062
I14
sS'jabal'
p5063
I15
sS'record'
p5064
I4
sS'converted'
p5065
I1
sS'stories'
p5066
I8
sS'ruling'
p5067
I8
sS'demonstrate'
p5068
I1
sS'problem'
p5069
I14
sS'piece'
p5070
I1
sS'minutes'
p5071
I7
sS'strengthens'
p5072
I1
sS'1,600'
p5073
I1
sS'catch'
p5074
I1
sS'saeb'
p5075
I3
sS'broadly'
p5076
I2
sS'thursday.they'
p5077
I1
sS'bank.mordechai'
p5078
I2
sS'deaths'
p5079
I2
sS'this.palestinians'
p5080
I1
sS'reservations'
p5081
I1
sS'measure'
p5082
I1
sS'process.he'
p5083
I3
sS'meaningless'
p5084
I1
sS'slowing'
p5085
I3
sS'meridor'
p5086
I9
sS'resumption'
p5087
I5
sS'state.they'
p5088
I1
sS'u.s.liberty'
p5089
I1
sS'reflecting'
p5090
I2
sS'shooting'
p5091
I4
sS'proceeds'
p5092
I4
sS'jibril'
p5093
I1
sS'deeper'
p5094
I1
sS'courage'
p5095
I4
sS'markets.in'
p5096
I1
sS'mutual'
p5097
I3
sS'compared'
p5098
I6
sS'48'
p5099
I1
sS'ingredients'
p5100
I1
sS'flotation'
p5101
I3
sS'dressed'
p5102
I8
sS'45'
p5103
I3
sS'claiming'
p5104
I3
sS'43'
p5105
I1
sS'promote'
p5106
I4
sS'lately'
p5107
I1
sS'jeeps'
p5108
I2
sS'balah'
p5109
I5
sS'compares'
p5110
I1
sS'sandy'
p5111
I2
sS'branch'
p5112
I5
sS'him.mousa'
p5113
I2
sS'2-1/2'
p5114
I1
sS'arabic.arafat'
p5115
I1
sS'crossings.a'
p5116
I1
sS'meretz'
p5117
I1
sS'recession'
p5118
I1
sS'monday'
p5119
I47
sS'class'
p5120
I1
sS'children.jihad'
p5121
I5
sS'june'
p5122
I5
sS'ultimately'
p5123
I1
sS'monday.in'
p5124
I1
sS'stay'
p5125
I4
sS'sure'
p5126
I2
sS'america'
p5127
I1
sS'arbiter'
p5128
I2
sS'jabalya'
p5129
I1
sS'tonnes'
p5130
I5
sS'habash'
p5131
I3
sS'4.25'
p5132
I1
sS'stitch'
p5133
I1
sS'10/4'
p5134
I1
sS'bullish'
p5135
I1
sS'28.israel'
p5136
I1
sS'ambulance'
p5137
I3
sS'starting'
p5138
I6
sS'baker'
p5139
I3
sS'responsibility.arafat'
p5140
I2
sS'rule'
p5141
I15
sS'vehicles'
p5142
I1
sS'accuracy.haaretz'
p5143
I1
sS'election.but'
p5144
I1
sS'shekels.shareholders'
p5145
I1
sS'status'
p5146
I19
sS'day.in'
p5147
I1
sS'rural'
p5148
I4
sS'share.further'
p5149
I1
sS'syndicate.anbar'
p5150
I1
s.