(dp0
S'limited'
p1
I4
sS'goals.teams'
p2
I1
sS'brindisi'
p3
I1
sS'newsdesk'
p4
I1
sS'altafini'
p5
I1
sS'fault.after'
p6
I1
sS'believed'
p7
I2
sS'consolidated'
p8
I17
sS'24mo'
p9
I1
sS'demand'
p10
I3
sS'desirable'
p11
I1
sS'foul'
p12
I4
sS'7-year'
p13
I2
sS'monorchio'
p14
I7
sS'protest'
p15
I2
sS'7.17'
p16
I1
sS'0830'
p17
I1
sS'controversial'
p18
I5
sS'francesco'
p19
I5
sS'undersecretary'
p20
I1
sS'captain'
p21
I6
sS'saved'
p22
I1
sS'coachseven'
p23
I1
sS'pack'
p24
I1
sS'forget'
p25
I1
sS'increase'
p26
I9
sS'votes'
p27
I1
sS'1.15'
p28
I2
sS'founder'
p29
I2
sS'paris'
p30
I1
sS'bureaucrats'
p31
I1
sS'riccardo'
p32
I1
sS'demand.the'
p33
I1
sS'pensions'
p34
I18
sS'unanswered'
p35
I2
sS'1.19'
p36
I1
sS'supported'
p37
I1
sS'plaguing'
p38
I1
sS'voted'
p39
I3
sS'buyer'
p40
I2
sS'7.68'
p41
I1
sS'featuring'
p42
I1
sS'worth'
p43
I2
sS'andreatta'
p44
I1
sS'sinking'
p45
I2
sS'applied'
p46
I2
sS'lure'
p47
I1
sS'legislators'
p48
I1
sS'chorzow'
p49
I1
sS'22-year'
p50
I2
sS'driss'
p51
I1
sS'7.18'
p52
I2
sS'rise'
p53
I19
sS'12-24'
p54
I1
sS'salesman.the'
p55
I1
sS'aeroporti'
p56
I1
sS'slovenians'
p57
I1
sS'reforms'
p58
I8
sS'bringing'
p59
I5
sS'missionary'
p60
I1
sS'chapel'
p61
I3
sS'36.8'
p62
I1
sS'2,366'
p63
I1
sS"we'll"
p64
I3
sS'38th'
p65
I1
sS'prize'
p66
I3
sS'nottingham'
p67
I1
sS'11,467'
p68
I1
sS'companies'
p69
I11
sS'wednesday'
p70
I25
sS'correct'
p71
I1
sS'solid'
p72
I1
sS'replied'
p73
I2
sS'red'
p74
I3
sS'employees'
p75
I1
sS'8,393'
p76
I2
sS'ustica'
p77
I3
sS'1940s'
p78
I1
sS'heading'
p79
I1
sS'croatian'
p80
I1
sS'force'
p81
I11
sS'vladimir'
p82
I1
sS'preached'
p83
I1
sS'tired'
p84
I3
sS'capitalisation'
p85
I3
sS'175,000'
p86
I1
sS'estimates'
p87
I2
sS'goretti'
p88
I1
sS'budget'
p89
I38
sS'aeriel'
p90
I1
sS'talks'
p91
I8
sS'second'
p92
I39
sS'street'
p93
I4
sS'coveted'
p94
I1
sS'estimated'
p95
I4
sS'phoned'
p96
I1
sS'blue'
p97
I5
sS'established'
p98
I5
sS'errors'
p99
I2
sS'pace'
p100
I3
sS'religious'
p101
I1
sS'ulihrach'
p102
I1
sS'beaten'
p103
I7
sS'giampiero'
p104
I2
sS'profitability'
p105
I3
sS'asia'
p106
I2
sS'launch'
p107
I1
sS'victims'
p108
I5
sS'lights'
p109
I1
sS'pawel'
p110
I5
sS'hefty'
p111
I2
sS'new'
p112
I31
sS'net'
p113
I58
sS'increasing'
p114
I4
sS'officially'
p115
I1
sS'succumb'
p116
I1
sS'reviving'
p117
I1
sS'told'
p118
I19
sS'sigeco'
p119
I1
sS'11.3total'
p120
I1
sS'14.the'
p121
I1
sS'receivables'
p122
I2
sS'expatriates'
p123
I1
sS'incentives'
p124
I2
sS'men'
p125
I10
sS'equals'
p126
I1
sS'1997.the'
p127
I1
sS'176,333'
p128
I1
sS'reported'
p129
I16
sS'fairly'
p130
I4
sS'possibility'
p131
I2
sS'diversified'
p132
I1
sS'humility'
p133
I1
sS'12th-ranked'
p134
I1
sS'agents.agostino'
p135
I2
sS'100'
p136
I6
sS'quite'
p137
I1
sS'tirana'
p138
I1
sS'104'
p139
I1
sS'obtained'
p140
I1
sS'443.8'
p141
I2
sS'investors.eni'
p142
I1
sS'kudos'
p143
I1
sS'industrialties'
p144
I1
sS'forum'
p145
I1
sS'0.38'
p146
I1
sS'auction'
p147
I3
sS'said.under'
p148
I3
sS'study'
p149
I5
sS'changed'
p150
I2
sS'0.32'
p151
I1
sS'reports'
p152
I7
sS'controversy'
p153
I1
sS'3,785'
p154
I1
sS'electricity'
p155
I1
sS"i'd"
p156
I3
sS'kidd'
p157
I1
sS'omar'
p158
I7
sS'stressed'
p159
I1
sS'9-andrzej'
p160
I2
sS'studi'
p161
I1
sS'postponed'
p162
I2
sS'moldova.poland'
p163
I1
sS'punishment'
p164
I1
sS'deschamps.zinedine'
p165
I1
sS'mediastet'
p166
I1
sS'criticism'
p167
I3
sS'reckoned'
p168
I1
sS'secure'
p169
I4
sS'campaign'
p170
I3
sS'zielinski'
p171
I4
sS'explained'
p172
I1
sS'treatment'
p173
I2
sS'highly'
p174
I3
sS'brought'
p175
I5
sS'visible'
p176
I2
sS'marchetti'
p177
I2
sS'opportunities'
p178
I1
sS'drowned'
p179
I1
sS'vialli'
p180
I1
sS'support'
p181
I12
sS'total'
p182
I10
sS'unit'
p183
I9
sS'opponents'
p184
I2
sS'1,262.1'
p185
I1
sS'spoke'
p186
I1
sS'spaniards'
p187
I3
sS'century'
p188
I2
sS'ally'
p189
I3
sS'negative'
p190
I4
sS'insult'
p191
I1
sS'italia.state'
p192
I1
sS'calm'
p193
I1
sS'unfortunately'
p194
I1
sS'strike'
p195
I1
sS'survive'
p196
I1
sS'italy.even'
p197
I1
sS'assessment'
p198
I1
sS'turin'
p199
I12
sS'expiring'
p200
I1
sS'garcia.garcia'
p201
I1
sS'unerringly'
p202
I1
sS'end-1995.mediolanum'
p203
I1
sS'giopp'
p204
I3
sS'holy'
p205
I1
sS'wary'
p206
I1
sS'playoff.six'
p207
I1
sS'oscar'
p208
I2
sS'germany.both'
p209
I1
sS'wars'
p210
I1
sS'aware'
p211
I1
sS'grief'
p212
I1
sS'phone'
p213
I7
sS'gmt.prime'
p214
I1
sS'excellent'
p215
I1
sS'90'
p216
I3
sS'hole'
p217
I3
sS'hold'
p218
I5
sS'moskwa'
p219
I1
sS'97'
p220
I7
sS'96'
p221
I6
sS'1991'
p222
I4
sS'1990'
p223
I6
sS'piero'
p224
I9
sS'9-2'
p225
I2
sS'1995'
p226
I41
sS'1994'
p227
I8
sS'1997'
p228
I59
sS'player'
p229
I20
sS'1999'
p230
I6
sS'1998'
p231
I20
sS'work'
p232
I3
sS'plunged'
p233
I1
sS'impromptu'
p234
I1
sS'milan.paolo'
p235
I1
sS'outscore'
p236
I1
sS'industria'
p237
I1
sS'company.some'
p238
I1
sS'percent.globally'
p239
I1
sS'exceptions'
p240
I1
sS'erm'
p241
I1
sS'revenues'
p242
I4
sS'salvage'
p243
I1
sS'example'
p244
I1
sS'initial'
p245
I2
sS'merchant'
p246
I2
sS'credito'
p247
I3
sS'2.87'
p248
I2
sS'finalists'
p249
I2
sS'fresher'
p250
I1
sS'unjust'
p251
I2
sS'force.refoundation'
p252
I1
sS'india'
p253
I1
sS'meazza'
p254
I1
sS'currency'
p255
I8
sS'392-66102321'
p256
I4
sS'73.00deutsche'
p257
I1
sS'want'
p258
I8
sS'campaigning'
p259
I1
sS'times'
p260
I13
sS'wasmilan'
p261
I1
sS'returned'
p262
I4
sS'poorly'
p263
I1
sS'autonomy'
p264
I1
sS'85.35'
p265
I1
sS'end'
p266
I25
sS'recovery'
p267
I3
sS'17,541'
p268
I1
sS'provide'
p269
I3
sS'eni'
p270
I17
sS'travel'
p271
I1
sS'puzzled'
p272
I1
sS'finalist'
p273
I3
sS'damage'
p274
I1
sS'faults'
p275
I1
sS'match.camporese'
p276
I1
sS'answer'
p277
I2
sS'ordinary'
p278
I8
sS'piotr'
p279
I2
sS'resignation'
p280
I1
sS'15.under'
p281
I2
sS'gordon'
p282
I3
sS'11.5-12.0'
p283
I1
sS'regional'
p284
I1
sS'supplied'
p285
I1
sS'minority'
p286
I5
sS'replacing'
p287
I1
sS'francis'
p288
I1
sS'earlier'
p289
I15
sS'memorial'
p290
I1
sS'stefano'
p291
I4
sS'sentiment.among'
p292
I1
sS'considers'
p293
I1
sS'mph'
p294
I1
sS'involvement'
p295
I2
sS'million.the'
p296
I1
sS'president'
p297
I5
sS'gianfranco'
p298
I2
sS'law'
p299
I11
sS'ascenbis'
p300
I1
sS'zaire'
p301
I1
sS'livolsi'
p302
I8
sS'purchase'
p303
I3
sS'season.but'
p304
I1
sS'effective'
p305
I2
sS'occasions'
p306
I1
sS'amid'
p307
I1
sS'centro'
p308
I1
sS'41st'
p309
I2
sS'headquarters'
p310
I1
sS'presiding'
p311
I2
sS'executions.countries'
p312
I1
sS'maintain'
p313
I2
sS'green'
p314
I5
sS'south'
p315
I7
sS'enter'
p316
I3
sS'alleanza'
p317
I1
sS'credits'
p318
I1
sS'democratic'
p319
I1
sS'order'
p320
I8
sS'of.for'
p321
I1
sS'calcio'
p322
I1
sS'operations'
p323
I5
sS'112.2'
p324
I2
sS'foresaw'
p325
I2
sS'executed'
p326
I1
sS'10-piotr'
p327
I2
sS'office'
p328
I1
sS'said.she'
p329
I1
sS'telecom'
p330
I30
sS'defenders'
p331
I1
sS'forwarders'
p332
I1
sS'natuzzi'
p333
I2
sS'2,675'
p334
I1
sS'6.7'
p335
I1
sS'12.2'
p336
I1
sS'benefited'
p337
I3
sS'london'
p338
I6
sS'12.6'
p339
I1
sS'12.5'
p340
I3
sS'japan'
p341
I2
sS'2,475'
p342
I1
sS'4,010bkk'
p343
I1
sS'scoring'
p344
I10
sS'10.0'
p345
I2
sS'10.3'
p346
I1
sS'austerity'
p347
I1
sS'10.5'
p348
I3
sS'10.4'
p349
I2
sS'fit'
p350
I2
sS'personal'
p351
I2
sS'rankings'
p352
I1
sS'fix'
p353
I1
sS'revenue'
p354
I6
sS'expectations'
p355
I8
sS'technology.but'
p356
I1
sS'destroyed'
p357
I1
sS'10.2'
p358
I1
sS'production'
p359
I8
sS'16.3'
p360
I1
sS'differently'
p361
I1
sS'16.1'
p362
I1
sS'400'
p363
I2
sS'croquet'
p364
I1
sS'percent.share'
p365
I1
sS'weeks'
p366
I2
sS'easier'
p367
I3
sS'overcome'
p368
I1
sS'damages'
p369
I1
sS'versus'
p370
I1
sS'542-7706'
p371
I1
sS'belarus'
p372
I1
sS'affected'
p373
I2
sS'unfancied'
p374
I1
sS'prevented'
p375
I1
sS'weakness'
p376
I2
sS'traces'
p377
I2
sS'school'
p378
I1
sS'finish'
p379
I1
sS'break'
p380
I14
sS'nobel'
p381
I1
sS'diseased'
p382
I1
sS'77-61'
p383
I1
sS'land.milan'
p384
I1
sS'effects'
p385
I3
sS'58,544'
p386
I1
sS'killed'
p387
I1
sS'qualify'
p388
I3
sS'bank'
p389
I22
sS'structural'
p390
I6
sS'drive.with'
p391
I1
sS'represents'
p392
I3
sS'remaining'
p393
I1
sS'netherlands'
p394
I1
sS'share.mediolanum'
p395
I1
sS'1.04'
p396
I2
sS'notified'
p397
I1
sS'year.juskowiak'
p398
I1
sS'debut'
p399
I6
sS'willing'
p400
I1
sS'l'
p401
I3
sS'vierchowod'
p402
I11
sS'blamed'
p403
I1
sS'alen'
p404
I5
sS'well.paolo'
p405
I1
sS'victory'
p406
I13
sS'definitive'
p407
I1
sS'gronchi'
p408
I1
sS'7.94'
p409
I1
sS'went'
p410
I3
sS'4-4-2'
p411
I2
sS'carlos'
p412
I8
sS'mean'
p413
I1
sS'consolidate'
p414
I3
sS'lifted'
p415
I1
sS'schemes'
p416
I1
sS'financial'
p417
I16
sS'suspended'
p418
I9
sS'77.00prometeia'
p419
I1
sS'meets'
p420
I1
sS'series'
p421
I2
sS'burns.they'
p422
I1
sS'playmaker'
p423
I2
sS'392'
p424
I31
sS'milan'
p425
I144
sS'bonal'
p426
I2
sS'trading'
p427
I8
sS'396'
p428
I11
sS'2,500'
p429
I2
sS'defences'
p430
I1
sS'15.00'
p431
I1
sS'saturday'
p432
I10
sS'stabilised'
p433
I1
sS'scoreless'
p434
I1
sS'network'
p435
I3
sS'gullit.juventus'
p436
I1
sS'tried'
p437
I3
sS'crucial'
p438
I2
sS'854,633'
p439
I1
sS'vessels'
p440
I2
sS'george'
p441
I5
sS'content'
p442
I3
sS'daniel'
p443
I1
sS'adapt'
p444
I1
sS'tassotti'
p445
I2
sS'medicine'
p446
I1
sS'got'
p447
I7
sS'newly'
p448
I3
sS'millions'
p449
I1
sS'independence'
p450
I1
sS'azzouz'
p451
I1
sS'defence.although'
p452
I1
sS'market.the'
p453
I1
sS'30-year'
p454
I1
sS'turning'
p455
I2
sS'6-1.australia'
p456
I1
sS'barrier'
p457
I1
sS'resume'
p458
I1
sS'outperformed'
p459
I1
sS'threatened'
p460
I1
sS'given'
p461
I11
sS'free'
p462
I14
sS'standard'
p463
I2
sS'245'
p464
I1
sS'management'
p465
I2
sS'formation'
p466
I1
sS'240'
p467
I1
sS'boosting'
p468
I2
sS'argentina.but'
p469
I1
sS'estimate'
p470
I1
sS'wanted'
p471
I8
sS'munich'
p472
I1
sS'abolishing'
p473
I1
sS'3.90'
p474
I1
sS'enormous'
p475
I2
sS'recovering'
p476
I4
sS'increase.the'
p477
I1
sS'starts'
p478
I1
sS'refugee'
p479
I2
sS'brakes'
p480
I1
sS'conceding'
p481
I1
sS'11595'
p482
I1
sS'ministries'
p483
I1
sS'flown'
p484
I3
sS'oppose'
p485
I1
sS'incorporated'
p486
I1
sS'unknown'
p487
I1
sS'corrections'
p488
I1
sS'uses'
p489
I1
sS'clothes'
p490
I1
sS'94.683'
p491
I1
sS'defending'
p492
I1
sS'vaxjo'
p493
I1
sS'uruguayan'
p494
I3
sS'industrial'
p495
I9
sS'daunting'
p496
I1
sS'kim'
p497
I2
sS'economists'
p498
I3
sS'3.19'
p499
I4
sS'dailies'
p500
I2
sS'court.generali'
p501
I1
sS'ecuador'
p502
I1
sS'primary'
p503
I1
sS'juventusboss'
p504
I1
sS'channels'
p505
I2
sS'agro'
p506
I1
sS'floors'
p507
I1
sS'shareholding'
p508
I1
sS'albacom'
p509
I8
sS'immensely'
p510
I1
sS'plastic'
p511
I1
sS'171'
p512
I4
sS'170'
p513
I3
sS'rated'
p514
I1
sS'sicurta'
p515
I2
sS'reciprocal'
p516
I1
sS'service'
p517
I9
sS'opportunity'
p518
I1
sS'continuing'
p519
I2
sS'lira.the'
p520
I1
sS'0.07'
p521
I1
sS'tot'
p522
I1
sS'0.05'
p523
I2
sS'3.10'
p524
I1
sS'confirming'
p525
I1
sS'rates'
p526
I16
sS'listed'
p527
I1
sS'1,217.8note'
p528
I1
sS'phones'
p529
I1
sS'defeat'
p530
I6
sS'starch'
p531
I3
sS'john'
p532
I3
sS'mainstay'
p533
I1
sS'damaging'
p534
I1
sS'thing.between'
p535
I1
sS'ceiling'
p536
I2
sS'asset'
p537
I1
sS'geneva'
p538
I1
sS'mechanism'
p539
I1
sS'eni3'
p540
I1
sS'consob'
p541
I5
sS'akhlaq'
p542
I1
sS'serve'
p543
I2
sS'took'
p544
I14
sS'fault.the'
p545
I2
sS'direct'
p546
I1
sS'atalanta'
p547
I2
sS'nominal'
p548
I2
sS'conceded'
p549
I2
sS'wasted'
p550
I3
sS'shortly'
p551
I2
sS'healed'
p552
I1
sS'white'
p553
I4
sS'delle'
p554
I1
sS'sacchirecord'
p555
I1
sS'target'
p556
I8
sS'showed'
p557
I17
sS'mercato'
p558
I1
sS'hike'
p559
I1
sS'15.7'
p560
I2
sS'matteo'
p561
I5
sS'likely'
p562
I15
sS'1,000th'
p563
I4
sS'project'
p564
I2
sS'1977'
p565
I3
sS'444record'
p566
I1
sS'4-pawel'
p567
I2
sS'infostrada'
p568
I8
sS'iron'
p569
I1
sS'presta'
p570
I1
sS"dell'immacolata"
p571
I1
sS'them.the'
p572
I2
sS'feeling'
p573
I1
sS'treu'
p574
I1
sS'tabarez'
p575
I1
sS'acquisition'
p576
I5
sS'perspective'
p577
I1
sS'2-2'
p578
I1
sS'sees'
p579
I1
sS'lawyer'
p580
I1
sS'willingness'
p581
I1
sS'ran'
p582
I1
sS'128.1'
p583
I1
sS'30.1'
p584
I2
sS'tuttosport'
p585
I1
sS'mining'
p586
I1
sS'tuesday.they'
p587
I1
sS'talking'
p588
I2
sS'7.48'
p589
I2
sS'analysis'
p590
I2
sS'reported.it'
p591
I1
sS'break.moya'
p592
I2
sS'sounding'
p593
I2
sS'strengthening'
p594
I2
sS'giovanni'
p595
I4
sS'forced'
p596
I2
sS'abroad'
p597
I1
sS'strength'
p598
I2
sS'1968'
p599
I1
sS'1969'
p600
I1
sS'4,500'
p601
I1
sS'991.25/1.65'
p602
I1
sS'1967'
p603
I1
sS'1960'
p604
I1
sS'isolated'
p605
I4
sS'1962'
p606
I1
sS'3,450'
p607
I1
sS'sound'
p608
I1
sS'recommended'
p609
I1
sS'1995ground'
p610
I1
sS'luxury'
p611
I3
sS'forces'
p612
I1
sS'14-5'
p613
I1
sS'effectiveness'
p614
I1
sS'mediaset'
p615
I29
sS'auditor'
p616
I4
sS'shipments'
p617
I1
sS'razzaq'
p618
I1
sS'optimistic'
p619
I1
sS'juventus'
p620
I58
sS'transactions'
p621
I4
sS'1959,1965'
p622
I1
sS'centres'
p623
I1
sS'philosophy'
p624
I1
sS'64th'
p625
I2
sS'released.the'
p626
I1
sS'year.olivetti'
p627
I1
sS'mario'
p628
I1
sS'panathinaikos'
p629
I2
sS'germany'
p630
I3
sS'letter'
p631
I3
sS'commanding'
p632
I2
sS'phase'
p633
I1
sS'contain'
p634
I2
sS'teller'
p635
I1
sS'elements'
p636
I1
sS'42wins'
p637
I1
sS'special'
p638
I11
sS'hides'
p639
I1
sS'antitrust'
p640
I1
sS'medical'
p641
I2
sS'devastating'
p642
I1
sS'm'
p643
I2
sS'roma.ciro'
p644
I1
sS'lira.but'
p645
I1
sS'competitors'
p646
I2
sS'points'
p647
I31
sS'tech'
p648
I2
sS'framework'
p649
I2
sS'thrilling'
p650
I1
sS'voting'
p651
I2
sS'consumer'
p652
I1
sS'dow'
p653
I2
sS'came'
p654
I11
sS'treasuries'
p655
I2
sS'said.another'
p656
I1
sS'inspire'
p657
I1
sS'pope'
p658
I1
sS'charge.pretax'
p659
I1
sS'78.7'
p660
I1
sS'meetings'
p661
I2
sS'retire'
p662
I5
sS'ending'
p663
I4
sS'7.0'
p664
I1
sS'7.1'
p665
I1
sS'radio'
p666
I2
sS'solutions'
p667
I1
sS'7.4'
p668
I1
sS'7,320'
p669
I1
sS'lire.tognoli'
p670
I1
sS'enjoyed'
p671
I2
sS'honourability'
p672
I3
sS'publicly'
p673
I1
sS'spokesman'
p674
I10
sS'1545'
p675
I2
sS'proposed'
p676
I3
sS'advanced'
p677
I1
sS'pastinclude'
p678
I1
sS'situations'
p679
I2
sS'clock.it'
p680
I1
sS'542'
p681
I4
sS'bush'
p682
I1
sS'carboni'
p683
I1
sS'touched'
p684
I3
sS'201.9'
p685
I1
sS'accidentally'
p686
I2
sS'month.that'
p687
I1
sS'berth'
p688
I1
sS'wearing'
p689
I1
sS'di'
p690
I20
sS'telephones'
p691
I1
sS'watch'
p692
I1
sS'13'
p693
I11
sS'offer.demand'
p694
I1
sS'despite'
p695
I7
sS'report'
p696
I12
sS'12-1'
p697
I5
sS'4.4'
p698
I1
sS'bat'
p699
I1
sS'ina'
p700
I1
sS'countries'
p701
I17
sS'convinced'
p702
I4
sS'fields'
p703
I2
sS'accordance'
p704
I1
sS'suggested'
p705
I2
sS'dupont'
p706
I1
sS'emu'
p707
I3
sS'twice'
p708
I3
sS'16-1'
p709
I1
sS'crashed'
p710
I5
sS'shots'
p711
I1
sS'rival'
p712
I2
sS'release'
p713
I1
sS'adriatic'
p714
I1
sS'automatic'
p715
I1
sS'steam'
p716
I2
sS'7-piotr'
p717
I2
sS'headed'
p718
I4
sS'shrs'
p719
I1
sS'18yul/yyz'
p720
I1
sS'decider'
p721
I2
sS'timeframe'
p722
I2
sS'habit'
p723
I1
sS'74,530'
p724
I1
sS'caboto'
p725
I2
sS'transferred'
p726
I3
sS'facts'
p727
I3
sS'depends'
p728
I2
sS'decided'
p729
I3
sS'divestment'
p730
I2
sS'result'
p731
I10
sS'wait'
p732
I1
sS'vented'
p733
I2
sS'best'
p734
I14
sS'brazil'
p735
I2
sS'said'
p736
I299
sS'capacity'
p737
I3
sS'containing'
p738
I1
sS'statement.the'
p739
I1
sS'consistency'
p740
I1
sS'lots'
p741
I4
sS'pointer.the'
p742
I1
sS'away'
p743
I5
sS'irs'
p744
I4
sS'patients'
p745
I3
sS'artificial'
p746
I1
sS'iri'
p747
I5
sS'unable'
p748
I1
sS'cooperation'
p749
I2
sS'petr'
p750
I1
sS'deputies'
p751
I3
sS'8.12'
p752
I2
sS'encounters'
p753
I3
sS'nudge'
p754
I1
sS'360'
p755
I1
sS'7.80'
p756
I1
sS'terms'
p757
I9
sS'rivas'
p758
I1
sS'extend'
p759
I1
sS'nature'
p760
I1
sS'44th'
p761
I3
sS'scudetto'
p762
I1
sS'incarnation'
p763
I1
sS'weak'
p764
I3
sS'metal'
p765
I1
sS'weah'
p766
I4
sS'retirement'
p767
I5
sS'1.05'
p768
I1
sS'wear'
p769
I1
sS'extent'
p770
I2
sS'54italy'
p771
I1
sS'news'
p772
I5
sS'debt'
p773
I17
sS'improve'
p774
I1
sS'0.79'
p775
I3
sS'1983'
p776
I2
sS'protect'
p777
I3
sS'72.50caboto'
p778
I1
sS'met'
p779
I9
sS'vieri.referee'
p780
I1
sS'country'
p781
I16
sS'myer'
p782
I1
sS'strange'
p783
I1
sS'demanded'
p784
I1
sS'russia'
p785
I1
sS'players'
p786
I28
sS'supplies'
p787
I1
sS'games'
p788
I4
sS'planned'
p789
I10
sS'uproar'
p790
I1
sS'sarcinelli'
p791
I1
sS'operating'
p792
I14
sS'contribution'
p793
I2
sS'argue'
p794
I1
sS'asked'
p795
I2
sS'piacenza'
p796
I1
sS'enzo'
p797
I1
sS'libyan'
p798
I7
sS'standings'
p799
I3
sS'tone'
p800
I2
sS'pose'
p801
I2
sS'appeared'
p802
I4
sS'final.alen'
p803
I1
sS'1.6'
p804
I1
sS'europe.his'
p805
I1
sS'active'
p806
I3
sS'corrects'
p807
I1
sS'1.7'
p808
I2
sS'lowly'
p809
I1
sS'blown'
p810
I1
sS'wider'
p811
I1
sS'false'
p812
I1
sS'250'
p813
I2
sS'telecommunications'
p814
I6
sS'final.ferreira'
p815
I1
sS'other.the'
p816
I1
sS'conference'
p817
I3
sS'pillars'
p818
I2
sS'3.80'
p819
I1
sS'1994,european'
p820
I1
sS'basis'
p821
I11
sS'union'
p822
I18
sS'alive.in'
p823
I1
sS'accompagning'
p824
I1
sS'unrecognisable'
p825
I1
sS'criticised'
p826
I2
sS'tiny'
p827
I1
sS'quickly'
p828
I2
sS'rivera'
p829
I1
sS'arturas'
p830
I1
sS'crushings'
p831
I1
sS'stadium'
p832
I7
sS'expected'
p833
I32
sS'cesare'
p834
I8
sS'1,821'
p835
I1
sS'michele'
p836
I2
sS'duties'
p837
I1
sS'threw'
p838
I1
sS'life'
p839
I9
sS'families'
p840
I2
sS'afoot'
p841
I2
sS'eastern'
p842
I8
sS'turned'
p843
I3
sS'announce'
p844
I1
sS'prison'
p845
I1
sS'900'
p846
I1
sS'0.14'
p847
I1
sS'30-35'
p848
I1
sS'masters'
p849
I1
sS'chile'
p850
I1
sS'catch'
p851
I1
sS'165'
p852
I1
sS'worked'
p853
I6
sS'160'
p854
I1
sS'0.18'
p855
I1
sS'6.80'
p856
I1
sS'commerce'
p857
I3
sS'openings'
p858
I1
sS'ageism'
p859
I1
sS'thursday.monorchio'
p860
I1
sS'6.86'
p861
I2
sS'6.87'
p862
I1
sS'6.88'
p863
I2
sS'modigliani'
p864
I2
sS'teenager'
p865
I1
sS'punishment.the'
p866
I1
sS'air'
p867
I11
sS'aim'
p868
I3
sS'dello'
p869
I2
sS'near'
p870
I7
sS'surroundings.one'
p871
I1
sS'items'
p872
I2
sS'aid'
p873
I1
sS'balance'
p874
I4
sS'borussia'
p875
I1
sS'launched'
p876
I4
sS'mistake'
p877
I1
sS'pessimistic'
p878
I1
sS'associations'
p879
I1
sS'seven'
p880
I5
sS'cons'
p881
I6
sS'5,765'
p882
I1
sS'uganda'
p883
I1
sS'21.7brindisicargoimports'
p884
I1
sS'played'
p885
I19
sS'showrooms'
p886
I1
sS'envisaged'
p887
I1
sS'dumped'
p888
I1
sS'defeated'
p889
I2
sS'welded'
p890
I1
sS'124.65'
p891
I1
sS'shame'
p892
I2
sS'transplanted'
p893
I1
sS'laregly'
p894
I2
sS'brake'
p895
I4
sS'il'
p896
I3
sS'ansa'
p897
I1
sS'gianni'
p898
I1
sS'march'
p899
I30
sS'ring'
p900
I1
sS'jozwiak'
p901
I2
sS'surcharge'
p902
I1
sS'grown'
p903
I3
sS'outclassed'
p904
I1
sS'confirmed'
p905
I6
sS'said.as'
p906
I1
sS'lacking'
p907
I1
sS'credit'
p908
I2
sS'things'
p909
I7
sS'make'
p910
I16
sS'cumulative'
p911
I3
sS'sidelined'
p912
I3
sS'telecinco'
p913
I1
sS'clearly'
p914
I2
sS'11,551'
p915
I1
sS'lire.olivetti'
p916
I2
sS'potentially'
p917
I1
sS'split'
p918
I1
sS'evaluate'
p919
I1
sS'packs'
p920
I1
sS'success'
p921
I2
sS'warsaw'
p922
I2
sS'siezed'
p923
I1
sS'rebound'
p924
I3
sS'european'
p925
I57
sS'independent'
p926
I2
sS'satellite'
p927
I1
sS'1995.mediaset'
p928
I1
sS'16.78'
p929
I1
sS'balkan'
p930
I2
sS'platini'
p931
I2
sS'pediconi'
p932
I1
sS'buyback'
p933
I1
sS'hand'
p934
I3
sS'slovenia'
p935
I2
sS'fridays'
p936
I1
sS'producers'
p937
I1
sS'drew1-1'
p938
I1
sS'generali'
p939
I6
sS'investments'
p940
I1
sS'nicklas'
p941
I1
sS'pekao'
p942
I2
sS'cycle'
p943
I2
sS'bari'
p944
I2
sS'upturn'
p945
I1
sS'narrow'
p946
I1
sS'kept'
p947
I4
sS'1979'
p948
I1
sS'1978'
p949
I2
sS'penalised'
p950
I1
sS'changes'
p951
I1
sS'1975'
p952
I1
sS'1974'
p953
I1
sS'1973'
p954
I4
sS'1972'
p955
I1
sS'124.20'
p956
I1
sS'savings'
p957
I4
sS'rome'
p958
I35
sS'greatest'
p959
I1
sS'roma'
p960
I7
sS'telephone'
p961
I3
sS'claims'
p962
I3
sS'jean'
p963
I1
sS'alcatel'
p964
I1
sS'corporate'
p965
I3
sS'engiadina'
p966
I1
sS'transplant.it'
p967
I1
sS'left'
p968
I28
sS'arrigo'
p969
I6
sS'imminent.pietro'
p970
I1
sS'just'
p971
I13
sS'golden'
p972
I4
sS'statement.it'
p973
I1
sS'2,065'
p974
I1
sS'sporting'
p975
I1
sS'opc'
p976
I3
sS'slid'
p977
I1
sS'ideas'
p978
I1
sS'supervisory'
p979
I1
sS'1980'
p980
I4
sS'financially'
p981
I1
sS'identify'
p982
I1
sS'dosedel'
p983
I1
sS'human'
p984
I1
sS'imports.analysts'
p985
I2
sS'8.15'
p986
I1
sS'houses'
p987
I2
sS'8.16'
p988
I1
sS'mediobanca'
p989
I6
sS'50th'
p990
I1
sS'previous'
p991
I15
sS'jose'
p992
I1
sS'buyers'
p993
I1
sS'comparisons'
p994
I1
sS'tiredness.danish'
p995
I2
sS'family'
p996
I2
sS'bhutan'
p997
I1
sS'infinitely'
p998
I1
sS'devaluation'
p999
I1
sS'ease'
p1000
I1
sS'emphasis'
p1001
I1
sS'spread'
p1002
I1
sS'board'
p1003
I17
sS'easy'
p1004
I2
sS'bnl'
p1005
I2
sS'basketball'
p1006
I4
sS'save'
p1007
I1
sS'hat'
p1008
I1
sS'scientific'
p1009
I2
sS'gave'
p1010
I10
sS'journal.the'
p1011
I1
sS'pile.even'
p1012
I1
sS'jana'
p1013
I3
sS'palermo'
p1014
I2
sS'11,683'
p1015
I1
sS'1.583'
p1016
I1
sS'breaks'
p1017
I6
sS'possible'
p1018
I5
sS'8.2'
p1019
I1
sS'firmer'
p1020
I2
sS'arab'
p1021
I2
sS'possibly'
p1022
I5
sS'indicative'
p1023
I1
sS'birth'
p1024
I1
sS'destroy'
p1025
I3
sS'gianluca'
p1026
I4
sS'dreamt'
p1027
I1
sS'shadow'
p1028
I2
sS'replace'
p1029
I1
sS'burnt'
p1030
I1
sS'istat'
p1031
I5
sS'233.4'
p1032
I1
sS'ennio'
p1033
I1
sS'livolsi.livolsi'
p1034
I1
sS'sea.authorities'
p1035
I1
sS'fined'
p1036
I2
sS'0171'
p1037
I1
sS'tendered'
p1038
I1
sS'54'
p1039
I1
sS'administration.officials'
p1040
I1
sS'performing'
p1041
I1
sS'51'
p1042
I6
sS'50'
p1043
I2
sS'berne'
p1044
I2
sS'specific'
p1045
I3
sS'broadcaster'
p1046
I5
sS'offices'
p1047
I1
sS'night'
p1048
I4
sS'hung'
p1049
I2
sS'security'
p1050
I6
sS'2,775sel'
p1051
I1
sS'coco'
p1052
I4
sS'right'
p1053
I10
sS'old'
p1054
I19
sS'4,130'
p1055
I1
sS'crowd'
p1056
I9
sS'people'
p1057
I11
sS'czech'
p1058
I3
sS'successfully'
p1059
I1
sS'203'
p1060
I1
sS'legadoraburolo'
p1061
I1
sS'born'
p1062
I1
sS'clubs'
p1063
I14
sS'election'
p1064
I1
sS'whistle.when'
p1065
I1
sS'trasnfer'
p1066
I1
sS'dear'
p1067
I1
sS'multiple'
p1068
I1
sS'0.64'
p1069
I1
sS'52'
p1070
I1
sS'liberalised'
p1071
I1
sS'liability.generali'
p1072
I1
sS'consensus'
p1073
I2
sS'304'
p1074
I1
sS'scoreline'
p1075
I1
sS'desailly'
p1076
I4
sS'223.5'
p1077
I1
sS'verona'
p1078
I2
sS'comments'
p1079
I5
sS'creative'
p1080
I2
sS'4-0'
p1081
I3
sS'individuals'
p1082
I4
sS'said.that'
p1083
I1
sS'denied'
p1084
I3
sS'steps'
p1085
I1
sS'uranium.judge'
p1086
I1
sS'beating'
p1087
I8
sS'425'
p1088
I3
sS'ciro'
p1089
I3
sS'participation'
p1090
I1
sS'inspiredby'
p1091
I1
sS'2.345'
p1092
I1
sS'core'
p1093
I2
sS'particular'
p1094
I2
sS'2,625mex'
p1095
I1
sS'substitutes'
p1096
I1
sS'subscriptions'
p1097
I1
sS'corn'
p1098
I1
sS'serbian'
p1099
I1
sS'entry'
p1100
I2
sS'decisions'
p1101
I1
sS'6,000'
p1102
I2
sS'said.moya'
p1103
I1
sS'deadly'
p1104
I2
sS'restructuring'
p1105
I2
sS'corp'
p1106
I1
sS'moya.moya'
p1107
I1
sS'vlore'
p1108
I1
sS'losing'
p1109
I3
sS'brokerage'
p1110
I1
sS'post'
p1111
I5
sS'manufacturing'
p1112
I5
sS'super'
p1113
I1
sS'1-angelo'
p1114
I2
sS'start.the'
p1115
I1
sS'increasingly'
p1116
I3
sS'transmission'
p1117
I1
sS'newspapers'
p1118
I11
sS'months'
p1119
I17
sS'out.monorchio'
p1120
I1
sS'o'
p1121
I2
sS'azzurra'
p1122
I1
sS'ensure'
p1123
I4
sS'afternoon'
p1124
I1
sS'horizon'
p1125
I4
sS'commit'
p1126
I1
sS'efforts'
p1127
I5
sS'slightly'
p1128
I9
sS'hospital'
p1129
I2
sS'player.stefano'
p1130
I1
sS'raised'
p1131
I6
sS'coins'
p1132
I1
sS'tranche'
p1133
I7
sS'governments'
p1134
I5
sS'direction'
p1135
I1
sS'presence'
p1136
I2
sS'wasting'
p1137
I2
sS'demotivated'
p1138
I1
sS'ppi'
p1139
I2
sS'sergio'
p1140
I3
sS'definitely'
p1141
I1
sS'intellectual'
p1142
I1
sS'son'
p1143
I2
sS'entrepreneur'
p1144
I1
sS'entitled'
p1145
I1
sS'prices.but'
p1146
I1
sS'capped'
p1147
I3
sS'coastal'
p1148
I1
sS'wrap'
p1149
I1
sS'2,450'
p1150
I1
sS'refined'
p1151
I1
sS'federal'
p1152
I1
sS'soon'
p1153
I2
sS'uno'
p1154
I1
sS'grabbed'
p1155
I1
sS'21.4'
p1156
I2
sS'rely'
p1157
I1
sS'foothold'
p1158
I1
sS'deal'
p1159
I8
sS'371'
p1160
I3
sS'indispensable'
p1161
I2
sS'tennis'
p1162
I4
sS'available'
p1163
I3
sS'lire.tv'
p1164
I1
sS'6-marek'
p1165
I2
sS'class'
p1166
I1
sS'stuck'
p1167
I1
sS'noting'
p1168
I2
sS'materials.the'
p1169
I1
sS'ettore'
p1170
I1
sS'way'
p1171
I11
sS'milan.between'
p1172
I1
sS'war'
p1173
I5
sS'overhang'
p1174
I1
sS'happy'
p1175
I2
sS'1,659'
p1176
I2
sS'head'
p1177
I2
sS'medium'
p1178
I1
sS'amateur'
p1179
I1
sS'form'
p1180
I11
sS'manufacturers'
p1181
I4
sS'laboratory'
p1182
I2
sS'124.74'
p1183
I1
sS'examine'
p1184
I5
sS'gleam'
p1185
I1
sS'oil'
p1186
I4
sS'peninsula'
p1187
I2
sS'payable'
p1188
I1
sS'purchasing'
p1189
I1
sS'hear'
p1190
I1
sS'lows'
p1191
I5
sS'34-26'
p1192
I1
sS'thursday.spain'
p1193
I1
sS'patient'
p1194
I1
sS'stand'
p1195
I1
sS'true'
p1196
I2
sS'analyst'
p1197
I15
sS'220'
p1198
I2
sS'fractionally'
p1199
I1
sS'absent'
p1200
I4
sS'handily'
p1201
I3
sS'injury'
p1202
I9
sS'gunnar'
p1203
I2
sS'lens'
p1204
I1
sS'polska'
p1205
I1
sS'malaysia'
p1206
I2
sS'dimas'
p1207
I1
sS'demetrio'
p1208
I6
sS'inside'
p1209
I2
sS'bids'
p1210
I4
sS'week.rovati'
p1211
I1
sS'tell'
p1212
I1
sS'maturing'
p1213
I2
sS'3.5'
p1214
I2
sS'minor'
p1215
I3
sS'vatican'
p1216
I2
sS'pessotto'
p1217
I1
sS'3,322'
p1218
I1
sS'telecome'
p1219
I1
sS'150'
p1220
I4
sS'later'
p1221
I8
sS'proved'
p1222
I5
sS'flat'
p1223
I2
sS'stronger'
p1224
I2
sS'umpire'
p1225
I2
sS'zidane'
p1226
I5
sS'textbook'
p1227
I1
sS'drive'
p1228
I1
sS'0.60'
p1229
I2
sS'0.62'
p1230
I1
sS'exist'
p1231
I1
sS'12draws'
p1232
I1
sS'telecoms'
p1233
I11
sS'simulations'
p1234
I2
sS'2,345'
p1235
I1
sS'accounting'
p1236
I2
sS'mysteries.authorities'
p1237
I1
sS'negotiations'
p1238
I4
sS'adelaide'
p1239
I1
sS'willingly'
p1240
I1
sS'looked'
p1241
I5
sS'123'
p1242
I1
sS'6.90'
p1243
I1
sS'said.for'
p1244
I1
sS'1996.livolsi'
p1245
I1
sS'weakened'
p1246
I1
sS'1,669'
p1247
I1
sS'agreeing'
p1248
I1
sS'nb'
p1249
I1
sS'stake'
p1250
I13
sS'generally'
p1251
I2
sS'handed'
p1252
I2
sS'reality'
p1253
I1
sS'tim'
p1254
I4
sS'club.olimpija'
p1255
I1
sS'interested'
p1256
I1
sS'republic'
p1257
I3
sS'holding'
p1258
I18
sS'digital'
p1259
I1
sS'hander'
p1260
I1
sS'tie'
p1261
I27
sS'2505'
p1262
I4
sS'healthy'
p1263
I1
sS'company'
p1264
I55
sS'2501'
p1265
I9
sS'scored'
p1266
I10
sS'reconsider'
p1267
I1
sS'hurled'
p1268
I1
sS'icj'
p1269
I1
sS'defunct'
p1270
I2
sS'surprise'
p1271
I3
sS'felt'
p1272
I4
sS'convincing'
p1273
I1
sS'1999.the'
p1274
I1
sS'363.8totalpassengers'
p1275
I1
sS'fell'
p1276
I12
sS'invested'
p1277
I1
sS'exported'
p1278
I1
sS'66129589'
p1279
I15
sS'644.6'
p1280
I1
sS'authorities'
p1281
I5
sS'cooper'
p1282
I1
sS'weekend'
p1283
I4
sS'digested'
p1284
I1
sS'jeddah'
p1285
I1
sS'billion'
p1286
I74
sS'foundation'
p1287
I1
sS'longer'
p1288
I8
sS'85,700coach'
p1289
I1
sS'ferrara'
p1290
I8
sS'daily'
p1291
I4
sS'sampdoria'
p1292
I7
sS'iuliano'
p1293
I1
sS'aspects'
p1294
I1
sS'emu.economists'
p1295
I1
sS'time'
p1296
I26
sS'push'
p1297
I1
sS'benetton.gordon'
p1298
I1
sS'burgnich'
p1299
I1
sS'privilege'
p1300
I1
sS'paced'
p1301
I1
sS'overdue'
p1302
I2
sS'said.besides'
p1303
I1
sS'snia'
p1304
I1
sS'coach'
p1305
I28
sS'managed'
p1306
I4
sS'expectations.the'
p1307
I1
sS'remarkable'
p1308
I3
sS'switched'
p1309
I1
sS'control'
p1310
I4
sS'global'
p1311
I1
sS'alternatives'
p1312
I1
sS'focus'
p1313
I1
sS'deliveries'
p1314
I2
sS'roy'
p1315
I1
sS'manager'
p1316
I1
sS'manages'
p1317
I1
sS'rj85'
p1318
I1
sS'battle'
p1319
I3
sS'market.one'
p1320
I1
sS'privatisations'
p1321
I1
sS'competition'
p1322
I5
sS'row'
p1323
I1
sS'certainly'
p1324
I5
sS'depend'
p1325
I2
sS'boksic'
p1326
I7
sS'6782501'
p1327
I4
sS'6-36-3renzo'
p1328
I1
sS'1942'
p1329
I1
sS'124.50'
p1330
I1
sS'technique'
p1331
I1
sS'1946'
p1332
I3
sS'neapolitans'
p1333
I1
sS'suspending'
p1334
I1
sS'70-65'
p1335
I4
sS'0'
p1336
I15
sS'finally'
p1337
I3
sS'70-66'
p1338
I1
sS'boban'
p1339
I3
sS'22-1'
p1340
I1
sS'telecinco.mediaset'
p1341
I1
sS'suffered'
p1342
I3
sS'circumstances'
p1343
I1
sS'zinedine'
p1344
I3
sS'friday.camporese'
p1345
I2
sS'fancied'
p1346
I1
sS'cuellar'
p1347
I1
sS'division'
p1348
I2
sS'difficulty'
p1349
I2
sS'charles'
p1350
I1
sS'federation'
p1351
I8
sS'advantage'
p1352
I1
sS'baggio'
p1353
I20
sS'frequencies'
p1354
I3
sS'plan.next'
p1355
I1
sS'1993'
p1356
I7
sS'choice'
p1357
I3
sS'centrosim.following'
p1358
I1
sS'gloomy'
p1359
I1
sS'eve'
p1360
I1
sS'servicing'
p1361
I1
sS'sigh'
p1362
I1
sS'9-5'
p1363
I1
sS'trouble'
p1364
I2
sS'discovery'
p1365
I2
sS'exact'
p1366
I1
sS'minute'
p1367
I9
sS'room'
p1368
I2
sS'rotating'
p1369
I1
sS'9-7'
p1370
I1
sS'level'
p1371
I15
sS'did'
p1372
I16
sS'turns'
p1373
I1
sS'1996'
p1374
I93
sS'stamped'
p1375
I1
sS'brother'
p1376
I1
sS'standards'
p1377
I2
sS'leave'
p1378
I1
sS'said.italian'
p1379
I1
sS'crowned'
p1380
I1
sS'offering'
p1381
I1
sS'team'
p1382
I32
sS'warren'
p1383
I1
sS'grafts'
p1384
I1
sS'poste'
p1385
I1
sS'round'
p1386
I1
sS'luca'
p1387
I3
sS'upper'
p1388
I1
sS'bulldozer'
p1389
I1
sS'talked'
p1390
I1
sS'says'
p1391
I3
sS'findings'
p1392
I1
sS'tougher'
p1393
I1
sS'trend'
p1394
I5
sS'regained'
p1395
I2
sS'announcemnt.italy'
p1396
I1
sS'1981,1982'
p1397
I1
sS'loans.bnl'
p1398
I1
sS'months.in'
p1399
I1
sS'cost'
p1400
I4
sS'shirts'
p1401
I1
sS'minutes.the'
p1402
I1
sS'later.major'
p1403
I1
sS'7.29'
p1404
I2
sS'semifinals'
p1405
I1
sS'targets'
p1406
I3
sS'sp'
p1407
I1
sS'21.45'
p1408
I1
sS'1997-2004'
p1409
I2
sS'cargo'
p1410
I11
sS'fistful'
p1411
I1
sS'appear'
p1412
I3
sS'moments'
p1413
I2
sS'24.5'
p1414
I1
sS'10-yr'
p1415
I2
sS'feat'
p1416
I1
sS'abdullah'
p1417
I1
sS'60.7total'
p1418
I1
sS'shares'
p1419
I21
sS'debate'
p1420
I1
sS'current'
p1421
I9
sS'switch'
p1422
I1
sS'deposits.total'
p1423
I1
sS'filling'
p1424
I1
sS'dealt'
p1425
I1
sS'522'
p1426
I1
sS'seventh'
p1427
I2
sS'reply'
p1428
I1
sS'falling'
p1429
I5
sS'principal'
p1430
I2
sS'boost'
p1431
I4
sS'529'
p1432
I1
sS'4,300'
p1433
I1
sS'budgets'
p1434
I2
sS'satisfy'
p1435
I1
sS'drafted'
p1436
I4
sS'drastic'
p1437
I1
sS'5,910scl'
p1438
I1
sS'slower'
p1439
I2
sS'unforeseen'
p1440
I1
sS'virus.his'
p1441
I1
sS'twocurrent'
p1442
I1
sS'area.the'
p1443
I1
sS'french'
p1444
I8
sS'understanding'
p1445
I1
sS'water'
p1446
I3
sS'elbow'
p1447
I1
sS'test'
p1448
I1
sS'said.this'
p1449
I1
sS'groups'
p1450
I1
sS'circular'
p1451
I1
sS'6-7'
p1452
I12
sS'6-4'
p1453
I7
sS'constructive'
p1454
I1
sS'discussed.bush'
p1455
I1
sS'6-3'
p1456
I11
sS'change'
p1457
I7
sS'6-1'
p1458
I17
sS'shared'
p1459
I2
sS'sending'
p1460
I1
sS'redemption'
p1461
I2
sS'broadcasting.following'
p1462
I1
sS'institute'
p1463
I3
sS'shift'
p1464
I1
sS'bot'
p1465
I2
sS'proud'
p1466
I1
sS'trial'
p1467
I6
sS'fabrizio'
p1468
I1
sS'gilardi'
p1469
I2
sS'eyebrows'
p1470
I1
sS'1967,1972'
p1471
I1
sS'falcao'
p1472
I1
sS'renzo'
p1473
I4
sS'usually'
p1474
I1
sS'myers'
p1475
I2
sS'studies'
p1476
I2
sS'doris'
p1477
I1
sS'126.72'
p1478
I1
sS'87-62'
p1479
I1
sS'wednesdayawarded'
p1480
I1
sS'italiane'
p1481
I1
sS'extra'
p1482
I1
sS'operations.sales'
p1483
I1
sS'hopeful'
p1484
I1
sS'enel.stet'
p1485
I1
sS'foundation.the'
p1486
I1
sS'marked'
p1487
I5
sS'italiano'
p1488
I2
sS'uphill'
p1489
I1
sS'keeper'
p1490
I3
sS'italians'
p1491
I28
sS'centenary'
p1492
I1
sS'11.757'
p1493
I1
sS'surmount'
p1494
I1
sS'saying.the'
p1495
I1
sS'rarely'
p1496
I2
sS'venture.fixed'
p1497
I1
sS'andjuventus'
p1498
I1
sS'market'
p1499
I61
sS'angelo'
p1500
I10
sS'fluctuations.the'
p1501
I1
sS'friday.gilardi'
p1502
I1
sS'substitute.to'
p1503
I1
sS'franco'
p1504
I9
sS'working'
p1505
I6
sS'bernard'
p1506
I1
sS'sake'
p1507
I2
sS'positive'
p1508
I10
sS'angry'
p1509
I3
sS'prompting'
p1510
I1
sS'visit'
p1511
I4
sS'distancing'
p1512
I1
sS'france'
p1513
I12
sS'vigour'
p1514
I1
sS'going'
p1515
I2
sS'corneas'
p1516
I1
sS'opposed'
p1517
I4
sS'wondering'
p1518
I2
sS'criteria'
p1519
I2
sS'8-diego'
p1520
I2
sS'francs'
p1521
I5
sS'australian'
p1522
I3
sS'2007'
p1523
I1
sS'today'
p1524
I7
sS'chapels'
p1525
I3
sS'croat'
p1526
I1
sS'53.1'
p1527
I1
sS'missionaries'
p1528
I2
sS'69.0'
p1529
I1
sS'incident'
p1530
I1
sS'share'
p1531
I29
sS'acceptable'
p1532
I1
sS'kulti.he'
p1533
I1
sS'clue'
p1534
I1
sS'savicevic'
p1535
I3
sS'afv'
p1536
I1
sS'goods'
p1537
I3
sS'commissioned'
p1538
I3
sS'investigation'
p1539
I2
sS'olive'
p1540
I3
sS'cases'
p1541
I4
sS'chairmanship'
p1542
I1
sS'effort'
p1543
I2
sS"i'm"
p1544
I1
sS'saipem'
p1545
I2
sS'fly'
p1546
I2
sS'autumn'
p1547
I3
sS'valued'
p1548
I1
sS'pushed'
p1549
I1
sS'simona'
p1550
I1
sS'66102321'
p1551
I1
sS'cramp'
p1552
I1
sS'request'
p1553
I1
sS'schedule'
p1554
I1
sS'believes'
p1555
I2
sS'purge'
p1556
I1
sS'flannels'
p1557
I1
sS'values'
p1558
I1
sS'achieve'
p1559
I2
sS'closed.the'
p1560
I1
sS'following'
p1561
I7
sS'making'
p1562
I10
sS'12,087'
p1563
I1
sS'chapter'
p1564
I1
sS'placements'
p1565
I1
sS'lighthearted'
p1566
I1
sS'claim'
p1567
I3
sS'figure'
p1568
I3
sS'uruguay'
p1569
I1
sS'predict'
p1570
I2
sS'5,150.the'
p1571
I1
sS'chip'
p1572
I5
sS'della'
p1573
I2
sS'997'
p1574
I1
sS'agent'
p1575
I1
sS'supremacy'
p1576
I1
sS'heard'
p1577
I1
sS'fortunes'
p1578
I1
sS'dropped'
p1579
I2
sS'euroleague'
p1580
I3
sS'allowed'
p1581
I5
sS'36.particularly'
p1582
I1
sS'spa'
p1583
I13
sS'clothing'
p1584
I3
sS'qualifiers'
p1585
I2
sS'inflows'
p1586
I1
sS'parliamentary'
p1587
I8
sS'barely'
p1588
I2
sS'productive'
p1589
I1
sS'requirements'
p1590
I3
sS'ledwon.teams'
p1591
I1
sS'inheritance'
p1592
I1
sS'holdings'
p1593
I1
sS'discussion'
p1594
I2
sS'watching'
p1595
I2
sS'market.cheaper'
p1596
I1
sS'chemical'
p1597
I3
sS'918'
p1598
I1
sS'sunday'
p1599
I19
sS'parcel'
p1600
I1
sS'fourth'
p1601
I7
sS'plus'
p1602
I2
sS'trillion.total'
p1603
I1
sS'subsidiaries'
p1604
I1
sS'testicle'
p1605
I2
sS'economy'
p1606
I3
sS'abdellatif'
p1607
I1
sS'narrowly'
p1608
I2
sS'product'
p1609
I4
sS'140'
p1610
I2
sS'information'
p1611
I3
sS'bowing'
p1612
I1
sS'recovery.it'
p1613
I1
sS'dive'
p1614
I1
sS'fed'
p1615
I4
sS'southern'
p1616
I2
sS'needs'
p1617
I1
sS'94-90'
p1618
I2
sS'convincingly'
p1619
I1
sS'226.4'
p1620
I1
sS'0.70'
p1621
I1
sS'0.77'
p1622
I1
sS'0.76'
p1623
I1
sS'improving'
p1624
I1
sS'court'
p1625
I10
sS'percent.analysts'
p1626
I2
sS'truly'
p1627
I1
sS'data'
p1628
I18
sS'grow'
p1629
I5
sS'lifting'
p1630
I1
sS'man'
p1631
I4
sS'natural'
p1632
I1
sS'outline'
p1633
I1
sS'sectors'
p1634
I1
sS'16,000'
p1635
I1
sS'berlanda'
p1636
I1
sS'jettou.libya'
p1637
I1
sS'futures'
p1638
I4
sS'borrowing'
p1639
I5
sS'game.in'
p1640
I1
sS'complaining'
p1641
I2
sS'gap'
p1642
I3
sS'factors.the'
p1643
I1
sS'truck'
p1644
I4
sS'african'
p1645
I3
sS'sa'
p1646
I2
sS'pulled'
p1647
I5
sS'michel'
p1648
I2
sS'quota'
p1649
I1
sS'serving'
p1650
I2
sS'shield'
p1651
I1
sS'said.gross'
p1652
I1
sS'pointed'
p1653
I2
sS'magistrate'
p1654
I1
sS'mainly'
p1655
I1
sS'years'
p1656
I28
sS'stability'
p1657
I2
sS'ended'
p1658
I12
sS'jimmy'
p1659
I1
sS'stayed'
p1660
I1
sS'445-450'
p1661
I3
sS'cuts'
p1662
I2
sS'piechniczek'
p1663
I5
sS'managers'
p1664
I6
sS'consolidating'
p1665
I1
sS'pointer'
p1666
I1
sS'depending'
p1667
I1
sS'blocked'
p1668
I1
sS'withheld'
p1669
I2
sS'farmed'
p1670
I1
sS'1830'
p1671
I1
sS'group'
p1672
I80
sS'ingvar'
p1673
I1
sS'willow'
p1674
I1
sS'interesting'
p1675
I1
sS'amounted'
p1676
I2
sS'137'
p1677
I1
sS'voiced'
p1678
I1
sS'offers'
p1679
I2
sS'listing'
p1680
I1
sS'policy'
p1681
I5
sS'mail'
p1682
I3
sS'malinowski'
p1683
I1
sS'troubled'
p1684
I2
sS'intercontinentalcup'
p1685
I1
sS'bilateral'
p1686
I3
sS'cesena'
p1687
I1
sS'earnings'
p1688
I9
sS'udinese'
p1689
I2
sS'percent.on'
p1690
I1
sS'qualifier'
p1691
I10
sS'21.9totalmail'
p1692
I1
sS'views'
p1693
I2
sS'matches'
p1694
I13
sS'chelsea'
p1695
I2
sS'killer'
p1696
I1
sS'136'
p1697
I1
sS'regarding'
p1698
I1
sS'nation'
p1699
I2
sS'1955'
p1700
I1
sS'interview'
p1701
I7
sS'1957'
p1702
I1
sS'touching'
p1703
I1
sS'conquer'
p1704
I1
sS'1950'
p1705
I2
sS'half'
p1706
I5
sS'9700'
p1707
I2
sS'honearnad'
p1708
I1
sS'4,690osa'
p1709
I1
sS'discuss'
p1710
I4
sS'maintaining'
p1711
I2
sS'matched'
p1712
I1
sS'14.5'
p1713
I1
sS'ciampi'
p1714
I12
sS'execute'
p1715
I1
sS'idyllic'
p1716
I1
sS'polish'
p1717
I6
sS'14.0'
p1718
I2
sS'14.3'
p1719
I1
sS'lies'
p1720
I2
sS'dutchman'
p1721
I1
sS'january'
p1722
I14
sS'retrieved'
p1723
I2
sS'drop'
p1724
I1
sS'24.0'
p1725
I2
sS'24.1'
p1726
I1
sS'establishing'
p1727
I4
sS'lawyers'
p1728
I2
sS'realistic'
p1729
I5
sS'thursday.the'
p1730
I1
sS'bullion'
p1731
I17
sS'realise'
p1732
I1
sS'bowling'
p1733
I1
sS'colleagues'
p1734
I1
sS'complex'
p1735
I1
sS'amnesty'
p1736
I1
sS'quarter'
p1737
I21
sS'hinges'
p1738
I1
sS'semifinal'
p1739
I4
sS'beghin'
p1740
I1
sS'el'
p1741
I1
sS'fired'
p1742
I2
sS'5-fabio'
p1743
I2
sS'zurich'
p1744
I2
sS'14.1'
p1745
I1
sS'cleaning'
p1746
I1
sS'revised'
p1747
I2
sS'1,154.5'
p1748
I1
sS'balanced'
p1749
I1
sS'alfred'
p1750
I1
sS'ex'
p1751
I3
sS'entering'
p1752
I1
sS'year'
p1753
I78
sS'eu'
p1754
I5
sS'territory'
p1755
I1
sS'happen'
p1756
I4
sS'factors.analysts'
p1757
I1
sS'1952,1958'
p1758
I1
sS'soaring'
p1759
I1
sS'intended'
p1760
I7
sS'riunione'
p1761
I2
sS'shown'
p1762
I3
sS'reducing'
p1763
I2
sS'20,664'
p1764
I1
sS'opened'
p1765
I3
sS'factors'
p1766
I1
sS'profit'
p1767
I49
sS'82.8'
p1768
I1
sS'1992'
p1769
I5
sS'squared'
p1770
I1
sS'factory'
p1771
I1
sS'heroes'
p1772
I1
sS'looking'
p1773
I4
sS'lad'
p1774
I1
sS'seriously'
p1775
I4
sS'bln'
p1776
I1
sS'emerged'
p1777
I1
sS'internet'
p1778
I1
sS'suggesting'
p1779
I1
sS'churches'
p1780
I1
sS'netstrada'
p1781
I1
sS'advice'
p1782
I1
sS'shows'
p1783
I3
sS'simes'
p1784
I1
sS'rebuilding'
p1785
I1
sS'liam'
p1786
I1
sS'theory'
p1787
I1
sS'pesaro.panatta'
p1788
I1
sS'5,765nbo'
p1789
I1
sS'cars'
p1790
I4
sS'coloured'
p1791
I1
sS'million'
p1792
I22
sS'romano'
p1793
I12
sS'governing'
p1794
I1
sS'coffers'
p1795
I1
sS'marini'
p1796
I2
sS'spaniard'
p1797
I3
sS'ajax'
p1798
I1
sS'california'
p1799
I1
sS'rebel'
p1800
I1
sS'illness.pat'
p1801
I1
sS'placed'
p1802
I2
sS'ore'
p1803
I6
sS'inevitable'
p1804
I4
sS'tunisia'
p1805
I1
sS'21.0'
p1806
I1
sS'advance'
p1807
I2
sS'training'
p1808
I2
sS'ministry'
p1809
I8
sS'standby'
p1810
I1
sS'hong'
p1811
I1
sS'british'
p1812
I9
sS'underlines'
p1813
I1
sS'thing'
p1814
I2
sS'handicrafts'
p1815
I1
sS'place'
p1816
I16
sS'massive'
p1817
I1
sS'fininvest'
p1818
I3
sS'view'
p1819
I1
sS'think'
p1820
I7
sS'waited'
p1821
I2
sS'said.registrations'
p1822
I1
sS'exotic'
p1823
I1
sS'equity.olivetti'
p1824
I1
sS'wad'
p1825
I1
sS'627'
p1826
I2
sS'operate.a'
p1827
I2
sS'ago.on'
p1828
I1
sS'albertini'
p1829
I10
sS'question'
p1830
I1
sS'symbolic'
p1831
I2
sS'shedding'
p1832
I2
sS'21.8'
p1833
I1
sS'belonging'
p1834
I2
sS'5,555akl'
p1835
I1
sS'americans'
p1836
I1
sS'fast'
p1837
I3
sS'731.6'
p1838
I1
sS'spanish'
p1839
I5
sS'vote'
p1840
I3
sS'impossible'
p1841
I1
sS'318'
p1842
I1
sS'drove'
p1843
I1
sS'open'
p1844
I11
sS'tomorrow'
p1845
I2
sS'2,165chi'
p1846
I1
sS'size'
p1847
I2
sS'city'
p1848
I6
sS'little'
p1849
I7
sS'sheet'
p1850
I2
sS'silent'
p1851
I2
sS'employers'
p1852
I3
sS'game.several'
p1853
I1
sS'said.italy'
p1854
I2
sS'trillion'
p1855
I77
sS'due.but'
p1856
I1
sS'remotely'
p1857
I1
sS'178'
p1858
I1
sS'bourse'
p1859
I7
sS'2'
p1860
I17
sS'draft'
p1861
I8
sS'escort'
p1862
I1
sS'romanese'
p1863
I1
sS'jurists'
p1864
I1
sS'legally'
p1865
I1
sS'amphetamines'
p1866
I1
sS'structures'
p1867
I1
sS'speaking'
p1868
I1
sS'gives'
p1869
I2
sS'tommasi'
p1870
I2
sS'eyes'
p1871
I5
sS'responsible'
p1872
I1
sS'fraction'
p1873
I2
sS'season'
p1874
I31
sS'overcapacity'
p1875
I1
sS'broadcast'
p1876
I1
sS'released'
p1877
I2
sS'separated.the'
p1878
I1
sS'131.567'
p1879
I1
sS'286'
p1880
I1
sS'eliminated'
p1881
I3
sS'copy'
p1882
I1
sS'appreciated'
p1883
I1
sS'population'
p1884
I1
sS'11'
p1885
I10
sS'wide'
p1886
I3
sS'television'
p1887
I6
sS'12'
p1888
I10
sS'15'
p1889
I14
sS'14'
p1890
I7
sS'17'
p1891
I1
sS'16'
p1892
I10
sS'19'
p1893
I2
sS'18'
p1894
I11
sS'percent.the'
p1895
I1
sS'7.7total'
p1896
I1
sS'intensity'
p1897
I1
sS'liffe'
p1898
I2
sS'future'
p1899
I14
sS'east.paul'
p1900
I1
sS'of.at'
p1901
I1
sS'venture'
p1902
I9
sS'wins'
p1903
I2
sS'cards'
p1904
I2
sS'venturi'
p1905
I1
sS'outcome'
p1906
I1
sS'damned'
p1907
I1
sS'published'
p1908
I1
sS'pre'
p1909
I4
sS'13.00/15.00'
p1910
I1
sS'addressing'
p1911
I6
sS'documentation'
p1912
I1
sS'surname'
p1913
I1
sS'san'
p1914
I7
sS'investors'
p1915
I4
sS'remained'
p1916
I9
sS'sab'
p1917
I1
sS'pro'
p1918
I1
sS'premier'
p1919
I1
sS'measure'
p1920
I3
sS'argument'
p1921
I1
sS'questions'
p1922
I4
sS'said.libya'
p1923
I1
sS'say'
p1924
I3
sS'mates'
p1925
I2
sS'1999.brokers'
p1926
I1
sS'anger'
p1927
I3
sS'criteria.the'
p1928
I1
sS'regards'
p1929
I1
sS'recover'
p1930
I2
sS'saw'
p1931
I4
sS'65.00credito'
p1932
I1
sS'batting'
p1933
I1
sS'sat'
p1934
I1
sS'kaluzny'
p1935
I1
sS'conversion'
p1936
I1
sS'sport'
p1937
I7
sS'international.an'
p1938
I1
sS'uncertainty'
p1939
I1
sS'exploratory'
p1940
I3
sS'efficient'
p1941
I1
sS'veteran'
p1942
I7
sS'offer'
p1943
I13
sS'64.5cargoexports'
p1944
I2
sS'consortium'
p1945
I3
sS'malta'
p1946
I1
sS'note'
p1947
I4
sS'equipment'
p1948
I1
sS'intends'
p1949
I1
sS'squad'
p1950
I4
sS'36-year'
p1951
I1
sS'36.3'
p1952
I1
sS'livolsi.mediaset'
p1953
I1
sS'two.a'
p1954
I2
sS'objective'
p1955
I2
sS'performance'
p1956
I2
sS'strengths'
p1957
I1
sS'collapsed'
p1958
I2
sS'1,701'
p1959
I1
sS'ultimate'
p1960
I1
sS'towers'
p1961
I1
sS'200'
p1962
I1
sS'begin'
p1963
I1
sS'analysts'
p1964
I14
sS'pain'
p1965
I6
sS'giuseppe'
p1966
I1
sS'trace'
p1967
I1
sS'story.juventus'
p1968
I1
sS'track'
p1969
I2
sS'price'
p1970
I14
sS'keeps'
p1971
I1
sS'agricola.he'
p1972
I1
sS'clearer'
p1973
I1
sS'paid'
p1974
I4
sS'falls'
p1975
I3
sS'both.names'
p1976
I1
sS'parliament.bertinotti'
p1977
I1
sS'month.marcel'
p1978
I1
sS'liberia.alessandro'
p1979
I1
sS'stormed'
p1980
I1
sS'remarks'
p1981
I3
sS'america'
p1982
I3
sS'13.milan'
p1983
I1
sS'1958.milan'
p1984
I1
sS'operate'
p1985
I4
sS'radioactive'
p1986
I2
sS'especially'
p1987
I2
sS'350'
p1988
I1
sS'considered'
p1989
I2
sS'average'
p1990
I7
sS'reform'
p1991
I9
sS'steady'
p1992
I4
sS'sale'
p1993
I18
sS'wing'
p1994
I1
sS'managing'
p1995
I10
sS'properly'
p1996
I1
sS'freekick.italy'
p1997
I1
sS'refining'
p1998
I1
sS'pattern'
p1999
I1
sS'reiterated'
p2000
I1
sS'atlantic'
p2001
I3
sS'senior'
p2002
I2
sS'objectives.tomaso'
p2003
I1
sS'liquidity'
p2004
I5
sS'desperately'
p2005
I1
sS'28-1'
p2006
I3
sS'3.70'
p2007
I1
sS'shot'
p2008
I4
sS'3.77'
p2009
I1
sS'3.75'
p2010
I1
sS'german'
p2011
I1
sS'gloom.he'
p2012
I1
sS'days.motivation'
p2013
I1
sS'2,925syd/mel'
p2014
I1
sS'merit'
p2015
I1
sS'lire.casual'
p2016
I1
sS'avail.over'
p2017
I1
sS'charlotte'
p2018
I1
sS'spaces'
p2019
I1
sS'shoe'
p2020
I2
sS'tiredness'
p2021
I2
sS'corner'
p2022
I2
sS'aggressive'
p2023
I2
sS'0.45'
p2024
I1
sS'104.2'
p2025
I1
sS'2,871.1'
p2026
I1
sS'fifth'
p2027
I3
sS'ground'
p2028
I1
sS'sanchez'
p2029
I1
sS'slow'
p2030
I4
sS'ratio'
p2031
I2
sS'title'
p2032
I12
sS'hold.prodi'
p2033
I1
sS'escaped'
p2034
I1
sS'state'
p2035
I47
sS'onsunday'
p2036
I1
sS'september'
p2037
I6
sS'out.he'
p2038
I2
sS'4,079'
p2039
I1
sS'black'
p2040
I3
sS'raising'
p2041
I4
sS'stripes.ironically'
p2042
I1
sS'treasury'
p2043
I38
sS'enthusiasm'
p2044
I1
sS'padova'
p2045
I1
sS'spezia'
p2046
I1
sS'injustice'
p2047
I1
sS'kulti'
p2048
I1
sS'intercontinental'
p2049
I1
sS'policies'
p2050
I7
sS'6.50'
p2051
I1
sS'contracts'
p2052
I2
sS'nordahl'
p2053
I2
sS'attacking'
p2054
I2
sS'admiration'
p2055
I1
sS'8-10'
p2056
I6
sS'expects'
p2057
I4
sS'affecting'
p2058
I1
sS'hailed'
p2059
I1
sS'nearly'
p2060
I2
sS'progress'
p2061
I7
sS'honours'
p2062
I2
sS'awaiting'
p2063
I3
sS'installed'
p2064
I1
sS'deploy'
p2065
I1
sS'celebrate'
p2066
I1
sS'italy.terms'
p2067
I1
sS'prime'
p2068
I15
sS'ente'
p2069
I1
sS'pinnacle'
p2070
I1
sS'said.clothing'
p2071
I1
sS'cars.bugatti'
p2072
I1
sS'leather'
p2073
I2
sS'primo'
p2074
I1
sS'yield'
p2075
I4
sS'morning'
p2076
I1
sS'929'
p2077
I1
sS'midfield'
p2078
I3
sS'wednesday.apart'
p2079
I2
sS'77.3'
p2080
I1
sS'28as'
p2081
I1
sS'liable'
p2082
I4
sS'worries'
p2083
I1
sS'donzella'
p2084
I1
sS'said.eridania'
p2085
I1
sS'1995.attilio'
p2086
I1
sS'hinged'
p2087
I1
sS'supercar'
p2088
I1
sS'salomon'
p2089
I3
sS'declared'
p2090
I4
sS'8,015'
p2091
I1
sS'harrying'
p2092
I1
sS'15.3via'
p2093
I1
sS'burst'
p2094
I1
sS'bellwether'
p2095
I1
sS'1.99'
p2096
I2
sS'maximum'
p2097
I2
sS'1920'
p2098
I1
sS'124.75'
p2099
I2
sS'1654'
p2100
I1
sS'div'
p2101
I2
sS'1926'
p2102
I1
sS'week.but'
p2103
I1
sS'169.for'
p2104
I1
sS'surgery'
p2105
I3
sS'emulating'
p2106
I1
sS'turbine'
p2107
I1
sS'professed'
p2108
I1
sS'said.gordon'
p2109
I1
sS'mecca'
p2110
I1
sS'defensively'
p2111
I2
sS'israeli'
p2112
I1
sS'satisfying'
p2113
I1
sS'registering'
p2114
I1
sS'piedmont'
p2115
I6
sS'lower.by'
p2116
I1
sS'jumped'
p2117
I1
sS'review'
p2118
I1
sS'839'
p2119
I1
sS'definite'
p2120
I1
sS'forecast'
p2121
I8
sS'importance'
p2122
I2
sS'3'
p2123
I20
sS'bureau'
p2124
I19
sS'gian'
p2125
I1
sS'56record'
p2126
I1
sS'semi'
p2127
I1
sS'may.on'
p2128
I1
sS'mattioli'
p2129
I2
sS'reading'
p2130
I1
sS'corneas.they'
p2131
I1
sS'arrival'
p2132
I2
sS'jobs'
p2133
I6
sS'uk'
p2134
I1
sS'parent'
p2135
I7
sS'receivers'
p2136
I2
sS'33'
p2137
I1
sS'screen'
p2138
I1
sS'planes'
p2139
I1
sS'jp'
p2140
I1
sS'26'
p2141
I4
sS'khartoum'
p2142
I2
sS'concentrate'
p2143
I1
sS'como'
p2144
I2
sS'unusually'
p2145
I1
sS'scooters'
p2146
I1
sS'comeback'
p2147
I2
sS'cities'
p2148
I2
sS'come'
p2149
I6
sS'statement.gross'
p2150
I1
sS'concentrated'
p2151
I1
sS'reaction'
p2152
I1
sS'repubblica'
p2153
I1
sS'z'
p2154
I1
sS'animist'
p2155
I1
sS'libya'
p2156
I5
sS'16-radoslaw'
p2157
I1
sS'deals'
p2158
I2
sS'trader'
p2159
I4
sS'agnelli'
p2160
I1
sS'overs.in'
p2161
I1
sS'1-mo'
p2162
I2
sS'called'
p2163
I7
sS'prompted'
p2164
I1
sS'imi'
p2165
I1
sS's'
p2166
I20
sS'175'
p2167
I7
sS'disappointment'
p2168
I1
sS'13.0'
p2169
I2
sS'crime.it'
p2170
I1
sS'nils'
p2171
I1
sS'side.demetrio'
p2172
I1
sS'holders'
p2173
I4
sS'4.4total'
p2174
I1
sS'traded'
p2175
I2
sS'comes'
p2176
I3
sS'duty'
p2177
I2
sS'pakistan'
p2178
I3
sS'service.pope'
p2179
I1
sS'key'
p2180
I8
sS'proft'
p2181
I1
sS'midfielders'
p2182
I1
sS'mandate'
p2183
I2
sS'rising'
p2184
I2
sS'151'
p2185
I1
sS'period'
p2186
I3
sS'football'
p2187
I8
sS'60'
p2188
I4
sS'maintained'
p2189
I1
sS'looms'
p2190
I1
sS'4,690'
p2191
I1
sS'65'
p2192
I6
sS'learning'
p2193
I1
sS'approval'
p2194
I1
sS'polo'
p2195
I1
sS'forehand'
p2196
I1
sS'said.lawyers'
p2197
I2
sS'poll'
p2198
I1
sS'1900.ups'
p2199
I1
sS'filali'
p2200
I2
sS'boat'
p2201
I2
sS'piero.vladimir'
p2202
I1
sS'considering'
p2203
I3
sS'cleared'
p2204
I1
sS'didier'
p2205
I4
sS'capable'
p2206
I5
sS'abdul'
p2207
I1
sS'montero.all'
p2208
I1
sS'104.1istat'
p2209
I1
sS'airliner'
p2210
I2
sS'airlines'
p2211
I1
sS'mark'
p2212
I11
sS'careful'
p2213
I1
sS'boksic.both'
p2214
I1
sS'16.4'
p2215
I1
sS'1976'
p2216
I1
sS'combined'
p2217
I1
sS'blacks.it'
p2218
I1
sS'industrie'
p2219
I2
sS'hardly'
p2220
I1
sS'said.andrea'
p2221
I1
sS'578.1'
p2222
I2
sS'disclosed'
p2223
I1
sS'wants'
p2224
I4
sS'cuba'
p2225
I1
sS'tournament'
p2226
I1
sS'confuse'
p2227
I1
sS'oust'
p2228
I1
sS'offered'
p2229
I3
sS'nifty'
p2230
I1
sS'dates'
p2231
I1
sS'reaching'
p2232
I2
sS'sort'
p2233
I1
sS'tarcisio'
p2234
I1
sS'javier'
p2235
I2
sS'wake'
p2236
I1
sS'minister'
p2237
I34
sS'declaration'
p2238
I1
sS'east.political'
p2239
I1
sS'andrea'
p2240
I6
sS'yugoslav'
p2241
I1
sS'spirit'
p2242
I1
sS'32'
p2243
I10
sS'hodgson'
p2244
I1
sS'paying'
p2245
I3
sS'4-1'
p2246
I3
sS'4-2'
p2247
I2
sS'4-3'
p2248
I1
sS'sit'
p2249
I1
sS'4-6'
p2250
I7
sS'4-7'
p2251
I6
sS'boris'
p2252
I1
sS'polls'
p2253
I1
sS'thigh'
p2254
I4
sS'confidence.weaknesses'
p2255
I1
sS'premature'
p2256
I2
sS'expropriated'
p2257
I1
sS'trick'
p2258
I1
sS'cast'
p2259
I2
sS'tragedy'
p2260
I1
sS'1105'
p2261
I1
sS'ongoing'
p2262
I1
sS'confidently'
p2263
I1
sS'1100'
p2264
I1
sS'newspaper'
p2265
I2
sS'situation'
p2266
I4
sS'converted'
p2267
I1
sS'margin'
p2268
I8
sS'ilaria'
p2269
I1
sS'1899'
p2270
I1
sS'4-3-2-1'
p2271
I1
sS'egypt'
p2272
I2
sS'ballpark'
p2273
I1
sS'156th'
p2274
I3
sS'added.he'
p2275
I1
sS'coupled'
p2276
I1
sS'binding'
p2277
I1
sS'fame.but'
p2278
I1
sS'claimants'
p2279
I1
sS'17.50'
p2280
I1
sS'marcel'
p2281
I1
sS'strain'
p2282
I1
sS'sudanese'
p2283
I1
sS'7.04'
p2284
I2
sS'punched'
p2285
I2
sS'contract'
p2286
I6
sS'perez'
p2287
I1
sS'13.6'
p2288
I1
sS'grievous'
p2289
I1
sS'refiners'
p2290
I2
sS'clock.eric'
p2291
I1
sS'technology'
p2292
I3
sS'fame'
p2293
I1
sS'worry'
p2294
I4
sS'movements'
p2295
I1
sS'different'
p2296
I4
sS'3.31'
p2297
I1
sS'verified'
p2298
I4
sS'66-1'
p2299
I3
sS'strains'
p2300
I1
sS'mission.marini'
p2301
I1
sS'11.5'
p2302
I5
sS'granted'
p2303
I4
sS'11.0'
p2304
I4
sS'fewer'
p2305
I2
sS'klapwijk'
p2306
I4
sS'ethiopia'
p2307
I1
sS'bermuda'
p2308
I1
sS'inquiry'
p2309
I1
sS'suffering'
p2310
I1
sS'93.30'
p2311
I1
sS'17.5'
p2312
I3
sS'grain'
p2313
I1
sS'struggling'
p2314
I1
sS'graft'
p2315
I1
sS'bring'
p2316
I10
sS'wimbledon'
p2317
I1
sS'derby'
p2318
I2
sS'week'
p2319
I28
sS'sweeper'
p2320
I2
sS'extended'
p2321
I1
sS'arecord'
p2322
I1
sS'boosted'
p2323
I8
sS'refusal'
p2324
I2
sS'driver'
p2325
I1
sS'drives'
p2326
I3
sS'director'
p2327
I16
sS'running'
p2328
I2
sS'conjure'
p2329
I1
sS'changing'
p2330
I2
sS'10.5-11.0'
p2331
I1
sS'thrown'
p2332
I1
sS'thursday.albertini'
p2333
I1
sS'proverbial'
p2334
I1
sS'complained'
p2335
I1
sS'66101412'
p2336
I2
sS'cannavaro'
p2337
I4
sS'drain'
p2338
I2
sS'30.daily'
p2339
I1
sS'dying'
p2340
I3
sS'largely'
p2341
I1
sS'charges'
p2342
I7
sS'said.mediaset'
p2343
I1
sS'1,083'
p2344
I2
sS'constitutional'
p2345
I1
sS'commission'
p2346
I9
sS'inpenetrable.italy'
p2347
I1
sS'bettega'
p2348
I2
sS'costs'
p2349
I6
sS'baluszynski'
p2350
I2
sS'relief'
p2351
I3
sS'gain'
p2352
I3
sS'relied'
p2353
I2
sS'easing'
p2354
I1
sS'model'
p2355
I2
sS'scientists'
p2356
I4
sS'bodies'
p2357
I1
sS'charged'
p2358
I7
sS'honesty'
p2359
I1
sS'summer'
p2360
I7
sS'215'
p2361
I1
sS'213.7'
p2362
I1
sS'professionals'
p2363
I4
sS'lire.it'
p2364
I1
sS'money'
p2365
I5
sS'sportsystem'
p2366
I1
sS'adjustments'
p2367
I1
sS'sights'
p2368
I1
sS'ninth'
p2369
I1
sS'risk'
p2370
I1
sS'ties.considering'
p2371
I1
sS'lire.in'
p2372
I1
sS'wednesday.stoppages'
p2373
I1
sS'n'
p2374
I2
sS'tuesday.teamsystem'
p2375
I1
sS'quarter.sime'
p2376
I1
sS'multiples'
p2377
I1
sS'battle.unions'
p2378
I1
sS'tirade'
p2379
I2
sS'renewed'
p2380
I2
sS'123.8'
p2381
I1
sS'thinking'
p2382
I1
sS'rose'
p2383
I21
sS'leaguechampions'
p2384
I2
sS'ukraine'
p2385
I1
sS'politicians'
p2386
I3
sS'improvement'
p2387
I3
sS'parts'
p2388
I1
sS'setting'
p2389
I4
sS'bloc'
p2390
I2
sS'4'
p2391
I14
sS'samples'
p2392
I1
sS'halftime'
p2393
I3
sS'role'
p2394
I4
sS'encounter'
p2395
I1
sS'boniperti'
p2396
I3
sS'sea'
p2397
I4
sS'real'
p2398
I13
sS'62.00'
p2399
I1
sS'23.90march'
p2400
I1
sS'nielsen'
p2401
I2
sS'spectacular'
p2402
I1
sS'gestured'
p2403
I3
sS'rules'
p2404
I6
sS'32,000'
p2405
I1
sS'3.67'
p2406
I1
sS'papers'
p2407
I1
sS'3.60'
p2408
I1
sS'chinese'
p2409
I1
sS'576'
p2410
I1
sS'early'
p2411
I14
sS'share.mf'
p2412
I1
sS'inflation'
p2413
I12
sS'80-1draw'
p2414
I1
sS'world'
p2415
I56
sS'accepted'
p2416
I1
sS'lady'
p2417
I1
sS'unwilling'
p2418
I1
sS'ruled'
p2419
I5
sS'satisfaction'
p2420
I1
sS'afternoon.a'
p2421
I1
sS'adams'
p2422
I1
sS'match.although'
p2423
I1
sS'said.on'
p2424
I1
sS'federation.rovati'
p2425
I1
sS'suppliers'
p2426
I1
sS'ocw'
p2427
I1
sS'assogestioni'
p2428
I1
sS'twin'
p2429
I1
sS'609.1'
p2430
I1
sS'chamber'
p2431
I3
sS'benefit'
p2432
I5
sS'sunday.there'
p2433
I1
sS't'
p2434
I1
sS'220,000-225,000'
p2435
I1
sS'completely'
p2436
I1
sS'served'
p2437
I1
sS'tower'
p2438
I2
sS'inter'
p2439
I4
sS'firstmention'
p2440
I1
sS'assemblies'
p2441
I2
sS'lire.april'
p2442
I1
sS'35.6'
p2443
I1
sS'subsequent'
p2444
I1
sS'judge'
p2445
I4
sS'wenmt'
p2446
I2
sS'66'
p2447
I1
sS'jewellery'
p2448
I10
sS'5017'
p2449
I5
sS'madrid'
p2450
I2
sS'final.in'
p2451
I1
sS'67'
p2452
I1
sS'said.after'
p2453
I1
sS'10'
p2454
I23
sS'calling'
p2455
I1
sS'supplementary'
p2456
I2
sS'loyalty'
p2457
I1
sS'gjirokaster'
p2458
I1
sS'69'
p2459
I4
sS'duration'
p2460
I2
sS'intend'
p2461
I1
sS'nicola'
p2462
I1
sS'credited'
p2463
I1
sS'peace'
p2464
I1
sS'deputy'
p2465
I1
sS'provided'
p2466
I4
sS'ellis'
p2467
I1
sS'mood'
p2468
I1
sS'confirm'
p2469
I1
sS'sudan'
p2470
I2
sS'vicenza'
p2471
I4
sS'celebrated'
p2472
I2
sS'moslem'
p2473
I1
sS'luxembourg'
p2474
I1
sS'earning'
p2475
I3
sS'deficit'
p2476
I14
sS'victories'
p2477
I1
sS'exit'
p2478
I3
sS'september.ferreira'
p2479
I1
sS'23rd'
p2480
I2
sS'permits.the'
p2481
I1
sS'happened'
p2482
I2
sS'war.in'
p2483
I1
sS'1968,1979'
p2484
I1
sS'thenwon'
p2485
I1
sS'doubles.costa'
p2486
I1
sS'17,189'
p2487
I1
sS'meccanica'
p2488
I1
sS'operations.its'
p2489
I1
sS'arabia'
p2490
I1
sS'cerestar'
p2491
I1
sS'wheat'
p2492
I1
sS'game.the'
p2493
I2
sS'business'
p2494
I14
sS'seconds'
p2495
I4
sS'sixth'
p2496
I3
sS'match.furlan'
p2497
I2
sS'strained'
p2498
I2
sS'sajjad'
p2499
I1
sS'notably'
p2500
I1
sS'uneasy'
p2501
I1
sS'refereed'
p2502
I1
sS'leadership'
p2503
I1
sS'70'
p2504
I2
sS'1934'
p2505
I1
sS'8.5'
p2506
I1
sS'1938'
p2507
I1
sS'currencies'
p2508
I2
sS'frenchman'
p2509
I2
sS'manufacturer'
p2510
I1
sS'oo'
p2511
I1
sS'william'
p2512
I1
sS'loyalties'
p2513
I1
sS'central'
p2514
I6
sS'italia.at'
p2515
I1
sS'package'
p2516
I9
sS'island'
p2517
I2
sS'industry'
p2518
I17
sS'sri'
p2519
I2
sS'discussed'
p2520
I5
sS'settle'
p2521
I1
sS'thousands'
p2522
I3
sS'airline'
p2523
I5
sS'recalled'
p2524
I1
sS'luigi'
p2525
I2
sS'mixed'
p2526
I2
sS'tariffs'
p2527
I1
sS'lasting'
p2528
I2
sS'road'
p2529
I2
sS'weah.marco'
p2530
I1
sS'33.4'
p2531
I1
sS'quietly'
p2532
I2
sS'cambridge'
p2533
I1
sS'scorer'
p2534
I3
sS'sport.gambino'
p2535
I1
sS'follows'
p2536
I3
sS'coupon'
p2537
I4
sS'scores'
p2538
I1
sS'cases.ciampi'
p2539
I2
sS'calmly'
p2540
I2
sS'reinforce'
p2541
I1
sS'previously.the'
p2542
I1
sS'rolling'
p2543
I2
sS'119.6'
p2544
I1
sS'mib30'
p2545
I6
sS'determine'
p2546
I2
sS'parties'
p2547
I6
sS'operator'
p2548
I16
sS'angola'
p2549
I1
sS'valuable'
p2550
I2
sS'18mo'
p2551
I1
sS'rossi'
p2552
I9
sS'giafranco'
p2553
I2
sS'corriere'
p2554
I3
sS'38.4'
p2555
I1
sS'area'
p2556
I4
sS'daubed'
p2557
I1
sS'damaged'
p2558
I6
sS'antognoni'
p2559
I2
sS'start'
p2560
I20
sS'parachute'
p2561
I1
sS'italia'
p2562
I13
sS'low'
p2563
I3
sS'lot'
p2564
I3
sS'brazilian'
p2565
I1
sS'cultures'
p2566
I2
sS'454.6'
p2567
I7
sS'year.but'
p2568
I1
sS'woodbridge'
p2569
I1
sS'treat'
p2570
I1
sS'jones'
p2571
I2
sS'western'
p2572
I1
sS'lent'
p2573
I1
sS'complete'
p2574
I4
sS'fixture'
p2575
I1
sS'regard'
p2576
I1
sS'assicurazioni'
p2577
I1
sS'delayed'
p2578
I2
sS'striker'
p2579
I11
sS'indicators'
p2580
I5
sS'wednesday.the'
p2581
I3
sS'end-1996'
p2582
I2
sS'around.on'
p2583
I1
sS'50-1'
p2584
I6
sS'end-1993'
p2585
I1
sS'upbeat'
p2586
I1
sS'1,392.2'
p2587
I1
sS'fighter'
p2588
I1
sS'nationalisations.generali'
p2589
I1
sS'trying'
p2590
I5
sS'dornier'
p2591
I1
sS'1975-76'
p2592
I1
sS'buying'
p2593
I3
sS'happening'
p2594
I1
sS'pull'
p2595
I3
sS'october'
p2596
I3
sS'arranged'
p2597
I2
sS'celebrating'
p2598
I2
sS'11.8totalcargo'
p2599
I1
sS'wholesale'
p2600
I1
sS'0.55'
p2601
I1
sS'monitored'
p2602
I1
sS'500'
p2603
I6
sS'abuses'
p2604
I1
sS'manuel'
p2605
I1
sS"can't"
p2606
I2
sS'sera'
p2607
I1
sS'grass'
p2608
I1
sS'agree'
p2609
I1
sS'affection'
p2610
I1
sS'strongly'
p2611
I4
sS'facilties'
p2612
I1
sS'ac'
p2613
I12
sS'vehicles'
p2614
I1
sS'directly'
p2615
I1
sS'1930-1935'
p2616
I1
sS'promised.parliamentary'
p2617
I1
sS'moved'
p2618
I3
sS'sales'
p2619
I11
sS'deep'
p2620
I1
sS'general'
p2621
I11
sS'imagination'
p2622
I1
sS'everinternational'
p2623
I1
sS'reliability'
p2624
I3
sS'ensuing'
p2625
I1
sS'walked'
p2626
I2
sS'ctzs.analysts'
p2627
I1
sS'organised'
p2628
I1
sS'corresponding'
p2629
I1
sS'moves'
p2630
I2
sS'sebastiano'
p2631
I3
sS'4.5'
p2632
I10
sS'abyss'
p2633
I1
sS'4.6'
p2634
I1
sS'4.1'
p2635
I1
sS'4.0'
p2636
I10
sS'tomasz'
p2637
I1
sS'4.2'
p2638
I2
sS'4.9'
p2639
I1
sS'depth'
p2640
I1
sS'31.this'
p2641
I1
sS'insurance'
p2642
I13
sS'rubber'
p2643
I2
sS'szymkowiak'
p2644
I1
sS'badly'
p2645
I1
sS'valid'
p2646
I2
sS'5'
p2647
I7
sS'ancelotti'
p2648
I1
sS'62.5'
p2649
I1
sS'undermined'
p2650
I1
sS'fools'
p2651
I1
sS'chorzow.he'
p2652
I1
sS'bersani'
p2653
I1
sS'poor'
p2654
I4
sS'internationals'
p2655
I2
sS'championship'
p2656
I4
sS'strokes'
p2657
I1
sS'2,350mia'
p2658
I1
sS'regardless'
p2659
I1
sS'shelter'
p2660
I1
sS'refunded'
p2661
I1
sS'symbol'
p2662
I1
sS'teeth'
p2663
I1
sS'years.in'
p2664
I1
sS'includes'
p2665
I3
sS'a1'
p2666
I1
sS'important'
p2667
I4
sS'nucleus'
p2668
I1
sS'divide'
p2669
I1
sS'accounts'
p2670
I11
sS'fresh'
p2671
I2
sS'included'
p2672
I7
sS'sponsored'
p2673
I1
sS'stocks'
p2674
I6
sS'finals'
p2675
I4
sS'beniamino'
p2676
I1
sS'fiscal'
p2677
I1
sS'cpi'
p2678
I2
sS'613.7'
p2679
I1
sS'individual'
p2680
I2
sS'assets'
p2681
I4
sS'calls'
p2682
I4
sS'evaluation'
p2683
I1
sS'menti'
p2684
I1
sS'invest'
p2685
I2
sS'odds'
p2686
I2
sS'20.7'
p2687
I2
sS'3-3'
p2688
I1
sS'3-2'
p2689
I3
sS'barcelona'
p2690
I13
sS'3-0'
p2691
I10
sS'passed'
p2692
I5
sS'mass'
p2693
I1
sS'profits'
p2694
I10
sS'doubted'
p2695
I1
sS'off.the'
p2696
I3
sS'promotor'
p2697
I1
sS'starting'
p2698
I2
sS'vacek'
p2699
I1
sS'7.14'
p2700
I1
sS'represent'
p2701
I2
sS'monte'
p2702
I2
sS'ago.the'
p2703
I1
sS'sicilian'
p2704
I2
sS'consider'
p2705
I3
sS'7.12'
p2706
I2
sS'1996.it'
p2707
I1
sS'caused'
p2708
I3
sS'16.0via'
p2709
I1
sS'port'
p2710
I1
sS'dollar'
p2711
I2
sS'7.19'
p2712
I1
sS'share.it'
p2713
I1
sS'month'
p2714
I31
sS'founded'
p2715
I2
sS'dugarry'
p2716
I3
sS'ferreira'
p2717
I4
sS'huge'
p2718
I5
sS'welfare'
p2719
I7
sS'lead.at'
p2720
I2
sS'follow'
p2721
I3
sS'settlement'
p2722
I1
sS'pts'
p2723
I3
sS'children'
p2724
I1
sS'0next'
p2725
I2
sS'group.the'
p2726
I1
sS'hearing'
p2727
I1
sS'shattered'
p2728
I1
sS'againstswitzerland'
p2729
I1
sS'modena'
p2730
I1
sS'mineral'
p2731
I3
sS'referring'
p2732
I2
sS'scared'
p2733
I2
sS'tv'
p2734
I3
sS'seasons.internazionale'
p2735
I1
sS'pledged'
p2736
I1
sS'receipts'
p2737
I2
sS'thursday'
p2738
I30
sS'champions'
p2739
I3
sS'lavoro'
p2740
I4
sS'spain'
p2741
I17
sS'alberto'
p2742
I4
sS'bartolini'
p2743
I1
sS'1997.analysts'
p2744
I1
sS'health'
p2745
I1
sS'volunteer'
p2746
I1
sS'presentation'
p2747
I6
sS'norm'
p2748
I2
sS'taif.the'
p2749
I1
sS'activities'
p2750
I2
sS'fax'
p2751
I5
sS'premium'
p2752
I2
sS'worse'
p2753
I2
sS'confidential'
p2754
I1
sS'returning'
p2755
I1
sS'far'
p2756
I8
sS'6-4.the'
p2757
I1
sS'1.73'
p2758
I1
sS'juventusfirst'
p2759
I1
sS'floated'
p2760
I1
sS'results'
p2761
I25
sS'9-1'
p2762
I2
sS'trillions'
p2763
I1
sS'fan'
p2764
I1
sS'minded'
p2765
I1
sS'decide'
p2766
I2
sS'fall'
p2767
I12
sS'2,800sin'
p2768
I1
sS'bid.the'
p2769
I1
sS'24th'
p2770
I1
sS'difference'
p2771
I4
sS'tired.line'
p2772
I1
sS'trigger'
p2773
I1
sS'mild'
p2774
I1
sS'schemes.zola'
p2775
I1
sS'lazio'
p2776
I6
sS'ageing'
p2777
I1
sS'6655'
p2778
I1
sS'joined'
p2779
I2
sS'replaced'
p2780
I1
sS'moldova'
p2781
I12
sS'large'
p2782
I5
sS'saudi'
p2783
I2
sS'7-2'
p2784
I1
sS'small'
p2785
I1
sS'russian'
p2786
I2
sS'1,741.5'
p2787
I1
sS'20th'
p2788
I1
sS'programme'
p2789
I5
sS"i'll"
p2790
I1
sS'deschamps'
p2791
I3
sS'antoni'
p2792
I3
sS'tel'
p2793
I5
sS'portable'
p2794
I1
sS'bianconeri'
p2795
I1
sS'giacone'
p2796
I2
sS'195'
p2797
I4
sS'penalties'
p2798
I1
sS'3.13'
p2799
I2
sS'3.14'
p2800
I1
sS'3.15'
p2801
I1
sS'3.16'
p2802
I1
sS'cash'
p2803
I8
sS'past'
p2804
I13
sS'czechs'
p2805
I2
sS'6,646'
p2806
I1
sS'players.the'
p2807
I1
sS'value'
p2808
I8
sS'vieri'
p2809
I14
sS'2-1corresponding'
p2810
I1
sS'attributable'
p2811
I1
sS'investment'
p2812
I15
sS'expenses'
p2813
I1
sS'businesses.gross'
p2814
I1
sS'ilario'
p2815
I1
sS'304,524'
p2816
I1
sS'defence'
p2817
I12
sS'stood'
p2818
I2
sS'salernitana.angelo'
p2819
I1
sS'sun'
p2820
I1
sS'historic'
p2821
I1
sS'5.3'
p2822
I4
sS'said.turnover'
p2823
I1
sS'said.operations'
p2824
I1
sS'committed'
p2825
I1
sS'1.22'
p2826
I1
sS'certificates'
p2827
I2
sS'veltroni'
p2828
I1
sS'4,950'
p2829
I1
sS'racing'
p2830
I2
sS'public'
p2831
I17
sS'multinational'
p2832
I4
sS'igier'
p2833
I1
sS'roig'
p2834
I1
sS'christian'
p2835
I9
sS'christophe'
p2836
I1
sS'ranged'
p2837
I1
sS'component'
p2838
I2
sS'venice'
p2839
I1
sS'yellow'
p2840
I1
sS'6.72'
p2841
I1
sS'hours'
p2842
I15
sS'dividend.among'
p2843
I1
sS'selective'
p2844
I1
sS'jonas'
p2845
I1
sS'ramon'
p2846
I1
sS'palio'
p2847
I1
sS'investigating'
p2848
I2
sS'46.6'
p2849
I1
sS'november'
p2850
I9
sS'strong'
p2851
I11
sS'respect'
p2852
I1
sS'fiorentina'
p2853
I2
sS'clarification'
p2854
I1
sS'arena'
p2855
I3
sS'attilio'
p2856
I1
sS'34'
p2857
I6
sS'prosecutors'
p2858
I1
sS'ahead'
p2859
I15
sS'goalscorer'
p2860
I4
sS'rating'
p2861
I2
sS'inspired'
p2862
I1
sS'losses'
p2863
I1
sS'exceptionally'
p2864
I1
sS'untiring'
p2865
I1
sS'experience'
p2866
I3
sS'lire.dealers'
p2867
I1
sS'airport'
p2868
I8
sS'246'
p2869
I2
sS'advertising'
p2870
I6
sS'ciampino'
p2871
I1
sS'social'
p2872
I3
sS'action'
p2873
I5
sS'lire.livolsi'
p2874
I1
sS'luck'
p2875
I1
sS'back.gay'
p2876
I1
sS'point'
p2877
I10
sS'13.80'
p2878
I1
sS'followed'
p2879
I3
sS'bunge'
p2880
I1
sS'tuesday.stefanel'
p2881
I1
sS'18.4'
p2882
I1
sS'africa'
p2883
I2
sS'tiziano'
p2884
I1
sS'said.air'
p2885
I1
sS'6-3.the'
p2886
I1
sS'respectively.full'
p2887
I1
sS'aimed'
p2888
I2
sS'1909'
p2889
I1
sS'1906'
p2890
I1
sS'1907'
p2891
I1
sS'1905'
p2892
I1
sS'florence'
p2893
I2
sS'tackling'
p2894
I1
sS'15.1pisacargo'
p2895
I1
sS'shareholders'
p2896
I5
sS'eye'
p2897
I7
sS'takes'
p2898
I2
sS'48-32'
p2899
I2
sS'revelation'
p2900
I1
sS'percent.ciampi'
p2901
I1
sS'petroleum'
p2902
I1
sS'charge'
p2903
I3
sS'generate'
p2904
I2
sS'giancarlo'
p2905
I1
sS'caution'
p2906
I1
sS'compensate'
p2907
I1
sS'interview.he'
p2908
I1
sS'archives'
p2909
I1
sS'141.915'
p2910
I1
sS'6'
p2911
I11
sS'taken'
p2912
I6
sS'raft'
p2913
I1
sS'defender.mark'
p2914
I1
sS'markets'
p2915
I11
sS'defences.strengths'
p2916
I1
sS'4,950pek'
p2917
I1
sS'lowering'
p2918
I1
sS'israel'
p2919
I1
sS'maghreb'
p2920
I3
sS'273'
p2921
I1
sS'excluded'
p2922
I2
sS'19.1'
p2923
I2
sS'operators'
p2924
I6
sS'operations.they'
p2925
I1
sS'51st'
p2926
I1
sS'surprisingly'
p2927
I1
sS'tested'
p2928
I2
sS'landed'
p2929
I1
sS'37-year'
p2930
I1
sS'controlling'
p2931
I1
sS'broke'
p2932
I1
sS'25-1'
p2933
I2
sS'known'
p2934
I5
sS'components'
p2935
I2
sS'doom'
p2936
I1
sS'cult'
p2937
I1
sS'town'
p2938
I5
sS'weighed'
p2939
I1
sS'keeping'
p2940
I2
sS'include'
p2941
I5
sS'reallocation'
p2942
I1
sS'hour'
p2943
I2
sS'middle'
p2944
I5
sS'suspension.cristophe'
p2945
I1
sS'408-8787'
p2946
I1
sS'created'
p2947
I2
sS'industrialists'
p2948
I2
sS'coalition'
p2949
I8
sS'plea'
p2950
I2
sS'dei'
p2951
I2
sS'remain'
p2952
I4
sS'slogans.sudan'
p2953
I1
sS'del'
p2954
I12
sS'sent'
p2955
I8
sS'morgan'
p2956
I1
sS'v'
p2957
I5
sS'strategies'
p2958
I1
sS'dec'
p2959
I1
sS'broad'
p2960
I1
sS'history'
p2961
I8
sS'thursday.prime'
p2962
I1
sS'said.france'
p2963
I1
sS'lazio.italy'
p2964
I1
sS'executing'
p2965
I1
sS'stated'
p2966
I3
sS'1996.the'
p2967
I1
sS'accept'
p2968
I1
sS'days'
p2969
I5
sS'states'
p2970
I10
sS'prodi'
p2971
I14
sS'minimum'
p2972
I1
sS'said.milan'
p2973
I1
sS'numbers'
p2974
I1
sS'dermopatico'
p2975
I1
sS'sense'
p2976
I1
sS'sharp'
p2977
I2
sS'matter.monorchio'
p2978
I2
sS'grottanelli'
p2979
I1
sS'firmly'
p2980
I1
sS'5.0'
p2981
I2
sS'influenced'
p2982
I1
sS'5.2'
p2983
I2
sS'13.5'
p2984
I3
sS'juve'
p2985
I12
sS'goal'
p2986
I17
sS'silvery'
p2987
I1
sS'14.920'
p2988
I1
sS'1939.major'
p2989
I1
sS'saturday.but'
p2990
I1
sS'breaking'
p2991
I2
sS'pressing'
p2992
I1
sS'conducted'
p2993
I5
sS'defensive'
p2994
I3
sS'j'
p2995
I1
sS'tuesday.scorers'
p2996
I1
sS'metalworkers'
p2997
I1
sS'aosta'
p2998
I1
sS'field'
p2999
I1
sS'sales.olivetti'
p3000
I1
sS'csp'
p3001
I1
sS'mould'
p3002
I1
sS'controversially'
p3003
I1
sS'plant'
p3004
I4
sS'619'
p3005
I1
sS'plans'
p3006
I5
sS'perished'
p3007
I1
sS'612'
p3008
I1
sS'613'
p3009
I1
sS'5.65'
p3010
I1
sS'weaknesses'
p3011
I1
sS'headquartered'
p3012
I1
sS'par'
p3013
I4
sS'1994.lady'
p3014
I1
sS'consolidation'
p3015
I1
sS'reflect'
p3016
I2
sS'bertinotti'
p3017
I3
sS'plane'
p3018
I6
sS'357.4'
p3019
I2
sS'blood'
p3020
I1
sS'coming'
p3021
I3
sS'gasp'
p3022
I1
sS'appealed'
p3023
I1
sS'lanka'
p3024
I1
sS'carmaker'
p3025
I2
sS'5,300'
p3026
I1
sS'acquisitions'
p3027
I1
sS'short'
p3028
I6
sS'brady'
p3029
I1
sS'2,150bom'
p3030
I1
sS'crowded'
p3031
I1
sS'scuffles'
p3032
I2
sS'montenegrin'
p3033
I1
sS'quoted'
p3034
I11
sS'doctor'
p3035
I2
sS'overnight'
p3036
I7
sS'rallied'
p3037
I1
sS'keen'
p3038
I1
sS'shore'
p3039
I1
sS'broadcasting'
p3040
I3
sS'reputation'
p3041
I3
sS'skilful'
p3042
I1
sS'media'
p3043
I7
sS'banks'
p3044
I7
sS'pleasure'
p3045
I1
sS'alpi'
p3046
I1
sS'stripling'
p3047
I1
sS'dream'
p3048
I1
sS'playing'
p3049
I15
sS'turnover'
p3050
I16
sS'korda'
p3051
I1
sS'reports.uranium'
p3052
I1
sS'2,775'
p3053
I2
sS'help'
p3054
I12
sS'4,010'
p3055
I1
sS'generale'
p3056
I1
sS'bowl'
p3057
I1
sS'mission'
p3058
I2
sS'setback'
p3059
I1
sS'trade'
p3060
I18
sS'abstain'
p3061
I1
sS'held'
p3062
I11
sS'attitude'
p3063
I1
sS'paper'
p3064
I1
sS'4.45'
p3065
I2
sS'juskowiak'
p3066
I3
sS'committee'
p3067
I3
sS'signs'
p3068
I8
sS'220.3'
p3069
I1
sS'1.97'
p3070
I2
sS'1.94'
p3071
I1
sS'avenue'
p3072
I1
sS'4221'
p3073
I1
sS'roots'
p3074
I1
sS'34.8totalpassengers'
p3075
I1
sS'24'
p3076
I11
sS'25'
p3077
I25
sS'style'
p3078
I4
sS'27'
p3079
I9
sS'20'
p3080
I14
sS'21'
p3081
I3
sS'22'
p3082
I5
sS'23'
p3083
I11
sS'pcs'
p3084
I2
sS'rikl'
p3085
I1
sS'greatly'
p3086
I1
sS'28'
p3087
I13
sS'29'
p3088
I6
sS'pct'
p3089
I10
sS'63.2'
p3090
I1
sS'late'
p3091
I7
sS'resort'
p3092
I2
sS'absence'
p3093
I1
sS'reuters'
p3094
I15
sS'pcn'
p3095
I2
sS'systems'
p3096
I4
sS'van'
p3097
I2
sS'39266129450'
p3098
I4
sS'slammed'
p3099
I2
sS'lira'
p3100
I14
sS'soccer'
p3101
I6
sS'consignment'
p3102
I1
sS'lire'
p3103
I142
sS'78red'
p3104
I1
sS'enquiry'
p3105
I1
sS'7.05'
p3106
I1
sS'good'
p3107
I16
sS'return'
p3108
I13
sS'seeking'
p3109
I1
sS'food'
p3110
I2
sS'propose'
p3111
I3
sS'undergone'
p3112
I2
sS'reflected'
p3113
I1
sS'units'
p3114
I3
sS'walls'
p3115
I1
sS'2,350'
p3116
I1
sS'126.00'
p3117
I1
sS'gasparini'
p3118
I2
sS'stepped'
p3119
I2
sS'association'
p3120
I1
sS'impressive'
p3121
I1
sS'mystery'
p3122
I1
sS'easily'
p3123
I4
sS'buoyed'
p3124
I1
sS'document'
p3125
I2
sS'billion.sales'
p3126
I1
sS'kalakla'
p3127
I1
sS'fully'
p3128
I5
sS'2,953.8'
p3129
I1
sS'presented'
p3130
I5
sS'porta'
p3131
I1
sS'2,280'
p3132
I1
sS'6,500'
p3133
I1
sS'stopped'
p3134
I2
sS'die'
p3135
I1
sS'genoa'
p3136
I4
sS'date.poland'
p3137
I1
sS"isn't"
p3138
I4
sS'investigators'
p3139
I1
sS'heavy'
p3140
I3
sS'injured'
p3141
I4
sS'harm'
p3142
I2
sS'england'
p3143
I12
sS'weight'
p3144
I3
sS'cross'
p3145
I1
sS'house'
p3146
I12
sS'energy'
p3147
I4
sS'hard'
p3148
I14
sS'reduce'
p3149
I4
sS'idea'
p3150
I1
sS'slowdown'
p3151
I2
sS'lippi'
p3152
I9
sS'expect'
p3153
I6
sS'wanting'
p3154
I2
sS'todd'
p3155
I1
sS'seniority'
p3156
I4
sS'operation'
p3157
I5
sS'now.if'
p3158
I1
sS'trillion.the'
p3159
I1
sS'jugovic'
p3160
I3
sS'18goals'
p3161
I1
sS'really'
p3162
I4
sS'1-andrzej'
p3163
I2
sS'simplify'
p3164
I1
sS'1,196'
p3165
I1
sS'missed'
p3166
I5
sS'blacks'
p3167
I1
sS'sokolowski'
p3168
I1
sS'marcin'
p3169
I1
sS'miss'
p3170
I3
sS'nuovo'
p3171
I1
sS'8,226'
p3172
I1
sS'projected'
p3173
I1
sS'publish'
p3174
I1
sS'research'
p3175
I5
sS'1.74'
p3176
I1
sS'padovano'
p3177
I2
sS'1.77'
p3178
I2
sS'dominated'
p3179
I3
sS'hill'
p3180
I1
sS'7'
p3181
I18
sS'1991.alessandro'
p3182
I1
sS'cupwinners'
p3183
I1
sS'targetted'
p3184
I1
sS'issue'
p3185
I3
sS'1-3'
p3186
I1
sS'highway'
p3187
I1
sS'43,855'
p3188
I1
sS'3.08'
p3189
I3
sS'risen'
p3190
I3
sS'belied'
p3191
I1
sS'148.7'
p3192
I1
sS'friday'
p3193
I25
sS'paschi'
p3194
I5
sS'3.05'
p3195
I2
sS'protagonists'
p3196
I1
sS'mikhail'
p3197
I1
sS'extraordinary'
p3198
I1
sS'reason'
p3199
I2
sS'base'
p3200
I2
sS'irate'
p3201
I1
sS'members'
p3202
I4
sS'imagine'
p3203
I1
sS'aziz'
p3204
I1
sS'romeo'
p3205
I1
sS'beginning'
p3206
I5
sS'guingamp'
p3207
I1
sS'additional'
p3208
I4
sS'fiat'
p3209
I13
sS'andrzej'
p3210
I5
sS'unique'
p3211
I1
sS'reared'
p3212
I1
sS'benefits'
p3213
I3
sS'jet'
p3214
I2
sS'11,609'
p3215
I1
sS'karnishovas'
p3216
I1
sS'bond.the'
p3217
I1
sS'silverware'
p3218
I1
sS'computers'
p3219
I2
sS'terrible'
p3220
I1
sS'american'
p3221
I3
sS'businessmen'
p3222
I1
sS'w'
p3223
I3
sS'friday.analysts'
p3224
I1
sS'123.0'
p3225
I1
sS'10.08totalcargo'
p3226
I1
sS'fallen'
p3227
I1
sS'7,237'
p3228
I1
sS'11.76'
p3229
I1
sS'soccerchampionship'
p3230
I1
sS'major'
p3231
I3
sS'medibanca'
p3232
I1
sS'prevent'
p3233
I2
sS'dino'
p3234
I5
sS'6.01'
p3235
I1
sS'netted'
p3236
I1
sS'number'
p3237
I26
sS'contributions'
p3238
I4
sS'68.40centrosim'
p3239
I1
sS'mishandled'
p3240
I3
sS'colombia'
p3241
I1
sS'17122'
p3242
I1
sS'55.0'
p3243
I1
sS'cups'
p3244
I2
sS'side.camporese'
p3245
I1
sS'passer'
p3246
I1
sS'passes'
p3247
I2
sS'charge.dominique'
p3248
I1
sS'2-ciro'
p3249
I2
sS'results.its'
p3250
I1
sS'final.compatriot'
p3251
I1
sS'needed'
p3252
I4
sS'introduction'
p3253
I2
sS'leading'
p3254
I9
sS'bush.the'
p3255
I1
sS'burn'
p3256
I1
sS'statement'
p3257
I34
sS'4-dino'
p3258
I2
sS'misrata'
p3259
I1
sS'compromise'
p3260
I2
sS'scheme'
p3261
I2
sS'syrup'
p3262
I1
sS'challenge'
p3263
I2
sS'recovered'
p3264
I4
sS'woodforde'
p3265
I1
sS'46.324'
p3266
I2
sS'internazionale'
p3267
I2
sS'option'
p3268
I3
sS'relationship'
p3269
I1
sS'costa'
p3270
I7
sS'5.90'
p3271
I1
sS'interviewed'
p3272
I1
sS'immediate'
p3273
I2
sS'mini'
p3274
I15
sS'appreciation'
p3275
I4
sS'1995.cholet'
p3276
I1
sS'188.6'
p3277
I1
sS'notification'
p3278
I1
sS'nesta'
p3279
I3
sS'389.2'
p3280
I1
sS'focusing'
p3281
I1
sS'1910'
p3282
I1
sS'licensed'
p3283
I3
sS'inaugurated'
p3284
I1
sS'percentage'
p3285
I1
sS'friday.former'
p3286
I1
sS'hold.the'
p3287
I2
sS'kind'
p3288
I1
sS'grew'
p3289
I2
sS'soccerleague'
p3290
I1
sS'professionalism'
p3291
I3
sS'double'
p3292
I6
sS'10-roberto'
p3293
I2
sS'aims'
p3294
I2
sS'finances'
p3295
I1
sS'youth'
p3296
I3
sS'2,939.1'
p3297
I1
sS'determined'
p3298
I4
sS'tunis'
p3299
I1
sS'risks'
p3300
I2
sS'elaborate'
p3301
I1
sS'fausto'
p3302
I2
sS'inflow'
p3303
I4
sS'declare'
p3304
I3
sS'eurotax'
p3305
I1
sS'breakeven'
p3306
I2
sS'deciding'
p3307
I5
sS'indonesia'
p3308
I1
sS'picked'
p3309
I2
sS'lippirecord'
p3310
I1
sS'reactors.italian'
p3311
I1
sS'62'
p3312
I1
sS'alongside'
p3313
I3
sS'googly.yes'
p3314
I1
sS'machines'
p3315
I1
sS'2.94'
p3316
I2
sS'novak'
p3317
I1
sS'substantial'
p3318
I1
sS'839,286'
p3319
I1
sS'alike'
p3320
I2
sS'sentences'
p3321
I2
sS'16,950'
p3322
I1
sS'antonio'
p3323
I2
sS'orders'
p3324
I5
sS'mogul'
p3325
I1
sS'sell'
p3326
I4
sS'lie'
p3327
I1
sS'reasonable'
p3328
I1
sS'built'
p3329
I1
sS'zero'
p3330
I2
sS'coachfabio'
p3331
I1
sS'partly'
p3332
I1
sS'self'
p3333
I1
sS'scotland'
p3334
I1
sS'reliance'
p3335
I1
sS'majority'
p3336
I8
sS'entirety'
p3337
I1
sS'internal'
p3338
I1
sS'directives'
p3339
I3
sS'build'
p3340
I4
sS'issues.a'
p3341
I1
sS'finding'
p3342
I1
sS'1500'
p3343
I1
sS'6-1.bjorkman'
p3344
I1
sS'casablanca.the'
p3345
I1
sS'donot'
p3346
I1
sS'club'
p3347
I27
sS'12mo'
p3348
I1
sS'play'
p3349
I19
sS'added'
p3350
I14
sS'electric'
p3351
I1
sS'death'
p3352
I2
sS'hourly'
p3353
I2
sS'singles'
p3354
I7
sS'albert'
p3355
I1
sS'english'
p3356
I8
sS'779'
p3357
I1
sS'1995.a'
p3358
I1
sS'crash'
p3359
I5
sS'75'
p3360
I3
sS'shareholder'
p3361
I1
sS'plan'
p3362
I6
sS'significant'
p3363
I2
sS'psbr'
p3364
I7
sS'services'
p3365
I9
sS'seasons'
p3366
I2
sS'bustled'
p3367
I1
sS'extremely'
p3368
I1
sS'privatised'
p3369
I4
sS'79'
p3370
I1
sS'albanians'
p3371
I1
sS'5-4'
p3372
I2
sS'wreckage'
p3373
I3
sS'5-1'
p3374
I4
sS'dealers'
p3375
I3
sS'mobile'
p3376
I7
sS'performances'
p3377
I1
sS'clear'
p3378
I12
sS'humanitarian'
p3379
I2
sS'cover'
p3380
I1
sS'1,561.7'
p3381
I1
sS'slick'
p3382
I1
sS'cricket.another'
p3383
I1
sS'dpef'
p3384
I2
sS'quereshi'
p3385
I1
sS'ruud'
p3386
I1
sS'researchers'
p3387
I1
sS'weigh'
p3388
I2
sS'realised'
p3389
I1
sS'2.68'
p3390
I1
sS'institutions'
p3391
I2
sS'joining'
p3392
I6
sS'sector'
p3393
I17
sS'gdp'
p3394
I5
sS'thomas'
p3395
I1
sS'trophies.they'
p3396
I1
sS'particularly'
p3397
I3
sS'rebels'
p3398
I1
sS'gold'
p3399
I39
sS'restore'
p3400
I1
sS'obligations'
p3401
I1
sS'4.the'
p3402
I2
sS'doctors'
p3403
I1
sS'friday.jana'
p3404
I1
sS'moroccan'
p3405
I8
sS'favour'
p3406
I2
sS'corresponded'
p3407
I1
sS'montepaschi'
p3408
I1
sS'session'
p3409
I7
sS'businesses'
p3410
I2
sS'653'
p3411
I2
sS'fino'
p3412
I1
sS'defender'
p3413
I16
sS'headlines'
p3414
I4
sS'tacchinardi'
p3415
I2
sS'99.26'
p3416
I1
sS'faces'
p3417
I2
sS'impact'
p3418
I1
sS'revenues.total'
p3419
I1
sS'giant'
p3420
I7
sS'believe'
p3421
I3
sS'regulations'
p3422
I2
sS'comboni'
p3423
I1
sS'northern'
p3424
I1
sS'12th'
p3425
I1
sS'forand'
p3426
I1
sS'nervous'
p3427
I3
sS'undying'
p3428
I1
sS'years.milan'
p3429
I1
sS'19th'
p3430
I1
sS'penalty'
p3431
I4
sS'failed'
p3432
I4
sS'flights'
p3433
I2
sS'wayne'
p3434
I1
sS'olivetti'
p3435
I20
sS'equity'
p3436
I4
sS'8'
p3437
I17
sS'goalless'
p3438
I1
sS'15,1910'
p3439
I1
sS'merged'
p3440
I2
sS'ribor'
p3441
I2
sS'ordained'
p3442
I2
sS'diversify'
p3443
I1
sS'dominant'
p3444
I2
sS'gains'
p3445
I6
sS'banned'
p3446
I1
sS'referees'
p3447
I1
sS'cheaper'
p3448
I1
sS'whistle'
p3449
I1
sS'terrestrial'
p3450
I1
sS'5,000'
p3451
I1
sS'fastest'
p3452
I1
sS'closely'
p3453
I3
sS'eurostat'
p3454
I1
sS'104.051'
p3455
I1
sS'1.82'
p3456
I1
sS'11-8'
p3457
I1
sS'zdenek'
p3458
I1
sS'1.86'
p3459
I1
sS'resolve'
p3460
I2
sS'panatta'
p3461
I6
sS'racially'
p3462
I1
sS'nicknamed'
p3463
I2
sS'66129450'
p3464
I1
sS'gaddafi'
p3465
I2
sS'matches.poland'
p3466
I1
sS'said.such'
p3467
I1
sS'garcia'
p3468
I1
sS'priest.zvonimir'
p3469
I1
sS'mistakes'
p3470
I1
sS'croatia'
p3471
I2
sS'common'
p3472
I4
sS'said.according'
p3473
I1
sS'doubles'
p3474
I4
sS'replying'
p3475
I1
sS'afterthe'
p3476
I2
sS'relentless'
p3477
I1
sS'wrote'
p3478
I1
sS'county'
p3479
I1
sS'7.30'
p3480
I2
sS'set'
p3481
I40
sS'7.34'
p3482
I1
sS'supporting'
p3483
I1
sS'wojciech'
p3484
I2
sS'declines'
p3485
I3
sS'7.38'
p3486
I2
sS'129.absent'
p3487
I1
sS'topics'
p3488
I1
sS'schizophrenic'
p3489
I1
sS'culture'
p3490
I2
sS'2.9'
p3491
I1
sS'professional'
p3492
I3
sS'2,775del'
p3493
I1
sS'2-yr'
p3494
I2
sS'1930,milan'
p3495
I1
sS'15.following'
p3496
I1
sS'tender'
p3497
I5
sS'close'
p3498
I12
sS'2.1'
p3499
I2
sS'2.0'
p3500
I11
sS'2.7'
p3501
I1
sS'arm'
p3502
I1
sS'2.5'
p3503
I17
sS'2.4'
p3504
I1
sS'regulator'
p3505
I1
sS'cargotraffic'
p3506
I1
sS'potential'
p3507
I1
sS'probable'
p3508
I1
sS'muted'
p3509
I1
sS'pictures'
p3510
I2
sS'currently'
p3511
I9
sS'case'
p3512
I8
sS'24.50'
p3513
I1
sS'won'
p3514
I33
sS'captured'
p3515
I1
sS'use'
p3516
I4
sS'honour'
p3517
I1
sS'pc'
p3518
I2
sS'probably'
p3519
I2
sS'carryover'
p3520
I1
sS'conditions'
p3521
I2
sS'range.traded'
p3522
I1
sS'europe'
p3523
I19
sS'latin'
p3524
I1
sS'recently'
p3525
I5
sS'announcement'
p3526
I2
sS'liberalise'
p3527
I6
sS'dividends'
p3528
I1
sS'sold'
p3529
I6
sS'sole'
p3530
I8
sS'sham'
p3531
I1
sS'59,703'
p3532
I1
sS'qubba'
p3533
I1
sS'ranked'
p3534
I12
sS'eranio'
p3535
I2
sS'opposition'
p3536
I11
sS'friday.they'
p3537
I2
sS'dividend'
p3538
I24
sS'1995.earlier'
p3539
I1
sS'7-1in'
p3540
I1
sS'abruptly'
p3541
I1
sS'heaving'
p3542
I1
sS'league'
p3543
I35
sS'prospects'
p3544
I4
sS'13.00'
p3545
I1
sS'reverse'
p3546
I1
sS'mibtel'
p3547
I6
sS"wouldn't"
p3548
I1
sS'annual'
p3549
I8
sS'pds'
p3550
I1
sS'averages.not'
p3551
I1
sS'foreign'
p3552
I8
sS'11-gianfranco'
p3553
I2
sS'mcdonald'
p3554
I1
sS'roman'
p3555
I2
sS'1.63'
p3556
I1
sS'redemptions'
p3557
I1
sS'1.61'
p3558
I3
sS'15.6'
p3559
I2
sS'bashkim'
p3560
I1
sS'added.the'
p3561
I1
sS'bots'
p3562
I3
sS'bond'
p3563
I4
sS'approve'
p3564
I4
sS'that.in'
p3565
I1
sS'morocco'
p3566
I4
sS'capello'
p3567
I5
sS'making.the'
p3568
I2
sS'5,910'
p3569
I1
sS'supply'
p3570
I2
sS'simple'
p3571
I1
sS'quagliano'
p3572
I1
sS'northeastern'
p3573
I1
sS'billion.it'
p3574
I2
sS'6.1total'
p3575
I1
sS'confusion.they'
p3576
I1
sS'66782501'
p3577
I1
sS'header'
p3578
I2
sS'unforced'
p3579
I3
sS'agents'
p3580
I3
sS'likes'
p3581
I1
sS'church'
p3582
I1
sS'vessel'
p3583
I1
sS'juventus.or'
p3584
I1
sS'10.66'
p3585
I1
sS'zola'
p3586
I7
sS'bolognacargo'
p3587
I1
sS'expensive'
p3588
I1
sS'bolster'
p3589
I1
sS'decline'
p3590
I2
sS'raise'
p3591
I5
sS'telephony'
p3592
I2
sS'monthly'
p3593
I1
sS'2-pawel'
p3594
I2
sS'political'
p3595
I7
sS'strategy'
p3596
I2
sS'hitting'
p3597
I1
sS'rivals'
p3598
I2
sS'fuser'
p3599
I3
sS'dropping'
p3600
I2
sS'complicated'
p3601
I1
sS'back.for'
p3602
I1
sS'damm'
p3603
I1
sS'said.the'
p3604
I23
sS'pile'
p3605
I2
sS'napm'
p3606
I3
sS'bugatti'
p3607
I5
sS'meeting'
p3608
I13
sS'3-jacek'
p3609
I2
sS'pl'
p3610
I3
sS'walter'
p3611
I1
sS'firm'
p3612
I2
sS'resting'
p3613
I1
sS'generating'
p3614
I2
sS'lived'
p3615
I2
sS'divergence'
p3616
I1
sS'1950s'
p3617
I1
sS'gay'
p3618
I2
sS'passengers'
p3619
I2
sS'4,130tyo'
p3620
I1
sS'poland.coach'
p3621
I1
sS'reuters.mediaset'
p3622
I1
sS'crack'
p3623
I1
sS'20-year'
p3624
I1
sS'39'
p3625
I17
sS'6.14'
p3626
I1
sS'relinquishing'
p3627
I1
sS'fund'
p3628
I5
sS'understand'
p3629
I2
sS'brokers'
p3630
I5
sS'realms'
p3631
I1
sS'muscles'
p3632
I1
sS'prices'
p3633
I8
sS'revenge'
p3634
I1
sS'audience'
p3635
I1
sS'underdogs'
p3636
I1
sS'1946.a'
p3637
I1
sS'georgia'
p3638
I6
sS'stankovic'
p3639
I1
sS'look'
p3640
I6
sS'upturn.irs'
p3641
I1
sS'raw'
p3642
I2
sS'stadio'
p3643
I1
sS'straight'
p3644
I1
sS'battling'
p3645
I1
sS'elections'
p3646
I2
sS'3.36'
p3647
I2
sS'waldoch'
p3648
I3
sS'records'
p3649
I2
sS'kick'
p3650
I6
sS'service.tommasi'
p3651
I1
sS'error'
p3652
I1
sS'fun'
p3653
I1
sS'3,800'
p3654
I1
sS'clouded'
p3655
I1
sS'guide'
p3656
I1
sS'ras'
p3657
I5
sS'19.4'
p3658
I1
sS'scheduled'
p3659
I1
sS'larger'
p3660
I2
sS'costly'
p3661
I1
sS'hoping'
p3662
I2
sS'waned.so'
p3663
I1
sS'cents'
p3664
I2
sS'averaging'
p3665
I1
sS'avro'
p3666
I1
sS'divo'
p3667
I1
sS'origin'
p3668
I2
sS'35'
p3669
I4
sS'triple'
p3670
I2
sS'seen'
p3671
I17
sS'ready'
p3672
I5
sS'reuters.but'
p3673
I1
sS'lacklustre'
p3674
I3
sS'alliances'
p3675
I1
sS'30.0total'
p3676
I1
sS'chase'
p3677
I2
sS'lengthy'
p3678
I2
sS'guido'
p3679
I2
sS'italy'
p3680
I148
sS'baseline'
p3681
I5
sS'grant'
p3682
I1
sS'9.898'
p3683
I1
sS'group.iri'
p3684
I1
sS'reassessed'
p3685
I1
sS'1,503'
p3686
I1
sS'pondered'
p3687
I1
sS'shorter'
p3688
I1
sS'mexico'
p3689
I1
sS'italo'
p3690
I1
sS'said.also'
p3691
I1
sS'ledwonitaly'
p3692
I1
sS'virtually'
p3693
I2
sS'widely'
p3694
I1
sS'eventual'
p3695
I4
sS'9'
p3696
I11
sS'products'
p3697
I4
sS'amoruso.when'
p3698
I1
sS'marcello'
p3699
I5
sS'month.influential'
p3700
I1
sS'higher'
p3701
I20
sS'development'
p3702
I3
sS'calculation'
p3703
I1
sS'used'
p3704
I7
sS'ingot'
p3705
I2
sS'wrote.indications'
p3706
I1
sS'lire.march'
p3707
I1
sS'33-1'
p3708
I3
sS'8.87'
p3709
I2
sS'domains'
p3710
I1
sS'moment'
p3711
I5
sS'levels'
p3712
I6
sS'moving'
p3713
I3
sS'purpose'
p3714
I2
sS'three.murdock'
p3715
I1
sS'others.alessio'
p3716
I1
sS'aggregate'
p3717
I2
sS'future.gambino'
p3718
I1
sS'522record'
p3719
I1
sS'nickname'
p3720
I1
sS'recent'
p3721
I3
sS'15.0'
p3722
I1
sS'lower'
p3723
I31
sS'task'
p3724
I2
sS'15.5'
p3725
I10
sS'perugia'
p3726
I3
sS'124.00'
p3727
I1
sS'weapons.priore'
p3728
I1
sS'95,8600'
p3729
I1
sS'poland'
p3730
I28
sS'alleging'
p3731
I1
sS'qualification'
p3732
I2
sS'spent'
p3733
I1
sS'server'
p3734
I1
sS'media.he'
p3735
I1
sS'66129507'
p3736
I13
sS'cheer'
p3737
I1
sS'edge'
p3738
I1
sS'btps'
p3739
I1
sS'gazzetta'
p3740
I1
sS'withdraw'
p3741
I1
sS'unsold.bugatti'
p3742
I1
sS'swiss'
p3743
I1
sS'traffic'
p3744
I6
sS'skill'
p3745
I1
sS'gsm'
p3746
I4
sS'spend'
p3747
I1
sS'stem'
p3748
I1
sS'scouring'
p3749
I1
sS'snamprogetti'
p3750
I1
sS'drawn'
p3751
I10
sS'marshalling'
p3752
I1
sS'lirenote'
p3753
I1
sS'scoring.despite'
p3754
I2
sS'monday.they'
p3755
I1
sS'competitive'
p3756
I5
sS'quarters'
p3757
I1
sS'widzew'
p3758
I1
sS'marque'
p3759
I2
sS'shape'
p3760
I1
sS'edizione'
p3761
I1
sS'75-73'
p3762
I4
sS'immediately'
p3763
I3
sS'love'
p3764
I1
sS'alternative'
p3765
I4
sS'1963'
p3766
I1
sS'wage'
p3767
I5
sS'cut'
p3768
I7
sS'5,460'
p3769
I1
sS'cup'
p3770
I66
sS'surprises'
p3771
I2
sS'workers'
p3772
I1
sS'percent'
p3773
I186
sS'argentina'
p3774
I1
sS'420.7'
p3775
I1
sS'declined'
p3776
I6
sS'tuesday.claudio'
p3777
I1
sS'prices.he'
p3778
I1
sS'source'
p3779
I10
sS'labour'
p3780
I1
sS'deliberately'
p3781
I1
sS'nargiso'
p3782
I1
sS'input'
p3783
I1
sS'violations'
p3784
I1
sS'easter'
p3785
I3
sS'transformation'
p3786
I1
sS'chairman'
p3787
I11
sS'bin'
p3788
I2
sS'were.ras'
p3789
I1
sS'australia'
p3790
I3
sS'678'
p3791
I13
sS'doors'
p3792
I2
sS'gaetano'
p3793
I1
sS'big'
p3794
I10
sS'showing'
p3795
I6
sS'discriminatory'
p3796
I1
sS'bureaucrat'
p3797
I1
sS'zoff'
p3798
I2
sS'siro'
p3799
I5
sS'matters'
p3800
I1
sS'game'
p3801
I22
sS'parma'
p3802
I3
sS'monopoly.analysts'
p3803
I2
sS'notts'
p3804
I1
sS'bit'
p3805
I6
sS'treasury.it'
p3806
I1
sS'amara'
p3807
I1
sS'projects'
p3808
I2
sS'formal'
p3809
I1
sS'equities'
p3810
I1
sS'imposed'
p3811
I1
sS'd'
p3812
I3
sS'flight'
p3813
I4
sS'positions.italy'
p3814
I1
sS'pillar'
p3815
I1
sS'1.2'
p3816
I1
sS'said.naples'
p3817
I1
sS'underway'
p3818
I1
sS'chorus'
p3819
I1
sS'communications'
p3820
I1
sS'continue'
p3821
I6
sS'depositary'
p3822
I2
sS'popular'
p3823
I1
sS'supercup'
p3824
I2
sS'21,217'
p3825
I1
sS'54.5'
p3826
I1
sS'54.4'
p3827
I1
sS'3,785ccs'
p3828
I1
sS'names'
p3829
I1
sS'set.furlan'
p3830
I1
sS'roma.that'
p3831
I1
sS'collectors'
p3832
I1
sS'senate'
p3833
I1
sS'affects'
p3834
I1
sS'2,755'
p3835
I1
sS'publitalia'
p3836
I2
sS'arrived'
p3837
I4
sS'pierre'
p3838
I1
sS'metres'
p3839
I2
sS'doyen'
p3840
I1
sS'slightly.however'
p3841
I1
sS'strongest'
p3842
I1
sS'economic'
p3843
I11
sS'3.2'
p3844
I2
sS'speculation'
p3845
I2
sS'3.0'
p3846
I7
sS'3.1'
p3847
I2
sS'lightning'
p3848
I1
sS'zonal'
p3849
I1
sS'transparent'
p3850
I1
sS'3.9'
p3851
I2
sS'leaders'
p3852
I5
sS'clot.milan'
p3853
I1
sS'milan.the'
p3854
I1
sS'conclusive'
p3855
I1
sS'sale.it'
p3856
I1
sS'launch.the'
p3857
I2
sS'population.the'
p3858
I1
sS'decision'
p3859
I5
sS'772'
p3860
I1
sS'rovati'
p3861
I3
sS'terea'
p3862
I1
sS'crisis'
p3863
I3
sS'4,141'
p3864
I1
sS'pen'
p3865
I2
sS'jacek'
p3866
I2
sS'onwednesday.attendance'
p3867
I1
sS'injury.michele'
p3868
I1
sS'moreno'
p3869
I1
sS'4.84'
p3870
I2
sS'59-34'
p3871
I1
sS'invade'
p3872
I1
sS'4.81'
p3873
I1
sS'309'
p3874
I1
sS'measures'
p3875
I11
sS'run'
p3876
I7
sS'clambered'
p3877
I1
sS'reach'
p3878
I2
sS'7.27'
p3879
I1
sS'7.26'
p3880
I4
sS'7.21'
p3881
I2
sS'agreement'
p3882
I9
sS'juventusto'
p3883
I1
sS'pietro'
p3884
I5
sS'step'
p3885
I9
sS'concealed'
p3886
I1
sS'stet'
p3887
I18
sS'output'
p3888
I2
sS'at&t'
p3889
I1
sS'bayern'
p3890
I1
sS'said.brembo'
p3891
I1
sS'montero'
p3892
I2
sS'santi'
p3893
I1
sS'handled'
p3894
I3
sS'dormant'
p3895
I1
sS'pipeline'
p3896
I1
sS'cautious'
p3897
I3
sS'6-3.camporese'
p3898
I1
sS'usa'
p3899
I1
sS'blackburn'
p3900
I1
sS'bourses'
p3901
I1
sS'month.boksic'
p3902
I1
sS'prove'
p3903
I2
sS'goalmouth'
p3904
I1
sS'drama'
p3905
I2
sS'piled'
p3906
I1
sS'range'
p3907
I9
sS'allotment'
p3908
I2
sS'whittled'
p3909
I1
sS'73'
p3910
I1
sS'replacement'
p3911
I3
sS'restrict'
p3912
I1
sS'seeing'
p3913
I1
sS'thursday.bruno'
p3914
I1
sS'12,000'
p3915
I2
sS'71'
p3916
I1
sS'unnoticed'
p3917
I1
sS'5,270'
p3918
I1
sS'awaited'
p3919
I3
sS'servers'
p3920
I2
sS'carlton'
p3921
I2
sS'left.the'
p3922
I1
sS'controversies'
p3923
I2
sS'abstentions.washington'
p3924
I1
sS'wicket'
p3925
I1
sS'5-tomasz'
p3926
I2
sS'intraday'
p3927
I2
sS'harvests.oilseeds'
p3928
I1
sS'notion'
p3929
I1
sS'uncertainties'
p3930
I1
sS'28.to'
p3931
I1
sS'statistics'
p3932
I6
sS'computer'
p3933
I2
sS'bangladesh'
p3934
I1
sS'spending'
p3935
I11
sS'bargaining'
p3936
I4
sS'long'
p3937
I10
sS'approved'
p3938
I9
sS'overpower'
p3939
I1
sS'disinflation'
p3940
I1
sS'pared'
p3941
I1
sS'linesman.the'
p3942
I1
sS"we're"
p3943
I7
sS'suit'
p3944
I3
sS'forward'
p3945
I12
sS'examination'
p3946
I1
sS'sea.priore'
p3947
I1
sS'adam'
p3948
I3
sS'mounting'
p3949
I1
sS'opens'
p3950
I1
sS'opponent'
p3951
I2
sS'manufacture'
p3952
I1
sS'fabio'
p3953
I6
sS'0-0'
p3954
I7
sS'invite'
p3955
I2
sS'3,450jnb'
p3956
I1
sS'registered'
p3957
I4
sS'vehicle'
p3958
I1
sS'hoped'
p3959
I5
sS'serie'
p3960
I24
sS'ancelotti.he'
p3961
I1
sS'wojtala'
p3962
I7
sS'link'
p3963
I1
sS'repeatedly'
p3964
I4
sS'scope'
p3965
I4
sS'hopes'
p3966
I2
sS'subsidiary'
p3967
I2
sS'line'
p3968
I29
sS'considerable'
p3969
I3
sS'deployed'
p3970
I1
sS'posted'
p3971
I2
sS'11,628'
p3972
I1
sS'1897'
p3973
I1
sS'paolo'
p3974
I17
sS'2,800'
p3975
I1
sS'said.spain'
p3976
I1
sS'friendlies'
p3977
I1
sS'commission.stet'
p3978
I1
sS'clashed'
p3979
I1
sS'dynamic'
p3980
I1
sS'theoretical'
p3981
I1
sS'maturity'
p3982
I1
sS'share.mediaset'
p3983
I1
sS'cautiously'
p3984
I2
sS'megastores'
p3985
I4
sS'mature'
p3986
I2
sS'rebaudo'
p3987
I2
sS'desalination'
p3988
I1
sS'marseille'
p3989
I2
sS'similar'
p3990
I1
sS'calculated'
p3991
I2
sS'payment.como'
p3992
I1
sS'bell'
p3993
I4
sS'said.in'
p3994
I2
sS'ordered'
p3995
I2
sS'10.csp'
p3996
I1
sS'corrective'
p3997
I2
sS'holocaust'
p3998
I6
sS'lodz'
p3999
I1
sS'recommendation'
p4000
I1
sS'influence'
p4001
I2
sS'haunt'
p4002
I1
sS'single'
p4003
I9
sS'105.8'
p4004
I2
sS'1898'
p4005
I1
sS'1996.total'
p4006
I1
sS'monday.the'
p4007
I1
sS'delegation'
p4008
I2
sS'dragging'
p4009
I1
sS'phased'
p4010
I4
sS'defines'
p4011
I3
sS'successive'
p4012
I1
sS'traditional'
p4013
I3
sS'rosario'
p4014
I2
sS'tardelli'
p4015
I1
sS'enshrined'
p4016
I3
sS'amounts'
p4017
I2
sS'107.3'
p4018
I1
sS'edwards'
p4019
I1
sS'fears'
p4020
I2
sS'backs'
p4021
I2
sS'17,177'
p4022
I1
sS'occasional'
p4023
I1
sS'3.20'
p4024
I3
sS'3.23'
p4025
I1
sS'accounted'
p4026
I3
sS'3.25'
p4027
I2
sS'recognition'
p4028
I1
sS'income'
p4029
I3
sS'opportunist'
p4030
I1
sS'linkup'
p4031
I1
sS'kamal'
p4032
I1
sS'manhattan'
p4033
I1
sS'revision'
p4034
I1
sS'1997.bids'
p4035
I1
sS'intervened'
p4036
I1
sS'draw'
p4037
I18
sS'41.4'
p4038
I1
sS'titles'
p4039
I7
sS'reportedly'
p4040
I3
sS'gross'
p4041
I10
sS'genie'
p4042
I1
sS'scrum'
p4043
I1
sS'problems'
p4044
I1
sS'luminaries'
p4045
I1
sS'prepared'
p4046
I3
sS'helping'
p4047
I4
sS'17,124'
p4048
I1
sS'generated'
p4049
I1
sS'allowing'
p4050
I1
sS'lunch'
p4051
I1
sS'fructose'
p4052
I2
sS'older.the'
p4053
I1
sS'stoppages'
p4054
I1
sS'swede'
p4055
I2
sS'sides'
p4056
I2
sS'1997.benetton'
p4057
I1
sS'ago'
p4058
I23
sS'bases'
p4059
I1
sS'e'
p4060
I1
sS'18.7'
p4061
I1
sS'lana'
p4062
I2
sS'practically'
p4063
I2
sS'maradona'
p4064
I2
sS'age'
p4065
I7
sS'severance'
p4066
I5
sS'maturities'
p4067
I1
sS'edward'
p4068
I1
sS'break.but'
p4069
I1
sS'sudden'
p4070
I1
sS'13.50'
p4071
I1
sS'2000'
p4072
I3
sS'ledwon'
p4073
I2
sS'6.23'
p4074
I1
sS'salvador'
p4075
I1
sS'1995.they'
p4076
I1
sS'international'
p4077
I28
sS'field.weaknesses'
p4078
I1
sS'having'
p4079
I6
sS'weighty'
p4080
I1
sS'evenly'
p4081
I1
sS'livolsi.the'
p4082
I1
sS'said.analysts'
p4083
I1
sS'14.00'
p4084
I1
sS'saying'
p4085
I16
sS'guessing'
p4086
I1
sS'issued'
p4087
I11
sS'secretary'
p4088
I1
sS'resistance'
p4089
I5
sS'existing'
p4090
I5
sS'overseas.romiti'
p4091
I2
sS'ge'
p4092
I1
sS'legal'
p4093
I2
sS'ledwon.italy'
p4094
I1
sS'scirea'
p4095
I1
sS'percent.strength'
p4096
I1
sS'exceptional'
p4097
I2
sS'conservative'
p4098
I1
sS'15,000'
p4099
I4
sS'issues'
p4100
I2
sS'juliano'
p4101
I1
sS'401.7'
p4102
I2
sS'procedure'
p4103
I4
sS'80-1double'
p4104
I1
sS'harvest'
p4105
I1
sS'concerned'
p4106
I3
sS'blinded'
p4107
I1
sS'young'
p4108
I1
sS'send'
p4109
I1
sS'nose'
p4110
I1
sS'said.brokers'
p4111
I1
sS'stable'
p4112
I2
sS'quarterly'
p4113
I3
sS'breach'
p4114
I1
sS'64'
p4115
I1
sS'fatal'
p4116
I1
sS'resources'
p4117
I1
sS'support.italy'
p4118
I2
sS'fabrizi'
p4119
I1
sS'pay'
p4120
I10
sS'auer'
p4121
I2
sS'outside'
p4122
I3
sS'zvonimir'
p4123
I1
sS'automotive'
p4124
I5
sS'continues'
p4125
I1
sS'711'
p4126
I1
sS'unbeaten'
p4127
I3
sS'reported.capital'
p4128
I1
sS'cellular'
p4129
I1
sS'telling'
p4130
I1
sS'family.but'
p4131
I1
sS'continued'
p4132
I3
sS'18.50'
p4133
I1
sS'contamination'
p4134
I1
sS'arrange'
p4135
I1
sS'mauritania'
p4136
I1
sS'milan.witnesses'
p4137
I1
sS'magic'
p4138
I1
sS'16,928-17,174'
p4139
I1
sS'lombardo'
p4140
I3
sS'positions'
p4141
I2
sS'taker'
p4142
I1
sS'shock'
p4143
I1
sS'tissue'
p4144
I2
sS'attempts'
p4145
I1
sS'250-300'
p4146
I1
sS'try'
p4147
I3
sS'threat'
p4148
I3
sS'2.28'
p4149
I1
sS'verdict'
p4150
I2
sS'grafting'
p4151
I1
sS'car'
p4152
I10
sS'42-minute'
p4153
I1
sS'refer'
p4154
I1
sS'noted'
p4155
I11
sS'1661'
p4156
I1
sS'1660'
p4157
I1
sS'concluded'
p4158
I1
sS'smaller'
p4159
I1
sS'compensated'
p4160
I2
sS'said.equity'
p4161
I1
sS'said.venturi'
p4162
I1
sS'downwards'
p4163
I1
sS'problem.sergio'
p4164
I1
sS'claudio'
p4165
I1
sS'muammar'
p4166
I2
sS'jump'
p4167
I2
sS'imply'
p4168
I1
sS'longest'
p4169
I1
sS'greats'
p4170
I2
sS'lull'
p4171
I1
sS'vignano'
p4172
I1
sS'carlo'
p4173
I13
sS'milan.angelo'
p4174
I1
sS'ofthe'
p4175
I1
sS'awins'
p4176
I1
sS'8-henryk'
p4177
I2
sS'index'
p4178
I17
sS'turn'
p4179
I2
sS'4,300sha'
p4180
I1
sS'plays'
p4181
I3
sS'power'
p4182
I2
sS'rate'
p4183
I23
sS'chicago'
p4184
I1
sS'giving'
p4185
I6
sS'harvests'
p4186
I1
sS'multimedia'
p4187
I1
sS'bearish'
p4188
I2
sS'waiting.zola'
p4189
I1
sS'sicily.nato'
p4190
I1
sS'consistently'
p4191
I2
sS'waiting'
p4192
I3
sS'capital'
p4193
I12
sS'firms'
p4194
I3
sS'exercise'
p4195
I3
sS'body'
p4196
I5
sS'year.cheaper'
p4197
I1
sS'448'
p4198
I1
sS'led'
p4199
I13
sS'268.1'
p4200
I1
sS'exchange'
p4201
I5
sS'respectively'
p4202
I4
sS'commercial'
p4203
I4
sS'indicator'
p4204
I1
sS'jointly'
p4205
I1
sS'broker'
p4206
I3
sS'19,650'
p4207
I1
sS'growing'
p4208
I3
sS'busy'
p4209
I3
sS'focused'
p4210
I1
sS'expansion'
p4211
I1
sS'euro'
p4212
I2
sS'totalled'
p4213
I4
sS'timeswhile'
p4214
I1
sS'signposted'
p4215
I1
sS'implicit'
p4216
I9
sS'becamejuventus'
p4217
I1
sS'7706'
p4218
I4
sS'1933'
p4219
I1
sS'great'
p4220
I4
sS'38'
p4221
I3
sS'talent'
p4222
I2
sS'parameters'
p4223
I1
sS'1961'
p4224
I1
sS'broken'
p4225
I2
sS'technical'
p4226
I4
sS'involved'
p4227
I3
sS'31'
p4228
I11
sS'30'
p4229
I24
sS'37'
p4230
I3
sS'36'
p4231
I5
sS'ctz'
p4232
I6
sS'wiby'
p4233
I1
sS'merger'
p4234
I1
sS'2,100'
p4235
I1
sS'1930'
p4236
I1
sS'resulting'
p4237
I1
sS'stimulating'
p4238
I1
sS'federation.the'
p4239
I1
sS'835.4'
p4240
I3
sS'existent'
p4241
I2
sS'2,109'
p4242
I1
sS'makes'
p4243
I2
sS'maker'
p4244
I5
sS'involves'
p4245
I1
sS'composed'
p4246
I1
sS'saganowski'
p4247
I1
sS'named'
p4248
I5
sS'formulated'
p4249
I3
sS'1935'
p4250
I1
sS'danger'
p4251
I3
sS'juskowiak.italy'
p4252
I1
sS'win'
p4253
I24
sS'offset'
p4254
I1
sS'331'
p4255
I1
sS'73-69'
p4256
I2
sS'private'
p4257
I6
sS'said.bci'
p4258
I1
sS'launch.but'
p4259
I1
sS'mediolanum'
p4260
I2
sS'privately'
p4261
I1
sS'sirt'
p4262
I1
sS'carry'
p4263
I2
sS'apply'
p4264
I1
sS'sugar'
p4265
I2
sS'catholics'
p4266
I1
sS'standing'
p4267
I2
sS'26,387net'
p4268
I1
sS'confidence'
p4269
I7
sS'feel'
p4270
I3
sS'feb'
p4271
I10
sS'sacchi'
p4272
I12
sS'consumption'
p4273
I1
sS'abiding'
p4274
I1
sS'remains'
p4275
I9
sS'illegal'
p4276
I2
sS'margins'
p4277
I1
sS'6-3.italian'
p4278
I1
sS'examined'
p4279
I3
sS'throw'
p4280
I3
sS'1901'
p4281
I1
sS'chief'
p4282
I2
sS'institutionals'
p4283
I1
sS'doubt'
p4284
I2
sS'days.the'
p4285
I2
sS'december'
p4286
I5
sS'timetable'
p4287
I1
sS'means'
p4288
I5
sS'stage'
p4289
I1
sS'fiba'
p4290
I4
sS'dejan'
p4291
I1
sS'layoff.christian'
p4292
I1
sS'judged'
p4293
I1
sS'possession'
p4294
I1
sS'11.00/12.00'
p4295
I1
sS'3,133.7'
p4296
I1
sS'parliament'
p4297
I12
sS'formally'
p4298
I1
sS'journalists'
p4299
I1
sS'41.8'
p4300
I1
sS'started'
p4301
I10
sS'0.5'
p4302
I1
sS"haven't"
p4303
I1
sS'factor'
p4304
I1
sS'heir'
p4305
I1
sS'occurred'
p4306
I1
sS'bodily'
p4307
I1
sS'meant'
p4308
I2
sS'watershed'
p4309
I1
sS'carrying'
p4310
I8
sS'2,925'
p4311
I1
sS'sharply'
p4312
I2
sS'echos'
p4313
I2
sS'allianz'
p4314
I2
sS'payrolls'
p4315
I2
sS'djordjevic'
p4316
I2
sS'appointed'
p4317
I3
sS'starter'
p4318
I1
sS'stafford'
p4319
I1
sS'1980s'
p4320
I2
sS'account'
p4321
I4
sS'25.8exporttraffic'
p4322
I1
sS'ace'
p4323
I1
sS'announcing'
p4324
I1
sS'f'
p4325
I3
sS'20-1'
p4326
I3
sS'0805'
p4327
I1
sS'ride'
p4328
I2
sS'clients'
p4329
I2
sS'sunday.add'
p4330
I1
sS'reporters'
p4331
I4
sS'indifference'
p4332
I1
sS'judge.the'
p4333
I1
sS'client'
p4334
I2
sS'nepal'
p4335
I1
sS'meet'
p4336
I14
sS'closing'
p4337
I4
sS'each.the'
p4338
I1
sS'plug'
p4339
I3
sS'gottesmann'
p4340
I1
sS'proof'
p4341
I1
sS'0.9'
p4342
I1
sS'0.8'
p4343
I1
sS'teamsystem'
p4344
I6
sS'weaker'
p4345
I4
sS'unveiled'
p4346
I6
sS'century.serie'
p4347
I1
sS'process'
p4348
I2
sS'0.0'
p4349
I1
sS'0.3'
p4350
I2
sS'0.2'
p4351
I1
sS'tax'
p4352
I26
sS'0.7'
p4353
I1
sS'high'
p4354
I8
sS'tag'
p4355
I1
sS'71,012coach'
p4356
I1
sS'hit'
p4357
I8
sS'shrift'
p4358
I1
sS'152'
p4359
I1
sS'friday.after'
p4360
I1
sS'cups.then'
p4361
I1
sS'5.990'
p4362
I1
sS'unions'
p4363
I6
sS'stefanel'
p4364
I5
sS'united'
p4365
I10
sS'stampagio'
p4366
I1
sS'boasting'
p4367
I1
sS'korea.last'
p4368
I1
sS'lame'
p4369
I3
sS'destroying'
p4370
I1
sS'handover'
p4371
I1
sS'holds'
p4372
I7
sS'added.italy'
p4373
I2
sS'dividend.il'
p4374
I1
sS'traders'
p4375
I2
sS'trieste'
p4376
I2
sS'winners'
p4377
I5
sS'effect.traders'
p4378
I1
sS'said.but'
p4379
I1
sS'instead'
p4380
I5
sS'struggled'
p4381
I2
sS'streat'
p4382
I1
sS'establishment'
p4383
I1
sS'timetabled'
p4384
I1
sS'sim'
p4385
I4
sS'stock'
p4386
I13
sS'swedish'
p4387
I2
sS'express'
p4388
I2
sS'9-christian'
p4389
I2
sS'minutes.rafter'
p4390
I1
sS'attend'
p4391
I3
sS'35.7'
p4392
I1
sS'farm'
p4393
I5
sS'stop'
p4394
I2
sS'highs'
p4395
I3
sS'tacs'
p4396
I1
sS'spain.barcelona'
p4397
I1
sS'own.some'
p4398
I1
sS'solaroli'
p4399
I1
sS'milan.strengths'
p4400
I1
sS'islamic'
p4401
I1
sS'fouled'
p4402
I1
sS'facility'
p4403
I1
sS'fetched'
p4404
I1
sS'14-tomasz'
p4405
I1
sS'fits'
p4406
I1
sS'testicle.motivation'
p4407
I1
sS'santana'
p4408
I1
sS'engineering'
p4409
I1
sS'56,878,000'
p4410
I1
sS'pedrazzini.for'
p4411
I1
sS'famous'
p4412
I2
sS'industrialists.economists'
p4413
I1
sS'light'
p4414
I2
sS'brushes'
p4415
I1
sS'counter'
p4416
I1
sS'lines'
p4417
I1
sS'30,033'
p4418
I1
sS'element'
p4419
I2
sS'cost.vierchowod'
p4420
I1
sS'12.25'
p4421
I1
sS'allow'
p4422
I3
sS'buoyant'
p4423
I1
sS'peruzzi'
p4424
I9
sS'favourites'
p4425
I1
sS'billion.the'
p4426
I1
sS'east.as'
p4427
I1
sS'preparing'
p4428
I2
sS'centrist'
p4429
I1
sS'reuter'
p4430
I1
sS'resurgent'
p4431
I2
sS'theft'
p4432
I2
sS'produces'
p4433
I1
sS'jiri'
p4434
I1
sS'manufactured'
p4435
I1
sS'11-2'
p4436
I2
sS'encouraged'
p4437
I1
sS'outlook'
p4438
I2
sS'doubtful'
p4439
I3
sS'133'
p4440
I7
sS'celebrations'
p4441
I1
sS'including'
p4442
I8
sS'looks'
p4443
I2
sS'1931'
p4444
I1
sS'139'
p4445
I1
sS'milan.not'
p4446
I1
sS'operative'
p4447
I2
sS'32.2naplesimporttraffic'
p4448
I1
sS'1985'
p4449
I3
sS'superior'
p4450
I2
sS'bocconi'
p4451
I1
sS'costacurta'
p4452
I8
sS'la'
p4453
I3
sS'300,000'
p4454
I1
sS'giarda'
p4455
I1
sS'corneas.dr'
p4456
I1
sS'14,738'
p4457
I1
sS'arrangements'
p4458
I2
sS'winning'
p4459
I11
sS'6.31'
p4460
I1
sS'estimating'
p4461
I1
sS'blatant'
p4462
I1
sS'prices.analysts'
p4463
I1
sS'interview.earlier'
p4464
I1
sS'alexander'
p4465
I2
sS'legend'
p4466
I1
sS'friday.the'
p4467
I1
sS'69.8'
p4468
I1
sS'mechanisms'
p4469
I1
sS'greater'
p4470
I4
sS'descendants'
p4471
I4
sS'said.he'
p4472
I2
sS'dan'
p4473
I2
sS'material'
p4474
I1
sS'1994-95.paolo'
p4475
I1
sS'mention'
p4476
I3
sS'cutting'
p4477
I5
sS'courtroom'
p4478
I1
sS'body.italian'
p4479
I1
sS'ambition'
p4480
I1
sS'league.zola'
p4481
I1
sS'25.roberto'
p4482
I1
sS'week.need'
p4483
I1
sS'investor'
p4484
I1
sS'day'
p4485
I9
sS'refering'
p4486
I1
sS'strive'
p4487
I1
sS'liberia'
p4488
I1
sS'february'
p4489
I23
sS'airports'
p4490
I1
sS'auto'
p4491
I4
sS'tognoli'
p4492
I1
sS'warned'
p4493
I1
sS'university'
p4494
I1
sS'covering'
p4495
I1
sS'guard'
p4496
I1
sS'philippoussis'
p4497
I3
sS'merge'
p4498
I1
sS'15-8correct'
p4499
I1
sS'trap'
p4500
I1
sS'kph'
p4501
I1
sS'3.it'
p4502
I1
sS'bills'
p4503
I3
sS'shaking'
p4504
I1
sS'experienced'
p4505
I1
sS'20-wojciech'
p4506
I1
sS'recommend'
p4507
I1
sS'anxiously'
p4508
I1
sS'77poland'
p4509
I1
sS'belgrade'
p4510
I2
sS'6mo'
p4511
I1
sS'rigid'
p4512
I1
sS'societa'
p4513
I1
sS'globe'
p4514
I2
sS'previously.revnues'
p4515
I1
sS'societe'
p4516
I1
sS'related'
p4517
I1
sS'constitute'
p4518
I1
sS'speculated'
p4519
I4
sS'cofferati'
p4520
I3
sS'exceeded'
p4521
I1
sS'firstitaly'
p4522
I1
sS'83'
p4523
I1
sS'80'
p4524
I9
sS'81'
p4525
I3
sS'agriculture'
p4526
I2
sS'goalkeeper'
p4527
I8
sS'84'
p4528
I1
sS'sacchi.inter'
p4529
I1
sS'category'
p4530
I1
sS'regulatory'
p4531
I1
sS'sentiment'
p4532
I1
sS'alsthom'
p4533
I1
sS'announces'
p4534
I1
sS'defend'
p4535
I2
sS'develop'
p4536
I2
sS'chaos'
p4537
I1
sS'islamist'
p4538
I1
sS'1.526'
p4539
I1
sS'interbank'
p4540
I2
sS'critics'
p4541
I1
sS'uranium'
p4542
I8
sS'mate'
p4543
I2
sS'paul'
p4544
I2
sS'siena'
p4545
I2
sS'kg'
p4546
I2
sS'injury.roberto'
p4547
I1
sS'cause'
p4548
I2
sS'proprietor'
p4549
I1
sS'announced'
p4550
I14
sS'1655'
p4551
I1
sS'disclose'
p4552
I2
sS'marek'
p4553
I5
sS'99.50'
p4554
I1
sS'await'
p4555
I4
sS'launching'
p4556
I1
sS'approached'
p4557
I1
sS'jubilee'
p4558
I2
sS'savona'
p4559
I1
sS'spot'
p4560
I3
sS'troops'
p4561
I1
sS'activity'
p4562
I1
sS'payroll'
p4563
I2
sS'parents'
p4564
I1
sS'embassy'
p4565
I1
sS'clarify'
p4566
I1
sS'approaches'
p4567
I1
sS'amati'
p4568
I2
sS'york'
p4569
I2
sS'usual'
p4570
I1
sS'percentnote'
p4571
I1
sS'1982'
p4572
I4
sS'philip'
p4573
I2
sS'disgusted'
p4574
I1
sS'likelihood'
p4575
I1
sS'impatience'
p4576
I2
sS'ubaldo'
p4577
I4
sS'allies'
p4578
I1
sS'firstman'
p4579
I1
sS'napoli'
p4580
I7
sS'100-1'
p4581
I1
sS'445.3'
p4582
I4
sS'david'
p4583
I2
sS'counterpart'
p4584
I1
sS"we've"
p4585
I1
sS'151,158'
p4586
I1
sS'notebook'
p4587
I2
sS'bjorkman'
p4588
I4
sS'qualifying'
p4589
I7
sS'davis'
p4590
I13
sS'exercise.barcelona'
p4591
I1
sS'17,219.last'
p4592
I1
sS'retail'
p4593
I1
sS'lancet'
p4594
I1
sS'berlusconi'
p4595
I9
sS'designed'
p4596
I6
sS'responding'
p4597
I1
sS'3,800rio'
p4598
I1
sS'refoundation'
p4599
I10
sS'kariyawasan'
p4600
I1
sS'swapped'
p4601
I1
sS'450'
p4602
I1
sS'saying.opc'
p4603
I1
sS'powerful'
p4604
I2
sS'blew'
p4605
I1
sS'owned'
p4606
I6
sS'strategic'
p4607
I5
sS'azeglio'
p4608
I9
sS'date'
p4609
I5
sS'7.31'
p4610
I3
sS'1988'
p4611
I1
sS'demoralised'
p4612
I1
sS'type'
p4613
I3
sS'reached'
p4614
I3
sS'minutes.his'
p4615
I3
sS'1989'
p4616
I5
sS'quality'
p4617
I1
sS'cricketers'
p4618
I1
sS'11-1'
p4619
I1
sS'group.ras'
p4620
I1
sS'christians.the'
p4621
I1
sS'includeddestination'
p4622
I1
sS'swept'
p4623
I1
sS'bologna'
p4624
I18
sS'carnevale'
p4625
I1
sS'seat'
p4626
I2
sS'brink.it'
p4627
I1
sS'relations'
p4628
I2
sS'friday.omar'
p4629
I1
sS'25.2-reuters'
p4630
I1
sS'attach'
p4631
I1
sS'attack'
p4632
I7
sS'delusions'
p4633
I1
sS'eridania'
p4634
I5
sS'10.000'
p4635
I1
sS'312'
p4636
I1
sS'wrapped'
p4637
I1
sS'final'
p4638
I34
sS'1995.fascinating'
p4639
I1
sS'interests'
p4640
I2
sS'2-0'
p4641
I10
sS'2-1'
p4642
I3
sS'2-6'
p4643
I3
sS'sealed'
p4644
I1
sS'shorts'
p4645
I1
sS'quintessentially'
p4646
I1
sS'passenger'
p4647
I2
sS'completed'
p4648
I3
sS'acquire'
p4649
I3
sS'7.47'
p4650
I2
sS'hajduk'
p4651
I1
sS'lists'
p4652
I1
sS'7.44'
p4653
I2
sS'9.4'
p4654
I2
sS'vouch'
p4655
I4
sS'reflecting'
p4656
I3
sS'legislation'
p4657
I1
sS'2,755hkg'
p4658
I1
sS'july'
p4659
I4
sS'overwhelming'
p4660
I1
sS'alliances.finally'
p4661
I1
sS'decisive'
p4662
I3
sS'filled'
p4663
I1
sS'steel'
p4664
I1
sS'cgil'
p4665
I1
sS'125.86'
p4666
I1
sS'bid'
p4667
I2
sS'15-amadeo'
p4668
I1
sS'pointers'
p4669
I2
sS'roberto'
p4670
I17
sS'gentile'
p4671
I1
sS'submitted'
p4672
I2
sS'swedes'
p4673
I1
sS'probe'
p4674
I2
sS'sweden'
p4675
I3
sS'milanisti'
p4676
I2
sS'vat'
p4677
I4
sS'maybe'
p4678
I5
sS'dynamo'
p4679
I1
sS'10-1'
p4680
I1
sS'abolished'
p4681
I1
sS'9.3'
p4682
I1
sS'steep'
p4683
I1
sS'accounts.treasury'
p4684
I1
sS'pignone'
p4685
I1
sS'berths'
p4686
I1
sS'1.5'
p4687
I3
sS'27.28'
p4688
I1
sS'grandeur.gambino'
p4689
I1
sS'1.0'
p4690
I1
sS'sweeteners'
p4691
I3
sS'delay'
p4692
I2
sS'1.3'
p4693
I1
sS'unchanged'
p4694
I2
sS'maldini'
p4695
I20
sS'8,393.italy'
p4696
I1
sS'1.9'
p4697
I1
sS'11-adam'
p4698
I2
sS'interrupted'
p4699
I2
sS'2.3'
p4700
I1
sS'italy.the'
p4701
I1
sS'variable'
p4702
I2
sS'unlikely'
p4703
I3
sS'capretti'
p4704
I2
sS'artioli'
p4705
I1
sS'need'
p4706
I5
sS'moenchengladbach'
p4707
I1
sS'said.pisa'
p4708
I1
sS'apparently'
p4709
I2
sS'linked'
p4710
I1
sS'spending.prime'
p4711
I2
sS'catholic'
p4712
I3
sS'currency.since'
p4713
I1
sS'equalled'
p4714
I1
sS'banco'
p4715
I1
sS'0815'
p4716
I1
sS'agency'
p4717
I4
sS'able'
p4718
I2
sS'mid'
p4719
I6
sS'incentive'
p4720
I2
sS'said.two'
p4721
I1
sS'1.38'
p4722
I1
sS'issuing'
p4723
I2
sS'roverato'
p4724
I2
sS'6.4'
p4725
I2
sS'328'
p4726
I1
sS'feared'
p4727
I1
sS'1.34'
p4728
I2
sS'dc-9'
p4729
I2
sS'milla'
p4730
I2
sS'accuracy'
p4731
I4
sS'stampa'
p4732
I1
sS'unless'
p4733
I4
sS'clash'
p4734
I7
sS'centre'
p4735
I19
sS'expires'
p4736
I1
sS'dutch'
p4737
I1
sS'milanese'
p4738
I1
sS'adrs'
p4739
I1
sS'11,640'
p4740
I1
sS'11,646'
p4741
I1
sS'preliminary'
p4742
I2
sS'uncatchable'
p4743
I1
sS'said.ras'
p4744
I2
sS'cabinet'
p4745
I10
sS'withdrawn'
p4746
I1
sS'payment'
p4747
I5
sS'gorbachev'
p4748
I1
sS'delivery'
p4749
I1
sS'niggle'
p4750
I1
sS'volunteers'
p4751
I1
sS'placement'
p4752
I3
sS'meekly'
p4753
I1
sS'bohdan'
p4754
I1
sS'milano'
p4755
I2
sS'disease'
p4756
I1
sS'face'
p4757
I7
sS'astonishing'
p4758
I2
sS'agencies'
p4759
I2
sS'hi'
p4760
I2
sS'1969,1989'
p4761
I1
sS'talk'
p4762
I5
sS'5,270bue'
p4763
I1
sS'vialli.absent'
p4764
I1
sS'bordeaux'
p4765
I2
sS'nato'
p4766
I2
sS'uefa'
p4767
I4
sS'fact'
p4768
I5
sS'bunds'
p4769
I1
sS'impression'
p4770
I1
sS'selection'
p4771
I1
sS'camporese'
p4772
I22
sS'balding'
p4773
I1
sS'chances'
p4774
I10
sS'sceptical'
p4775
I1
sS'agreed'
p4776
I5
sS'indoor'
p4777
I4
sS'chapters'
p4778
I1
sS'out.the'
p4779
I1
sS'skrzypek'
p4780
I2
sS'tearful'
p4781
I3
sS'reggiana'
p4782
I1
sS'nowak'
p4783
I3
sS'lamented'
p4784
I1
sS'portfolio'
p4785
I1
sS'fear'
p4786
I2
sS'economist'
p4787
I2
sS'pleased'
p4788
I3
sS'leg'
p4789
I15
sS'setter'
p4790
I1
sS'15-16,000'
p4791
I1
sS'partners'
p4792
I5
sS'said.internazionale'
p4793
I1
sS'based'
p4794
I15
sS'earned'
p4795
I1
sS'84.6'
p4796
I1
sS'winner'
p4797
I2
sS'youngest'
p4798
I1
sS'fans'
p4799
I9
sS'jan'
p4800
I5
sS'institutional'
p4801
I2
sS'fornari.one'
p4802
I1
sS'score'
p4803
I5
sS'fuel'
p4804
I4
sS'adriatica'
p4805
I2
sS'communist'
p4806
I11
sS'local'
p4807
I8
sS'eighth'
p4808
I2
sS'hope'
p4809
I2
sS'regularly'
p4810
I2
sS'1986-87'
p4811
I1
sS'gay.he'
p4812
I1
sS'fabulous'
p4813
I1
sS'990'
p4814
I2
sS'993'
p4815
I1
sS'bonds'
p4816
I4
sS'beat'
p4817
I18
sS'familiar'
p4818
I1
sS'added.panatta'
p4819
I1
sS'percent.gucci'
p4820
I1
sS'overall'
p4821
I4
sS'stripes'
p4822
I1
sS'baggio.bearing'
p4823
I1
sS'120'
p4824
I1
sS'joint'
p4825
I7
sS'fraud'
p4826
I8
sS'124'
p4827
I1
sS'125'
p4828
I2
sS'words'
p4829
I2
sS'consecutive'
p4830
I1
sS'128'
p4831
I2
sS'wise'
p4832
I1
sS'kong'
p4833
I1
sS'omnitel'
p4834
I5
sS'areas'
p4835
I1
sS'produced'
p4836
I1
sS'shr'
p4837
I1
sS'glory'
p4838
I2
sS'baresi'
p4839
I14
sS'course'
p4840
I3
sS'approach'
p4841
I1
sS'monopoly'
p4842
I1
sS'3.4'
p4843
I2
sS'secret'
p4844
I2
sS'taxes'
p4845
I8
sS'teams'
p4846
I10
sS'somaca'
p4847
I1
sS'talented'
p4848
I1
sS'employee'
p4849
I3
sS"won't"
p4850
I1
sS'fixed'
p4851
I6
sS'cells'
p4852
I4
sS'indosuez'
p4853
I1
sS'withstand'
p4854
I1
sS'requirement'
p4855
I6
sS'albania'
p4856
I7
sS'associazione'
p4857
I1
sS'btp'
p4858
I5
sS'national'
p4859
I12
sS'pitch'
p4860
I2
sS'basten'
p4861
I2
sS'edition'
p4862
I1
sS'alessandro'
p4863
I12
sS'officials'
p4864
I3
sS'usefulness'
p4865
I1
sS'greece'
p4866
I1
sS'operated'
p4867
I3
sS'minutes.veteran'
p4868
I1
sS'enel'
p4869
I1
sS'packed'
p4870
I3
sS'closer'
p4871
I1
sS'mentioned'
p4872
I1
sS'azzura'
p4873
I1
sS'nuclear'
p4874
I6
sS'18-1'
p4875
I1
sS'written'
p4876
I4
sS'difficulties'
p4877
I1
sS'routing'
p4878
I1
sS'closed'
p4879
I16
sS'carlsson'
p4880
I1
sS'tens'
p4881
I1
sS'limit'
p4882
I2
sS'41'
p4883
I1
sS'28.2'
p4884
I1
sS'frustrated'
p4885
I2
sS'198,000'
p4886
I1
sS'speed'
p4887
I2
sS'bought'
p4888
I3
sS'industries'
p4889
I1
sS'handful'
p4890
I2
sS'pronged'
p4891
I1
sS'ability'
p4892
I5
sS'opening'
p4893
I9
sS'gambino'
p4894
I4
sS'40.6'
p4895
I2
sS'rock'
p4896
I2
sS'legia'
p4897
I1
sS'negotiated'
p4898
I1
sS'miroslaw'
p4899
I1
sS'kicking'
p4900
I1
sS'job'
p4901
I2
sS'21.7cargoflown'
p4902
I1
sS'rare'
p4903
I1
sS'1998.consolidated'
p4904
I1
sS'furlan'
p4905
I8
sS'sitting'
p4906
I1
sS'police'
p4907
I7
sS'avoiding'
p4908
I1
sS'captain.franco'
p4909
I1
sS'finanza'
p4910
I2
sS'saturday.there'
p4911
I1
sS'restrictions'
p4912
I2
sS'adriano'
p4913
I4
sS'out.amati'
p4914
I1
sS'career'
p4915
I2
sS'said.benetton'
p4916
I3
sS'taking'
p4917
I5
sS'broadside'
p4918
I1
sS'equal'
p4919
I6
sS'shipment'
p4920
I1
sS'april'
p4921
I43
sS'admit'
p4922
I1
sS'figures'
p4923
I8
sS'urging'
p4924
I1
sS'birthday.when'
p4925
I1
sS'said.eni'
p4926
I1
sS'volley'
p4927
I1
sS'kinds'
p4928
I1
sS'grounds'
p4929
I2
sS'comment'
p4930
I2
sS'detailed'
p4931
I2
sS'relevant'
p4932
I1
sS'travellers'
p4933
I1
sS'budgetary'
p4934
I2
sS'wall'
p4935
I4
sS'backers'
p4936
I1
sS'tuesday'
p4937
I15
sS'leaving'
p4938
I3
sS'607'
p4939
I1
sS'citko'
p4940
I5
sS'56,364,500'
p4941
I1
sS'prometeia'
p4942
I2
sS'table'
p4943
I2
sS'beach'
p4944
I1
sS'80-1'
p4945
I1
sS'mourning'
p4946
I1
sS'5432'
p4947
I1
sS'zeman'
p4948
I1
sS'1.625'
p4949
I1
sS'silvio'
p4950
I8
sS'4,450dbx'
p4951
I1
sS'addition'
p4952
I1
sS'net.the'
p4953
I1
sS'arbitrary'
p4954
I1
sS'charts'
p4955
I2
sS'cent'
p4956
I5
sS'96baricargoimports'
p4957
I1
sS'outflow'
p4958
I1
sS'agreements'
p4959
I2
sS'245.7'
p4960
I2
sS'3-mo'
p4961
I4
sS'41.0'
p4962
I1
sS'proposal'
p4963
I7
sS'331.2'
p4964
I2
sS'shuaiba.snamprogetti'
p4965
I1
sS'faced'
p4966
I1
sS'controlled'
p4967
I5
sS'received'
p4968
I6
sS'route'
p4969
I2
sS'op'
p4970
I1
sS'injustices'
p4971
I1
sS'lire.monte'
p4972
I1
sS'bulk'
p4973
I1
sS'4-3-3'
p4974
I2
sS'finished'
p4975
I4
sS'years.of'
p4976
I1
sS'expenditure'
p4977
I1
sS'vpoland'
p4978
I1
sS'7-angelo'
p4979
I2
sS'hamburg'
p4980
I1
sS'kicks'
p4981
I1
sS'chess'
p4982
I1
sS'fellow'
p4983
I2
sS'present'
p4984
I4
sS'quotation'
p4985
I2
sS'divisions'
p4986
I1
sS'multi'
p4987
I2
sS'main'
p4988
I5
sS'moya'
p4989
I17
sS'budget.treasury'
p4990
I1
sS'7-3'
p4991
I1
sS'66attendance'
p4992
I1
sS'7-1'
p4993
I1
sS'7-0'
p4994
I1
sS'1.565'
p4995
I1
sS'7-6'
p4996
I2
sS'7-5'
p4997
I1
sS'gucci'
p4998
I4
sS'2,420lax/sfo'
p4999
I1
sS'pinatton'
p5000
I1
sS'istituto'
p5001
I1
sS'1977ground'
p5002
I1
sS'injury.dejan'
p5003
I1
sS'injury.furlan'
p5004
I1
sS'layoff'
p5005
I1
sS'million.tower'
p5006
I1
sS'filed'
p5007
I2
sS'lacked'
p5008
I1
sS'percent.payment'
p5009
I2
sS'non'
p5010
I14
sS'laundering'
p5011
I2
sS'roll'
p5012
I2
sS'helped'
p5013
I11
sS'simone'
p5014
I5
sS'perucca'
p5015
I1
sS'vs'
p5016
I17
sS'4.59'
p5017
I1
sS'edgar'
p5018
I1
sS'brembo'
p5019
I5
sS'claimed'
p5020
I2
sS'partner'
p5021
I3
sS'avg'
p5022
I2
sS'simoni'
p5023
I1
sS'finance'
p5024
I3
sS'capture'
p5025
I1
sS'lankan'
p5026
I1
sS'let'
p5027
I2
sS'missile.it'
p5028
I1
sS'newsroom'
p5029
I46
sS'began'
p5030
I7
sS'zagreb'
p5031
I1
sS'administration'
p5032
I4
sS'upside'
p5033
I2
sS'york.the'
p5034
I1
sS'proceeds'
p5035
I1
sS'member'
p5036
I5
sS'month.vicenza'
p5037
I1
sS'2.925'
p5038
I2
sS'netherlands.the'
p5039
I1
sS'northwest'
p5040
I1
sS'largest'
p5041
I4
sS'points.the'
p5042
I2
sS'party'
p5043
I12
sS'126.05'
p5044
I1
sS'wednesday.ciampi'
p5045
I1
sS'interview.livolsi'
p5046
I2
sS'difficult'
p5047
I8
sS'slava'
p5048
I1
sS'month.the'
p5049
I1
sS'ball'
p5050
I3
sS'humiliating'
p5051
I1
sS'annie'
p5052
I1
sS'thin.oil'
p5053
I1
sS'1-1'
p5054
I6
sS'1-0'
p5055
I7
sS'appearances'
p5056
I3
sS'drink'
p5057
I2
sS'effect'
p5058
I13
sS'forecasts'
p5059
I12
sS'swierczewski'
p5060
I3
sS'coaches'
p5061
I1
sS'giuliana'
p5062
I1
sS'strikers'
p5063
I4
sS'bastien'
p5064
I1
sS'tremonti'
p5065
I2
sS'cricketing'
p5066
I1
sS'fierce'
p5067
I1
sS'baffled'
p5068
I1
sS'giuliano'
p5069
I2
sS'requests'
p5070
I1
sS'expand'
p5071
I1
sS'destruction'
p5072
I1
sS'numbered'
p5073
I1
sS'rift'
p5074
I1
sS'expense'
p5075
I1
sS'recourse'
p5076
I1
sS'englishman'
p5077
I1
sS'banking'
p5078
I2
sS'colour'
p5079
I1
sS'contest'
p5080
I3
sS'said.it'
p5081
I5
sS'fighting'
p5082
I3
sS'finds'
p5083
I2
sS'thought'
p5084
I4
sS'stranglehold'
p5085
I2
sS'486'
p5086
I1
sS'1'
p5087
I18
sS'command'
p5088
I1
sS'sets'
p5089
I11
sS'firstly'
p5090
I1
sS'position'
p5091
I8
sS'1995.despite'
p5092
I1
sS'muscle'
p5093
I2
sS'soviet'
p5094
I1
sS'drawing'
p5095
I1
sS'1.25'
p5096
I1
sS'latest'
p5097
I5
sS'negotiation'
p5098
I2
sS'119,789'
p5099
I1
sS'45'
p5100
I1
sS'stores'
p5101
I1
sS'february.the'
p5102
I1
sS'cried'
p5103
I2
sS'heavily'
p5104
I4
sS'marco'
p5105
I6
sS'42'
p5106
I3
sS'executive'
p5107
I2
sS'domestic'
p5108
I14
sS'sources'
p5109
I9
sS'beijing'
p5110
I1
sS'underlying'
p5111
I3
sS'acquisition.gilardi'
p5112
I1
sS'rest'
p5113
I6
sS'abolish'
p5114
I3
sS'mysterious'
p5115
I2
sS'republican'
p5116
I1
sS'may.bartolini'
p5117
I1
sS'850.3'
p5118
I1
sS'1959'
p5119
I1
sS'11,498'
p5120
I1
sS'3-paolo'
p5121
I2
sS'deposits'
p5122
I1
sS'knew'
p5123
I1
sS'bench'
p5124
I5
sS'8.8'
p5125
I1
sS'olimpija'
p5126
I2
sS'envy.the'
p5127
I1
sS'exempt'
p5128
I3
sS'ljubljana'
p5129
I4
sS'283'
p5130
I1
sS'ought'
p5131
I1
sS'ricci'
p5132
I1
sS'betting'
p5133
I1
sS'match'
p5134
I34
sS'gmt'
p5135
I7
sS'rafter'
p5136
I1
sS'petrochemical'
p5137
I1
sS'livio'
p5138
I7
sS'increased'
p5139
I3
sS'provisions'
p5140
I9
sS'government'
p5141
I60
sS'muftah'
p5142
I1
sS'50.5total'
p5143
I1
sS'term'
p5144
I4
sS'republics'
p5145
I1
sS'monopoly.livolsi'
p5146
I1
sS'263'
p5147
I1
sS'2,450nyc'
p5148
I1
sS'missile.nato'
p5149
I1
sS'260'
p5150
I1
sS'267'
p5151
I1
sS'know'
p5152
I1
sS'1,583'
p5153
I1
sS'deployment'
p5154
I2
sS'press'
p5155
I8
sS'turbulence'
p5156
I1
sS'pier'
p5157
I1
sS'loss'
p5158
I3
sS'displaced'
p5159
I1
sS'forcing'
p5160
I2
sS'necessary'
p5161
I1
sS'like'
p5162
I11
sS'lost'
p5163
I19
sS'eric'
p5164
I1
sS'killing'
p5165
I2
sS'14.2'
p5166
I1
sS'88.3'
p5167
I1
sS'swiftly'
p5168
I1
sS'loses'
p5169
I2
sS'24.4'
p5170
I1
sS'saluzzo'
p5171
I2
sS'hosts'
p5172
I2
sS'payments'
p5173
I5
sS'117,440'
p5174
I1
sS'lose'
p5175
I7
sS'ht2-0'
p5176
I1
sS'simply'
p5177
I1
sS'soft'
p5178
I4
sS'all.with'
p5179
I1
sS'grouping.in'
p5180
I1
sS'italian'
p5181
I170
sS'parity'
p5182
I2
sS'indications'
p5183
I1
sS'jacked'
p5184
I1
sS'actuarial'
p5185
I1
sS'wholly'
p5186
I1
sS'29.0'
p5187
I1
sS'go.tensions'
p5188
I1
sS'village'
p5189
I1
sS'jobless'
p5190
I1
sS'excluding'
p5191
I1
sS'alive'
p5192
I2
sS'growth'
p5193
I14
sS'mozambique'
p5194
I1
sS'javed.with'
p5195
I1
sS'112'
p5196
I1
sS'proper'
p5197
I2
sS'home'
p5198
I8
sS'died'
p5199
I1
sS'registrations'
p5200
I5
sS'suspension'
p5201
I1
sS'groupquarter'
p5202
I2
sS'transport'
p5203
I2
sS'4,000'
p5204
I1
sS'contested'
p5205
I3
sS'monday'
p5206
I2
sS'lead'
p5207
I16
sS'6-alessandro'
p5208
I2
sS'0.25'
p5209
I1
sS'avoid'
p5210
I7
sS'playing.del'
p5211
I1
sS'constantly'
p5212
I1
sS'aged'
p5213
I1
sS'does'
p5214
I4
sS'join'
p5215
I5
sS'contact'
p5216
I1
sS'210'
p5217
I1
sS'assuming'
p5218
I1
sS'nicaragua.britain'
p5219
I1
sS'speak'
p5220
I1
sS'leader'
p5221
I14
sS'murdock'
p5222
I2
sS'regain'
p5223
I1
sS'birthday'
p5224
I3
sS'drew0-0'
p5225
I1
sS'slight'
p5226
I4
sS'11.9'
p5227
I1
sS'22.5'
p5228
I2
sS'world.italy'
p5229
I1
sS'monetary'
p5230
I8
sS'1932'
p5231
I1
sS'expiry'
p5232
I2
sS'pressure'
p5233
I5
sS'companies.analysts'
p5234
I1
sS'disastrous'
p5235
I1
sS'points.barcelona'
p5236
I1
sS'aito'
p5237
I2
sS'17,000'
p5238
I1
sS'instability'
p5239
I1
sS'90,000'
p5240
I1
sS'insults'
p5241
I1
sS'cagliari'
p5242
I1
sS'itavia'
p5243
I2
sS'raiding'
p5244
I1
sS'payout'
p5245
I1
sS'risked'
p5246
I1
sS'actual'
p5247
I3
sS'carried'
p5248
I5
sS'extension'
p5249
I2
sS'1995.eni'
p5250
I1
sS'freedom'
p5251
I3
sS'albanian'
p5252
I4
sS'legendary'
p5253
I1
sS'dependence'
p5254
I1
sS'wozniak'
p5255
I5
sS'carrier'
p5256
I2
sS'porrini'
p5257
I3
sS'concession'
p5258
I1
sS'introduced'
p5259
I3
sS'said.state'
p5260
I1
sS'condemned'
p5261
I1
sS'23.9'
p5262
I1
sS'stakes'
p5263
I3
sS'sunday.his'
p5264
I1
sS'sivori'
p5265
I1
sS'equally'
p5266
I1
sS'alliance'
p5267
I7
sS'recognise'
p5268
I1
sS'sera.cofferati'
p5269
I1
sS'previously'
p5270
I10
sS'tight'
p5271
I1
sS'washington'
p5272
I1
sS'billions'
p5273
I2
sS'priore'
p5274
I5
sS'chemists'
p5275
I2
sS'487'
p5276
I1
sS'banca'
p5277
I5
sS'assembled'
p5278
I1
sS'added.fears'
p5279
I1
sS'registration'
p5280
I1
sS'commitments.romiti'
p5281
I2
sS'midfielder'
p5282
I15
sS'on.line'
p5283
I1
sS'drafting'
p5284
I1
sS'pointless'
p5285
I1
sS'mere'
p5286
I1
sS'unfashionable'
p5287
I1
sS'utility'
p5288
I1
sS'1986'
p5289
I2
sS'maize'
p5290
I2
sS'1984'
p5291
I2
sS'machines.olivetti'
p5292
I1
sS'accused'
p5293
I3
sS'privatisation'
p5294
I9
sS'exciting'
p5295
I1
sS'confident'
p5296
I4
sS'8,80'
p5297
I1
sS'transfer'
p5298
I2
sS'pairing'
p5299
I1
sS'relegated'
p5300
I1
sS'reduction'
p5301
I2
sS'spots'
p5302
I1
sS'awarded'
p5303
I1
sS'1951'
p5304
I1
sS'doing'
p5305
I1
sS'performers'
p5306
I1
sS'startled'
p5307
I1
sS'9.8'
p5308
I1
sS'frustration'
p5309
I2
sS'biggest'
p5310
I4
sS'9.5'
p5311
I3
sS'formed'
p5312
I2
sS'inspiration'
p5313
I1
sS'pretax'
p5314
I2
sS'9.1'
p5315
I1
sS'a2'
p5316
I1
sS'1-yr'
p5317
I4
sS'romiti'
p5318
I2
sS'cricket'
p5319
I16
sS'buy'
p5320
I10
sS'north'
p5321
I3
sS'maintenance'
p5322
I1
sS'pressed'
p5323
I1
sS'insurer'
p5324
I4
sS'funds'
p5325
I9
sS'brand'
p5326
I2
sS'davids'
p5327
I1
sS'kowalczyk'
p5328
I2
sS'booked'
p5329
I2
sS'hundreds'
p5330
I1
sS'corneal'
p5331
I1
sS'volume'
p5332
I3
sS'work.they'
p5333
I1
sS'construction'
p5334
I1
sS'goals'
p5335
I3
sS'automated'
p5336
I1
sS'clinically'
p5337
I1
sS'squeeze'
p5338
I2
sS'fall.the'
p5339
I1
sS'21.7total'
p5340
I1
sS'witness'
p5341
I1
sS'leumi'
p5342
I1
sS'braschi'
p5343
I1
sS'5,555'
p5344
I1
sS'tactics'
p5345
I6
sS'1.615'
p5346
I1
sS'protesting'
p5347
I1
sS'greaves'
p5348
I1
sS'official'
p5349
I8
sS'liedholm'
p5350
I1
sS'signed'
p5351
I13
sS'warmth'
p5352
I2
sS'3mo'
p5353
I1
sS'record'
p5354
I15
sS'benetton'
p5355
I15
sS'stories'
p5356
I12
sS'ruling'
p5357
I3
sS'paper.some'
p5358
I1
sS'reactors'
p5359
I1
sS'problem'
p5360
I3
sS'minutes'
p5361
I10
sS'display'
p5362
I1
sS'4,450'
p5363
I1
sS'budgeted'
p5364
I2
sS'milan.just'
p5365
I1
sS'perpetrated'
p5366
I1
sS'nv'
p5367
I1
sS'mask'
p5368
I1
sS'incensed'
p5369
I1
sS'referee'
p5370
I8
sS'3-1'
p5371
I3
sS'21.00'
p5372
I1
sS'nazionale'
p5373
I4
sS'raced'
p5374
I3
sS'trapattoni'
p5375
I3
sS'ing'
p5376
I1
sS'32,000-capacity'
p5377
I1
sS'authority'
p5378
I2
sS'mauro'
p5379
I2
sS'goldsmiths'
p5380
I2
sS'diego'
p5381
I5
sS'compared'
p5382
I10
sS'algeria'
p5383
I2
sS'48'
p5384
I4
sS'49'
p5385
I5
sS'46'
p5386
I2
sS'47'
p5387
I1
sS'44'
p5388
I7
sS'attacked'
p5389
I1
sS'claiming'
p5390
I1
sS'43'
p5391
I2
sS'40'
p5392
I7
sS'87'
p5393
I1
sS'under-21'
p5394
I1
sS'gay.the'
p5395
I1
sS'delpiero'
p5396
I1
sS'guarantee'
p5397
I1
sS'details'
p5398
I9
sS'normal'
p5399
I3
sS'better'
p5400
I5
sS'oldest'
p5401
I2
sS'11.1'
p5402
I1
sS'away.it'
p5403
I1
sS'conclusion'
p5404
I2
sS'gifted'
p5405
I1
sS'star'
p5406
I5
sS'respected'
p5407
I3
sS'discretionary'
p5408
I1
sS'enqvist'
p5409
I2
sS'june'
p5410
I10
sS'outlets'
p5411
I1
sS'thanks'
p5412
I1
sS'stay'
p5413
I5
sS'said.gucci'
p5414
I1
sS'apparel'
p5415
I1
sS'chance'
p5416
I17
sS'29.9'
p5417
I1
sS'said.sports'
p5418
I1
sS'squad.it'
p5419
I1
sS'4.25'
p5420
I1
sS'upwards'
p5421
I1
sS'rights'
p5422
I4
sS'bci'
p5423
I2
sS'using'
p5424
I4
sS'attacker'
p5425
I1
sS'resolution'
p5426
I5
sS'martin'
p5427
I1
sS'rule'
p5428
I1
sS'1.535'
p5429
I1
sS'hikes'
p5430
I1
sS'0-2'
p5431
I1
sS'write'
p5432
I2
sS'status'
p5433
I1
sS'pension'
p5434
I7
sS'volumes'
p5435
I2
sS'close.it'
p5436
I1
sS'psbrbci'
p5437
I1
sS'tonnes'
p5438
I8
sS'thursday.milan'
p5439
I1
sS'dreams'
p5440
I1
sS'dish'
p5441
I1
s.