(dp0
S'represent'
p1
I1
sS'chain'
p2
I1
sS'results'
p3
I2
sS'sonja'
p4
I1
sS'month'
p5
I1
sS'pesev'
p6
I1
sS'manager'
p7
I1
sS'asian'
p8
I1
sS'assailants'
p9
I1
sS'children'
p10
I1
sS'stanoevski'
p11
I1
sS'participants'
p12
I1
sS'thursday'
p13
I1
sS'environment'
p14
I1
sS'excluded'
p15
I1
sS'marks'
p16
I4
sS'frckoski'
p17
I1
sS'end'
p18
I1
sS'elisabeth'
p19
I1
sS'gligorov'
p20
I1
sS'mihajlovski'
p21
I1
sS'popovski'
p22
I1
sS'hajdari'
p23
I1
sS'smuggling'
p24
I1
sS'list'
p25
I3
sS'wednesday'
p26
I3
sS'team'
p27
I3
sS'unauthorised'
p28
I1
sS'leaders'
p29
I1
sS'196'
p30
I3
sS'value'
p31
I1
sS'estimated'
p32
I1
sS'defence'
p33
I1
sS'deeply'
p34
I1
sS'beaten'
p35
I1
sS'shares'
p36
I1
sS'ziberi'
p37
I1
sS'public'
p38
I2
sS'million'
p39
I5
sS'led'
p40
I1
sS'human'
p41
I1
sS'water'
p42
I1
sS'drug'
p43
I1
sS'operating'
p44
I1
sS'cokrevski'
p45
I1
sS'appears'
p46
I1
sS'great'
p47
I2
sS'vlado'
p48
I2
sS'involved'
p49
I3
sS'macedonia.dnevnik'
p50
I1
sS'envoy'
p51
I1
sS'hnadijskidevelopment'
p52
I1
sS'social'
p53
I1
sS'deputy'
p54
I1
sS'apr'
p55
I1
sS'scandal'
p56
I11
sS'auditing'
p57
I3
sS'armed'
p58
I1
sS'market'
p59
I1
sS'confidence'
p60
I1
sS'feb'
p61
I1
sS'proceed'
p62
I1
sS'visit'
p63
I1
sS'ministers'
p64
I5
sS'prosecutor'
p65
I2
sS'gojko'
p66
I1
sS'possession'
p67
I1
sS'parliament'
p68
I2
sS'started'
p69
I2
sS'hurt'
p70
I2
sS'phone'
p71
I1
sS'carrying'
p72
I1
sS'broke'
p73
I1
sS'91'
p74
I4
sS'hold'
p75
I1
sS'94'
p76
I1
sS'97'
p77
I1
sS'96'
p78
I1
sS'town'
p79
I1
sS'selmanitransport'
p80
I1
sS'rights'
p81
I1
sS'science'
p82
I1
sS'work'
p83
I1
sS'involvment'
p84
I1
sS'todorova'
p85
I1
sS'accuracy.nova'
p86
I4
sS'tat'
p87
I13
sS'tax'
p88
I1
sS'dropped'
p89
I1
sS'reputation'
p90
I1
sS'scandal.dnevnik'
p91
I1
sS'monitoring'
p92
I1
sS'reuter'
p93
I1
sS'djemail'
p94
I1
sS'dismissed'
p95
I3
sS'1'
p96
I1
sS'accusations'
p97
I3
sS'resignation'
p98
I2
sS'branirod'
p99
I1
sS'fiti'
p100
I1
sS'southern'
p101
I1
sS'evgeny'
p102
I1
sS'president'
p103
I1
sS'morning.dnevnik'
p104
I1
sS'parallel'
p105
I1
sS'succeeded'
p106
I1
sS'kavadarci'
p107
I1
sS'tendentious'
p108
I2
sS'responsibility'
p109
I1
sS'sundovski'
p110
I5
sS'bekjir'
p111
I2
sS'london'
p112
I1
sS'textile'
p113
I1
sS'group'
p114
I1
sS'reuters'
p115
I4
sS'soccer'
p116
I2
sS'finance'
p117
I1
sS'food'
p118
I1
sS'safe'
p119
I1
sS'mandate'
p120
I1
sS'sorted'
p121
I1
sS'republican'
p122
I1
sS'bank'
p123
I2
sS'country.but'
p124
I1
sS'elected'
p125
I1
sS'covering'
p126
I1
sS'victory'
p127
I2
sS'crossing'
p128
I1
sS'economy'
p129
I1
sS'schemes'
p130
I1
sS'financial'
p131
I5
sS'house'
p132
I2
sS'society'
p133
I3
sS'books'
p134
I1
sS'ex'
p135
I1
sS'agriculture'
p136
I1
sS'saturday'
p137
I1
sS'special'
p138
I2
sS'stavrev'
p139
I1
sS'content'
p140
I1
sS'seriously'
p141
I1
sS'health'
p142
I1
sS'7'
p143
I1
sS'crvenkovski'
p144
I3
sS'1995'
p145
I1
sS'friday'
p146
I1
sS'reshuffle'
p147
I1
sS'houses'
p148
I1
sS'reason'
p149
I1
sS'bedjiti'
p150
I1
sS'nikolovska'
p151
I1
sS'members'
p152
I1
sS'ask'
p153
I1
sS'ministry'
p154
I2
sS'computers'
p155
I1
sS'days'
p156
I1
sS'naser'
p157
I1
sS'ljubomir'
p158
I3
sS'leading'
p159
I4
sS'romania'
p160
I1
sS'buzlevskiurbanisation'
p161
I1
sS'171'
p162
I1
sS'silent'
p163
I1
sS'unknown'
p164
I1
sS'2'
p165
I2
sS'rates'
p166
I1
sS'scheme'
p167
I3
sS'collapse'
p168
I2
sS'allegedly'
p169
I1
sS'severly'
p170
I1
sS'selector'
p171
I1
sS'vouch'
p172
I4
sS'institution'
p173
I1
sS'10'
p174
I1
sS'13'
p175
I1
sS'frckovski'
p176
I1
sS'16'
p177
I1
sS'grammes'
p178
I1
sS'stenje'
p179
I1
sS'russia'
p180
I1
sS'apostolovski'
p181
I1
sS'files'
p182
I1
sS'liabilities'
p183
I1
sS'false'
p184
I1
sS'say'
p185
I2
sS'seen'
p186
I1
sS'389'
p187
I4
sS'border'
p188
I2
sS'affairs'
p189
I2
sS'nikola'
p190
I1
sS'sport'
p191
I1
sS'geneva'
p192
I1
sS'evasion'
p193
I1
sS'note'
p194
I1
sS'labour'
p195
I1
sS'interior'
p196
I1
sS'taki'
p197
I1
sS'naumovski'
p198
I1
sS'collapsed'
p199
I1
sS'201'
p200
I3
sS'201196'
p201
I1
sS'jorgo'
p202
I4
sS'investigations'
p203
I1
sS'iceland'
p204
I1
sS'clearer'
p205
I1
sS'paid'
p206
I2
sS'blagoj'
p207
I1
sS'skopje'
p208
I13
sS'70'
p209
I1
sS'radioactive'
p210
I1
sS'points'
p211
I1
sS'normally'
p212
I1
sS'republic.sources'
p213
I1
sS'german'
p214
I4
sS'russian'
p215
I1
sS'session'
p216
I1
sS'portfolio'
p217
I1
sS'fear'
p218
I1
sS'principal'
p219
I1
sS'based'
p220
I1
sS'justice'
p221
I1
sS'folded'
p222
I1
sS'542'
p223
I1
sS'0630'
p224
I1
sS'announce'
p225
I1
sS'oct'
p226
I1
sS'regularly'
p227
I1
sS'reconstruct'
p228
I1
sS'7968'
p229
I1
sS'abdulmenaf'
p230
I1
sS'14'
p231
I1
sS'prime'
p232
I5
sS'trucks'
p233
I1
sS'sources'
p234
I1
sS'taxes'
p235
I1
sS'0610'
p236
I1
sS'queries'
p237
I1
sS'bulgaria'
p238
I1
sS'spotted'
p239
I1
sS'albania'
p240
I4
sS'questions'
p241
I1
sS'reference'
p242
I1
sS'national'
p243
I4
sS'dimitar'
p244
I1
sS'unkovski'
p245
I1
sS'achieves'
p246
I1
sS'culture'
p247
I1
sS'officials'
p248
I1
sS'resigned'
p249
I2
sS'said'
p250
I6
sS'debar'
p251
I1
sS'blato'
p252
I1
sS'3'
p253
I1
sS'deputies'
p254
I1
sS'ruling'
p255
I2
sS'police'
p256
I3
sS'according'
p257
I3
sS'ilija'
p258
I1
sS'foreign'
p259
I4
sS'april'
p260
I4
sS'connection'
p261
I1
sS'invites'
p262
I1
sS'mircela'
p263
I4
sS'supply'
p264
I1
sS'tuesday'
p265
I3
sS'deposits'
p266
I2
sS'62'
p267
I1
sS'village'
p268
I1
sS'custody'
p269
I2
sS'turkey'
p270
I1
sS'parakeov'
p271
I1
sS'sofija'
p272
I1
sS'tiny'
p273
I1
sS'commission'
p274
I1
sS'secret'
p275
I2
sS'ireland'
p276
I3
sS'expected'
p277
I1
sS'entered'
p278
I1
sS'families'
p279
I2
sS'mushroom'
p280
I1
sS'drugs'
p281
I2
sS'dismiss'
p282
I1
sS'tapping'
p283
I1
sS'minister'
p284
I11
sS'yugoslav'
p285
I1
sS'out.dnevnik'
p286
I1
sS'criminal'
p287
I1
sS'reliable'
p288
I1
sS'antoni'
p289
I1
sS'governor'
p290
I1
sS'near'
p291
I1
sS'editorial'
p292
I1
sS'withdrawing'
p293
I1
sS'newspaper'
p294
I1
sS'pyramid'
p295
I4
sS'experts'
p296
I1
sS'macedonia'
p297
I11
sS'petar'
p298
I1
sS'970402'
p299
I1
sS'comments'
p300
I1
sS'verified'
p301
I4
sS'newsroom'
p302
I4
sS'branko'
p303
I3
sS'member'
p304
I1
sS'speaker'
p305
I1
sS'party'
p306
I1
sS'difficult'
p307
I1
sS'week'
p308
I2
sS'material'
p309
I1
sS'persons'
p310
I1
sS'hadzievski'
p311
I1
sS'correspondent'
p312
I1
sS'charges'
p313
I1
sS'pavlevski'
p314
I1
sS'savings'
p315
I8
sS'contact'
p316
I1
sS'350'
p317
I1
sS'just'
p318
I1
sS'uranium'
p319
I1
sS'rest'
p320
I1
sS'macedonian'
p321
I6
sS'rocked'
p322
I1
sS'stevan'
p323
I1
sS'under-21'
p324
I1
sS'primakov'
p325
I1
sS'lake'
p326
I1
sS'internal'
p327
I1
sS'4'
p328
I1
sS'rehn'
p329
I1
sS'petkovski'
p330
I1
sS'match'
p331
I2
sS'government'
p332
I6
sS'addicts'
p333
I1
sS'press'
p334
I4
sS'using'
p335
I1
sS'accepted'
p336
I2
sS'unfounded'
p337
I1
sS'loss'
p338
I1
sS'bitola'
p339
I4
sS'loses'
p340
I1
sS'communications'
p341
I1
sS'bankruptcies'
p342
I1
sS'people'
p343
I1
sS'67'
p344
I1
sS'delegation'
p345
I1
sS'112'
p346
I2
sS'denies'
p347
I1
sS'total'
p348
I1
sS'ice'
p349
I1
sS'unit'
p350
I1
sS'trpeski'
p351
I1
sS'beating'
p352
I1
sS'conference'
p353
I1
sS'ufo'
p354
I2
sS'dimevski'
p355
I2
sS'leadership'
p356
I1
sS'mite'
p357
I1
sS'bitola.the'
p358
I1
sS'vecer'
p359
I1
sS'tomislav'
p360
I1
sS'prespa'
p361
I1
sS'12,000'
p362
I1
sS'denar'
p363
I1
sS'involvement'
p364
I4
sS'bankruptcy'
p365
I1
sS'statistics'
p366
I1
sS'nova'
p367
I2
sS'miljovski'
p368
I1
sS'jane'
p369
I1
sS'1,337'
p370
I1
sS'0-4'
p371
I1
sS'head'
p372
I2
sS'insurrection'
p373
I1
sS'form'
p374
I1
sS'registered'
p375
I3
sS'cabinet'
p376
I2
sS'construction'
p377
I4
sS'filed'
p378
I1
sS'alliance'
p379
I1
sS'macedonians'
p380
I1
sS'official'
p381
I1
sS'ruined'
p382
I1
sS'stories'
p383
I8
sS'filipce'
p384
I1
sS'similar'
p385
I1
sS'slobodan'
p386
I1
sS'zuta'
p387
I2
sS'sales'
p388
I1
sS'general'
p389
I1
sS'makedonija'
p390
I6
sS'politics'
p391
I1
sS'education'
p392
I1
sS'amounts'
p393
I1
sS'tito'
p394
I1
sS'percent'
p395
I1
sS'forestry'
p396
I1
sS'casule'
p397
I4
sS'kiro'
p398
I1
sS'department'
p399
I2
sS'picture'
p400
I1
sS'formed'
p401
I1
sS'june'
p402
I1
sS'resign'
p403
I1
sS'authorities'
p404
I1
sS'borko'
p405
I1
sS'longer'
p406
I1
sS'sdam'
p407
I3
sS'3-2'
p408
I1
s.