(dp0
S'0.9'
p1
I4
sS'limited'
p2
I8
sS'1.intellisource'
p3
I1
sS'gasolines'
p4
I2
sS'735'
p5
I1
sS'1,800'
p6
I1
sS'consolidated'
p7
I1
sS'positive.the'
p8
I1
sS'volkskrant'
p9
I4
sS'unico'
p10
I1
sS'games.most'
p11
I1
sS'thin.high'
p12
I1
sS'andre'
p13
I2
sS'protest'
p14
I4
sS'earlier.analysts'
p15
I1
sS'guilders.road'
p16
I2
sS'charges.travelling'
p17
I1
sS'claiming'
p18
I1
sS'schmuck'
p19
I1
sS'looking'
p20
I10
sS'1.14'
p21
I1
sS'1.15'
p22
I2
sS'byabout'
p23
I1
sS'aug'
p24
I1
sS'1.11'
p25
I1
sS'670breakdown'
p26
I1
sS'heighten'
p27
I1
sS'swan'
p28
I1
sS'specialising'
p29
I2
sS'activity.overnight'
p30
I1
sS'neighbours'
p31
I1
sS'341'
p32
I1
sS'caused'
p33
I4
sS'featuring'
p34
I1
sS'2.08'
p35
I1
sS'inc.under'
p36
I1
sS'merchant'
p37
I10
sS'plants'
p38
I3
sS'lure'
p39
I2
sS'risk'
p40
I3
sS'0.1875'
p41
I1
sS'said.there'
p42
I1
sS'rise'
p43
I32
sS'misunderstanding'
p44
I1
sS'distort'
p45
I1
sS'7.19'
p46
I1
sS'73.8'
p47
I2
sS'forties'
p48
I2
sS'softened'
p49
I1
sS'remarks'
p50
I1
sS'29.50'
p51
I2
sS'said.van'
p52
I1
sS'exporters'
p53
I2
sS'bringing'
p54
I1
sS'lehman'
p55
I1
sS'vast'
p56
I1
sS'p7'
p57
I4
sS'club'
p58
I1
sS'35.00note'
p59
I1
sS'crops'
p60
I1
sS'theologos'
p61
I1
sS'companies'
p62
I17
sS'wednesday'
p63
I24
sS'aex.chart'
p64
I1
sS'cross.the'
p65
I1
sS'hague'
p66
I8
sS'5850'
p67
I1
sS'laser'
p68
I1
sS'indices'
p69
I2
sS'employees'
p70
I8
sS'subindex'
p71
I2
sS'unauthorised'
p72
I1
sS'level.abn'
p73
I1
sS'commented'
p74
I1
sS'0830'
p75
I3
sS'charter'
p76
I1
sS'organisers'
p77
I2
sS'force'
p78
I8
sS'capitalisation'
p79
I1
sS'hanging'
p80
I2
sS'estimates'
p81
I14
sS'schalken'
p82
I3
sS'budget'
p83
I2
sS'second'
p84
I10
sS"r'damcaptain"
p85
I1
sS'275'
p86
I4
sS'estimated'
p87
I2
sS'rustu'
p88
I2
sS'utrechtjun'
p89
I1
sS'employ'
p90
I1
sS'unlisted'
p91
I2
sS'pace'
p92
I3
sS'1.1875'
p93
I1
sS'neg'
p94
I2
sS'seesawing'
p95
I2
sS'beaten'
p96
I2
sS'contributed'
p97
I7
sS'profitability'
p98
I1
sS'asia'
p99
I3
sS'one.results'
p100
I1
sS'spokesman'
p101
I9
sS'shell.by'
p102
I1
sS'supplier'
p103
I4
sS'new'
p104
I49
sS'net'
p105
I74
sS'increasing'
p106
I1
sS'seeks'
p107
I2
sS'told'
p108
I18
sS'specialist'
p109
I1
sS'agreement'
p110
I2
sS'barometer'
p111
I1
sS'bunkers'
p112
I11
sS'applies'
p113
I1
sS'disposable'
p114
I2
sS'drew'
p115
I1
sS'reported'
p116
I11
sS'108'
p117
I1
sS'batches'
p118
I2
sS'china'
p119
I1
sS'possibility'
p120
I2
sS'samsunspor'
p121
I1
sS'15.may.02'
p122
I1
sS'100'
p123
I8
sS'quite'
p124
I11
sS'106'
p125
I2
sS'kalkavan'
p126
I1
sS'bearishtechnicals'
p127
I1
sS'1.10'
p128
I1
sS'frans'
p129
I4
sS'guus'
p130
I3
sS'items'
p131
I6
sS'study'
p132
I3
sS'changed'
p133
I3
sS'reports'
p134
I4
sS'0.30'
p135
I1
sS'museums'
p136
I1
sS'tv'
p137
I5
sS'danzas'
p138
I1
sS'analysts'
p139
I26
sS'permit'
p140
I1
sS'bunker'
p141
I10
sS'bankcomment'
p142
I1
sS'changes'
p143
I11
sS'business.jet'
p144
I1
sS'sharemarket'
p145
I1
sS'criticism'
p146
I2
sS'golden'
p147
I1
sS'offs'
p148
I1
sS'secure'
p149
I4
sS'campaign'
p150
I3
sS'belongs'
p151
I1
sS'bpd.shell'
p152
I1
sS'unie'
p153
I1
sS'brought'
p154
I3
sS'41.20'
p155
I1
sS'soybean'
p156
I3
sS'broadcasters'
p157
I1
sS'glance'
p158
I1
sS'total'
p159
I33
sS'unit'
p160
I20
sS'sorgdrager.her'
p161
I1
sS'derivatives'
p162
I3
sS'agassi'
p163
I3
sS'conditions.the'
p164
I2
sS'reflected'
p165
I3
sS'fans.the'
p166
I1
sS'13.69points'
p167
I1
sS'negative'
p168
I1
sS'schiphol'
p169
I7
sS'distributing'
p170
I1
sS'asset'
p171
I12
sS'shed'
p172
I3
sS'denmark'
p173
I2
sS'strike'
p174
I1
sS'half.yewtaxan'
p175
I1
sS'type'
p176
I3
sS'slaughtered'
p177
I1
sS'expiring'
p178
I2
sS'attractive'
p179
I2
sS'tankage'
p180
I1
sS'71.7'
p181
I2
sS'wary'
p182
I1
sS'successful'
p183
I3
sS'oscar'
p184
I1
sS'amsterdam020-4212223'
p185
I1
sS'alitalia'
p186
I1
sS'award'
p187
I2
sS'99'
p188
I3
sS'disruption'
p189
I1
sS'berlin'
p190
I1
sS'expellers'
p191
I7
sS'483.90'
p192
I1
sS'excellent'
p193
I3
sS'91'
p194
I1
sS'90'
p195
I4
sS'93'
p196
I1
sS'hold'
p197
I3
sS'tariff'
p198
I1
sS'squad'
p199
I2
sS'97'
p200
I5
sS'circumstances'
p201
I2
sS'shoot'
p202
I1
sS'tnt'
p203
I1
sS'1992'
p204
I2
sS'1995'
p205
I19
sS'room'
p206
I2
sS'1997'
p207
I59
sS'1996'
p208
I96
sS'1999'
p209
I1
sS'1998'
p210
I35
sS'2.65'
p211
I7
sS'plunged'
p212
I2
sS'2.60'
p213
I1
sS'movies'
p214
I1
sS'foils'
p215
I2
sS'52.0'
p216
I1
sS'perdita'
p217
I1
sS'riots.the'
p218
I1
sS'criminal'
p219
I2
sS'example'
p220
I2
sS'ghana'
p221
I2
sS'player.hamburg'
p222
I1
sS'receivables'
p223
I1
sS'53.2'
p224
I1
sS'cited'
p225
I2
sS'bennett'
p226
I3
sS'550'
p227
I1
sS'currency'
p228
I10
sS'caution'
p229
I2
sS'suisse'
p230
I1
sS'want'
p231
I2
sS'thermocoax'
p232
I2
sS'times'
p233
I5
sS'association'
p234
I5
sS'added.m'
p235
I2
sS'envisage'
p236
I1
sS'preferably'
p237
I1
sS'unsubordinated'
p238
I1
sS'betweenthe'
p239
I1
sS'end'
p240
I24
sS'recovery'
p241
I13
sS'thing'
p242
I1
sS'profit.in'
p243
I1
sS'flowremains'
p244
I1
sS'travel'
p245
I1
sS'street.but'
p246
I1
sS'damage'
p247
I1
sS"r'damjin"
p248
I1
sS'amazing'
p249
I1
sS'fob.mediterranean'
p250
I2
sS'accusations'
p251
I1
sS'interview'
p252
I1
sS'skittish'
p253
I1
sS'ordinary'
p254
I5
sS'offshore'
p255
I1
sS'demand.two'
p256
I1
sS'badly'
p257
I1
sS'grinds'
p258
I2
sS'minority'
p259
I2
sS'1.3the'
p260
I1
sS'earlier'
p261
I18
sS'pm'
p262
I1
sS'153/157'
p263
I1
sS'1,500'
p264
I1
sS'beheer'
p265
I5
sS'modest'
p266
I11
sS'355,492'
p267
I1
sS'reassess'
p268
I1
sS'brands'
p269
I1
sS'president'
p270
I1
sS'law'
p271
I3
sS'types'
p272
I1
sS'purchase'
p273
I2
sS'troublemakers'
p274
I1
sS'9-patrick'
p275
I1
sS'amid'
p276
I3
sS'youths'
p277
I1
sS'headquarters'
p278
I5
sS'n.a.10'
p279
I1
sS'7.7note'
p280
I1
sS'maintain'
p281
I2
sS'upside'
p282
I1
sS'suggest'
p283
I2
sS'685'
p284
I1
sS'spending.the'
p285
I1
sS'quarter.the'
p286
I1
sS'order'
p287
I7
sS'28.13'
p288
I1
sS'operations'
p289
I19
sS'foresaw'
p290
I1
sS'trouw'
p291
I2
sS'office'
p292
I2
sS'telecom'
p293
I1
sS'forwarders'
p294
I2
sS'expects'
p295
I6
sS'6.5'
p296
I4
sS'benefited'
p297
I1
sS'london'
p298
I6
sS'6.2'
p299
I1
sS'12.5'
p300
I2
sS'6.0'
p301
I2
sS'japan'
p302
I3
sS'animated'
p303
I1
sS'junior'
p304
I1
sS'mayor'
p305
I2
sS'6.9'
p306
I2
sS'bombing'
p307
I1
sS'10.1'
p308
I1
sS'ghentding'
p309
I1
sS'10.2'
p310
I2
sS'10.5'
p311
I1
sS'22.59'
p312
I1
sS'fit'
p313
I1
sS'bangert'
p314
I3
sS'outperformance'
p315
I1
sS'highlights'
p316
I1
sS'1995.others'
p317
I1
sS'expectations'
p318
I8
sS'comprises'
p319
I1
sS'better'
p320
I5
sS'production'
p321
I27
sS'said.hague'
p322
I1
sS'emphasising'
p323
I1
sS'garry'
p324
I3
sS'wales'
p325
I1
sS'hidden'
p326
I6
sS'drops'
p327
I2
sS'shipbuilder'
p328
I1
sS'inventory'
p329
I3
sS'theo'
p330
I5
sS'2,000'
p331
I1
sS'affected'
p332
I5
sS'tourist'
p333
I1
sS'combination'
p334
I1
sS'conference.the'
p335
I2
sS'prevented'
p336
I1
sS'weakness'
p337
I6
sS'downs'
p338
I1
sS'february.builder'
p339
I1
sS'country.the'
p340
I1
sS'toour'
p341
I1
sS'break'
p342
I5
sS'division.the'
p343
I2
sS'16.43'
p344
I1
sS'veryvolatile'
p345
I1
sS'456'
p346
I1
sS'research.company'
p347
I4
sS'korkmaz'
p348
I2
sS'uptrend.again'
p349
I1
sS'advise'
p350
I1
sS'bank'
p351
I36
sS'competitiveness'
p352
I2
sS'8-10'
p353
I1
sS'1.00'
p354
I4
sS'1.03'
p355
I1
sS'netherlands'
p356
I39
sS'1.05'
p357
I1
sS'reasonably'
p358
I4
sS'arrested'
p359
I5
sS'bunny'
p360
I1
sS'choir'
p361
I1
sS'filling'
p362
I1
sS'1997.despite'
p363
I2
sS'victory'
p364
I1
sS'meet.hamburg'
p365
I1
sS'feeds'
p366
I2
sS'higher'
p367
I30
sS'bond'
p368
I6
sS'lifted'
p369
I2
sS'financial'
p370
I24
sS'fairly'
p371
I3
sS'diana'
p372
I1
sS'train'
p373
I1
sS'10.7'
p374
I1
sS'joined'
p375
I1
sS'living'
p376
I2
sS"r'dammalaysia"
p377
I1
sS'trading'
p378
I24
sS'stealing'
p379
I1
sS'seven.the'
p380
I1
sS'dawn'
p381
I1
sS'extract'
p382
I1
sS'saturday'
p383
I4
sS'almelo'
p384
I2
sS'afternoon.dealers'
p385
I1
sS'nil'
p386
I1
sS'driving'
p387
I4
sS'high.geerts'
p388
I1
sS'crucial'
p389
I3
sS'vessels'
p390
I2
sS'groupquarter'
p391
I1
sS'1996/97'
p392
I6
sS'pbf'
p393
I2
sS'labouchere'
p394
I2
sS'adapt'
p395
I1
sS'paulus'
p396
I1
sS'got'
p397
I1
sS'newly'
p398
I1
sS"r'damhumber"
p399
I1
sS'youngman'
p400
I1
sS'line.when'
p401
I1
sS'thatthe'
p402
I1
sS"a'damchristina"
p403
I1
sS'turning'
p404
I1
sS'clarence'
p405
I6
sS'assured'
p406
I1
sS'resume'
p407
I2
sS'70,000'
p408
I2
sS'threatened'
p409
I1
sS'little'
p410
I19
sS'free'
p411
I5
sS'standard'
p412
I1
sS'tian'
p413
I1
sS'sale.driessen'
p414
I1
sS'formation'
p415
I1
sS'struggle'
p416
I2
sS'boosting'
p417
I1
sS'guilders.shares'
p418
I1
sS'freq'
p419
I2
sS'wanted'
p420
I3
sS'holidays.but'
p421
I1
sS'3.90'
p422
I3
sS'exposing'
p423
I1
sS'created'
p424
I1
sS'iss'
p425
I2
sS'starts'
p426
I1
sS'days'
p427
I9
sS'priorities'
p428
I1
sS'tolerant'
p429
I2
sS'0.5note'
p430
I1
sS'ministries'
p431
I1
sS'shipped'
p432
I1
sS'levels'
p433
I11
sS'10.9'
p434
I1
sS'incorporated'
p435
I1
sS'1970s'
p436
I1
sS'corrections'
p437
I2
sS'moving'
p438
I2
sS'scheme'
p439
I1
sS'programme'
p440
I3
sS'caught'
p441
I1
sS'thecharts'
p442
I1
sS'enraged'
p443
I2
sS'industrial'
p444
I9
sS'oce'
p445
I3
sS'400'
p446
I1
sS'guilders.they'
p447
I1
sS'primary'
p448
I1
sS'hearing'
p449
I1
sS'hans'
p450
I2
sS'floors'
p451
I1
sS'relations'
p452
I2
sS'agri'
p453
I2
sS'plastic'
p454
I1
sS'4-tolunay'
p455
I1
sS'171'
p456
I6
sS'figures.but'
p457
I1
sS'begemann'
p458
I1
sS'agriculture'
p459
I1
sS'basketball'
p460
I1
sS'15.may.97'
p461
I1
sS'service'
p462
I5
sS'similarly'
p463
I1
sS"r'damoct"
p464
I1
sS'zalm'
p465
I1
sS'takeovers'
p466
I1
sS'bourse'
p467
I4
sS'0.05'
p468
I2
sS'plentiful'
p469
I1
sS'needed'
p470
I7
sS'sunmeal'
p471
I5
sS'listed'
p472
I4
sS'tom'
p473
I3
sS'influence'
p474
I1
sS'percentage'
p475
I4
sS'recent'
p476
I15
sS'penalties'
p477
I1
sS'listen'
p478
I1
sS'5-10'
p479
I1
sS'collapse'
p480
I1
sS'crisis.but'
p481
I1
sS'mckinsey'
p482
I1
sS'leaking'
p483
I1
sS'took'
p484
I6
sS'said.with'
p485
I2
sS'direct'
p486
I1
sS'unit.the'
p487
I1
sS'western'
p488
I10
sS'somewhat'
p489
I2
sS'shortly'
p490
I6
sS'sulphur'
p491
I2
sS'maintaining'
p492
I1
sS'expanding'
p493
I1
sS'target'
p494
I5
sS'showed'
p495
I6
sS'hike'
p496
I4
sS'misbehaved'
p497
I1
sS'immigrants'
p498
I1
sS'tree'
p499
I4
sS'likely'
p500
I10
sS'rotteram'
p501
I1
sS'tourists'
p502
I2
sS'project'
p503
I1
sS'18.8'
p504
I1
sS'street'
p505
I10
sS'nederlandse'
p506
I2
sS'profitable'
p507
I1
sS'tackled'
p508
I2
sS'18.3'
p509
I1
sS'feeling'
p510
I3
sS'powers'
p511
I1
sS'cruella'
p512
I1
sS'said.police'
p513
I1
sS'18.6'
p514
I3
sS'fashion'
p515
I7
sS'sees'
p516
I3
sS'nbm'
p517
I2
sS'210,000'
p518
I3
sS'quarter.on'
p519
I1
sS'30.2'
p520
I2
sS'30.0'
p521
I1
sS'mind'
p522
I1
sS'4.2note'
p523
I1
sS'talking'
p524
I2
sS'2-1'
p525
I2
sS'lull'
p526
I2
sS'seen'
p527
I11
sS'besiktas'
p528
I1
sS'1.078'
p529
I1
sS'5.00'
p530
I1
sS'relatively'
p531
I9
sS'forced'
p532
I4
sS'strength'
p533
I2
sS'shareto'
p534
I1
sS'achievement'
p535
I1
sS'thoroughly'
p536
I1
sS'upc'
p537
I1
sS'responsible'
p538
I2
sS'2.75'
p539
I9
sS'isolated'
p540
I1
sS'apply'
p541
I1
sS'utrechtapr'
p542
I1
sS'recommended'
p543
I2
sS'70.10'
p544
I2
sS'101'
p545
I2
sS'punish'
p546
I1
sS'clarify'
p547
I1
sS'1997-2002'
p548
I1
sS'completed'
p549
I1
sS'ulrich'
p550
I1
sS'blue'
p551
I5
sS'generale'
p552
I4
sS'added.ing'
p553
I1
sS'2.91'
p554
I1
sS'transactions'
p555
I4
sS'31.ing'
p556
I1
sS'knv'
p557
I1
sS'100.8'
p558
I1
sS'regular'
p559
I3
sS'germany'
p560
I20
sS'conceded'
p561
I2
sS'imported'
p562
I1
sS'100.6'
p563
I1
sS'437.00'
p564
I1
sS'28.9'
p565
I1
sS'lose'
p566
I2
sS'flow'
p567
I7
sS'chemicals'
p568
I1
sS'scientifics'
p569
I1
sS'investments'
p570
I10
sS'hornbach'
p571
I1
sS'competitors'
p572
I1
sS'reputation'
p573
I2
sS'tech'
p574
I3
sS'sessions'
p575
I2
sS'disruptions'
p576
I1
sS'videoland'
p577
I1
sS'consumer'
p578
I14
sS'dow'
p579
I4
sS'came'
p580
I10
sS'saying'
p581
I9
sS'orchestra'
p582
I1
sS'meetings'
p583
I1
sS'686'
p584
I1
sS'nominated'
p585
I1
sS'brief'
p586
I3
sS'7.0'
p587
I2
sS'7.1'
p588
I1
sS'7.6'
p589
I1
sS'abn'
p590
I11
sS'7.4'
p591
I2
sS'7.5'
p592
I1
sS'hungary'
p593
I1
sS'7.8'
p594
I2
sS'availability'
p595
I1
sS'appealed'
p596
I1
sS'busy'
p597
I1
sS'dampening'
p598
I1
sS'dijkstal'
p599
I1
sS'headline'
p600
I1
sS'representing'
p601
I1
sS'unemployment'
p602
I8
sS'folded'
p603
I2
sS'542'
p604
I4
sS'rick'
p605
I1
sS'verzekeringsgroep'
p606
I2
sS'satisfied'
p607
I1
sS'announce'
p608
I1
sS'hoare'
p609
I2
sS'3166/3363'
p610
I2
sS'exports'
p611
I7
sS'4.02'
p612
I1
sS"a'damaynur"
p613
I1
sS'94.they'
p614
I1
sS'3.84.it'
p615
I1
sS'50/50'
p616
I1
sS'stop'
p617
I1
sS'television'
p618
I1
sS'7-11'
p619
I1
sS'coast'
p620
I2
sS'amount.based'
p621
I1
sS'borrower'
p622
I2
sS'despite'
p623
I11
sS'report'
p624
I5
sS'itexpected'
p625
I1
sS'amstel'
p626
I1
sS'comply'
p627
I1
sS'volatility'
p628
I2
sS'cancellation'
p629
I1
sS'2649'
p630
I2
sS'bar'
p631
I3
sS'die'
p632
I1
sS'countries'
p633
I10
sS'fields'
p634
I5
sS'accordance'
p635
I1
sS'dipping'
p636
I1
sS'bearish.meespierson'
p637
I1
sS'emu'
p638
I6
sS'twice'
p639
I3
sS'bad'
p640
I5
sS'launch'
p641
I2
sS'disney'
p642
I1
sS'rival'
p643
I4
sS'release'
p644
I3
sS'clean'
p645
I1
sS'708.43'
p646
I2
sS'bam'
p647
I2
sS'revealing'
p648
I1
sS'mustafa'
p649
I2
sS'envisaged'
p650
I1
sS'reference'
p651
I1
sS'liquor'
p652
I4
sS'3.45'
p653
I1
sS'reacted'
p654
I3
sS'4.3-5.3'
p655
I1
sS'australia'
p656
I2
sS'decided'
p657
I1
sS'result'
p658
I17
sS'encephalopathy'
p659
I1
sS'fail'
p660
I1
sS'hero'
p661
I1
sS'technicals'
p662
I1
sS'ercan'
p663
I2
sS'hostage.they'
p664
I1
sS'best'
p665
I4
sS'juliet'
p666
I1
sS'said'
p667
I265
sS'capacity'
p668
I3
sS'attacks.thousands'
p669
I1
sS'ambitions'
p670
I1
sS'away'
p671
I2
sS'afloat'
p672
I2
sS'sweden'
p673
I2
sS'pressures'
p674
I1
sS'unable'
p675
I1
sS'cooperation'
p676
I5
sS'integrate'
p677
I2
sS'6.8'
p678
I2
sS'drawn'
p679
I2
sS'tolerance'
p680
I1
sS'noithing'
p681
I1
sS'wage'
p682
I2
sS'terms'
p683
I5
sS'101.725'
p684
I1
sS'extend'
p685
I2
sS'adding'
p686
I8
sS'12.40'
p687
I1
sS'40.0'
p688
I1
sS'handful'
p689
I1
sS'weak'
p690
I4
sS'380'
p691
I3
sS'southeast'
p692
I4
sS'293.00'
p693
I1
sS'17.14'
p694
I1
sS'erica'
p695
I1
sS'extent'
p696
I2
sS'clues'
p697
I3
sS'news'
p698
I12
sS'picking'
p699
I2
sS'debt'
p700
I3
sS'42.4'
p701
I1
sS'downgraded'
p702
I2
sS'improve'
p703
I2
sS'adapting'
p704
I2
sS'received'
p705
I1
sS'climate'
p706
I3
sS'telegraaf.the'
p707
I1
sS'accused'
p708
I1
sS'cow'
p709
I4
sS'met'
p710
I3
sS'3-bulent'
p711
I1
sS'country'
p712
I3
sS'72.40'
p713
I1
sS'uncertainty'
p714
I2
sS'bulent'
p715
I1
sS'players'
p716
I10
sS'109'
p717
I2
sS'und'
p718
I2
sS'planned'
p719
I10
sS'brad'
p720
I1
sS'contribution'
p721
I2
sS'argue'
p722
I1
sS'adapted'
p723
I2
sS'ease'
p724
I1
sS'prospect'
p725
I2
sS'station'
p726
I1
sS'tone'
p727
I2
sS'appeared'
p728
I3
sS'spokesman.the'
p729
I1
sS'betting'
p730
I1
sS'excess'
p731
I1
sS'epidemic'
p732
I1
sS'height'
p733
I1
sS'karel'
p734
I2
sS'active'
p735
I4
sS'corrects'
p736
I3
sS'said.on'
p737
I2
sS'drilled'
p738
I1
sS'tony'
p739
I1
sS'year.within'
p740
I1
sS'250'
p741
I6
sS'organisational'
p742
I1
sS'added.all'
p743
I1
sS'lashed'
p744
I1
sS'1.1'
p745
I1
sS'conference'
p746
I5
sS'motivated.but'
p747
I1
sS"r'damtickets"
p748
I1
sS'puts'
p749
I1
sS'basis'
p750
I8
sS'union'
p751
I10
sS'condemned'
p752
I1
sS'10-15'
p753
I1
sS'96/97'
p754
I3
sS'markella'
p755
I1
sS'quickly'
p756
I2
sS'commission'
p757
I8
sS'trigger'
p758
I1
sS'10-two'
p759
I1
sS'said.while'
p760
I1
sS'basic'
p761
I1
sS'expected'
p762
I66
sS'ann'
p763
I1
sS'idol'
p764
I1
sS'life'
p765
I12
sS'families'
p766
I1
sS'eastern'
p767
I6
sS'drugs'
p768
I2
sS'distribution.first'
p769
I1
sS'worker'
p770
I1
sS'1.9'
p771
I2
sS'lift'
p772
I2
sS'0.11'
p773
I2
sS'crosses.turkey'
p774
I1
sS'doubts'
p775
I1
sS'aviation'
p776
I6
sS'worked'
p777
I1
sS'applied'
p778
I2
sS'save'
p779
I2
sS'6.84'
p780
I1
sS'38'
p781
I1
sS'easter'
p782
I9
sS'ofplay'
p783
I1
sS'contingencies'
p784
I1
sS'air'
p785
I6
sS'aim'
p786
I1
sS'information'
p787
I6
sS'near'
p788
I8
sS'2.11'
p789
I1
sS'leaves'
p790
I1
sS'million.henselijn'
p791
I2
sS'aid'
p792
I1
sS'cracked'
p793
I1
sS'gni'
p794
I1
sS'k'
p795
I2
sS'procedure'
p796
I1
sS'seven'
p797
I9
sS'losses'
p798
I20
sS'incomes.exports'
p799
I1
sS'metropolitan'
p800
I1
sS'ipma'
p801
I1
sS'1.448'
p802
I1
sS'expenses'
p803
I6
sS'ii'
p804
I1
sS'conc'
p805
I2
sS'outpace'
p806
I1
sS'victims'
p807
I3
sS'flat.high'
p808
I1
sS'35.87'
p809
I1
sS'remaincautious'
p810
I1
sS'confirmed'
p811
I2
sS'activities.in'
p812
I1
sS'ado'
p813
I2
sS'romeo'
p814
I1
sS'perform'
p815
I1
sS'things'
p816
I3
sS'make'
p817
I15
sS'sidelined'
p818
I1
sS'jerry'
p819
I1
sS'said.its'
p820
I1
sS'speculating'
p821
I1
sS'complex'
p822
I1
sS'warri'
p823
I2
sS'haarhuis'
p824
I1
sS'unfortunate'
p825
I1
sS'inall'
p826
I1
sS'convictions'
p827
I1
sS'showing'
p828
I7
sS'european'
p829
I28
sS'unharmed'
p830
I1
sS'independent'
p831
I4
sS'99notes'
p832
I2
sS'ringleaders'
p833
I1
sS'arenajun'
p834
I1
sS'emerged.majors'
p835
I1
sS'arenajul'
p836
I1
sS'0.98breakdown'
p837
I1
sS'outperformed'
p838
I3
sS'springtime'
p839
I1
sS'hand'
p840
I3
sS'property'
p841
I4
sS'military'
p842
I1
sS'5.70'
p843
I2
sS'guilders'
p844
I160
sS'opportunity'
p845
I2
sS'5.75'
p846
I5
sS'butter'
p847
I2
sS'upturn'
p848
I1
sS'transhipment'
p849
I1
sS'driessen'
p850
I4
sS'kept'
p851
I2
sS'presto'
p852
I2
sS'borst'
p853
I1
sS'failing'
p854
I1
sS'eps'
p855
I8
sS'3223'
p856
I2
sS'bonny'
p857
I3
sS'haag'
p858
I1
sS'savings'
p859
I3
sS'sharenv'
p860
I1
sS'38.76'
p861
I1
sS'5-arthleftur'
p862
I1
sS'mother'
p863
I3
sS'unification'
p864
I2
sS'jean'
p865
I2
sS'corporate'
p866
I7
sS'musical'
p867
I1
sS'left'
p868
I7
sS'stringent'
p869
I2
sS'just'
p870
I16
sS'reckoned'
p871
I2
sS'althoughthe'
p872
I1
sS'sporting'
p873
I1
sS'nwe'
p874
I2
sS'aprilfool'
p875
I1
sS'3.15'
p876
I1
sS'quotes'
p877
I3
sS'identify'
p878
I5
sS'shocked'
p879
I3
sS'sabbatical'
p880
I1
sS'firmed'
p881
I4
sS'facts'
p882
I1
sS'followed'
p883
I1
sS'yes'
p884
I5
sS'9.4'
p885
I1
sS'yew'
p886
I4
sS'previous'
p887
I15
sS'hai'
p888
I2
sS'buyers'
p889
I7
sS'like'
p890
I3
sS'family'
p891
I8
sS'candidate'
p892
I2
sS'leer'
p893
I3
sS'regarded'
p894
I3
sS'royal'
p895
I12
sS'amoco'
p896
I1
sS'youngsters'
p897
I1
sS'wright'
p898
I2
sS'spread'
p899
I7
sS'collections'
p900
I2
sS'board'
p901
I9
sS'easy'
p902
I1
sS'els'
p903
I1
sS'700.volume'
p904
I2
sS'gang'
p905
I2
sS'bankiers'
p906
I1
sS'gave'
p907
I2
sS'119'
p908
I2
sS'municipal'
p909
I3
sS'ops'
p910
I9
sS'added.another'
p911
I1
sS'advances'
p912
I7
sS'credit'
p913
I1
sS'1150'
p914
I1
sS'firmer'
p915
I2
sS'arab'
p916
I1
sS'emmeloord'
p917
I1
sS'cultural'
p918
I2
sS'opg'
p919
I2
sS'groep'
p920
I17
sS'barge'
p921
I6
sS'govt'
p922
I2
sS'cape'
p923
I1
sS'replace'
p924
I1
sS'fortis'
p925
I1
sS'bpd'
p926
I7
sS'desire'
p927
I1
sS'exxon'
p928
I2
sS'58'
p929
I4
sS'55'
p930
I3
sS'aliens.7'
p931
I1
sS'50'
p932
I15
sS'switching'
p933
I1
sS'specific'
p934
I1
sS'level.the'
p935
I1
sS'533'
p936
I1
sS'530'
p937
I6
sS'security'
p938
I3
sS'dealer.earlier'
p939
I1
sS'yarn.the'
p940
I1
sS'right'
p941
I1
sS'old'
p942
I1
sS'creek'
p943
I1
sS'deal'
p944
I3
sS'people'
p945
I14
sS'successfully'
p946
I1
sS'consultants'
p947
I2
sS'clubs'
p948
I2
sS'printer'
p949
I1
sS'flatten'
p950
I1
sS'escape'
p951
I1
sS'bore'
p952
I1
sS'101.0625'
p953
I1
sS'securities'
p954
I9
sS'costs.van'
p955
I1
sS'participations'
p956
I1
sS'clash'
p957
I1
sS'scoreline'
p958
I1
sS'armed'
p959
I1
sS'flat.the'
p960
I1
sS'opposite'
p961
I1
sS'050-3666555to'
p962
I1
sS'comments'
p963
I4
sS'totals'
p964
I3
sS'38.00'
p965
I1
sS'4-0'
p966
I1
sS'asking'
p967
I1
sS'result.the'
p968
I1
sS'fob'
p969
I10
sS'104.50.copier'
p970
I1
sS'420'
p971
I1
sS'expense'
p972
I2
sS'participation'
p973
I1
sS'core'
p974
I6
sS'9.26'
p975
I1
sS'fish'
p976
I1
sS'subscriptions'
p977
I1
sS'2-micael'
p978
I1
sS'night'
p979
I3
sS"r'damhereke"
p980
I1
sS'said.this'
p981
I1
sS'disappeared'
p982
I1
sS'plg'
p983
I2
sS'discount'
p984
I2
sS'restructuring'
p985
I1
sS'swings'
p986
I2
sS'plc'
p987
I1
sS'concert'
p988
I1
sS'forecast.pre'
p989
I1
sS'growth.the'
p990
I1
sS'brokerage'
p991
I1
sS'post'
p992
I3
sS'shaken'
p993
I2
sS'rallying'
p994
I1
sS'visitors'
p995
I1
sS'attacks'
p996
I5
sS'acquire'
p997
I1
sS'newspapers'
p998
I4
sS'months'
p999
I15
sS'good.earlier'
p1000
I1
sS'flourishes'
p1001
I1
sS'misleading'
p1002
I1
sS'plus'
p1003
I1
sS'afternoon'
p1004
I6
sS'efforts'
p1005
I2
sS'sept'
p1006
I2
sS'raised'
p1007
I2
sS'soycomplex'
p1008
I3
sS'managers'
p1009
I1
sS'netloss'
p1010
I1
sS'presence'
p1011
I1
sS'civil'
p1012
I1
sS'systemen'
p1013
I2
sS'float'
p1014
I1
sS'income.the'
p1015
I3
sS'son'
p1016
I1
sS'respectable'
p1017
I1
sS'unilever'
p1018
I3
sS'prices.but'
p1019
I1
sS'bats'
p1020
I1
sS'worlwide'
p1021
I2
sS'39.9'
p1022
I1
sS'soy'
p1023
I1
sS'amsterdam'
p1024
I115
sS'exchanges'
p1025
I1
sS'reducing'
p1026
I1
sS'soon'
p1027
I2
sS'rounds'
p1028
I1
sS'113.3'
p1029
I1
sS'5.nam'
p1030
I1
sS'21.7'
p1031
I3
sS'1.88'
p1032
I2
sS'21.2'
p1033
I1
sS'expired'
p1034
I1
sS'support'
p1035
I14
sS'tennis'
p1036
I1
sS'sjeng'
p1037
I2
sS'fight'
p1038
I1
sS'fought'
p1039
I2
sS'stocks.one'
p1040
I1
sS'p1'
p1041
I20
sS'way'
p1042
I11
sS'resulted'
p1043
I1
sS'kunsthal'
p1044
I1
sS'depreciations'
p1045
I1
sS'calm'
p1046
I2
sS'lowest'
p1047
I1
sS'head'
p1048
I5
sS'medium'
p1049
I5
sS'121'
p1050
I1
sS'13310/4'
p1051
I1
sS'offering'
p1052
I5
sS'offer'
p1053
I2
sS'recouping'
p1054
I2
sS"r'damkalymnos"
p1055
I1
sS'ford'
p1056
I1
sS'underperformance'
p1057
I2
sS'possible.some'
p1058
I1
sS'lows'
p1059
I1
sS'finnair'
p1060
I1
sS'bankierscomment'
p1061
I1
sS'boosts'
p1062
I1
sS'restive'
p1063
I1
sS'true'
p1064
I1
sS'analyst'
p1065
I8
sS'7,100'
p1066
I1
sS'covering.fujairah'
p1067
I1
sS'brocatrade'
p1068
I1
sS'esengun'
p1069
I3
sS'friday'
p1070
I26
sS'3.7'
p1071
I2
sS'spun'
p1072
I1
sS'utmost'
p1073
I1
sS'bids'
p1074
I4
sS'bargain'
p1075
I6
sS'expected.the'
p1076
I1
sS'maturing'
p1077
I2
sS'mth'
p1078
I2
sS'3.5'
p1079
I2
sS'minor'
p1080
I3
sS'3.2'
p1081
I2
sS'whisker'
p1082
I2
sS'combination.stad'
p1083
I1
sS'greenfields'
p1084
I1
sS'tonne'
p1085
I18
sS'strengthening'
p1086
I2
sS'effect.a'
p1087
I1
sS'motive.the'
p1088
I1
sS'proven'
p1089
I2
sS'drive'
p1090
I1
sS'expertise'
p1091
I2
sS'ship'
p1092
I1
sS'dealer'
p1093
I20
sS'negotiations'
p1094
I2
sS'hami'
p1095
I1
sS'pipe'
p1096
I1
sS'results.the'
p1097
I1
sS'52nd'
p1098
I2
sS'nl'
p1099
I1
sS'weakened'
p1100
I2
sS'stake'
p1101
I5
sS'generally'
p1102
I1
sS'handed'
p1103
I1
sS'build'
p1104
I1
sS'setting'
p1105
I1
sS'detected'
p1106
I1
sS'holding'
p1107
I2
sS'papers'
p1108
I1
sS'jonk'
p1109
I4
sS'tie'
p1110
I2
sS'unwilling'
p1111
I1
sS'erosion'
p1112
I1
sS'company'
p1113
I59
sS'1.875'
p1114
I1
sS'unbalanced'
p1115
I2
sS'picture'
p1116
I1
sS'71.9'
p1117
I2
sS'reconsider'
p1118
I1
sS'brothers'
p1119
I2
sS'cor'
p1120
I1
sS'handicap'
p1121
I2
sS'surprise'
p1122
I1
sS'ointment'
p1123
I2
sS'felt'
p1124
I1
sS'1997.on'
p1125
I1
sS'casualities'
p1126
I1
sS'wars'
p1127
I1
sS'grinders'
p1128
I2
sS'fell'
p1129
I10
sS'intent'
p1130
I1
sS'exported'
p1131
I1
sS'professional'
p1132
I2
sS'authorities'
p1133
I5
sS'troupe'
p1134
I1
sS'thosefigures'
p1135
I1
sS'weekend'
p1136
I5
sS'avoided'
p1137
I1
sS'died'
p1138
I4
sS'5040'
p1139
I53
sS'billion'
p1140
I71
sS'dirks'
p1141
I6
sS'longer'
p1142
I9
sS'phone'
p1143
I2
sS'assume'
p1144
I1
sS'mondriaan'
p1145
I1
sS'daily'
p1146
I3
sS'barrel'
p1147
I1
sS'premiums'
p1148
I2
sS'personal'
p1149
I2
sS'time'
p1150
I10
sS'push'
p1151
I2
sS'69.90'
p1152
I1
sS'pellets'
p1153
I4
sS'profits'
p1154
I32
sS'basically'
p1155
I1
sS'service.he'
p1156
I1
sS'coach'
p1157
I3
sS'customary'
p1158
I1
sS'impulse'
p1159
I1
sS'chain'
p1160
I20
sS'switched'
p1161
I1
sS'global'
p1162
I2
sS'alternatives'
p1163
I1
sS'howlers'
p1164
I1
sS'cancelled'
p1165
I1
sS'guilders.although'
p1166
I2
sS'manager'
p1167
I7
sS'10.68'
p1168
I1
sS'vno'
p1169
I1
sS'textile'
p1170
I1
sS'lauri'
p1171
I1
sS'5-0'
p1172
I1
sS'prop'
p1173
I2
sS'premises'
p1174
I1
sS'jarre'
p1175
I1
sS'row'
p1176
I1
sS'gesellschaft'
p1177
I1
sS'said.shell'
p1178
I1
sS'21st'
p1179
I1
sS'92'
p1180
I1
sS'ag.talks'
p1181
I1
sS'nineteen'
p1182
I1
sS'spongiform'
p1183
I1
sS'crates'
p1184
I1
sS'94'
p1185
I2
sS'environment'
p1186
I1
sS'krasnapolsky'
p1187
I1
sS'summarised'
p1188
I1
sS'compensate'
p1189
I1
sS'burlington'
p1190
I1
sS'marks'
p1191
I2
sS'ven'
p1192
I2
sS'suffered'
p1193
I6
sS'96'
p1194
I10
sS'france.belgium'
p1195
I1
sS'1.880'
p1196
I1
sS'388,412'
p1197
I1
sS'shakespeare'
p1198
I1
sS'division'
p1199
I12
sS'hostages.they'
p1200
I1
sS'thursday.dealers'
p1201
I2
sS'broadly'
p1202
I3
sS'yagcioglu.the'
p1203
I1
sS'actor.10'
p1204
I1
sS'denied'
p1205
I1
sS'consolidation'
p1206
I4
sS'218.30'
p1207
I2
sS'defying'
p1208
I2
sS'advised'
p1209
I1
sS'10-year'
p1210
I2
sS'grng.cn'
p1211
I1
sS'amev.f'
p1212
I1
sS'minute'
p1213
I4
sS'1994'
p1214
I5
sS'mahi'
p1215
I1
sS'looney'
p1216
I1
sS'impressive'
p1217
I1
sS'level'
p1218
I13
sS'did'
p1219
I10
sS'lagos.he'
p1220
I1
sS'rights'
p1221
I2
sS'proposals'
p1222
I1
sS'kolker'
p1223
I3
sS'travels'
p1224
I1
sS'p'
p1225
I8
sS'diy'
p1226
I4
sS'team'
p1227
I12
sS'quick'
p1228
I3
sS'speculation'
p1229
I5
sS'edax'
p1230
I2
sS'round'
p1231
I3
sS'unaware'
p1232
I1
sS'upper'
p1233
I6
sS'accuracy.het'
p1234
I1
sS'work'
p1235
I4
sS'illustrating'
p1236
I1
sS'trend'
p1237
I7
sS'dealing'
p1238
I2
sS'leaders.the'
p1239
I1
sS'estimates.traders'
p1240
I2
sS'sign'
p1241
I5
sS'heini'
p1242
I2
sS'cost'
p1243
I13
sS'kistaindustrier'
p1244
I2
sS'31-20-504-5040'
p1245
I2
sS'turkey.he'
p1246
I1
sS'patient'
p1247
I1
sS'helpless'
p1248
I2
sS'ruckversicherungs'
p1249
I1
sS'targets'
p1250
I2
sS'substitute'
p1251
I3
sS'ordered'
p1252
I1
sS'majors'
p1253
I3
sS'cargo'
p1254
I12
sS'purchasers'
p1255
I2
sS'appear'
p1256
I1
sS'10-yr'
p1257
I1
sS'antwerp'
p1258
I1
sS'celebrated'
p1259
I1
sS'shares'
p1260
I50
sS'debate'
p1261
I1
sS'current'
p1262
I9
sS'7.25'
p1263
I6
sS'axel'
p1264
I1
sS'0.40'
p1265
I1
sS'goes'
p1266
I4
sS'marketing'
p1267
I1
sS'4-frank'
p1268
I1
sS'international'
p1269
I17
sS'falling'
p1270
I6
sS'97.5'
p1271
I1
sS'boost'
p1272
I1
sS'month.shell'
p1273
I1
sS'feedingredients'
p1274
I1
sS'cleaner'
p1275
I1
sS'10gasoline'
p1276
I1
sS'paribas'
p1277
I2
sS'unsure'
p1278
I1
sS'den'
p1279
I8
sS'aline'
p1280
I2
sS'troubled'
p1281
I1
sS'funeral'
p1282
I1
sS'designed'
p1283
I1
sS'0.3note'
p1284
I1
sS'firebombed'
p1285
I1
sS'test'
p1286
I7
sS'soldiers'
p1287
I1
sS'6-8'
p1288
I1
sS'street.the'
p1289
I2
sS'106.8'
p1290
I1
sS'acquisition'
p1291
I5
sS'states.philips'
p1292
I1
sS'change'
p1293
I14
sS'106.9'
p1294
I1
sS'56,000'
p1295
I1
sS'incoming'
p1296
I2
sS'flames'
p1297
I1
sS'canadian'
p1298
I1
sS'healthy'
p1299
I3
sS'shift'
p1300
I1
sS'hbg'
p1301
I2
sS'earned'
p1302
I2
sS'step'
p1303
I1
sS'trias'
p1304
I1
sS'chemical'
p1305
I2
sS'throughput'
p1306
I2
sS'57.1'
p1307
I1
sS'12-month'
p1308
I1
sS'boe'
p1309
I4
sS'wavin'
p1310
I10
sS'confrontation'
p1311
I1
sS'nmax'
p1312
I1
sS'emerge'
p1313
I1
sS'hisdevelopment'
p1314
I1
sS'added.southern'
p1315
I1
sS'extra'
p1316
I5
sS'anja-3'
p1317
I1
sS'lending'
p1318
I2
sS'knvb'
p1319
I1
sS'prefer'
p1320
I2
sS'logical'
p1321
I2
sS'msci'
p1322
I2
sS'losing'
p1323
I1
sS'safeguard'
p1324
I1
sS'modern'
p1325
I1
sS'ailing'
p1326
I1
sS'rarely'
p1327
I1
sS'mobil'
p1328
I1
sS'crisis'
p1329
I1
sS'market'
p1330
I96
sS'everybody'
p1331
I2
sS'jan'
p1332
I6
sS'780is'
p1333
I1
sS'indicated'
p1334
I3
sS'surroundings'
p1335
I1
sS'positive'
p1336
I12
sS'angry'
p1337
I1
sS'visit'
p1338
I1
sS'athens'
p1339
I1
sS'france'
p1340
I10
sS'provs'
p1341
I2
sS'live'
p1342
I1
sS'going'
p1343
I6
sS'conquistador'
p1344
I1
sS'criteria'
p1345
I1
sS'films'
p1346
I2
sS'australian'
p1347
I1
sS'czepliewicz'
p1348
I1
sS'today'
p1349
I10
sS'loving'
p1350
I1
sS'introducing'
p1351
I1
sS'continue'
p1352
I5
sS'riot'
p1353
I1
sS'12,400'
p1354
I1
sS'incident'
p1355
I3
sS'1996.the'
p1356
I3
sS'acceptable'
p1357
I1
sS'apparent'
p1358
I1
sS'chocolate'
p1359
I1
sS'employee'
p1360
I1
sS'cautious'
p1361
I3
sS'employed'
p1362
I1
sS'stanley'
p1363
I1
sS'downturn'
p1364
I3
sS'blinds'
p1365
I1
sS'bushels'
p1366
I3
sS'fly'
p1367
I2
sS'11-phillip'
p1368
I1
sS'wanda'
p1369
I1
sS'warned.with'
p1370
I1
sS'ghentpioneer'
p1371
I1
sS'redecoration'
p1372
I1
sS'thousands'
p1373
I3
sS'siemerinkcourier'
p1374
I1
sS'cap'
p1375
I1
sS'citruspulp'
p1376
I1
sS'mayors'
p1377
I1
sS'wayss'
p1378
I1
sS'printing'
p1379
I1
sS'rapid.naphtha'
p1380
I1
sS'expenses.it'
p1381
I1
sS'following'
p1382
I18
sS'making'
p1383
I6
sS'blns'
p1384
I5
sS'lagged'
p1385
I1
sS'reviewing'
p1386
I1
sS'nearest'
p1387
I1
sS'dedicated'
p1388
I1
sS'aegon'
p1389
I1
sS'figure'
p1390
I10
sS'542-7706'
p1391
I2
sS'december'
p1392
I6
sS'boston'
p1393
I1
sS'p&o'
p1394
I1
sS'guilders.electronics'
p1395
I1
sS'toreinforce'
p1396
I1
sS'billion.exchange'
p1397
I1
sS'dropped'
p1398
I8
sS'council'
p1399
I5
sS'allowed'
p1400
I1
sS'234'
p1401
I2
sS'units.he'
p1402
I1
sS'dennis'
p1403
I1
sS'230'
p1404
I1
sS'occur'
p1405
I2
sS'ijaw'
p1406
I2
sS'litre'
p1407
I5
sS'winter'
p1408
I4
sS'10-clarence'
p1409
I1
sS'spreads'
p1410
I3
sS'acquistion'
p1411
I1
sS'1'
p1412
I32
sS'immune'
p1413
I1
sS'sunday'
p1414
I4
sS'vital'
p1415
I1
sS'fourth'
p1416
I7
sS'elephant'
p1417
I2
sS'subsidiaries'
p1418
I2
sS'economy'
p1419
I10
sS'csm'
p1420
I1
sS'product'
p1421
I18
sS'3.40'
p1422
I4
sS'broad'
p1423
I1
sS'reorienting'
p1424
I1
sS'spot'
p1425
I6
sS'account.analysts'
p1426
I1
sS'applications'
p1427
I1
sS'membership'
p1428
I1
sS'belgians'
p1429
I3
sS'mad'
p1430
I2
sS'europe.the'
p1431
I1
sS'improving'
p1432
I1
sS'ltd.korean'
p1433
I1
sS'maj'
p1434
I2
sS'data'
p1435
I12
sS'grow'
p1436
I7
sS'man'
p1437
I7
sS'10-tugay'
p1438
I1
sS'natural'
p1439
I2
sS'sectors'
p1440
I3
sS'joint'
p1441
I7
sS'slightly'
p1442
I26
sS'sq'
p1443
I4
sS'futures'
p1444
I9
sS'st'
p1445
I1
sS'fund.actual'
p1446
I1
sS'switch'
p1447
I2
sS'jail'
p1448
I2
sS'irked'
p1449
I1
sS'african'
p1450
I1
sS'michel'
p1451
I1
sS'tnt.ax'
p1452
I1
sS"r'dammr"
p1453
I1
sS'yokogawa'
p1454
I1
sS'rapemeal'
p1455
I1
sS'105note'
p1456
I1
sS'8-ogun'
p1457
I1
sS'pointed'
p1458
I1
sS'127'
p1459
I2
sS'mainly'
p1460
I12
sS'emerged.the'
p1461
I1
sS'years'
p1462
I14
sS'stability'
p1463
I2
sS'ended'
p1464
I15
sS'nilnote'
p1465
I1
sS'70.80'
p1466
I2
sS'coast.this'
p1467
I1
sS'cuts'
p1468
I1
sS'consolidating'
p1469
I1
sS'tore'
p1470
I2
sS'group'
p1471
I97
sS'monitor'
p1472
I1
sS'avia'
p1473
I3
sS'gti'
p1474
I2
sS'fell.traders'
p1475
I2
sS'health.some'
p1476
I1
sS'jij'
p1477
I1
sS'majority'
p1478
I2
sS'forms'
p1479
I1
sS'window'
p1480
I1
sS'offers'
p1481
I5
sS'suspicion'
p1482
I1
sS'listing'
p1483
I10
sS'said.anonymous'
p1484
I1
sS'main'
p1485
I15
sS'norway'
p1486
I1
sS'ppi'
p1487
I1
sS'96.20'
p1488
I1
sS'happened'
p1489
I1
sS'87'
p1490
I4
sS'apron'
p1491
I1
sS'non'
p1492
I13
sS'finance'
p1493
I6
sS'palmexpellers'
p1494
I2
sS'matches'
p1495
I3
sS'100,000'
p1496
I3
sS'undisclosed'
p1497
I4
sS'nob'
p1498
I1
sS'nation'
p1499
I1
sS'touching'
p1500
I1
sS'drilling'
p1501
I1
sS'half'
p1502
I8
sS'arriving'
p1503
I1
sS'17.the'
p1504
I1
sS'26.4'
p1505
I1
sS'provision'
p1506
I2
sS'hall'
p1507
I1
sS'developments'
p1508
I1
sS'matched'
p1509
I1
sS'groningen'
p1510
I2
sS'term'
p1511
I18
sS'services.ogden'
p1512
I1
sS'14.3'
p1513
I1
sS'ports.one'
p1514
I1
sS'24.4'
p1515
I2
sS'january'
p1516
I13
sS'blaze.the'
p1517
I1
sS'drop'
p1518
I10
sS'gerrit'
p1519
I1
sS'academy'
p1520
I2
sS'1990'
p1521
I1
sS'22.2'
p1522
I1
sS'realistic'
p1523
I1
sS'22.1'
p1524
I1
sS'gamble'
p1525
I2
sS'khazanach'
p1526
I1
sS'rock'
p1527
I1
sS'entirely'
p1528
I1
sS'quarter'
p1529
I32
sS'85.the'
p1530
I1
sS'concerts'
p1531
I1
sS'significantly'
p1532
I2
sS'kluivert'
p1533
I3
sS'divisional'
p1534
I1
sS'ed'
p1535
I1
sS'revised'
p1536
I2
sS's&p'
p1537
I2
sS'bovine'
p1538
I1
sS'fostered'
p1539
I1
sS'said.hamburg'
p1540
I2
sS'26'
p1541
I2
sS'ex'
p1542
I2
sS'year'
p1543
I95
sS'distributor'
p1544
I2
sS'kpmg'
p1545
I1
sS'happen'
p1546
I1
sS'morning'
p1547
I13
sS'adequately'
p1548
I1
sS'neighbourhood'
p1549
I1
sS'plans'
p1550
I6
sS'canada'
p1551
I1
sS'totalling'
p1552
I2
sS'container'
p1553
I2
sS'bullish'
p1554
I2
sS'factors'
p1555
I7
sS'profit'
p1556
I104
sS'year.the'
p1557
I1
sS'upcan'
p1558
I1
sS'goodwin'
p1559
I1
sS'hastily'
p1560
I1
sS'increase'
p1561
I22
sS'attracted'
p1562
I1
sS'investigation'
p1563
I1
sS'emerged'
p1564
I1
sS'dutch'
p1565
I180
sS'suggesting'
p1566
I1
sS'formula'
p1567
I3
sS'protected'
p1568
I1
sS'1989'
p1569
I1
sS'shows'
p1570
I2
sS'metro'
p1571
I1
sS'experienced'
p1572
I2
sS'unemployed'
p1573
I1
sS'unexpected'
p1574
I1
sS'hefty'
p1575
I1
sS'million'
p1576
I83
sS'1135'
p1577
I2
sS'622.2'
p1578
I2
sS'tunes'
p1579
I1
sS'ajax'
p1580
I4
sS'marino'
p1581
I2
sS'ord'
p1582
I8
sS'marine'
p1583
I1
sS'wijs'
p1584
I2
sS'dagblad'
p1585
I8
sS'care'
p1586
I1
sS'thinks'
p1587
I1
sS'advance'
p1588
I2
sS'ministry'
p1589
I6
sS'eurograde'
p1590
I1
sS'waits'
p1591
I1
sS'british'
p1592
I15
sS'turn'
p1593
I3
sS'year.among'
p1594
I1
sS'place'
p1595
I7
sS'massive'
p1596
I1
sS"a'damzhen"
p1597
I2
sS'513'
p1598
I1
sS'think'
p1599
I12
sS'6.26'
p1600
I1
sS'origin'
p1601
I3
sS'flying'
p1602
I2
sS'carre'
p1603
I2
sS'thwarts'
p1604
I1
sS'pick'
p1605
I2
sS'guessing'
p1606
I1
sS'ghentaghia'
p1607
I1
sS'amersfoortse.stad'
p1608
I1
sS'8-ronald'
p1609
I1
sS'gases'
p1610
I1
sS'directly'
p1611
I3
sS'spanish'
p1612
I5
sS'carry'
p1613
I3
sS'forwarding'
p1614
I1
sS'open'
p1615
I7
sS'tomorrow'
p1616
I4
sS'size'
p1617
I9
sS'city'
p1618
I4
sS'given'
p1619
I8
sS'ian'
p1620
I1
sS'officials'
p1621
I1
sS'pharmaceuticals'
p1622
I2
sS'bite'
p1623
I1
sS'havutcu'
p1624
I1
sS'97,273'
p1625
I2
sS'urhobos'
p1626
I1
sS'courtaulds'
p1627
I2
sS'returns'
p1628
I2
sS'2'
p1629
I11
sS'recber'
p1630
I3
sS'1,725'
p1631
I1
sS'white'
p1632
I1
sS'hooliganism'
p1633
I3
sS'national'
p1634
I4
sS'gives'
p1635
I1
sS'eyes'
p1636
I1
sS'hua'
p1637
I1
sS'courier'
p1638
I1
sS'23.78'
p1639
I1
sS'season'
p1640
I3
sS'14.84'
p1641
I1
sS'circulated'
p1642
I2
sS'alan'
p1643
I1
sS'released'
p1644
I4
sS'eindhoven'
p1645
I3
sS'systemems'
p1646
I1
sS'quiet.mediterranean'
p1647
I1
sS'giorgiev'
p1648
I1
sS'immigrant'
p1649
I6
sS'surged'
p1650
I2
sS'specify'
p1651
I4
sS'11'
p1652
I4
sS'10'
p1653
I15
sS'13'
p1654
I3
sS'12'
p1655
I15
sS'15'
p1656
I15
sS'14'
p1657
I7
sS'17'
p1658
I4
sS'16'
p1659
I2
sS'19'
p1660
I6
sS'18'
p1661
I2
sS'transferred'
p1662
I2
sS'period.this'
p1663
I1
sS'spokeswoman'
p1664
I1
sS'future'
p1665
I10
sS'knives'
p1666
I1
sS'venture'
p1667
I10
sS'wins'
p1668
I1
sS'standardised'
p1669
I2
sS'accountancy'
p1670
I1
sS'chartair'
p1671
I1
sS'pre'
p1672
I11
sS'shortfall.shares'
p1673
I2
sS'san'
p1674
I4
sS'investors'
p1675
I12
sS'remained'
p1676
I14
sS'correction'
p1677
I4
sS'confessed'
p1678
I1
sS'turned'
p1679
I1
sS'argument'
p1680
I1
sS'deutsche'
p1681
I2
sS'winding'
p1682
I1
sS'say'
p1683
I6
sS'mates'
p1684
I1
sS'25.2'
p1685
I1
sS'sas'
p1686
I2
sS'sar'
p1687
I4
sS'sells'
p1688
I2
sS'recover'
p1689
I2
sS'occupied'
p1690
I1
sS'calendar'
p1691
I1
sS'sat'
p1692
I1
sS'paper.one'
p1693
I1
sS'nervy'
p1694
I2
sS'urhobo'
p1695
I1
sS'employers'
p1696
I1
sS'mourners'
p1697
I1
sS'downwards'
p1698
I1
sS'aside'
p1699
I5
sS"a'damthailand"
p1700
I1
sS'zoo'
p1701
I1
sS'equipment'
p1702
I6
sS'potential'
p1703
I2
sS'classic.5'
p1704
I1
sS'performance'
p1705
I1
sS'coincide'
p1706
I1
sS'500-525'
p1707
I1
sS'registered'
p1708
I1
sS'200'
p1709
I2
sS'203'
p1710
I1
sS'sure'
p1711
I1
sS'theatre'
p1712
I1
sS'normal'
p1713
I11
sS'track'
p1714
I4
sS'revolving'
p1715
I1
sS'price'
p1716
I28
sS'decreasing'
p1717
I2
sS'forecast.below'
p1718
I1
sS'1.66note'
p1719
I1
sS'paid'
p1720
I1
sS'falls'
p1721
I3
sS'guilders.but'
p1722
I1
sS'25.4'
p1723
I6
sS'heavyweights'
p1724
I1
sS'successive'
p1725
I5
sS'numan'
p1726
I3
sS'knee'
p1727
I1
sS'america'
p1728
I4
sS'geographic'
p1729
I1
sS'especially'
p1730
I1
sS'income.this'
p1731
I1
sS'traffitec'
p1732
I1
sS'formalising'
p1733
I1
sS'midfield.the'
p1734
I1
sS'average'
p1735
I17
sS'later'
p1736
I6
sS'steady'
p1737
I9
sS'sale'
p1738
I6
sS'680'
p1739
I3
sS'fall.some'
p1740
I1
sS'istanbul'
p1741
I1
sS'reed'
p1742
I2
sS'marketperformance'
p1743
I1
sS'liquidity'
p1744
I1
sS'rating'
p1745
I1
sS'mits'
p1746
I1
sS'drastically'
p1747
I1
sS'surplus'
p1748
I2
sS'german'
p1749
I18
sS'filed'
p1750
I3
sS'cheap'
p1751
I2
sS'merit'
p1752
I2
sS'now.however'
p1753
I1
sS'discovered'
p1754
I1
sS'career.6'
p1755
I1
sS'launched'
p1756
I2
sS'drawings'
p1757
I1
sS'nlg'
p1758
I4
sS'scarce'
p1759
I1
sS'aggressive'
p1760
I1
sS'sponsorship'
p1761
I3
sS'0.42'
p1762
I1
sS'llc.proceeds'
p1763
I1
sS'698.05'
p1764
I2
sS'ground'
p1765
I1
sS'colours'
p1766
I1
sS'slow'
p1767
I4
sS'ratio'
p1768
I3
sS'vars'
p1769
I1
sS'supporters'
p1770
I5
sS'34.12'
p1771
I1
sS'proportion'
p1772
I1
sS'outside'
p1773
I3
sS'crime'
p1774
I2
sS'welcomed'
p1775
I1
sS'wood'
p1776
I5
sS'alight'
p1777
I1
sS'weighs'
p1778
I1
sS'treasury'
p1779
I1
sS'bureau'
p1780
I11
sS'pegged'
p1781
I1
sS'220'
p1782
I1
sS'geerts'
p1783
I1
sS"a'damlika"
p1784
I1
sS'dispute'
p1785
I3
sS'closed'
p1786
I13
sS'hungarian'
p1787
I1
sS'hostage'
p1788
I1
sS'designated'
p1789
I1
sS'docdata'
p1790
I4
sS'prides'
p1791
I1
sS'killers'
p1792
I2
sS'nearly'
p1793
I2
sS'awaiting'
p1794
I1
sS'stroll'
p1795
I1
sS'prime'
p1796
I3
sS'may.dutch'
p1797
I1
sS'regarding'
p1798
I2
sS'reading'
p1799
I1
sS'artist'
p1800
I1
sS'stedelijk'
p1801
I2
sS'emptyness'
p1802
I2
sS'malaysian'
p1803
I2
sS'deducted'
p1804
I1
sS'yield'
p1805
I6
sS'summary'
p1806
I6
sS'naked'
p1807
I1
sS'predicted'
p1808
I1
sS'07/04'
p1809
I2
sS'relaunching'
p1810
I1
sS'6.3'
p1811
I1
sS'marred'
p1812
I1
sS'worrying'
p1813
I1
sS'sympathisers'
p1814
I1
sS'salomon'
p1815
I1
sS'ignored'
p1816
I1
sS'declared'
p1817
I1
sS'seedorf'
p1818
I12
sS'proteins.the'
p1819
I1
sS'maximum'
p1820
I1
sS'1920'
p1821
I1
sS'bursa'
p1822
I1
sS'actively'
p1823
I1
sS'weighing'
p1824
I2
sS'heavy'
p1825
I9
sS'nieuwe'
p1826
I1
sS'insurance.bart'
p1827
I1
sS'encouraged'
p1828
I4
sS'020-6718345opera'
p1829
I1
sS'companies.it'
p1830
I1
sS'mortgage'
p1831
I1
sS'federal'
p1832
I1
sS'jumped'
p1833
I3
sS'review'
p1834
I3
sS'definite'
p1835
I1
sS'commitments'
p1836
I2
sS'70/83'
p1837
I1
sS'forecast'
p1838
I23
sS'vendex'
p1839
I3
sS'lanschot'
p1840
I5
sS'3'
p1841
I3
sS'168.0'
p1842
I1
sS'1.90'
p1843
I1
sS'barging'
p1844
I1
sS'20.59'
p1845
I1
sS'out.in'
p1846
I1
sS'neths'
p1847
I1
sS'arrival'
p1848
I1
sS'102,338'
p1849
I2
sS'infrastructure'
p1850
I3
sS'jobs'
p1851
I2
sS'mature'
p1852
I3
sS'rumours'
p1853
I2
sS'33'
p1854
I1
sS'jacobs'
p1855
I10
sS'killing'
p1856
I1
sS'regional'
p1857
I2
sS'3.4'
p1858
I2
sS'emotional'
p1859
I1
sS'guilders.the'
p1860
I7
sS'rapidly'
p1861
I3
sS'spark'
p1862
I1
sS'come'
p1863
I5
sS'motivations'
p1864
I1
sS'reaction'
p1865
I8
sS'dates'
p1866
I1
sS'superclub'
p1867
I1
sS'kicking'
p1868
I1
sS'region'
p1869
I6
sS'trades'
p1870
I2
sS'unspoilt'
p1871
I1
sS'according'
p1872
I8
sS'contract'
p1873
I7
sS'uninspiring'
p1874
I1
sS'deduction'
p1875
I1
sS'unforeseen'
p1876
I1
sS's'
p1877
I14
sS'disappointment'
p1878
I2
sS'10.8'
p1879
I1
sS'2.10'
p1880
I1
sS'council.the'
p1881
I1
sS'traded'
p1882
I12
sS'112.52'
p1883
I1
sS"can't"
p1884
I2
sS'nearby'
p1885
I4
sS'duty'
p1886
I1
sS'fi'
p1887
I1
sS'said.and'
p1888
I1
sS'cancer'
p1889
I2
sS'passenger'
p1890
I1
sS'reluctance'
p1891
I1
sS'period'
p1892
I12
sS'pop'
p1893
I1
sS'50,000'
p1894
I5
sS'60'
p1895
I1
sS'61'
p1896
I6
sS'maintained'
p1897
I1
sS'anti'
p1898
I4
sS'65'
p1899
I1
sS'66'
p1900
I1
sS'approval'
p1901
I2
sS'unleaded'
p1902
I4
sS'bizarre'
p1903
I1
sS'considers'
p1904
I1
sS'winnie'
p1905
I1
sS'turkey'
p1906
I17
sS'clashes'
p1907
I6
sS'supportive'
p1908
I1
sS'west'
p1909
I4
sS'classic'
p1910
I2
sS'airlines'
p1911
I5
sS'undertake'
p1912
I1
sS'mark'
p1913
I5
sS'16.4'
p1914
I1
sS'75,600'
p1915
I1
sS'declining'
p1916
I1
sS'leadership'
p1917
I1
sS'mars'
p1918
I1
sS'outweighed'
p1919
I1
sS'504'
p1920
I141
sS'covering'
p1921
I5
sS'hardly'
p1922
I2
sS'500'
p1923
I3
sS'week.police'
p1924
I1
sS'wants'
p1925
I1
sS'direction'
p1926
I5
sS'certainly'
p1927
I2
sS'points.financials'
p1928
I1
sS"a'dammay"
p1929
I1
sS'nibstrating'
p1930
I1
sS'sites'
p1931
I1
sS'andres'
p1932
I1
sS'offered'
p1933
I3
sS'workable'
p1934
I1
sS'resistance'
p1935
I2
sS'andrew'
p1936
I1
sS'8060'
p1937
I1
sS'curbing'
p1938
I1
sS'1995.however'
p1939
I1
sS'dramatic'
p1940
I1
sS'wake'
p1941
I2
sS'minister'
p1942
I11
sS'suspected'
p1943
I1
sS'hardcore'
p1944
I1
sS'evidence'
p1945
I3
sS'amersfoortse'
p1946
I11
sS'champions'
p1947
I2
sS'matter'
p1948
I1
sS'case'
p1949
I6
sS'reopening'
p1950
I1
sS'cocu'
p1951
I2
sS'18-19'
p1952
I1
sS'thursday.krant'
p1953
I2
sS'stand'
p1954
I1
sS'developing'
p1955
I1
sS'fridayandre'
p1956
I1
sS'fin'
p1957
I1
sS'tribal'
p1958
I2
sS'single'
p1959
I4
sS'premature'
p1960
I1
sS'cast'
p1961
I1
sS'associates'
p1962
I1
sS'ongoing'
p1963
I2
sS'argentine'
p1964
I3
sS'recouped'
p1965
I1
sS'newspaper'
p1966
I2
sS'investigating'
p1967
I2
sS'shops'
p1968
I4
sS'708.55'
p1969
I3
sS'margin'
p1970
I1
sS'trader'
p1971
I8
sS'totalled'
p1972
I1
sS'versus'
p1973
I4
sS'endemol'
p1974
I2
sS'down.both'
p1975
I2
sS'wholesaler'
p1976
I1
sS'319.00'
p1977
I1
sS'quiet'
p1978
I1
sS'middle'
p1979
I2
sS'ctry'
p1980
I2
sS'evening'
p1981
I1
sS'drug'
p1982
I3
sS'dangerously'
p1983
I1
sS'baths'
p1984
I1
sS'said.from'
p1985
I2
sS'13.5'
p1986
I1
sS'technology'
p1987
I5
sS'105.1'
p1988
I1
sS'bags'
p1989
I1
sS'different'
p1990
I1
sS"a'damkavako"
p1991
I1
sS'11.9'
p1992
I2
sS'stopped.by'
p1993
I1
sS'32.8'
p1994
I2
sS'11.4'
p1995
I1
sS'pay'
p1996
I12
sS'edwin'
p1997
I3
sS'11.1'
p1998
I2
sS'food'
p1999
I8
sS'enquiries'
p2000
I3
sS"r'damaghia"
p2001
I1
sS'immediatelytrigger'
p2002
I1
sS'physical'
p2003
I3
sS'emtn'
p2004
I1
sS'events'
p2005
I2
sS'week'
p2006
I27
sS'noble'
p2007
I2
sS'oil'
p2008
I38
sS'wolters'
p2009
I2
sS'terpstra.the'
p2010
I1
sS'brisk'
p2011
I2
sS'percent.gross'
p2012
I1
sS'boosted'
p2013
I6
sS'noord'
p2014
I1
sS'barges'
p2015
I8
sS'weed'
p2016
I1
sS'producers'
p2017
I3
sS'devoid'
p2018
I2
sS'm&s'
p2019
I26
sS'delicate'
p2020
I2
sS'intended'
p2021
I2
sS'consensus'
p2022
I7
sS'nuernberger'
p2023
I3
sS'11,400'
p2024
I1
sS'vowed'
p2025
I1
sS'5832'
p2026
I4
sS'020-6732121'
p2027
I1
sS'largely'
p2028
I4
sS'60,000'
p2029
I1
sS'2630317'
p2030
I1
sS'roughly'
p2031
I1
sS'belatedly'
p2032
I2
sS'severe'
p2033
I1
sS'costs'
p2034
I8
sS'solve'
p2035
I1
sS'relief'
p2036
I2
sS'components'
p2037
I2
sS'masks'
p2038
I1
sS'easing'
p2039
I1
sS'model'
p2040
I1
sS'hiddink'
p2041
I5
sS'taxi'
p2042
I1
sS'summer'
p2043
I3
sS'gaining'
p2044
I2
sS'gangs'
p2045
I2
sS'tightness'
p2046
I2
sS'money'
p2047
I11
sS'harrison'
p2048
I1
sS'adjustments'
p2049
I1
sS'rest'
p2050
I5
sS'recycled'
p2051
I1
sS'violent'
p2052
I2
sS'departures.fuel'
p2053
I1
sS'provincial'
p2054
I1
sS'positions'
p2055
I1
sS'36/40'
p2056
I1
sS'0.5/0.9'
p2057
I1
sS'weekly'
p2058
I4
sS'death'
p2059
I3
sS'dipped'
p2060
I10
sS'95.00'
p2061
I2
sS'thinking'
p2062
I1
sS'rose'
p2063
I31
sS'morning.dealers'
p2064
I1
sS'improvement'
p2065
I2
sS'logical.polet'
p2066
I1
sS'740'
p2067
I2
sS'3.22'
p2068
I4
sS'4'
p2069
I12
sS'1.056'
p2070
I1
sS'extensive'
p2071
I2
sS"r'damforestal"
p2072
I1
sS'momentum'
p2073
I2
sS'ross'
p2074
I1
sS'real'
p2075
I11
sS'2-10'
p2076
I1
sS'ambitious'
p2077
I1
sS'supertramp'
p2078
I2
sS'replaced'
p2079
I2
sS'sellers'
p2080
I1
sS"r'dammesitria"
p2081
I1
sS'unveil'
p2082
I2
sS'downtrend'
p2083
I2
sS'amx'
p2084
I5
sS'inflation'
p2085
I14
sS'traffic'
p2086
I2
sS'6-abdullah'
p2087
I1
sS'justice'
p2088
I2
sS'world'
p2089
I19
sS'cbot'
p2090
I1
sS'accepted'
p2091
I2
sS'psv'
p2092
I1
sS'amt'
p2093
I2
sS'0.56'
p2094
I1
sS'packaging'
p2095
I1
sS'42.92'
p2096
I1
sS'adams'
p2097
I1
sS'electronic'
p2098
I5
sS'parliamentarians'
p2099
I1
sS'patrick'
p2100
I2
sS'suppliers'
p2101
I3
sS'offenders'
p2102
I1
sS'133.4'
p2103
I1
sS'nv'
p2104
I32
sS'11.55'
p2105
I1
sS'output'
p2106
I7
sS'downward'
p2107
I1
sS'revision'
p2108
I1
sS'1,750-1,800'
p2109
I1
sS'reduced'
p2110
I2
sS'sharp'
p2111
I2
sS'fenerbahce'
p2112
I1
sS'tribesmen'
p2113
I1
sS'6.67'
p2114
I1
sS'exposed'
p2115
I1
sS'economists'
p2116
I2
sS'madrid'
p2117
I1
sS'cargoes.heating'
p2118
I1
sS'added.turnover'
p2119
I1
sS'competition'
p2120
I3
sS'westzeedijk'
p2121
I1
sS'depressed'
p2122
I1
sS'eddie'
p2123
I1
sS'p75'
p2124
I1
sS'respect'
p2125
I1
sS'intend'
p2126
I2
sS'racial'
p2127
I2
sS'narrowed'
p2128
I2
sS'booming'
p2129
I1
sS'gross'
p2130
I6
sS'midrange'
p2131
I1
sS'confirm'
p2132
I1
sS'operators'
p2133
I2
sS'moslem'
p2134
I2
sS'hour'
p2135
I2
sS'maersk'
p2136
I2
sS"r'dammulberry"
p2137
I1
sS'deficit'
p2138
I4
sS'sem'
p2139
I1
sS'provider'
p2140
I1
sS'affiliate'
p2141
I1
sS'3.50'
p2142
I2
sS'45,000'
p2143
I1
sS'preceding'
p2144
I1
sS'freed'
p2145
I2
sS'conference.he'
p2146
I1
sS'football'
p2147
I5
sS'contingent'
p2148
I1
sS'business'
p2149
I23
sS'airways'
p2150
I1
sS'25,000-strong'
p2151
I1
sS'area.but'
p2152
I2
sS'equivalent'
p2153
I3
sS'nation.most'
p2154
I1
sS'notable'
p2155
I1
sS'broker'
p2156
I9
sS'megashops'
p2157
I1
sS'sports'
p2158
I4
sS'encouraging'
p2159
I2
sS'1.625'
p2160
I1
sS'tayfun'
p2161
I1
sS'ratios'
p2162
I1
sS'pontier'
p2163
I3
sS'went'
p2164
I1
sS'regulations'
p2165
I1
sS"a'dam"
p2166
I4
sS'central'
p2167
I15
sS'acf'
p2168
I1
sS'renew'
p2169
I1
sS'stations'
p2170
I9
sS'747-400'
p2171
I1
sS'industry'
p2172
I8
sS'violence'
p2173
I3
sS'396.26'
p2174
I1
sS'ghentpintail'
p2175
I1
sS'433'
p2176
I1
sS'airline'
p2177
I1
sS'act'
p2178
I2
sS'mixed'
p2179
I3
sS'tariffs'
p2180
I1
sS'analysis'
p2181
I1
sS'provisional'
p2182
I3
sS'8.50'
p2183
I1
sS'outlook'
p2184
I7
sS'33.7'
p2185
I3
sS'protests'
p2186
I1
sS"a'damvelos"
p2187
I1
sS'coupon'
p2188
I2
sS'communication'
p2189
I4
sS'image'
p2190
I1
sS'said.henselijn'
p2191
I2
sS"r'damsolon"
p2192
I1
sS'indon'
p2193
I3
sS'rising'
p2194
I6
sS'consultancy'
p2195
I2
sS'determine'
p2196
I1
sS'parties'
p2197
I6
sS'speculated'
p2198
I1
sS'odidi'
p2199
I3
sS'performing'
p2200
I1
sS'area'
p2201
I17
sS'qualifying'
p2202
I1
sS'relocation'
p2203
I3
sS'stark'
p2204
I1
sS'portsouth'
p2205
I1
sS'start'
p2206
I8
sS'forwarder'
p2207
I1
sS'racist'
p2208
I3
sS'low'
p2209
I16
sS'lot'
p2210
I5
sS'brazilian'
p2211
I3
sS'rascist'
p2212
I1
sS'decisive'
p2213
I4
sS'materials'
p2214
I1
sS'combined'
p2215
I4
sS'jones'
p2216
I3
sS'leach'
p2217
I1
sS'750'
p2218
I2
sS'expansion.krant'
p2219
I2
sS'delayed'
p2220
I2
sS'said.kbb'
p2221
I2
sS'striker'
p2222
I1
sS'103.5'
p2223
I1
sS'wednesday.the'
p2224
I2
sS'bookstore'
p2225
I1
sS'bunds'
p2226
I2
sS'profitability.business'
p2227
I1
sS'attainable'
p2228
I1
sS'pitched'
p2229
I1
sS'103.8'
p2230
I3
sS'buying'
p2231
I8
sS'handsome'
p2232
I1
sS'card'
p2233
I1
sS"they're"
p2234
I4
sS'rush'
p2235
I1
sS'october'
p2236
I3
sS'romantic'
p2237
I1
sS'nigerian'
p2238
I9
sS"wasn't"
p2239
I1
sS'1997.the'
p2240
I1
sS'heavilyoversold'
p2241
I1
sS'solutions'
p2242
I1
sS'haarlemse'
p2243
I1
sS'31.5'
p2244
I1
sS'cuts.the'
p2245
I1
sS'internationale'
p2246
I1
sS'flats'
p2247
I1
sS'ogden'
p2248
I2
sS'guilders.ing'
p2249
I5
sS'strongly'
p2250
I1
sS'engine'
p2251
I1
sS'clients.with'
p2252
I2
sS'ab'
p2253
I2
sS'netherlands.but'
p2254
I2
sS'offtake'
p2255
I1
sS'ag'
p2256
I1
sS'thetime'
p2257
I1
sS'certain'
p2258
I3
sS'28.apr.00'
p2259
I1
sS'combining'
p2260
I1
sS'moved'
p2261
I4
sS'sales'
p2262
I20
sS'7-6'
p2263
I2
sS'general'
p2264
I19
sS'nervous.weak'
p2265
I1
sS'cbs'
p2266
I10
sS'britain'
p2267
I3
sS'organised'
p2268
I3
sS'gilde.docdata'
p2269
I1
sS'upmarket'
p2270
I3
sS'syrian'
p2271
I1
sS'film'
p2272
I1
sS'ice'
p2273
I1
sS'4.4'
p2274
I3
sS'4.7'
p2275
I1
sS'4.6'
p2276
I1
sS'4.1'
p2277
I1
sS'4.0'
p2278
I3
sS'4.3'
p2279
I3
sS'halted.the'
p2280
I1
sS'storage'
p2281
I3
sS'green'
p2282
I3
sS'event'
p2283
I2
sS'field'
p2284
I3
sS'investments.within'
p2285
I1
sS'5'
p2286
I3
sS'1.62'
p2287
I1
sS'98.6'
p2288
I3
sS'announcements'
p2289
I3
sS'sunflowermeal'
p2290
I1
sS'poor'
p2291
I3
sS'briefly'
p2292
I2
sS'formed'
p2293
I2
sS'accounted'
p2294
I1
sS'4,000'
p2295
I1
sS'collaborative'
p2296
I1
sS'7/4'
p2297
I1
sS'2005'
p2298
I2
sS'82.30'
p2299
I1
sS'm'
p2300
I6
sS'dented'
p2301
I3
sS'includes'
p2302
I1
sS'16-tayfur'
p2303
I1
sS'week.four'
p2304
I1
sS'peak'
p2305
I4
sS'recognise'
p2306
I1
sS'included'
p2307
I3
sS'stocks'
p2308
I17
sS'league.spokesman'
p2309
I1
sS'finals'
p2310
I2
sS'barometers'
p2311
I1
sS'building'
p2312
I4
sS'cpi'
p2313
I3
sS'assets'
p2314
I6
sS'calls'
p2315
I5
sS'born'
p2316
I1
sS'egwa'
p2317
I3
sS'invest'
p2318
I2
sS'cpb'
p2319
I25
sS'curve'
p2320
I3
sS'parsons'
p2321
I1
sS'3-1'
p2322
I1
sS'having'
p2323
I3
sS'naphtha'
p2324
I1
sS'restored'
p2325
I1
sS'133.00'
p2326
I3
sS'tense'
p2327
I1
sS'tonne.initial'
p2328
I1
sS'starting'
p2329
I1
sS'fighting'
p2330
I1
sS'parliament'
p2331
I1
sS'down.hufters'
p2332
I1
sS'sci'
p2333
I1
sS'consider'
p2334
I1
sS'diesel'
p2335
I4
sS'hands'
p2336
I1
sS'hamburg'
p2337
I2
sS'dollar'
p2338
I10
sS'denizli'
p2339
I4
sS'month'
p2340
I13
sS'unrest'
p2341
I1
sS'worries.the'
p2342
I2
sS'cooperative'
p2343
I1
sS'talks'
p2344
I11
sS'managed'
p2345
I1
sS'downwardly'
p2346
I1
sS'ptt'
p2347
I1
sS'children'
p2348
I5
sS'apartment'
p2349
I2
sS'peter'
p2350
I4
sS'hunting'
p2351
I2
sS'hakan'
p2352
I3
sS'1.76'
p2353
I1
sS'thursday'
p2354
I39
sS'riots'
p2355
I1
sS'present'
p2356
I6
sS'unfurled'
p2357
I1
sS'dressing'
p2358
I2
sS'1997.analysts'
p2359
I1
sS'dominated'
p2360
I4
sS'3.12'
p2361
I1
sS'24.38'
p2362
I1
sS'siemerink'
p2363
I1
sS'norm'
p2364
I1
sS'airfreight'
p2365
I1
sS'1,053'
p2366
I1
sS'activities'
p2367
I14
sS'fax'
p2368
I59
sS'woman'
p2369
I1
sS'premium'
p2370
I7
sS'returned'
p2371
I2
sS'confidential'
p2372
I1
sS'returning'
p2373
I2
sS'far'
p2374
I6
sS'hema'
p2375
I5
sS'day.while'
p2376
I1
sS'focus'
p2377
I10
sS'3.6'
p2378
I1
sS'krant'
p2379
I6
sS'fall'
p2380
I20
sS'participatie'
p2381
I1
sS'difference'
p2382
I1
sS'condition'
p2383
I3
sS'underperform'
p2384
I1
sS'gov'
p2385
I2
sS'cable'
p2386
I2
sS'bund'
p2387
I4
sS'1.9/2.3'
p2388
I1
sS'list'
p2389
I2
sS'applicable'
p2390
I3
sS'insufficiently'
p2391
I2
sS'large'
p2392
I6
sS'adjust'
p2393
I2
sS'form'
p2394
I3
sS'small'
p2395
I17
sS'tender'
p2396
I1
sS'interests.wavin'
p2397
I1
sS'results.analysts'
p2398
I1
sS'235.80'
p2399
I1
sS'slaski'
p2400
I3
sS'hoped'
p2401
I1
sS'ibonda'
p2402
I1
sS'tel'
p2403
I3
sS'99.875'
p2404
I1
sS'analytical'
p2405
I2
sS'3.10'
p2406
I1
sS'103.6note'
p2407
I1
sS'197'
p2408
I1
sS'ouwehand'
p2409
I1
sS'3.14'
p2410
I1
sS'onshore'
p2411
I2
sS'said.may'
p2412
I1
sS'3.17'
p2413
I4
sS'past'
p2414
I7
sS'battle'
p2415
I1
sS'rate'
p2416
I19
sS'10.45'
p2417
I1
sS'adventure.3'
p2418
I1
sS'mierlo'
p2419
I3
sS'attributable'
p2420
I1
sS'kempen'
p2421
I18
sS'investment'
p2422
I17
sS'creatures'
p2423
I1
sS'percent.in'
p2424
I1
sS'material'
p2425
I4
sS'defence'
p2426
I3
sS'stood'
p2427
I3
sS'consumers'
p2428
I6
sS'brackets'
p2429
I1
sS'investing'
p2430
I2
sS'20/3/97'
p2431
I1
sS"i'll"
p2432
I1
sS'ovarian'
p2433
I1
sS'12-marc'
p2434
I1
sS'steadying'
p2435
I1
sS'grown'
p2436
I1
sS'version'
p2437
I1
sS'amstelland'
p2438
I1
sS'cinemas'
p2439
I1
sS'manager.docdata'
p2440
I1
sS'races.extreme'
p2441
I1
sS'public'
p2442
I9
sS'multinational'
p2443
I2
sS'5000'
p2444
I79
sS'1996.earlier'
p2445
I1
sS'installations'
p2446
I1
sS'5004'
p2447
I4
sS'6.75'
p2448
I1
sS'6.77'
p2449
I1
sS'depreciation'
p2450
I2
sS'component'
p2451
I3
sS'govettcomment'
p2452
I2
sS'hours'
p2453
I1
sS'favourable'
p2454
I3
sS'seizure'
p2455
I1
sS'operating'
p2456
I25
sS'said.nevertheless'
p2457
I2
sS'situation'
p2458
I5
sS'strong'
p2459
I27
sS'management.barings'
p2460
I1
sS'forecasts.the'
p2461
I1
sS'said.rotterdam'
p2462
I2
sS'ahead'
p2463
I7
sS'houses'
p2464
I1
sS'5.5'
p2465
I2
sS'then.future'
p2466
I1
sS'exceptionally'
p2467
I2
sS'neighbourhood.zeki'
p2468
I1
sS'experience'
p2469
I1
sS'750note'
p2470
I1
sS'rise.the'
p2471
I1
sS'prior'
p2472
I2
sS'airport'
p2473
I4
sS'advertising'
p2474
I3
sS'published'
p2475
I8
sS'action'
p2476
I1
sS'barely'
p2477
I1
sS'narrow'
p2478
I1
sS'options'
p2479
I2
sS'pregnancy'
p2480
I1
sS'240'
p2481
I1
sS'netherlands.ogden'
p2482
I1
sS'nembe'
p2483
I2
sS'pronk.the'
p2484
I1
sS'taxation'
p2485
I1
sS'grindings'
p2486
I2
sS'explained.the'
p2487
I1
sS'vil'
p2488
I1
sS'area.eighteen'
p2489
I1
sS'lagos'
p2490
I1
sS'aimed'
p2491
I2
sS'disposals'
p2492
I1
sS'3.125'
p2493
I1
sS'arie'
p2494
I1
sS'establish'
p2495
I2
sS'estimate'
p2496
I7
sS'854'
p2497
I1
sS'discuss'
p2498
I1
sS'shareholders'
p2499
I12
sS'heartened'
p2500
I1
sS'takes'
p2501
I3
sS'1971'
p2502
I1
sS'010-4400300to'
p2503
I1
sS'citing'
p2504
I1
sS'nycomed'
p2505
I1
sS'generate'
p2506
I1
sS'midcap'
p2507
I5
sS'1997.call'
p2508
I1
sS'0.80'
p2509
I1
sS'well.the'
p2510
I1
sS'contributors'
p2511
I2
sS'6'
p2512
I3
sS'taken'
p2513
I4
sS'markets'
p2514
I12
sS'nederlanden'
p2515
I2
sS'possible'
p2516
I9
sS'helps'
p2517
I1
sS'flat'
p2518
I2
sS'door'
p2519
I1
sS'statement.the'
p2520
I1
sS'police.4'
p2521
I1
sS'definition'
p2522
I2
sS'millionguilders'
p2523
I1
sS'dion'
p2524
I1
sS'corrected'
p2525
I2
sS'emission'
p2526
I1
sS'anyfurther'
p2527
I1
sS'sharpdeclines'
p2528
I1
sS'ahead.therefore'
p2529
I2
sS'stick'
p2530
I2
sS'broke'
p2531
I3
sS'particular'
p2532
I3
sS'known'
p2533
I1
sS"i'm"
p2534
I3
sS'objections'
p2535
I1
sS'factories'
p2536
I2
sS'producing'
p2537
I1
sS'document'
p2538
I1
sS'glad'
p2539
I1
sS'sukur'
p2540
I4
sS'town'
p2541
I2
sS'amro'
p2542
I12
sS'2-ilker'
p2543
I1
sS'esperanza'
p2544
I1
sS'phillip'
p2545
I1
sS'der'
p2546
I12
sS'increase.the'
p2547
I1
sS'spate'
p2548
I2
sS'rapid.gas'
p2549
I1
sS'tapioca'
p2550
I10
sS'remain'
p2551
I5
sS'arrangements'
p2552
I1
sS'outstanding'
p2553
I2
sS'70.30'
p2554
I2
sS'morgan'
p2555
I2
sS'v'
p2556
I5
sS'strategies'
p2557
I2
sS'dec'
p2558
I8
sS'said.de'
p2559
I1
sS'history'
p2560
I3
sS'beautiful'
p2561
I1
sS'prompt'
p2562
I1
sS'stated'
p2563
I16
sS'748'
p2564
I3
sS'31-20-504-5000'
p2565
I3
sS'share'
p2566
I38
sS'states'
p2567
I8
sS'pushed'
p2568
I3
sS'celine'
p2569
I1
sS'numbers'
p2570
I6
sS'cows'
p2571
I2
sS'exclude'
p2572
I7
sS'said.heating'
p2573
I1
sS'allocated'
p2574
I2
sS'refiners'
p2575
I1
sS'string'
p2576
I4
sS'5.0'
p2577
I1
sS'5.1'
p2578
I3
sS'5.2'
p2579
I3
sS'5.3'
p2580
I6
sS'spain.one'
p2581
I1
sS'goal'
p2582
I3
sS'280.00'
p2583
I1
sS'sector.some'
p2584
I1
sS'5.8'
p2585
I1
sS'imminent'
p2586
I1
sS'asexpected'
p2587
I1
sS'breaking'
p2588
I3
sS'conducted'
p2589
I1
sS'stayed'
p2590
I1
sS'earnings'
p2591
I22
sS'1.438'
p2592
I1
sS'cst'
p2593
I3
sS'css'
p2594
I1
sS'hunt'
p2595
I1
sS'plant'
p2596
I5
sS'121.70'
p2597
I2
sS'okay'
p2598
I1
sS'seoul'
p2599
I2
sS'motivated.the'
p2600
I1
sS'inflationary'
p2601
I2
sS'ankara'
p2602
I2
sS'intellisource'
p2603
I1
sS'ihc'
p2604
I1
sS'internet'
p2605
I1
sS'312-408-8787'
p2606
I1
sS'670/680'
p2607
I2
sS"a'damjun"
p2608
I1
sS'terrorist'
p2609
I1
sS'director'
p2610
I2
sS'unfamiliar'
p2611
I1
sS'coming'
p2612
I6
sS'verified'
p2613
I4
sS'visvliet'
p2614
I1
sS'concentrating'
p2615
I1
sS'response'
p2616
I6
sS'erbakan'
p2617
I1
sS'acquisitions'
p2618
I3
sS'said.all'
p2619
I1
sS'short'
p2620
I19
sS'percent.the'
p2621
I1
sS'ruckriem'
p2622
I1
sS'documentation'
p2623
I1
sS'bugs'
p2624
I1
sS'4/4'
p2625
I2
sS'businesses.another'
p2626
I1
sS'chartists'
p2627
I1
sS'secs'
p2628
I1
sS'responsibility'
p2629
I1
sS'perception'
p2630
I1
sS'media'
p2631
I4
sS'banks'
p2632
I5
sS'bushel'
p2633
I1
sS'sea.nam'
p2634
I1
sS'granted'
p2635
I1
sS'turnover'
p2636
I20
sS'unexpectantly'
p2637
I1
sS'mexican'
p2638
I1
sS'help'
p2639
I1
sS'korkut'
p2640
I2
sS'september'
p2641
I1
sS'developed'
p2642
I1
sS'1-rustu'
p2643
I1
sS'flat.on'
p2644
I1
sS'trade'
p2645
I19
sS'held'
p2646
I11
sS'attitude'
p2647
I1
sS'paper'
p2648
I4
sS'1.98'
p2649
I1
sS'494'
p2650
I1
sS'1.95'
p2651
I1
sS'environmentally'
p2652
I1
sS'income.shell'
p2653
I1
sS'24'
p2654
I1
sS'25'
p2655
I16
sS'style'
p2656
I3
sS'27'
p2657
I5
sS'20'
p2658
I154
sS'21'
p2659
I3
sS'22'
p2660
I9
sS'23'
p2661
I3
sS'tuesday.his'
p2662
I1
sS"r'damagios"
p2663
I1
sS'said.non'
p2664
I1
sS'28'
p2665
I2
sS'29'
p2666
I2
sS'pct'
p2667
I36
sS'actually'
p2668
I1
sS'late'
p2669
I16
sS'thursday.the'
p2670
I2
sS'absence'
p2671
I2
sS'reuters'
p2672
I12
sS'disclosed'
p2673
I1
sS'selection'
p2674
I1
sS'end-1996'
p2675
I1
sS'soccer'
p2676
I7
sS"haven't"
p2677
I1
sS'thenetherlands'
p2678
I1
sS'good'
p2679
I22
sS'return'
p2680
I7
sS'seeking'
p2681
I1
sS'wednesday.turkey'
p2682
I1
sS'anticipated'
p2683
I2
sS'units'
p2684
I6
sS'6.06'
p2685
I1
sS'party'
p2686
I1
sS'communities'
p2687
I3
sS'yr'
p2688
I26
sS'bulletin.canada'
p2689
I1
sS'bigger'
p2690
I3
sS'instructions'
p2691
I1
sS'bryan'
p2692
I1
sS'gets'
p2693
I2
sS'divested'
p2694
I2
sS'scuffles'
p2695
I1
sS'unwittingly'
p2696
I1
sS'pregnant'
p2697
I1
sS'hooligans'
p2698
I1
sS'fully'
p2699
I4
sS'policeman'
p2700
I1
sS'0920'
p2701
I1
sS'micro'
p2702
I2
sS'stopped'
p2703
I1
sS'schuiling'
p2704
I2
sS'1995.it'
p2705
I2
sS'difficult'
p2706
I4
sS'ports'
p2707
I3
sS'schoenmakers'
p2708
I1
sS'barrels'
p2709
I2
sS'sterling'
p2710
I1
sS'inc.philips'
p2711
I1
sS'upstairs'
p2712
I1
sS'conference.ing'
p2713
I1
sS'house'
p2714
I5
sS'energy'
p2715
I1
sS'hard'
p2716
I2
sS'reduce'
p2717
I2
sS'idea'
p2718
I1
sS'disposals.the'
p2719
I1
sS'slowdown'
p2720
I3
sS'numico'
p2721
I1
sS'mackenzie'
p2722
I4
sS'extended'
p2723
I1
sS'expectpositive'
p2724
I1
sS'expect'
p2725
I21
sS'1997.de'
p2726
I1
sS'anonymity'
p2727
I1
sS'germany.results'
p2728
I2
sS'out.turnover'
p2729
I2
sS'operation'
p2730
I4
sS'hart'
p2731
I1
sS'insurance'
p2732
I28
sS'really'
p2733
I5
sS'20.0'
p2734
I1
sS'stands'
p2735
I1
sS'year.forecasts'
p2736
I1
sS'lira.over'
p2737
I1
sS'missed'
p2738
I2
sS'20.9'
p2739
I3
sS'rebound'
p2740
I1
sS'ghentdelta'
p2741
I1
sS'projected'
p2742
I2
sS'1995.with'
p2743
I1
sS'research'
p2744
I2
sS'extremely.wavin'
p2745
I1
sS'1.75'
p2746
I4
sS'reorganised'
p2747
I1
sS'health'
p2748
I5
sS'7'
p2749
I4
sS'wadden'
p2750
I6
sS'issue'
p2751
I3
sS'5/4/96'
p2752
I1
sS'asr'
p2753
I2
sS'nervously'
p2754
I2
sS'reporting'
p2755
I2
sS'solvent'
p2756
I1
sS'5,900'
p2757
I1
sS'risen'
p2758
I2
sS'1996turnover'
p2759
I1
sS'3.00'
p2760
I6
sS'3.06'
p2761
I1
sS'3.05'
p2762
I3
sS'games.the'
p2763
I1
sS'extraordinary'
p2764
I11
sS'reason'
p2765
I2
sS'base'
p2766
I5
sS'1996.he'
p2767
I1
sS'members'
p2768
I4
sS'ecologically'
p2769
I1
sS'riser'
p2770
I2
sS'rises'
p2771
I3
sS'beginning'
p2772
I1
sS"a'damflag"
p2773
I1
sS'muderers'
p2774
I1
sS'driven'
p2775
I2
sS'56-year'
p2776
I1
sS'english'
p2777
I1
sS'terrible'
p2778
I2
sS'11,600'
p2779
I1
sS'8.98'
p2780
I1
sS'swart'
p2781
I5
sS'american'
p2782
I3
sS'expecting'
p2783
I1
sS'339.00'
p2784
I1
sS'friday.analysts'
p2785
I1
sS'wharf.the'
p2786
I1
sS'undergo'
p2787
I1
sS'wednesday.hakan'
p2788
I1
sS'arose'
p2789
I2
sS'picnicking'
p2790
I1
sS'major'
p2791
I7
sS'usda'
p2792
I5
sS'slipped'
p2793
I3
sS'prevent'
p2794
I1
sS'feel'
p2795
I2
sS'feen'
p2796
I4
sS'number'
p2797
I10
sS'contributions'
p2798
I1
sS'020-5732911to'
p2799
I1
sS'dilute'
p2800
I2
sS'fees'
p2801
I2
sS'says'
p2802
I5
sS'wages'
p2803
I6
sS'portraying'
p2804
I1
sS'kok'
p2805
I4
sS'cirque'
p2806
I1
sS'483.9'
p2807
I1
sS'jet'
p2808
I5
sS'introduction'
p2809
I9
sS'leading'
p2810
I4
sS'706.1'
p2811
I2
sS'moderately'
p2812
I2
sS'stork'
p2813
I1
sS'dfl'
p2814
I4
sS'reiziger'
p2815
I2
sS'statement'
p2816
I11
sS'sawed'
p2817
I1
sS'rates'
p2818
I12
sS'nigeria'
p2819
I2
sS'9.60'
p2820
I1
sS'southern'
p2821
I1
sS'smoothed'
p2822
I1
sS'store'
p2823
I6
sS'eps.the'
p2824
I1
sS'selling'
p2825
I10
sS'passed'
p2826
I3
sS'hotel'
p2827
I1
sS'5.97'
p2828
I1
sS'ncv'
p2829
I1
sS'ncw'
p2830
I1
sS'appreciation'
p2831
I1
sS'jordan'
p2832
I1
sS'lille'
p2833
I1
sS'believe'
p2834
I1
sS'convinced'
p2835
I1
sS'center'
p2836
I3
sS'peaked'
p2837
I1
sS'aad'
p2838
I4
sS'grew'
p2839
I4
sS'aaa'
p2840
I4
sS'deficits'
p2841
I1
sS'damages'
p2842
I1
sS'aims'
p2843
I3
sS'ranging'
p2844
I1
sS'recording'
p2845
I1
sS'overmars'
p2846
I1
sS'determined'
p2847
I1
sS'recovered'
p2848
I2
sS'reorganisations'
p2849
I3
sS'playing'
p2850
I1
sS'0.90'
p2851
I3
sS'follows.ing'
p2852
I1
sS'meespierson'
p2853
I5
sS'881'
p2854
I1
sS'lyocell'
p2855
I1
sS'danish'
p2856
I1
sS'strengthen'
p2857
I3
sS'imports'
p2858
I4
sS'300-325'
p2859
I1
sS'concludes'
p2860
I1
sS'ages'
p2861
I1
sS'philps'
p2862
I1
sS'substantial'
p2863
I4
sS'tables'
p2864
I1
sS'reorganisation'
p2865
I1
sS'nikolas'
p2866
I1
sS'elsevier'
p2867
I4
sS'polygram'
p2868
I3
sS'orders'
p2869
I2
sS'vulnerable'
p2870
I1
sS'option'
p2871
I2
sS'lid'
p2872
I1
sS'thought'
p2873
I3
sS'years.asked'
p2874
I2
sS'fanatical'
p2875
I1
sS'said.analysts'
p2876
I1
sS'dalmations'
p2877
I1
sS'imf'
p2878
I1
sS'self'
p2879
I2
sS'cave'
p2880
I1
sS'officers'
p2881
I1
sS'cargoes'
p2882
I4
sS'extracted'
p2883
I1
sS'koninklijke'
p2884
I6
sS'internal'
p2885
I2
sS'chairman'
p2886
I12
sS'engulfing'
p2887
I1
sS'pianist'
p2888
I1
sS'brace'
p2889
I1
sS'brondby'
p2890
I2
sS'noted.exports'
p2891
I1
sS'bilbao'
p2892
I2
sS'added'
p2893
I19
sS'electric'
p2894
I1
sS'week.analysts'
p2895
I1
sS'hourly'
p2896
I4
sS'singles'
p2897
I2
sS'goldman'
p2898
I1
sS'350'
p2899
I2
sS'779'
p2900
I2
sS'systems'
p2901
I10
sS'promenade'
p2902
I1
sS'75'
p2903
I2
sS'0900-3001250classical'
p2904
I1
sS'shareholder'
p2905
I1
sS'plan'
p2906
I6
sS'significant'
p2907
I1
sS'70'
p2908
I6
sS'services'
p2909
I29
sS'gainers'
p2910
I3
sS'extremely'
p2911
I3
sS'79'
p2912
I2
sS'singled'
p2913
I1
sS'bzw'
p2914
I3
sS'clarifying'
p2915
I1
sS'1.20'
p2916
I6
sS'dealers'
p2917
I21
sS'arson'
p2918
I7
sS'results.asked'
p2919
I1
sS'clear'
p2920
I7
sS'berkel'
p2921
I1
sS'traditional'
p2922
I1
sS'concessions'
p2923
I1
sS'ruud'
p2924
I2
sS'bergkamp'
p2925
I1
sS'wesselius'
p2926
I4
sS'macho'
p2927
I1
sS'2.05'
p2928
I2
sS'intercepting'
p2929
I1
sS'latest'
p2930
I2
sS'2.00'
p2931
I5
sS'institutions'
p2932
I2
sS'2.03'
p2933
I1
sS'sector'
p2934
I20
sS'gdp'
p2935
I10
sS'146.2'
p2936
I4
sS'abdullah'
p2937
I1
sS'particularly'
p2938
I1
sS'phenomenon'
p2939
I1
sS'gold'
p2940
I1
sS'commissions'
p2941
I3
sS'selling.most'
p2942
I1
sS'weapons'
p2943
I2
sS'hugging'
p2944
I2
sS'u.s.docdata'
p2945
I1
sS'nasdaq'
p2946
I1
sS'session'
p2947
I15
sS'businesses'
p2948
I8
sS'debt.when'
p2949
I1
sS'freight'
p2950
I6
sS'defender'
p2951
I2
sS'99.20'
p2952
I1
sS'fine'
p2953
I3
sS'p35'
p2954
I1
sS'impact'
p2955
I4
sS'giant'
p2956
I6
sS'1995.no'
p2957
I1
sS'softening'
p2958
I1
sS'northern'
p2959
I2
sS'merger'
p2960
I3
sS'nervous'
p2961
I2
sS'amstgeld'
p2962
I3
sS'distributed'
p2963
I1
sS'30-strong'
p2964
I1
sS'penalty'
p2965
I9
sS'failed'
p2966
I3
sS'flights'
p2967
I1
sS'kales'
p2968
I2
sS'pretty'
p2969
I3
sS'factor'
p2970
I7
sS'2.5/2.75'
p2971
I2
sS'8'
p2972
I6
sS'rotterdam'
p2973
I30
sS'1995.operating'
p2974
I1
sS'merged'
p2975
I1
sS'giants'
p2976
I1
sS'begins'
p2977
I1
sS'novemberlast'
p2978
I1
sS'hit'
p2979
I3
sS'pavarotti'
p2980
I1
sS'permission'
p2981
I1
sS'dependent'
p2982
I1
sS'112.5125'
p2983
I1
sS'express'
p2984
I3
sS'attention.the'
p2985
I1
sS'famous'
p2986
I1
sS'stg'
p2987
I1
sS'3/4'
p2988
I2
sS'closely'
p2989
I1
sS'basement'
p2990
I2
sS'1.80'
p2991
I5
sS'gangs.the'
p2992
I1
sS'fees.results'
p2993
I1
sS'intensify'
p2994
I1
sS'restart'
p2995
I2
sS'nasional'
p2996
I1
sS'crs'
p2997
I2
sS'resolve'
p2998
I1
sS'inmarket'
p2999
I1
sS'remove'
p3000
I1
sS"r'dammereni"
p3001
I1
sS'banking'
p3002
I28
sS'malaysia'
p3003
I1
sS'underlying'
p3004
I4
sS'common'
p3005
I1
sS'logistic'
p3006
I2
sS'activity'
p3007
I5
sS'doubles'
p3008
I1
sS'baroque'
p3009
I1
sS'said.ing'
p3010
I5
sS'batenburgbeheer'
p3011
I1
sS'pvs'
p3012
I6
sS'set'
p3013
I15
sS'muenchener'
p3014
I3
sS'achieved'
p3015
I5
sS'grinten'
p3016
I3
sS'declines'
p3017
I1
sS'311'
p3018
I1
sS'sex'
p3019
I2
sS'ara'
p3020
I2
sS'2.9'
p3021
I4
sS'2.8'
p3022
I2
sS'sec'
p3023
I3
sS'sea'
p3024
I5
sS'pvf'
p3025
I1
sS'2.3'
p3026
I2
sS'close'
p3027
I7
sS'2.1'
p3028
I7
sS'2.0'
p3029
I10
sS'2.6'
p3030
I1
sS'declined'
p3031
I8
sS'2.4'
p3032
I2
sS'unipath'
p3033
I2
sS'blydenstein'
p3034
I2
sS'probable'
p3035
I1
sS'visiting'
p3036
I3
sS'pictures'
p3037
I2
sS'stir.analysts'
p3038
I1
sS'currently'
p3039
I7
sS'ups'
p3040
I1
sS'representatives'
p3041
I1
sS'fans'
p3042
I9
sS'won'
p3043
I5
sS'various'
p3044
I2
sS'ankaragucu'
p3045
I1
sS'probably'
p3046
I6
sS'burned'
p3047
I1
sS'conditions'
p3048
I4
sS'tuesday.police'
p3049
I1
sS'wide'
p3050
I2
sS'available'
p3051
I8
sS'latin'
p3052
I1
sS'recently'
p3053
I1
sS'enclosures'
p3054
I1
sS'targeted'
p3055
I3
sS'dividends'
p3056
I4
sS'sold'
p3057
I5
sS'roe'
p3058
I2
sS'aircraft'
p3059
I2
sS'more.nearly'
p3060
I1
sS'ahoy'
p3061
I11
sS'dividend'
p3062
I24
sS'leo'
p3063
I1
sS'remaining'
p3064
I2
sS'league'
p3065
I1
sS'prospects'
p3066
I2
sS'galatasaray'
p3067
I1
sS'improved'
p3068
I6
sS'reverse'
p3069
I1
sS'secrets'
p3070
I1
sS"wouldn't"
p3071
I1
sS'annual'
p3072
I8
sS'foreign'
p3073
I4
sS'1.66'
p3074
I3
sS'1.64'
p3075
I2
sS'suede'
p3076
I1
sS'newsdesk'
p3077
I4
sS'skied'
p3078
I2
sS'collection'
p3079
I7
sS'let'
p3080
I3
sS'blaze'
p3081
I1
sS'1.69'
p3082
I1
sS'albeit'
p3083
I1
sS'millions'
p3084
I13
sS'47.55'
p3085
I1
sS'close.bank'
p3086
I1
sS'underperforming'
p3087
I2
sS'groups'
p3088
I1
sS'headed'
p3089
I3
sS'reasons'
p3090
I1
sS'loan'
p3091
I3
sS'netherlands.opg'
p3092
I1
sS'community'
p3093
I2
sS'37.35'
p3094
I1
sS'panicking'
p3095
I2
sS'simply'
p3096
I1
sS'said.dutch'
p3097
I4
sS'share.the'
p3098
I1
sS'vessel'
p3099
I1
sS'grenfell'
p3100
I1
sS'6-4'
p3101
I1
sS'expensive'
p3102
I2
sS"a'damseri"
p3103
I1
sS'decline'
p3104
I14
sS'atmosphere'
p3105
I1
sS'devil'
p3106
I1
sS'arsenal'
p3107
I1
sS'raise'
p3108
I5
sS'setting.9'
p3109
I1
sS'monthly'
p3110
I1
sS'filing.underwriters'
p3111
I1
sS'ozalan'
p3112
I4
sS'political'
p3113
I3
sS'strategy'
p3114
I7
sS'follow.a'
p3115
I1
sS'geoffrey'
p3116
I1
sS'reduction'
p3117
I1
sS'var.analysts'
p3118
I1
sS'aex'
p3119
I28
sS'said.the'
p3120
I13
sS'clinical'
p3121
I1
sS'meeting'
p3122
I8
sS'frommiddle'
p3123
I1
sS'important'
p3124
I4
sS'treatment'
p3125
I2
sS'firm'
p3126
I18
sS'furthercontinuation'
p3127
I1
sS'generating'
p3128
I1
sS'referee'
p3129
I1
sS'partly'
p3130
I8
sS'bzw.bart'
p3131
I1
sS'account.the'
p3132
I1
sS'gas'
p3133
I9
sS'remark'
p3134
I1
sS'priced'
p3135
I2
sS'fund'
p3136
I7
sS'marino.ajax'
p3137
I1
sS'lives'
p3138
I1
sS'break.rotterdam'
p3139
I1
sS'demand'
p3140
I15
sS'prices'
p3141
I36
sS'resisted'
p3142
I1
sS'rai'
p3143
I1
sS'fokker'
p3144
I2
sS'oenen'
p3145
I2
sS'pact'
p3146
I7
sS'p3'
p3147
I10
sS'presses'
p3148
I1
sS'handling'
p3149
I6
sS'uncertain'
p3150
I3
sS'look'
p3151
I2
sS'p4'
p3152
I5
sS'raw'
p3153
I2
sS'solid'
p3154
I2
sS'leave'
p3155
I1
sS'straight'
p3156
I4
sS'maguire'
p3157
I1
sS'mln'
p3158
I2
sS'bundespost'
p3159
I1
sS'3.36'
p3160
I4
sS'bycontroversial'
p3161
I1
sS'concordia'
p3162
I1
sS'020-6211211'
p3163
I1
sS'kick'
p3164
I4
sS'32'
p3165
I1
sS'luciano'
p3166
I1
sS'sagir'
p3167
I1
sS'scheduled'
p3168
I4
sS'larger'
p3169
I1
sS'hoping'
p3170
I2
sS'portugal'
p3171
I1
sS'cents'
p3172
I11
sS'averaging'
p3173
I1
sS'environmental'
p3174
I1
sS'cinematografie.following'
p3175
I1
sS'disappointing'
p3176
I2
sS'it.it'
p3177
I1
sS'children.speaking'
p3178
I1
sS'netherlands.by'
p3179
I1
sS'ready'
p3180
I1
sS'annnounced'
p3181
I1
sS'34'
p3182
I1
sS'communal'
p3183
I2
sS'strikes'
p3184
I1
sS'65.00'
p3185
I2
sS'suggests'
p3186
I1
sS'barnes'
p3187
I2
sS'europe.kempen'
p3188
I2
sS'minorities'
p3189
I1
sS'9-hakan'
p3190
I1
sS'said.based'
p3191
I1
sS'virtually'
p3192
I4
sS'widely'
p3193
I1
sS'9'
p3194
I2
sS'products'
p3195
I8
sS'proved'
p3196
I1
sS'dozen'
p3197
I1
sS'failure'
p3198
I1
sS'boyzone'
p3199
I1
sS'development'
p3200
I4
sS'sell'
p3201
I11
sS'ommeren'
p3202
I1
sS'used'
p3203
I1
sS'temporary'
p3204
I1
sS'affairs'
p3205
I4
sS'5.the'
p3206
I1
sS'overweight'
p3207
I2
sS'yesterday'
p3208
I3
sS'boonstra'
p3209
I2
sS'1995/96'
p3210
I1
sS'steps'
p3211
I1
sS'moment'
p3212
I4
sS'leapt'
p3213
I1
sS'uses'
p3214
I1
sS'cents.prompt'
p3215
I1
sS'robust'
p3216
I1
sS'020-6862109'
p3217
I1
sS'1997.commenting'
p3218
I1
sS'euro'
p3219
I12
sS'early'
p3220
I20
sS'lower'
p3221
I27
sS'motionless'
p3222
I1
sS'15.4'
p3223
I1
sS'15.5'
p3224
I1
sS'older'
p3225
I3
sS'15.9'
p3226
I1
sS'poland'
p3227
I4
sS'said.kempen'
p3228
I2
sS'grind'
p3229
I18
sS'5.87'
p3230
I1
sS'edge'
p3231
I2
sS'kelly'
p3232
I3
sS'tonnes.analysts'
p3233
I1
sS'signalled'
p3234
I1
sS'bounced'
p3235
I1
sS'kerimoglu'
p3236
I1
sS'preference'
p3237
I6
sS'watching'
p3238
I1
sS'polled'
p3239
I1
sS'vacuum'
p3240
I1
sS'boer'
p3241
I8
sS'guilders.last'
p3242
I1
sS'reviewed'
p3243
I1
sS'db'
p3244
I1
sS'press'
p3245
I2
sS'shape'
p3246
I3
sS'using'
p3247
I1
sS'123.10.dealers'
p3248
I2
sS'helmeted'
p3249
I1
sS'injuries'
p3250
I1
sS'338'
p3251
I1
sS'deflt'
p3252
I2
sS'mahwah'
p3253
I2
sS'cut'
p3254
I6
sS'kluwer'
p3255
I4
sS'cup'
p3256
I8
sS'surprises'
p3257
I1
sS'workers'
p3258
I2
sS'ipe'
p3259
I4
sS'nikko'
p3260
I1
sS'added.because'
p3261
I1
sS'source'
p3262
I3
sS'labour'
p3263
I6
sS'exhibition'
p3264
I1
sS'cash'
p3265
I10
sS'2.17'
p3266
I1
sS'2.16'
p3267
I1
sS'2.15'
p3268
I1
sS'2.13'
p3269
I4
sS'excited'
p3270
I1
sS'surprised'
p3271
I2
sS'applauded'
p3272
I2
sS'minerva'
p3273
I1
sS'customers'
p3274
I3
sS'marco'
p3275
I1
sS'march'
p3276
I24
sS'forces'
p3277
I1
sS'emergency'
p3278
I1
sS'big'
p3279
I6
sS'bid'
p3280
I7
sS'670'
p3281
I4
sS'millennium.polet'
p3282
I1
sS'matters'
p3283
I1
sS'game'
p3284
I5
sS'aerospace'
p3285
I1
sS'bit'
p3286
I6
sS'9,000'
p3287
I1
sS'bijenkorf'
p3288
I10
sS'projects'
p3289
I5
sS'moody'
p3290
I2
sS'knock'
p3291
I1
sS'sorting'
p3292
I1
sS'1995.the'
p3293
I2
sS'semi'
p3294
I1
sS'follows'
p3295
I1
sS'signal'
p3296
I3
sS'trade.volumes'
p3297
I1
sS'therehas'
p3298
I1
sS'underway'
p3299
I1
sS'ignore'
p3300
I1
sS'communications'
p3301
I1
sS'arthur'
p3302
I2
sS'2603.tw'
p3303
I1
sS'indication'
p3304
I4
sS'1988-1990'
p3305
I1
sS'popular'
p3306
I1
sS'tribes'
p3307
I2
sS'percent.it'
p3308
I1
sS'province'
p3309
I1
sS'stigevo'
p3310
I1
sS'unit.ing'
p3311
I1
sS'bv.the'
p3312
I1
sS'flurry'
p3313
I2
sS'absolutely'
p3314
I2
sS'obliged'
p3315
I2
sS'protein'
p3316
I2
sS'pierre'
p3317
I3
sS'bounce'
p3318
I1
sS'usa.philips'
p3319
I1
sS'said.britain'
p3320
I1
sS'marker'
p3321
I2
sS'trends'
p3322
I4
sS'economic'
p3323
I10
sS'palm'
p3324
I2
sS'3.3'
p3325
I3
sS'3.0'
p3326
I10
sS'3.1'
p3327
I3
sS'cd'
p3328
I1
sS'processor'
p3329
I3
sS'3.9'
p3330
I1
sS'delivered'
p3331
I2
sS'gradually'
p3332
I3
sS'scale'
p3333
I3
sS'bankrupt'
p3334
I2
sS'decision'
p3335
I2
sS'2.90'
p3336
I3
sS'integration'
p3337
I2
sS'tradingrange'
p3338
I1
sS'seller'
p3339
I1
sS'intervened'
p3340
I1
sS'660'
p3341
I1
sS'friesland'
p3342
I1
sS'4.85'
p3343
I1
sS't'
p3344
I1
sS'foley'
p3345
I1
sS'investigations'
p3346
I2
sS'measures'
p3347
I3
sS'run'
p3348
I4
sS'ba'
p3349
I1
sS'professionals'
p3350
I1
sS'300'
p3351
I3
sS'bn'
p3352
I1
sS'processing'
p3353
I4
sS'use'
p3354
I3
sS'aerosmith'
p3355
I1
sS'bv'
p3356
I11
sS'bp'
p3357
I3
sS'claw'
p3358
I1
sS'wednesday.dutch'
p3359
I1
sS'abroad'
p3360
I1
sS'41notes'
p3361
I1
sS'handled'
p3362
I2
sS'shine'
p3363
I1
sS'react'
p3364
I2
sS'concertgebouw'
p3365
I1
sS'goods'
p3366
I5
sS'bleeders'
p3367
I1
sS'usa'
p3368
I1
sS'bursa.but'
p3369
I1
sS'solair'
p3370
I1
sS'practiced'
p3371
I1
sS'hasan'
p3372
I2
sS'fen'
p3373
I2
sS'range'
p3374
I11
sS'100.9'
p3375
I1
sS'beans'
p3376
I4
sS'guilders.shortly'
p3377
I1
sS'replacement'
p3378
I1
sS'youthful'
p3379
I2
sS'72'
p3380
I2
sS'garbage'
p3381
I1
sS'wegener'
p3382
I1
sS'abusive'
p3383
I1
sS'retailer'
p3384
I5
sS'exceed'
p3385
I1
sS'ministers'
p3386
I3
sS'9.97'
p3387
I1
sS'reuters.he'
p3388
I2
sS'bse'
p3389
I3
sS'contributor'
p3390
I1
sS'inventories'
p3391
I1
sS'78.0'
p3392
I2
sS'realisation'
p3393
I1
sS'geoghegan'
p3394
I1
sS'agency.call'
p3395
I1
sS'statistics'
p3396
I4
sS'story'
p3397
I1
sS'spending'
p3398
I8
sS'oostveen'
p3399
I2
sS'5017'
p3400
I3
sS'dusoleil'
p3401
I1
sS'long'
p3402
I11
sS'u2'
p3403
I1
sS'clocks'
p3404
I2
sS'luimes'
p3405
I2
sS'1.50'
p3406
I2
sS'15.91'
p3407
I1
sS'infected'
p3408
I1
sS"we're"
p3409
I2
sS'forward'
p3410
I4
sS'subsequent'
p3411
I1
sS'opens'
p3412
I2
sS'considerably'
p3413
I3
sS'talked'
p3414
I2
sS'collapsed'
p3415
I5
sS'murphy'
p3416
I1
sS'specialty'
p3417
I2
sS'reiterated'
p3418
I2
sS'deductions'
p3419
I1
sS'link'
p3420
I4
sS'p11'
p3421
I1
sS'delta'
p3422
I5
sS'hopes'
p3423
I1
sS'subsidiary'
p3424
I1
sS'line'
p3425
I19
sS'week.witnesses'
p3426
I1
sS'insurers'
p3427
I4
sS'raising'
p3428
I1
sS'posted'
p3429
I4
sS'cif'
p3430
I3
sS'melee'
p3431
I2
sS'clashed'
p3432
I1
sS'it.analysts'
p3433
I1
sS'barring'
p3434
I1
sS'savoured'
p3435
I2
sS'gratifying'
p3436
I1
sS'maturity'
p3437
I2
sS'wednesday.research'
p3438
I1
sS'ijaws'
p3439
I1
sS'uk'
p3440
I4
sS'faded'
p3441
I1
sS'more.wavin'
p3442
I1
sS'nieuws'
p3443
I1
sS'autonomous'
p3444
I1
sS'similar'
p3445
I9
sS'called'
p3446
I6
sS'said.in'
p3447
I4
sS'associated'
p3448
I1
sS'stripped'
p3449
I1
sS'home.a'
p3450
I1
sS'package'
p3451
I1
sS'shareholding.analysts'
p3452
I1
sS'engineering'
p3453
I3
sS'warning'
p3454
I2
sS'states.non'
p3455
I1
sS'conglomerate.8'
p3456
I1
sS'rally'
p3457
I2
sS'delegation'
p3458
I1
sS'said.it'
p3459
I1
sS'35.00'
p3460
I1
sS'befriendsira'
p3461
I1
sS'independents'
p3462
I2
sS'stadion'
p3463
I1
sS'excused'
p3464
I1
sS'14.8'
p3465
I1
sS'millennium.pre'
p3466
I1
sS'peace'
p3467
I1
sS'fears'
p3468
I1
sS'nam'
p3469
I6
sS'preventing'
p3470
I1
sS'nick'
p3471
I1
sS'politicians'
p3472
I1
sS'points'
p3473
I32
sS'3.25'
p3474
I8
sS'5-alpay'
p3475
I1
sS'3.27'
p3476
I1
sS'income'
p3477
I17
sS'department'
p3478
I5
sS'freighter'
p3479
I3
sS'nice'
p3480
I2
sS'1.375'
p3481
I1
sS'draw'
p3482
I2
sS'28.00-45.00'
p3483
I1
sS'provided'
p3484
I3
sS'panalpina'
p3485
I1
sS"a'damtomis"
p3486
I1
sS'business.in'
p3487
I1
sS'problems'
p3488
I8
sS'prepared'
p3489
I1
sS'helping'
p3490
I1
sS'lufthansa'
p3491
I1
sS'guilders.of'
p3492
I1
sS'allowing'
p3493
I1
sS'pipes'
p3494
I1
sS'prepares'
p3495
I1
sS'guilders.elsevier'
p3496
I2
sS'total.the'
p3497
I1
sS'meals'
p3498
I2
sS'structure'
p3499
I4
sS'31.48'
p3500
I1
sS'ago'
p3501
I5
sS'land'
p3502
I4
sS'e'
p3503
I4
sS'said.spreads'
p3504
I1
sS'rescued'
p3505
I3
sS'teams'
p3506
I3
sS'u.s'
p3507
I1
sS'7-tayfun'
p3508
I1
sS'1997.small'
p3509
I1
sS'2002'
p3510
I2
sS'pamphlets'
p3511
I2
sS'2000'
p3512
I4
sS'neighbouring'
p3513
I3
sS'said.commenting'
p3514
I1
sS'compounders'
p3515
I1
sS'1995.they'
p3516
I1
sS'fresh'
p3517
I1
sS'millennium.the'
p3518
I2
sS'holec'
p3519
I1
sS'avoid'
p3520
I1
sS'attackon'
p3521
I1
sS'denoms'
p3522
I2
sS'code'
p3523
I1
sS'partial'
p3524
I1
sS'magnanimous'
p3525
I1
sS'treasuries'
p3526
I3
sS'issued'
p3527
I2
sS'results'
p3528
I35
sS'produce'
p3529
I2
sS'existing'
p3530
I5
sS'close.dealers'
p3531
I2
sS'farms'
p3532
I1
sS'softer'
p3533
I1
sS'37,000'
p3534
I1
sS'stops'
p3535
I1
sS'servants'
p3536
I1
sS'exceptional'
p3537
I1
sS'15,000'
p3538
I1
sS'compact'
p3539
I2
sS'excludes'
p3540
I1
sS'baseball'
p3541
I1
sS'turkish'
p3542
I21
sS'disposal'
p3543
I1
sS'concerned'
p3544
I3
sS'mosque'
p3545
I1
sS'young'
p3546
I1
sS'suits'
p3547
I2
sS'pongo'
p3548
I1
sS'1980s'
p3549
I1
sS'millennium'
p3550
I2
sS'squeezing'
p3551
I1
sS'theartist'
p3552
I1
sS'company.he'
p3553
I1
sS'stable'
p3554
I2
sS'quarterly'
p3555
I1
sS'details'
p3556
I3
sS'celil'
p3557
I2
sS'include'
p3558
I9
sS'75-85'
p3559
I1
sS'resources'
p3560
I1
sS'ingredient'
p3561
I1
sS'100,866'
p3562
I2
sS'confirmation'
p3563
I1
sS'seized'
p3564
I1
sS'716'
p3565
I2
sS'reserved'
p3566
I2
sS'continues'
p3567
I5
sS'sagir.netherlands'
p3568
I2
sS'maas'
p3569
I4
sS'710'
p3570
I2
sS'unbeaten'
p3571
I1
sS'lagos.at'
p3572
I1
sS'putting'
p3573
I3
sS'midwestern'
p3574
I1
sS'740.99'
p3575
I1
sS'continued'
p3576
I5
sS'cetin'
p3577
I2
sS'entire'
p3578
I1
sS'moderate'
p3579
I1
sS'sparked'
p3580
I3
sS'zeit'
p3581
I1
sS'eva'
p3582
I1
sS'notes'
p3583
I2
sS'shock'
p3584
I2
sS'michael'
p3585
I4
sS'wavre'
p3586
I2
sS'1998.dutch'
p3587
I1
sS'car'
p3588
I1
sS'years.jacobs'
p3589
I1
sS'materialised'
p3590
I1
sS'noted'
p3591
I1
sS'exchange.the'
p3592
I1
sS'2.25'
p3593
I5
sS'concluded'
p3594
I2
sS'smaller'
p3595
I5
sS'compensated'
p3596
I1
sS'mediterranean'
p3597
I1
sS'procession'
p3598
I1
sS'crop'
p3599
I1
sS'47.30'
p3600
I1
sS'jump'
p3601
I3
sS'video'
p3602
I2
sS'benefitting'
p3603
I1
sS'picked'
p3604
I5
sS'exuberant'
p3605
I1
sS'incidentally'
p3606
I1
sS'xenophobia.police'
p3607
I1
sS'carlo'
p3608
I1
sS'index'
p3609
I38
sS'plays'
p3610
I2
sS'power'
p3611
I6
sS'paintings'
p3612
I1
sS'chicago'
p3613
I6
sS'giving'
p3614
I2
sS'fons'
p3615
I1
sS'saw'
p3616
I14
sS'multimedia'
p3617
I1
sS"r'damjun"
p3618
I3
sS'bearish'
p3619
I1
sS'expressed'
p3620
I1
sS'helgott'
p3621
I1
sS'refurbishing'
p3622
I1
sS'waiting'
p3623
I4
sS'polet'
p3624
I2
sS'volatile'
p3625
I5
sS'capital'
p3626
I4
sS'gasoline'
p3627
I3
sS'firms'
p3628
I5
sS'1400'
p3629
I1
sS'week.suspected'
p3630
I1
sS'led'
p3631
I5
sS'drill'
p3632
I4
sS'stance'
p3633
I1
sS'exchange'
p3634
I14
sS'sentiment.turkey'
p3635
I1
sS'gathered'
p3636
I1
sS'pushing'
p3637
I1
sS'commercial'
p3638
I3
sS'indicator'
p3639
I1
sS'jointly'
p3640
I1
sS'monetary'
p3641
I1
sS'uptrend.rabo'
p3642
I1
sS'growing'
p3643
I3
sS'added.the'
p3644
I3
sS'japan.but'
p3645
I1
sS'kranenburg'
p3646
I1
sS'ghent'
p3647
I1
sS'soymeal'
p3648
I23
sS'widening'
p3649
I2
sS'7706'
p3650
I1
sS'guilders.after'
p3651
I1
sS'great'
p3652
I1
sS'1.46'
p3653
I2
sS'earlier.de'
p3654
I1
sS'warehousing'
p3655
I3
sS'technical'
p3656
I6
sS'involved'
p3657
I2
sS'31'
p3658
I151
sS'30'
p3659
I3
sS'37'
p3660
I7
sS'36'
p3661
I3
sS'35'
p3662
I3
sS'leaving'
p3663
I2
sS'p2'
p3664
I5
sS'group.but'
p3665
I2
sS'resulting'
p3666
I3
sS'premiering'
p3667
I1
sS'defeat'
p3668
I2
sS'existent'
p3669
I2
sS'opinion'
p3670
I4
sS'residents'
p3671
I1
sS'makes'
p3672
I2
sS'maker'
p3673
I9
sS'control'
p3674
I2
sS'selby'
p3675
I1
sS'debts'
p3676
I1
sS'foresee'
p3677
I1
sS'61,400'
p3678
I1
sS'danger'
p3679
I1
sS'apr'
p3680
I4
sS'win'
p3681
I6
sS'wim'
p3682
I5
sS'crazy'
p3683
I1
sS'private'
p3684
I1
sS'embarked'
p3685
I1
sS'4.75'
p3686
I1
sS'weaker'
p3687
I6
sS'apl'
p3688
I31
sS'16-17'
p3689
I1
sS'feyenoord'
p3690
I4
sS'algemeen'
p3691
I4
sS'stirred'
p3692
I1
sS'nov96-jan97'
p3693
I2
sS'cloud'
p3694
I1
sS'standing'
p3695
I1
sS'confidence'
p3696
I5
sS'feb'
p3697
I2
sS'consumption'
p3698
I6
sS'remains'
p3699
I6
sS'illegal'
p3700
I1
sS'197.0'
p3701
I1
sS'weekend.fujairah'
p3702
I1
sS'nobel'
p3703
I2
sS'callulesie'
p3704
I1
sS'0.1'
p3705
I1
sS'15-16'
p3706
I1
sS'downside'
p3707
I2
sS'jonathan'
p3708
I1
sS'reflects'
p3709
I3
sS'possession'
p3710
I1
sS'gained'
p3711
I8
sS'storms.the'
p3712
I1
sS'journalists'
p3713
I2
sS'upcoming'
p3714
I3
sS'started'
p3715
I10
sS'initial'
p3716
I4
sS'inclined'
p3717
I1
sS'equity'
p3718
I10
sS'benchmark'
p3719
I2
sS'cooperate'
p3720
I1
sS'sore'
p3721
I1
sS'operational'
p3722
I1
sS'carrying'
p3723
I1
sS'agent'
p3724
I3
sS'sharply'
p3725
I6
sS'43.5'
p3726
I1
sS'actual'
p3727
I4
sS'payrolls'
p3728
I5
sS'appointed'
p3729
I2
sS'women'
p3730
I3
sS'customer'
p3731
I1
sS'high'
p3732
I16
sS'account'
p3733
I2
sS'crosses'
p3734
I1
sS'announcing'
p3735
I2
sS'f'
p3736
I2
sS'clients'
p3737
I1
sS'halt'
p3738
I4
sS'reporters'
p3739
I3
sS'recession'
p3740
I1
sS'61.7'
p3741
I6
sS'anchorage'
p3742
I1
sS'meet'
p3743
I1
sS'potterstraat'
p3744
I1
sS'1.40'
p3745
I1
sS'performed'
p3746
I3
sS'point'
p3747
I3
sS'save.the'
p3748
I1
sS'yagcioglu'
p3749
I2
sS'kenny'
p3750
I1
sS'tab'
p3751
I1
sS'providers'
p3752
I1
sS'process'
p3753
I6
sS'0.3'
p3754
I3
sS'0.2'
p3755
I5
sS'tax'
p3756
I24
sS'0.4'
p3757
I5
sS'0.7'
p3758
I4
sS'0.6'
p3759
I1
sS"r'dammay"
p3760
I7
sS'renewed'
p3761
I1
sS'reserves'
p3762
I7
sS'pulling'
p3763
I1
sS'urged'
p3764
I1
sS'employs'
p3765
I1
sS'prowess'
p3766
I1
sS'mel'
p3767
I1
sS'barings'
p3768
I25
sS'overtly'
p3769
I1
sS'gains'
p3770
I6
sS'nationwide'
p3771
I1
sS'united'
p3772
I11
sS'varied'
p3773
I1
sS'sit'
p3774
I1
sS'strongest'
p3775
I1
sS'buoyant'
p3776
I1
sS'1998.below'
p3777
I2
sS'reuter'
p3778
I2
sS'takeovers.the'
p3779
I1
sS'steepening'
p3780
I3
sS'traders'
p3781
I8
sS'located'
p3782
I1
sS'carrier'
p3783
I2
sS'lutfu'
p3784
I1
sS'said.but'
p3785
I4
sS'instead'
p3786
I5
sS'155'
p3787
I1
sS'weaken'
p3788
I1
sS'panic'
p3789
I3
sS'filament'
p3790
I1
sS'stock'
p3791
I25
sS'winner.2'
p3792
I1
sS'firebombing'
p3793
I2
sS'insg'
p3794
I1
sS'easily'
p3795
I2
sS'day.some'
p3796
I2
sS'highs'
p3797
I1
sS'await'
p3798
I2
sS'factored'
p3799
I1
sS'ronald'
p3800
I2
sS'829.5'
p3801
I3
sS'friday.subscriptions'
p3802
I1
sS'ethnic'
p3803
I1
sS'fits'
p3804
I1
sS'ties'
p3805
I1
sS'solidarity'
p3806
I1
sS'17.46'
p3807
I1
sS'boeing'
p3808
I1
sS'guilder'
p3809
I21
sS'concern'
p3810
I1
sS'light'
p3811
I6
sS'lines'
p3812
I2
sS'29,000'
p3813
I1
sS'serrano'
p3814
I1
sS'awarded.the'
p3815
I1
sS'chief'
p3816
I1
sS'added.output'
p3817
I1
sS'allow'
p3818
I3
sS'grundig'
p3819
I1
sS'subsequently'
p3820
I2
sS'stakes'
p3821
I1
sS'breast'
p3822
I1
sS'holds'
p3823
I2
sS'resurgent'
p3824
I1
sS'pallets'
p3825
I1
sS'producer'
p3826
I4
sS'freeing'
p3827
I1
sS'kbb'
p3828
I20
sS'internationaal'
p3829
I1
sS'manufactured'
p3830
I1
sS'asiana'
p3831
I2
sS'there.the'
p3832
I1
sS'ladies'
p3833
I1
sS'predicted.while'
p3834
I1
sS'produced'
p3835
I3
sS'132'
p3836
I1
sS'including'
p3837
I8
sS'looks'
p3838
I2
sS'cruise'
p3839
I1
sS'mentioned'
p3840
I3
sS'interpreter'
p3841
I1
sS'burkart'
p3842
I1
sS'industries'
p3843
I1
sS'regions'
p3844
I2
sS'blenkinsop'
p3845
I2
sS'equalise'
p3846
I2
sS'clearblue'
p3847
I1
sS'li'
p3848
I1
sS'telegraaf'
p3849
I4
sS'6.32'
p3850
I2
sS'automation'
p3851
I4
sS'instruments'
p3852
I1
sS'covered'
p3853
I6
sS'holiday'
p3854
I3
sS'rabo'
p3855
I4
sS'willink'
p3856
I2
sS'greater'
p3857
I2
sS'citrus'
p3858
I1
sS'said.he'
p3859
I8
sS'6-witti'
p3860
I1
sS'operator'
p3861
I1
sS'approachin'
p3862
I1
sS'disrupted'
p3863
I3
sS'cutting'
p3864
I1
sS'p15'
p3865
I1
sS'nibs'
p3866
I1
sS'p17'
p3867
I1
sS'liable'
p3868
I1
sS'perpetrators'
p3869
I2
sS'day'
p3870
I29
sS'employed.edwin'
p3871
I1
sS'5.27'
p3872
I1
sS'february'
p3873
I5
sS'guilders.no'
p3874
I1
sS'warned'
p3875
I4
sS'nationale'
p3876
I1
sS'eased'
p3877
I4
sS'hooydonk'
p3878
I2
sS'registrations'
p3879
I1
sS'slide'
p3880
I2
sS'debt.wolters'
p3881
I2
sS'mode'
p3882
I13
sS'discount.in'
p3883
I2
sS'accompanied'
p3884
I1
sS'47.6'
p3885
I4
sS'hasalso'
p3886
I1
sS'kpn'
p3887
I3
sS'upward'
p3888
I1
sS'maasvlakte'
p3889
I1
sS'3,000'
p3890
I1
sS'doing'
p3891
I4
sS"r'damworld"
p3892
I2
sS'strip'
p3893
I2
sS'700'
p3894
I14
sS'144'
p3895
I1
sS'related'
p3896
I10
sS'society'
p3897
I1
sS'88'
p3898
I3
sS'books'
p3899
I1
sS'doubled'
p3900
I4
sS'exceeded'
p3901
I1
sS'slumped'
p3902
I5
sS'margins'
p3903
I3
sS'86'
p3904
I4
sS'goalkeeper'
p3905
I1
sS'84'
p3906
I1
sS'85'
p3907
I5
sS'2.34'
p3908
I1
sS'braxton'
p3909
I1
sS'entertainment'
p3910
I1
sS'nutricia'
p3911
I3
sS'2.38'
p3912
I3
sS'islamist'
p3913
I1
sS'farm'
p3914
I5
sS'arsonists'
p3915
I1
sS'favours'
p3916
I1
sS'charge'
p3917
I1
sS'growth.krant'
p3918
I2
sS'profits.ing'
p3919
I1
sS'electronics'
p3920
I12
sS'cause'
p3921
I1
sS'waters'
p3922
I1
sS'announced'
p3923
I14
sS'reuters.the'
p3924
I1
sS'shut'
p3925
I1
sS'allocations'
p3926
I3
sS"a'damayane"
p3927
I1
sS'frank'
p3928
I2
sS'ogun'
p3929
I1
sS'1991-1997'
p3930
I1
sS'maatschappij'
p3931
I2
sS'space.schiphol'
p3932
I1
sS'henselijn'
p3933
I8
sS'completely'
p3934
I2
sS'ect'
p3935
I1
sS'york'
p3936
I7
sS'usual'
p3937
I3
sS'audio'
p3938
I1
sS'philip'
p3939
I3
sS'20,000'
p3940
I3
sS'steering'
p3941
I1
sS'expectations.it'
p3942
I1
sS'heijmans'
p3943
I2
sS'resumed'
p3944
I3
sS'halted'
p3945
I1
sS'fertility'
p3946
I1
sS'feud'
p3947
I1
sS'g'
p3948
I1
sS'confident'
p3949
I4
sS'well.andrew'
p3950
I1
sS'david'
p3951
I2
sS'keen'
p3952
I2
sS'length'
p3953
I1
sS'birthday'
p3954
I2
sS'term.the'
p3955
I1
sS'youths.esengun'
p3956
I1
sS'davis'
p3957
I2
sS'retain'
p3958
I1
sS'8-6'
p3959
I1
sS'retail'
p3960
I13
sS'disposals.kbb'
p3961
I2
sS'housing'
p3962
I3
sS'south'
p3963
I2
sS'praxis'
p3964
I5
sS'plastics'
p3965
I5
sS'86th'
p3966
I2
sS'evans'
p3967
I1
sS'kosedag'
p3968
I2
sS'spirit.teams'
p3969
I1
sS'owned'
p3970
I7
sS'strategic'
p3971
I2
sS'facility'
p3972
I2
sS'date'
p3973
I6
sS'corngluten'
p3974
I3
sS'hooijdonk'
p3975
I2
sS'determination'
p3976
I1
sS'owner'
p3977
I1
sS'ofabout'
p3978
I1
sS'85.50'
p3979
I1
sS'quality'
p3980
I1
sS'enquiry'
p3981
I1
sS'hiding'
p3982
I1
sS'bart'
p3983
I1
sS'gains.and'
p3984
I1
sS'0.5'
p3985
I2
sS'management'
p3986
I19
sS'swept'
p3987
I2
sS'changing'
p3988
I1
sS'strict'
p3989
I1
sS'bears'
p3990
I1
sS'revealed'
p3991
I2
sS'durable'
p3992
I4
sS'wharf'
p3993
I1
sS'adopted'
p3994
I2
sS'monday'
p3995
I3
sS'attack'
p3996
I9
sS'780to'
p3997
I1
sS'ton'
p3998
I1
sS'travelled'
p3999
I1
sS'ticketlijn'
p4000
I2
sS'bosch'
p4001
I7
sS'final'
p4002
I8
sS'interests'
p4003
I1
sS'plantings'
p4004
I1
sS'shell'
p4005
I33
sS'afterwards.the'
p4006
I1
sS'shorts'
p4007
I1
sS'shelf'
p4008
I3
sS'reversed'
p4009
I1
sS'shallow'
p4010
I1
sS'ecomomic'
p4011
I1
sS'said.public'
p4012
I1
sS'var'
p4013
I2
sS'vouch'
p4014
I4
sS'reflecting'
p4015
I2
sS'purposes'
p4016
I1
sS'diminish'
p4017
I1
sS'july'
p4018
I1
sS'elaborate.wavin'
p4019
I1
sS'raids'
p4020
I1
sS'ben'
p4021
I1
sS'holland'
p4022
I4
sS'suresnes'
p4023
I2
sS'pointers'
p4024
I2
sS'vancom'
p4025
I1
sS'depends'
p4026
I1
sS'extraordinarily'
p4027
I1
sS'smeets'
p4028
I2
sS'cards'
p4029
I3
sS'34.25'
p4030
I1
sS'individual'
p4031
I2
sS'monday.prices'
p4032
I1
sS'discs'
p4033
I1
sS'billion.but'
p4034
I2
sS'steep'
p4035
I1
sS'1.4'
p4036
I1
sS'1.6'
p4037
I4
sS'1.7'
p4038
I4
sS'developement'
p4039
I1
sS'thwarted'
p4040
I2
sS'1.2'
p4041
I1
sS'1.3'
p4042
I3
sS'189'
p4043
I1
sS'unchanged'
p4044
I10
sS'cattle'
p4045
I1
sS'1.8'
p4046
I4
sS'earlier.ing'
p4047
I1
sS'batan'
p4048
I1
sS'banners'
p4049
I1
sS'unlikely'
p4050
I4
sS'guilders.kbb'
p4051
I2
sS'2.2'
p4052
I4
sS'need'
p4053
I1
sS'7-aron'
p4054
I1
sS'clearly'
p4055
I5
sS'acceleration'
p4056
I3
sS'nedlloyd'
p4057
I3
sS'triggered'
p4058
I1
sS'consultant.operating'
p4059
I1
sS'80.80'
p4060
I1
sS'able'
p4061
I2
sS'mid'
p4062
I9
sS'purchasing'
p4063
I5
sS'arm'
p4064
I2
sS'mix'
p4065
I1
sS'relatives'
p4066
I1
sS'2.5'
p4067
I13
sS'1.30'
p4068
I3
sS'korean'
p4069
I2
sS'soar'
p4070
I1
sS'jaap'
p4071
I1
sS'6.forecasts'
p4072
I2
sS'unless'
p4073
I14
sS'combat'
p4074
I1
sS'centre'
p4075
I1
sS'akzo'
p4076
I2
sS'said.if'
p4077
I1
sS'bavel'
p4078
I2
sS'in.advance'
p4079
I1
sS'connected'
p4080
I1
sS'today.the'
p4081
I1
sS'cracking'
p4082
I1
sS'preliminary'
p4083
I1
sS'cabinet'
p4084
I1
sS'segment'
p4085
I3
sS'class'
p4086
I1
sS'billion.the'
p4087
I1
sS'placement'
p4088
I6
sS'skying'
p4089
I1
sS'stronger'
p4090
I3
sS'disease'
p4091
I2
sS'go.coach'
p4092
I1
sS'looked'
p4093
I2
sS'forcados'
p4094
I1
sS'lowered'
p4095
I1
sS'talk'
p4096
I1
sS'overprovided'
p4097
I1
sS'occasion'
p4098
I1
sS'constrain'
p4099
I1
sS'0700'
p4100
I1
sS'ensued'
p4101
I1
sS'fact'
p4102
I2
sS'spending.but'
p4103
I1
sS'dijk'
p4104
I2
sS'6.44'
p4105
I3
sS'emerging'
p4106
I2
sS'aardolie'
p4107
I1
sS'103.3'
p4108
I1
sS'emptive'
p4109
I2
sS'1.882'
p4110
I2
sS'agreed'
p4111
I5
sS'supported'
p4112
I1
sS'claims'
p4113
I1
sS'market.ing'
p4114
I1
sS'bring'
p4115
I3
sS'planning'
p4116
I7
sS'photographer.groninger'
p4117
I1
sS'lloyd'
p4118
I4
sS'mandirali'
p4119
I1
sS'operations.higher'
p4120
I1
sS'portfolio'
p4121
I1
sS'fear'
p4122
I5
sS'pleased'
p4123
I1
sS'1993.in'
p4124
I1
sS'staff'
p4125
I3
sS'nearer'
p4126
I1
sS'squeeze'
p4127
I2
sS'based'
p4128
I8
sS'mud'
p4129
I1
sS'produces'
p4130
I1
sS'hopeful'
p4131
I1
sS'report.offshore'
p4132
I1
sS'refco'
p4133
I1
sS'institutional'
p4134
I3
sS'finalised'
p4135
I3
sS'overnight.despite'
p4136
I1
sS'chiefs'
p4137
I2
sS'prejudice'
p4138
I1
sS'0630'
p4139
I1
sS'fuel'
p4140
I9
sS'8,000'
p4141
I1
sS'ilker'
p4142
I2
sS'local'
p4143
I12
sS'interested'
p4144
I1
sS'hope'
p4145
I4
sS'meant'
p4146
I3
sS'1988.the'
p4147
I1
sS'income.van'
p4148
I1
sS'handle'
p4149
I1
sS'bonds'
p4150
I7
sS'beat'
p4151
I6
sS'succeeded'
p4152
I1
sS'dfl1.88'
p4153
I1
sS'overall'
p4154
I4
sS'said.gasoline'
p4155
I1
sS'divisions'
p4156
I1
sS'120'
p4157
I3
sS'andjacco'
p4158
I1
sS'bean'
p4159
I1
sS'ones'
p4160
I2
sS'125'
p4161
I1
sS'checkpoints'
p4162
I1
sS'mgt'
p4163
I2
sS'150'
p4164
I2
sS'written'
p4165
I1
sS'chips'
p4166
I5
sS'suez'
p4167
I3
sS'areas'
p4168
I2
sS'year.outside'
p4169
I1
sS'shr'
p4170
I7
sS'6.625'
p4171
I1
sS'differential'
p4172
I1
sS'698.72'
p4173
I2
sS'tuned'
p4174
I2
sS'14-oguz'
p4175
I1
sS'processed'
p4176
I2
sS'frame'
p4177
I1
sS'said.business'
p4178
I1
sS'remainng'
p4179
I1
sS'rein'
p4180
I1
sS'rombouts'
p4181
I1
sS'gibson'
p4182
I1
sS'view'
p4183
I2
sS'slipsthrough'
p4184
I1
sS'europe'
p4185
I20
sS'shedding'
p4186
I2
sS'68.00'
p4187
I1
sS'acquired'
p4188
I2
sS'halving'
p4189
I1
sS'petrochemicals'
p4190
I1
sS'34.1'
p4191
I1
sS'operates'
p4192
I3
sS'p25'
p4193
I2
sS'p27'
p4194
I1
sS'computer'
p4195
I5
sS'enhanced'
p4196
I1
sS'greece'
p4197
I1
sS'operated'
p4198
I1
sS'freitag'
p4199
I1
sS'p29'
p4200
I1
sS'closes'
p4201
I2
sS'citicorp'
p4202
I1
sS'asks'
p4203
I1
sS'epic'
p4204
I1
sS'turks'
p4205
I4
sS'placed'
p4206
I1
sS'lux'
p4207
I1
sS'bias'
p4208
I1
sS'brunt'
p4209
I2
sS'initially'
p4210
I2
sS'state'
p4211
I4
sS'borsato'
p4212
I1
sS'vredenburg'
p4213
I2
sS'crude'
p4214
I8
sS'limit'
p4215
I2
sS'70.60'
p4216
I2
sS'treatment.ing'
p4217
I2
sS'aron'
p4218
I2
sS'bought'
p4219
I7
sS'publishers'
p4220
I3
sS'explosive'
p4221
I1
sS'opening'
p4222
I7
sS'importance'
p4223
I3
sS'joy'
p4224
I1
sS'court'
p4225
I1
sS'sum.brocatrade'
p4226
I1
sS'job'
p4227
I2
sS'takeover'
p4228
I2
sS'joe'
p4229
I1
sS'key'
p4230
I9
sS'police'
p4231
I15
sS'said.turkish'
p4232
I1
sS'rueckversicherungs'
p4233
I1
sS'nominations'
p4234
I1
sS'eltingh'
p4235
I1
sS'weeks'
p4236
I6
sS'limits'
p4237
I2
sS'hpm'
p4238
I1
sS'taking'
p4239
I7
sS'equal'
p4240
I1
sS'attributed'
p4241
I5
sS'agree'
p4242
I3
sS'temizkanoglu'
p4243
I2
sS'april'
p4244
I22
sS'eta'
p4245
I1
sS'figures'
p4246
I22
sS'trading.enrico'
p4247
I1
sS'hakker'
p4248
I2
sS'organisation'
p4249
I2
sS'jersey'
p4250
I2
sS'comment'
p4251
I4
sS'detailed'
p4252
I1
sS'adjusted'
p4253
I1
sS'jim'
p4254
I1
sS'facilities'
p4255
I1
sS'budgetary'
p4256
I1
sS'ambushed'
p4257
I1
sS'wall'
p4258
I14
sS'tuesday'
p4259
I24
sS'narrower'
p4260
I2
sS'cf'
p4261
I4
sS'environments'
p4262
I2
sS'walk'
p4263
I2
sS'amounted'
p4264
I2
sS'percent.three'
p4265
I1
sS'7658'
p4266
I2
sS'table'
p4267
I2
sS'details.the'
p4268
I1
sS'winning'
p4269
I1
sS'withdrawn'
p4270
I1
sS'600'
p4271
I1
sS'submissions'
p4272
I1
sS'8.3'
p4273
I2
sS'8.2'
p4274
I1
sS'8.5'
p4275
I2
sS'jam'
p4276
I1
sS'8.6'
p4277
I2
sS'addition'
p4278
I3
sS'hunters'
p4279
I2
sS'cent'
p4280
I2
sS'relying'
p4281
I2
sS'operator.onshore'
p4282
I1
sS'3.the'
p4283
I1
sS'733'
p4284
I1
sS'slowly'
p4285
I2
sS'bombing.in'
p4286
I1
sS'indicators'
p4287
I1
sS'upbeat'
p4288
I1
sS'recurring'
p4289
I1
sS'prices.driessen'
p4290
I1
sS'liquor.in'
p4291
I1
sS'nickel'
p4292
I2
sS'stationed'
p4293
I1
sS'cop'
p4294
I1
sS'465'
p4295
I1
sS'protect'
p4296
I1
sS'drama.source'
p4297
I1
sS'bulk'
p4298
I1
sS'policy'
p4299
I1
sS'boer.the'
p4300
I1
sS'shortfall'
p4301
I1
sS'laggards'
p4302
I2
sS'kicks'
p4303
I1
sS'fellow'
p4304
I1
sS'spain'
p4305
I2
sS'retracement'
p4306
I1
sS'homes'
p4307
I1
sS'7-8'
p4308
I1
sS'couple'
p4309
I3
sS'survey'
p4310
I1
sS'unlike'
p4311
I1
sS'clear.the'
p4312
I1
sS'7-2'
p4313
I1
sS'profitnote'
p4314
I1
sS'83.50'
p4315
I1
sS'value'
p4316
I5
sS'slow.last'
p4317
I1
sS'stunning'
p4318
I1
sS'exert'
p4319
I1
sS'foils.after'
p4320
I1
sS'owns'
p4321
I2
sS'balance'
p4322
I2
sS'outshone'
p4323
I1
sS'decides'
p4324
I1
sS'naeff'
p4325
I1
sS'voor'
p4326
I1
sS'said.mediterranean'
p4327
I1
sS'kafkas'
p4328
I1
sS'11-celil'
p4329
I1
sS'percent.individual'
p4330
I1
sS'9-day'
p4331
I1
sS'site'
p4332
I2
sS'pitt'
p4333
I1
sS'helped'
p4334
I1
sS'vs'
p4335
I76
sS'optimistic'
p4336
I6
sS'turns'
p4337
I1
sS'partner'
p4338
I1
sS'4.56'
p4339
I5
sS"a'damunited"
p4340
I1
sS'hofdames'
p4341
I1
sS'qualifier'
p4342
I3
sS'ransom'
p4343
I1
sS'moves'
p4344
I1
sS'productivity'
p4345
I1
sS'280'
p4346
I2
sS'sensitive'
p4347
I2
sS'newsroom'
p4348
I92
sS'began'
p4349
I3
sS'concealing'
p4350
I1
sS'cross'
p4351
I1
sS'proceeds'
p4352
I3
sS'member'
p4353
I4
sS'matthew'
p4354
I1
sS'112.5025'
p4355
I2
sS'largest'
p4356
I4
sS'inch'
p4357
I1
sS'games'
p4358
I3
sS'3.32'
p4359
I9
sS'said.afloat'
p4360
I1
sS'disc'
p4361
I1
sS'tighten'
p4362
I1
sS'ball'
p4363
I4
sS'government.the'
p4364
I1
sS'1.61'
p4365
I2
sS'quarterfinal'
p4366
I1
sS'1-0'
p4367
I5
sS'1-2'
p4368
I1
sS'effect'
p4369
I8
sS'forecasts'
p4370
I19
sS'newcall'
p4371
I1
sS'introduce'
p4372
I2
sS'fierce'
p4373
I2
sS'frequently'
p4374
I1
sS'0-level'
p4375
I1
sS'identity'
p4376
I2
sS'pull'
p4377
I1
sS'transaction'
p4378
I3
sS'reflection'
p4379
I3
sS'germany.dutch'
p4380
I1
sS'11,200.countering'
p4381
I1
sS'builder'
p4382
I3
sS'indonesia'
p4383
I2
sS'fever'
p4384
I1
sS'arenatickets'
p4385
I1
sS'utrecht'
p4386
I1
sS'sets'
p4387
I2
sS'1.23'
p4388
I1
sS'position'
p4389
I2
sS'1.21'
p4390
I1
sS'quadrophenia'
p4391
I1
sS'soviet'
p4392
I1
sS'1.25'
p4393
I2
sS'realised'
p4394
I3
sS'upgraded'
p4395
I1
sS'stores'
p4396
I9
sS'february.the'
p4397
I1
sS'rules.ing'
p4398
I2
sS'heavily'
p4399
I1
sS'increasingly'
p4400
I1
sS'museumeiland'
p4401
I1
sS'executive'
p4402
I6
sS'domestic'
p4403
I7
sS'levels.high'
p4404
I1
sS'sources'
p4405
I5
sS'mistakes'
p4406
I2
sS'26.7'
p4407
I2
sS'1997/98'
p4408
I2
sS'paul'
p4409
I4
sS'lately'
p4410
I2
sS'transportation'
p4411
I1
sS'happiness'
p4412
I1
sS'dead.the'
p4413
I1
sS'generous'
p4414
I1
sS'7,000'
p4415
I1
sS'tight'
p4416
I3
sS'alegria'
p4417
I2
sS'supply'
p4418
I2
sS'deposits'
p4419
I3
sS'capabilities'
p4420
I1
sS'killed'
p4421
I5
sS'gmt.the'
p4422
I1
sS'arrest'
p4423
I5
sS'add'
p4424
I2
sS'onwards'
p4425
I1
sS'combine'
p4426
I3
sS'beteiligungs'
p4427
I2
sS'usage'
p4428
I1
sS'week.tribesmen'
p4429
I1
sS'riverside'
p4430
I1
sS'villagers'
p4431
I3
sS'match'
p4432
I14
sS'gmt'
p4433
I6
sS'rabobank'
p4434
I8
sS'tests'
p4435
I3
sS'petrochemical'
p4436
I1
sS'data.players'
p4437
I1
sS'increased'
p4438
I9
sS'provisions'
p4439
I25
sS'government'
p4440
I12
sS'702.11'
p4441
I2
sS'masters'
p4442
I1
sS'3-jaap'
p4443
I1
sS'solvency'
p4444
I2
sS'increases'
p4445
I1
sS'plantjn'
p4446
I1
sS'know'
p4447
I6
sS'burden'
p4448
I2
sS'belgium'
p4449
I8
sS'racially'
p4450
I3
sS'69.30'
p4451
I2
sS'loss'
p4452
I25
sS'toppy'
p4453
I1
sS'iberia'
p4454
I1
sS'yewtaxan'
p4455
I2
sS'lost'
p4456
I11
sS'caland'
p4457
I1
sS'99.25/30'
p4458
I2
sS'sized'
p4459
I3
sS'17-pierre'
p4460
I1
sS'financieele'
p4461
I1
sS'roto'
p4462
I2
sS'paclitaxel'
p4463
I2
sS'praecipuum'
p4464
I2
sS'works'
p4465
I2
sS'soft'
p4466
I1
sS'italian'
p4467
I1
sS'parity'
p4468
I1
sS'indications'
p4469
I2
sS'stimulate'
p4470
I2
sS'arbitrage'
p4471
I1
sS'clusters'
p4472
I2
sS'classical'
p4473
I2
sS'terminal'
p4474
I2
sS'belonged'
p4475
I1
sS'gmt.kbb'
p4476
I1
sS'majeure'
p4477
I1
sS'24.1'
p4478
I1
sS'motive'
p4479
I2
sS'79.7notes'
p4480
I1
sS'emotions'
p4481
I1
sS'growth'
p4482
I44
sS'export'
p4483
I7
sS'113'
p4484
I1
sS'recommendation'
p4485
I1
sS'copra'
p4486
I6
sS'home'
p4487
I12
sS'1995.ing'
p4488
I1
sS'extravaganza.tickets'
p4489
I1
sS'employment'
p4490
I1
sS'scares'
p4491
I1
sS'transport'
p4492
I11
sS'kds'
p4493
I1
sS'francisco'
p4494
I1
sS'possibilities'
p4495
I1
sS'leaf'
p4496
I1
sS'charges'
p4497
I3
sS'lead'
p4498
I10
sS'kero'
p4499
I1
sS'0.25'
p4500
I2
sS'objected'
p4501
I1
sS'11.8'
p4502
I1
sS'0.20'
p4503
I1
sS'bleeder'
p4504
I1
sS'grinding'
p4505
I2
sS'telecommunications'
p4506
I1
sS'leap'
p4507
I2
sS'does'
p4508
I5
sS'sponsoring'
p4509
I1
sS'accuracy.financieele'
p4510
I3
sS'chains'
p4511
I2
sS'leader'
p4512
I4
sS'kidnappers'
p4513
I1
sS'slower'
p4514
I3
sS'truckers'
p4515
I1
sS'realise'
p4516
I2
sS'slight'
p4517
I3
sS'acronym'
p4518
I1
sS'fur'
p4519
I1
sS'massivesculptures'
p4520
I1
sS'analysed'
p4521
I2
sS'expansion'
p4522
I4
sS'27.3'
p4523
I1
sS'pressure'
p4524
I9
sS'3.80'
p4525
I3
sS'35,000'
p4526
I1
sS'27.5'
p4527
I1
sS'offset'
p4528
I2
sS'p33'
p4529
I4
sS'loans'
p4530
I1
sS'stage'
p4531
I2
sS'payout'
p4532
I1
sS'iris'
p4533
I6
sS'clearplan'
p4534
I1
sS"a'damphilippines"
p4535
I1
sS'reoffer'
p4536
I2
sS'carried'
p4537
I4
sS'getting'
p4538
I2
sS'25.9'
p4539
I1
sS'processors'
p4540
I3
sS'3.84'
p4541
I2
sS'stad'
p4542
I11
sS'shipping'
p4543
I2
sS'surge'
p4544
I3
sS'holdings'
p4545
I1
sS'seeds'
p4546
I1
sS'pumps'
p4547
I1
sS'recommandation'
p4548
I1
sS'75,800'
p4549
I1
sS'outstripped'
p4550
I1
sS'software'
p4551
I2
sS'equally'
p4552
I1
sS'alliance'
p4553
I1
sS'previously'
p4554
I7
sS'h1'
p4555
I1
sS'billions'
p4556
I12
sS'sachs'
p4557
I1
sS'cocoa'
p4558
I14
sS'tackle'
p4559
I2
sS'5.25'
p4560
I3
sS'weather'
p4561
I1
sS'registration'
p4562
I1
sS'roads'
p4563
I1
sS'midfielder'
p4564
I2
sS'additions'
p4565
I1
sS'alpay'
p4566
I3
sS'prompted'
p4567
I1
sS'hitting'
p4568
I1
sS'postal'
p4569
I1
sS'2.50'
p4570
I6
sS'van'
p4571
I36
sS'additional'
p4572
I7
sS'2.55'
p4573
I3
sS'assets.commission'
p4574
I1
sS'estate'
p4575
I2
sS'museum'
p4576
I3
sS'1-10-100'
p4577
I1
sS'100.10'
p4578
I1
sS'spots'
p4579
I1
sS'awarded'
p4580
I3
sS'intention'
p4581
I3
sS'solidify'
p4582
I1
sS'9.8'
p4583
I1
sS'millennium.asked'
p4584
I1
sS'level.technical'
p4585
I2
sS'trabzonspor'
p4586
I1
sS'itsekiri'
p4587
I1
sS'9.6'
p4588
I1
sS'11.5'
p4589
I1
sS'ivory'
p4590
I2
sS'buy'
p4591
I10
sS'north'
p4592
I3
sS'nederland'
p4593
I10
sS'insurer'
p4594
I6
sS'funds'
p4595
I3
sS'allocation'
p4596
I1
sS'changed.the'
p4597
I1
sS'aubuitlijn'
p4598
I1
sS'preparations'
p4599
I1
sS'volume'
p4600
I13
sS'neutral'
p4601
I4
sS'construction'
p4602
I4
sS'wealthier'
p4603
I1
sS'gain'
p4604
I6
sS'highest'
p4605
I1
sS'memphis'
p4606
I1
sS'guilders.dutch'
p4607
I1
sS'118'
p4608
I1
sS'challenges'
p4609
I2
sS'8/4'
p4610
I1
sS'airlines.ogden'
p4611
I1
sS'protesting'
p4612
I4
sS'official'
p4613
I2
sS'giessen'
p4614
I1
sS'record'
p4615
I9
sS'stories'
p4616
I10
sS'93/98'
p4617
I1
sS'picks'
p4618
I1
sS'problem'
p4619
I4
sS'piece'
p4620
I1
sS'minutes'
p4621
I1
sS'rutges'
p4622
I1
sS'sponsor'
p4623
I2
sS'bearing'
p4624
I1
sS'circus'
p4625
I2
sS'amsterdam.asiana'
p4626
I2
sS'twist'
p4627
I1
sS'eu'
p4628
I3
sS'lived'
p4629
I1
sS'rijksmuseum'
p4630
I1
sS'83'
p4631
I1
sS'flight'
p4632
I1
sS'commentators'
p4633
I1
sS'ing'
p4634
I83
sS'80'
p4635
I4
sS'compared'
p4636
I8
sS"r'dam"
p4637
I1
sS'dressed'
p4638
I1
sS'44'
p4639
I6
sS'45'
p4640
I2
sS'percent'
p4641
I189
sS'40'
p4642
I3
sS'41'
p4643
I1
sS'book'
p4644
I1
sS'special'
p4645
I7
sS'28.apr.97'
p4646
I1
sS'envisages'
p4647
I1
sS'swine'
p4648
I1
sS'wing'
p4649
I1
sS'necmettin'
p4650
I1
sS'prendergast'
p4651
I1
sS'repeat'
p4652
I2
sS'star'
p4653
I3
sS'dilution'
p4654
I1
sS'zhou'
p4655
I1
sS'ubs'
p4656
I2
sS'federatie'
p4657
I1
sS'3/4/97'
p4658
I1
sS'june'
p4659
I7
sS'outlets'
p4660
I1
sS'stay'
p4661
I5
sS'chance'
p4662
I3
sS'29.9'
p4663
I1
sS'riskswere'
p4664
I1
sS'jackson'
p4665
I1
sS'stam'
p4666
I2
sS'4.25'
p4667
I1
sS'1-edwin'
p4668
I1
sS'fundamentally'
p4669
I1
sS'philips'
p4670
I29
sS'peak.onshore'
p4671
I1
sS'joop'
p4672
I2
sS'focused'
p4673
I1
sS'oguz'
p4674
I1
sS'space'
p4675
I2
sS'guilders.czepliewicz'
p4676
I1
sS'rule'
p4677
I1
sS'compete'
p4678
I2
sS'pension'
p4679
I1
sS'13break-down'
p4680
I1
sS'searched'
p4681
I1
sS'reached'
p4682
I4
sS'tonnes'
p4683
I23
sS'kista'
p4684
I2
sS'fans.ecstatic'
p4685
I1
s.