(dp0
S'limited'
p1
I6
sS'precondition'
p2
I2
sS'consider'
p3
I2
sS'chinese'
p4
I1
sS'nurseries'
p5
I4
sS'caused'
p6
I3
sS'relieve'
p7
I1
sS'month'
p8
I4
sS'floods.the'
p9
I1
sS'nursery'
p10
I2
sS'broader'
p11
I1
sS'talks'
p12
I21
sS'follow'
p13
I1
sS'compares'
p14
I1
sS'religious'
p15
I4
sS'children'
p16
I18
sS'cupboards'
p17
I2
sS'1.12'
p18
I2
sS'catastrophe'
p19
I1
sS'95'
p20
I2
sS'pledged'
p21
I2
sS'stave'
p22
I2
sS'young'
p23
I4
sS'thursday'
p24
I5
sS'realities'
p25
I2
sS'grounds.south'
p26
I1
sS'citing'
p27
I1
sS'program'
p28
I6
sS'supplies'
p29
I1
sS'suffered'
p30
I1
sS'include'
p31
I2
sS'worth'
p32
I7
sS'sent'
p33
I1
sS'lure'
p34
I4
sS'protective'
p35
I1
sS'federation'
p36
I1
sS'far'
p37
I4
sS'saved'
p38
I1
sS'join'
p39
I3
sS'continued'
p40
I1
sS'condition'
p41
I2
sS'governments'
p42
I2
sS'school'
p43
I1
sS'geun'
p44
I2
sS'called'
p45
I2
sS'did'
p46
I1
sS'issue'
p47
I2
sS'philippines'
p48
I4
sS'rights'
p49
I2
sS'michael'
p50
I2
sS'wednesday'
p51
I4
sS'large'
p52
I8
sS'caseload'
p53
I2
sS'week.state'
p54
I1
sS'team'
p55
I4
sS'small'
p56
I2
sS'shipped'
p57
I1
sS'inspection'
p58
I4
sS'added'
p59
I2
sS'programme'
p60
I10
sS'says'
p61
I1
sS'leaders'
p62
I2
sS'tired'
p63
I1
sS'bleeding'
p64
I3
sS'catch.asked'
p65
I1
sS'japanese'
p66
I1
sS'crop'
p67
I2
sS'sign'
p68
I4
sS'past'
p69
I1
sS'york.washington'
p70
I1
sS'second'
p71
I4
sS'video'
p72
I2
sS'crescent'
p73
I1
sS'eating'
p74
I3
sS'port'
p75
I1
sS'quite'
p76
I3
sS'defence'
p77
I1
sS'blankly'
p78
I1
sS'asia'
p79
I2
sS'milk'
p80
I2
sS'spokesman'
p81
I6
sS'manila.but'
p82
I1
sS'international'
p83
I5
sS'appeal'
p84
I13
sS'exercise'
p85
I1
sS'told'
p86
I10
sS'body'
p87
I2
sS'million'
p88
I35
sS'lee'
p89
I2
sS'jointly'
p90
I3
sS'defector'
p91
I1
sS'met'
p92
I2
sS'let'
p93
I1
sS'groups'
p94
I8
sS'situation'
p95
I3
sS"hadn't"
p96
I1
sS'100'
p97
I4
sS"aren't"
p98
I1
sS'teacher'
p99
I1
sS'said.unless'
p100
I1
sS'boy'
p101
I1
sS'northern'
p102
I5
sS'stalks'
p103
I2
sS'leaves'
p104
I6
sS'30'
p105
I2
sS'reports'
p106
I1
sS'leaving'
p107
I1
sS'stomachs'
p108
I2
sS'military'
p109
I7
sS'airbase'
p110
I1
sS'occur.bertini'
p111
I1
sS'corrects'
p112
I1
sS'ago'
p113
I1
sS'clark'
p114
I1
sS'extra'
p115
I2
sS'marginal'
p116
I2
sS'famine.pyongyang'
p117
I2
sS'chaired'
p118
I1
sS'private'
p119
I7
sS'replace'
p120
I6
sS'seaports'
p121
I1
sS'aimed'
p122
I5
sS'trained'
p123
I1
sS'pyongyang'
p124
I17
sS'total'
p125
I3
sS'crisis'
p126
I1
sS'discuss'
p127
I1
sS'use'
p128
I1
sS'troops'
p129
I1
sS'working'
p130
I1
sS'prove'
p131
I1
sS'visit'
p132
I2
sS'variously'
p133
I1
sS'politicized'
p134
I2
sS'6'
p135
I3
sS'strike'
p136
I1
sS'15-18'
p137
I2
sS'assessment'
p138
I1
sS'tell'
p139
I3
sS'slaughtered'
p140
I3
sS'journalists'
p141
I1
sS'41.6'
p142
I1
sS'acceptable'
p143
I1
sS'apparent'
p144
I3
sS'aware'
p145
I2
sS'meant'
p146
I1
sS'particular'
p147
I1
sS'tearing'
p148
I2
sS'effort'
p149
I2
sS'1995'
p150
I5
sS'1996'
p151
I2
sS'tunnel'
p152
I1
sS'thousands'
p153
I2
sS'occur.she'
p154
I1
sS'remain'
p155
I1
sS'growing'
p156
I2
sS'totalled'
p157
I1
sS'arrive'
p158
I1
sS'beijing'
p159
I1
sS'friday.it'
p160
I1
sS'indicated'
p161
I1
sS'process'
p162
I1
sS'december'
p163
I1
sS'allowed'
p164
I3
sS'days'
p165
I2
sS'states'
p166
I5
sS'tinted'
p167
I2
sS'o'
p168
I1
sS'sense'
p169
I1
sS'said.previously'
p170
I1
sS'worse'
p171
I3
sS'united'
p172
I9
sS'end'
p173
I2
sS'fortunately'
p174
I1
sS'imminent'
p175
I1
sS'breaking'
p176
I2
sS'length'
p177
I1
sS'1'
p178
I11
sS'symposium'
p179
I1
sS'agricultural'
p180
I2
sS'seoul'
p181
I21
sS'farm'
p182
I2
sS'earlier'
p183
I3
sS'southern'
p184
I5
sS'demanding'
p185
I1
sS'rations'
p186
I4
sS'malnourished'
p187
I2
sS'coming'
p188
I1
sS'president'
p189
I9
sS'appealed'
p190
I2
sS'coast'
p191
I1
sS'response'
p192
I1
sS'short'
p193
I3
sS'natural'
p194
I1
sS'coax'
p195
I1
sS'light'
p196
I1
sS'departure'
p197
I1
sS'complaining'
p198
I2
sS'provide'
p199
I1
sS'chief'
p200
I1
sS'agenda'
p201
I1
sS'suggest'
p202
I2
sS'truce'
p203
I3
sS'granted'
p204
I2
sS'inspectors'
p205
I4
sS'help'
p206
I1
sS'welcomed'
p207
I1
sS'soon'
p208
I4
sS'years'
p209
I6
sS'stability'
p210
I2
sS'held'
p211
I1
sS'signs'
p212
I4
sS'japan'
p213
I1
sS'roots'
p214
I3
sS'level'
p215
I2
sS'ideologue'
p216
I1
sS'supplemented'
p217
I2
sS'rapidly'
p218
I3
sS'consumption.the'
p219
I1
sS'23'
p220
I2
sS'send'
p221
I6
sS'grain.yasuo'
p222
I1
sS'comprises'
p223
I2
sS'actually'
p224
I2
sS'kindergarten'
p225
I2
sS'complex'
p226
I1
sS'orange'
p227
I2
sS'weeks'
p228
I2
sS'societies'
p229
I1
sS'koreans'
p230
I7
sS'non'
p231
I4
sS'widely'
p232
I3
sS'food'
p233
I63
sS'said.he'
p234
I3
sS'safe'
p235
I1
sS'detour'
p236
I1
sS'nation'
p237
I3
sS"i've"
p238
I2
sS'war.seoul'
p239
I2
sS'ingesting'
p240
I2
sS'schools'
p241
I1
sS'insisting'
p242
I2
sS'day'
p243
I9
sS'group'
p244
I1
sS'prize'
p245
I1
sS'defected'
p246
I1
sS'airports'
p247
I1
sS'meat'
p248
I2
sS'coping'
p249
I1
sS'warned'
p250
I1
sS'countries'
p251
I1
sS'filling'
p252
I2
sS'shortage'
p253
I2
sS'lasting'
p254
I2
sS'lifted'
p255
I3
sS'states.the'
p256
I3
sS'doing'
p257
I2
sS'fish'
p258
I4
sS'related'
p259
I1
sS'hitmen'
p260
I1
sS'said.bertini'
p261
I4
sS'fires'
p262
I1
sS'turnip'
p263
I2
sS'yield'
p264
I1
sS'year'
p265
I6
sS'gazes.bertini'
p266
I1
sS'naming'
p267
I1
sS'programmes'
p268
I4
sS'saturday'
p269
I2
sS'intended'
p270
I1
sS'leave'
p271
I1
sS'2.32'
p272
I1
sS'rival'
p273
I1
sS'increase'
p274
I4
sS'unrelated'
p275
I1
sS'shipment'
p276
I8
sS'evacuation'
p277
I1
sS'1950-53'
p278
I5
sS'current'
p279
I1
sS'receiving'
p280
I1
sS'war.north'
p281
I2
sS'red'
p282
I21
sS'informed'
p283
I1
sS"you're"
p284
I2
sS'indignity'
p285
I1
sS'friday'
p286
I4
sS'mechanisms'
p287
I2
sS'grain.the'
p288
I1
sS'attending'
p289
I1
sS'completely'
p290
I1
sS'ramos'
p291
I1
sS'york'
p292
I2
sS'training'
p293
I1
sS'ate'
p294
I1
sS'ministry'
p295
I4
sS'grasses'
p296
I1
sS'240,000'
p297
I1
sS'conducted'
p298
I2
sS'massive'
p299
I5
sS'target'
p300
I1
sS'stalinist'
p301
I3
sS'blackout'
p302
I1
sS'think'
p303
I2
sS'south'
p304
I34
sS'feed'
p305
I5
sS'request.on'
p306
I1
sS'industrial'
p307
I1
sS'kim'
p308
I4
sS'surviving'
p309
I2
sS'symbolic'
p310
I1
sS'number'
p311
I1
sS'blank'
p312
I1
sS'nutritionist'
p313
I1
sS'reached'
p314
I2
sS'cabbage'
p315
I2
sS'pledge'
p316
I2
sS'city'
p317
I1
sS'given'
p318
I7
sS'make'
p319
I2
sS'needed'
p320
I2
sS'statement'
p321
I5
sS'north.previously'
p322
I1
sS'bitter'
p323
I1
sS'national'
p324
I5
sS'18'
p325
I1
sS'said.the'
p326
I1
sS'eyes'
p327
I1
sS'stomach'
p328
I2
sS'pains'
p329
I2
sS'geneva'
p330
I1
sS'completed'
p331
I1
sS'serve'
p332
I1
sS'probably'
p333
I2
sS'haven'
p334
I1
sS'population'
p335
I4
sS'10'
p336
I5
sS'kind'
p337
I1
sS'decided'
p338
I2
sS'warfare'
p339
I1
sS'showed'
p340
I5
sS'things'
p341
I2
sS'grammes'
p342
I2
sS'bloated'
p343
I2
sS'tree'
p344
I5
sS'nations'
p345
I1
sS'spirited'
p346
I1
sS'individual'
p347
I2
sS'breadbasket'
p348
I2
sS'briefing'
p349
I1
sS'visited'
p350
I6
sS'providing'
p351
I4
sS'dried'
p352
I4
sS'talks.seoul'
p353
I1
sS'1.5'
p354
I1
sS'camouflaged'
p355
I1
sS'sam'
p356
I4
sS'exert'
p357
I1
sS'organisations'
p358
I4
sS'defect'
p359
I1
sS'discussions'
p360
I1
sS'say'
p361
I2
sS'substantial'
p362
I5
sS'defending'
p363
I1
sS'seen'
p364
I4
sS'aged'
p365
I2
sS'saw'
p366
I5
sS'collapse'
p367
I1
sS'mountain'
p368
I1
sS'inspections'
p369
I2
sS'koreas'
p370
I6
sS'trip'
p371
I4
sS'agency'
p372
I2
sS'able'
p373
I2
sS'internal'
p374
I3
sS'applauded'
p375
I1
sS'1,650'
p376
I2
sS'new'
p377
I5
sS'korean'
p378
I33
sS'subject'
p379
I2
sS'600,000'
p380
I1
sS'channel'
p381
I1
sS'26.the'
p382
I1
sS'shipments'
p383
I5
sS'begin'
p384
I2
sS'sure'
p385
I1
sS'unless'
p386
I1
sS'korea.famine'
p387
I1
sS'fidel'
p388
I1
sS'looming'
p389
I2
sS'boiling'
p390
I2
sS'hideway'
p391
I1
sS'73'
p392
I1
sS'exercises'
p393
I1
sS'hoped'
p394
I2
sS'extremely'
p395
I2
sS'peninsula'
p396
I1
sS'grams'
p397
I2
sS'goodwill'
p398
I3
sS'considered'
p399
I1
sS'clear'
p400
I1
sS'ramos.asked'
p401
I1
sS'hungry'
p402
I2
sS'face'
p403
I1
sS'looked'
p404
I3
sS'agencies'
p405
I1
sS'accounted'
p406
I2
sS'senior'
p407
I1
sS'left'
p408
I3
sS'joining'
p409
I2
sS'saying'
p410
I1
sS'two.the'
p411
I2
sS'agreed'
p412
I1
sS'kwon'
p413
I2
sS'bring'
p414
I1
sS'agrees'
p415
I3
sS'ground'
p416
I4
sS'rice.bertini'
p417
I1
sS'access'
p418
I2
sS'based'
p419
I1
sS'proposed'
p420
I6
sS'securing'
p421
I5
sS'outside'
p422
I1
sS'humanitarian'
p423
I2
sS'failed'
p424
I1
sS'going'
p425
I4
sS'announce'
p426
I1
sS'rice'
p427
I24
sS'local'
p428
I4
sS'hope'
p429
I2
sS'tonnes.schaar'
p430
I1
sS'countries.seoul'
p431
I1
sS'devastating'
p432
I1
sS'korea.catherine'
p433
I1
sS'banned'
p434
I2
sS'13'
p435
I1
sS'trees'
p436
I2
sS'toddlers'
p437
I2
sS'nearly'
p438
I1
sS'reporters'
p439
I2
sS'report'
p440
I6
sS'interpreted'
p441
I1
sS'areas'
p442
I3
sS'nicholas'
p443
I2
sS'ended'
p444
I6
sS'floods'
p445
I3
sS'doubled'
p446
I2
sS'bay'
p447
I1
sS'war.the'
p448
I1
sS'double'
p449
I5
sS'ban'
p450
I4
sS'beijing.seoul'
p451
I1
sS'secretary'
p452
I1
sS'strengthened'
p453
I1
sS'declared'
p454
I1
sS'disaster'
p455
I2
sS'diplomatic'
p456
I1
sS'usual.north'
p457
I1
sS'famine'
p458
I3
sS'shaar'
p459
I1
sS'officials'
p460
I12
sS'bare'
p461
I1
sS'result'
p462
I2
sS'cattle'
p463
I2
sS'2.3'
p464
I4
sS'bark'
p465
I7
sS'schaar'
p466
I2
sS'2.6'
p467
I2
sS'2.5'
p468
I1
sS'pyongsan'
p469
I2
sS'danger'
p470
I1
sS'said'
p471
I59
sS'visiting'
p472
I1
sS'tuesday.it'
p473
I2
sS'apparently'
p474
I3
sS'away'
p475
I1
sS'whereabouts'
p476
I1
sS'state'
p477
I4
sS'won'
p478
I4
sS'closed'
p479
I2
sS'routine'
p480
I1
sS'consecutive'
p481
I3
sS'arrival'
p482
I1
sS'korea'
p483
I49
sS'recently'
p484
I6
sS'nationwide'
p485
I1
sS'announcement'
p486
I1
sS'may.international'
p487
I1
sS'weak'
p488
I3
sS'26'
p489
I1
sS'rice.she'
p490
I1
sS'embarrassment'
p491
I1
sS'spare'
p492
I1
sS'news'
p493
I4
sS'killing'
p494
I2
sS'come'
p495
I2
sS'staring'
p496
I1
sS'irregular'
p497
I2
sS'reported'
p498
I1
sS'country'
p499
I13
sS'region'
p500
I1
sS'agree'
p501
I1
sS'april'
p502
I5
sS's'
p503
I2
sS'kitchens'
p504
I4
sS'grain'
p505
I5
sS'planned'
p506
I3
sS'faces'
p507
I1
sS'china'
p508
I8
sS'bertini'
p509
I4
sS'hwang'
p510
I13
sS'asked'
p511
I3
sS'comes'
p512
I1
sS'guts'
p513
I2
sS'point'
p514
I3
sS'sweet'
p515
I2
sS'tuesday'
p516
I4
sS'unpa'
p517
I2
sS'insist'
p518
I3
sS'peninsula.state'
p519
I1
sS'maintained'
p520
I1
sS'said.on'
p521
I1
sS'approval'
p522
I2
sS'250'
p523
I1
sS'november'
p524
I2
sS'expensive'
p525
I2
sS'conference'
p526
I1
sS'late'
p527
I2
sS'unusual'
p528
I1
sS'west'
p529
I1
sS'1.3'
p530
I1
sS'million.the'
p531
I3
sS'secret'
p532
I1
sS'permanent'
p533
I1
sS'truce.at'
p534
I1
sS'expected'
p535
I3
sS'proposal'
p536
I5
sS'assassinated'
p537
I1
sS'meeting'
p538
I6
sS'armistice'
p539
I2
sS'talks.separately'
p540
I1
sS'shortages'
p541
I1
sS'philippine'
p542
I1
sS'offered'
p543
I1
sS'lift'
p544
I1
sS'shortfall'
p545
I2
sS'minister'
p546
I1
sS'catch'
p547
I1
sS'suspected'
p548
I1
sS'evidence'
p549
I2
sS'consulate'
p550
I1
sS'diverted'
p551
I4
sS'homes'
p552
I2
sS'impoverished'
p553
I6
sS'look'
p554
I1
sS'straight'
p555
I2
sS'freeport'
p556
I1
sS'value'
p557
I2
sS'air'
p558
I1
sS'aim'
p559
I1
sS'seed'
p560
I5
sS'pressed'
p561
I1
sS'aid'
p562
I40
sS'wfp'
p563
I6
sS'gave'
p564
I1
sS'taking'
p565
I1
sS'launched'
p566
I4
sS'seven'
p567
I1
sS'dwindled.in'
p568
I2
sS'metric'
p569
I6
sS'1995.shaar'
p570
I1
sS'said.tanaka'
p571
I1
sS'heels'
p572
I1
sS'march'
p573
I8
sS'protein'
p574
I2
sS'confirmed'
p575
I1
sS'diets'
p576
I2
sS'seek'
p577
I1
sS'began'
p578
I3
sS'cross'
p579
I20
sS'11.2'
p580
I2
sS'surveillance'
p581
I1
sS'member'
p582
I2
sS'matches'
p583
I1
sS'strange'
p584
I1
sS'babies'
p585
I2
sS'largest'
p586
I4
sS'vegetable'
p587
I8
sS'week'
p588
I9
sS'used'
p589
I2
sS'raid'
p590
I1
sS'hideaway'
p591
I1
sS'kindergartens'
p592
I2
sS'alert'
p593
I1
sS'director'
p594
I2
sS'flown'
p595
I1
sS'arrived'
p596
I3
sS'rinsan'
p597
I2
sS'harm'
p598
I1
sS'highly'
p599
I2
sS'contribution'
p600
I1
sS'kie'
p601
I1
sS'recent'
p602
I2
sS'fearing'
p603
I1
sS'gestures'
p604
I3
sS'shortly'
p605
I1
sS'try'
p606
I1
sS'request.the'
p607
I1
sS'spent'
p608
I1
sS'stunted'
p609
I2
sS'severe'
p610
I1
sS'relief'
p611
I4
sS'entry'
p612
I1
sS'johan'
p613
I1
sS'latest'
p614
I3
sS'summer'
p615
I2
sS'stake'
p616
I1
sS'stores'
p617
I2
sS'livestock'
p618
I1
sS'just'
p619
I2
sS'money'
p620
I2
sS'executive'
p621
I2
sS'siazon'
p622
I6
sS'declined'
p623
I1
sS'human'
p624
I5
sS'ounces'
p625
I4
sS'yes'
p626
I1
sS'adding'
p627
I4
sS'death'
p628
I2
sS'percent'
p629
I1
sS'exclusively'
p630
I2
sS'killed'
p631
I1
sS'source'
p632
I2
sS'potential'
p633
I2
sS'location'
p634
I1
sS'republic'
p635
I1
sS'save'
p636
I2
sS'transit'
p637
I1
sS'ross'
p638
I12
sS'scheduled'
p639
I2
sS'starving'
p640
I2
sS'victims'
p641
I1
sS'emergency'
p642
I2
sS'government'
p643
I9
sS'bid'
p644
I3
sS'possible'
p645
I2
sS'fact.pyongyang'
p646
I1
sS'suffering'
p647
I1
sS'unification'
p648
I3
sS'know'
p649
I1
sS'supervise'
p650
I1
sS'world'
p651
I8
sS'burns'
p652
I2
sS'divert'
p653
I1
sS'ruled'
p654
I3
sS'necessary'
p655
I1
sS'like'
p656
I2
sS'future'
p657
I1
sS'tons'
p658
I8
sS'surpluses'
p659
I2
sS'officer'
p660
I1
sS'malnutrition'
p661
I4
sS'potatoes'
p662
I2
sS'starvation'
p663
I8
sS'month.foreign'
p664
I1
sS'right'
p665
I1
sS'old'
p666
I4
sS'deal'
p667
I3
sS'people'
p668
I7
sS'footage'
p669
I2
sS'occasions.lee'
p670
I1
sS'pacific'
p671
I1
sS'calling'
p672
I1
sS'hair'
p673
I2
sS'urgent'
p674
I3
sS'3.5'
p675
I4
sS'statistic'
p676
I1
sS'5'
p677
I1
sS'provided'
p678
I2
sS'scale'
p679
I11
sS'confirm'
p680
I2
sS'decision'
p681
I3
sS'normal'
p682
I1
sS'continue'
p683
I2
sS'custody'
p684
I1
sS'participants.but'
p685
I1
sS'considering'
p686
I2
sS'run'
p687
I3
sS'business'
p688
I2
sS'manila'
p689
I4
sS'military.the'
p690
I1
sS'subic'
p691
I1
sS'fed'
p692
I1
sS'pressure'
p693
I1
sS'step'
p694
I1
sS'bark.bertini'
p695
I1
sS'counties'
p696
I4
sS'proceed'
p697
I2
sS'filipino'
p698
I1
sS'getting'
p699
I1
sS'dollars'
p700
I1
sS'citizens'
p701
I1
sS'discussed'
p702
I3
sS'urged'
p703
I1
sS'stricken'
p704
I1
sS'seeds'
p705
I3
sS'plus'
p706
I2
sS'afternoon'
p707
I1
sS'raised'
p708
I2
sS'clinton'
p709
I4
sS'civic'
p710
I2
sS'previously'
p711
I2
sS'political'
p712
I5
sS'892.80'
p713
I1
sS'washington'
p714
I4
sS'commitment'
p715
I1
sS'billions'
p716
I1
sS'tanaka'
p717
I2
sS'bowlful.people'
p718
I2
sS'technically'
p719
I3
sS'maize'
p720
I4
sS'additional'
p721
I2
sS'baguio'
p722
I1
sS'vegetables'
p723
I1
sS'support'
p724
I1
sS'long'
p725
I1
sS'remained'
p726
I1
sS'way'
p727
I4
sS'powdered'
p728
I2
sS'jang'
p729
I1
sS'sections'
p730
I2
sS'war'
p731
I3
sS'searches'
p732
I1
sS'head'
p733
I1
sS'buy'
p734
I2
sS'north'
p735
I59
sS'offer'
p736
I1
sS'funds'
p737
I2
sS'differences'
p738
I1
sS'immigration'
p739
I1
sS'cabinet'
p740
I1
sS'delivery'
p741
I3
sS'taken'
p742
I1
sS'economic'
p743
I1
sS'survived'
p744
I2
sS'role'
p745
I1
sS'directed'
p746
I2
sS"they're"
p747
I4
sS'dozens'
p748
I1
sS'markets'
p749
I2
sS'official'
p750
I6
sS'drills'
p751
I1
sS'coneference'
p752
I1
sS'redress'
p753
I1
sS'accustomed'
p754
I1
sS'200,000'
p755
I4
sS'grass'
p756
I2
sS'propaganda'
p757
I1
sS'said.hwang'
p758
I1
sS'table.ross'
p759
I2
sS'said.in'
p760
I4
sS'required'
p761
I2
sS'limbs.she'
p762
I2
sS'deaths'
p763
I2
sS'supplies.catherine'
p764
I1
sS'contribute'
p765
I1
sS'general'
p766
I2
sS'warning'
p767
I1
sS'harvest'
p768
I1
sS'ship'
p769
I4
sS'treaty'
p770
I3
sS'hospitals'
p771
I2
sS'girl'
p772
I1
sS'corncobs'
p773
I2
sS'asylum.the'
p774
I1
sS'peace'
p775
I14
sS'fears'
p776
I5
sS'scrape'
p777
I3
sS'41'
p778
I3
sS'flood'
p779
I1
sS'jong'
p780
I2
sS'details'
p781
I1
sS'holding'
p782
I1
sS'toured'
p783
I3
sS'department'
p784
I2
sS'yop'
p785
I1
sS'poor'
p786
I2
sS'monday'
p787
I5
sS'living'
p788
I2
sS'problems'
p789
I1
sS'visits'
p790
I2
sS'stay'
p791
I3
sS'important'
p792
I1
sS'preconditions'
p793
I1
sS'allowing'
p794
I1
sS'formal'
p795
I1
sS'stocks'
p796
I3
sS'died'
p797
I2
sS'billion'
p798
I3
sS'shipping'
p799
I2
sS'assassins'
p800
I1
sS'domingo'
p801
I1
sS'using'
p802
I1
sS'potato'
p803
I2
sS'conference.in'
p804
I1
sS'populace'
p805
I2
sS'having'
p806
I1
sS'cooked'
p807
I1
sS'stripping'
p808
I2
sS'time'
p809
I1
sS'tonnes'
p810
I16
sS'original'
p811
I3
s.