(dp0
S'1.5'
p1
I1
sS'59521'
p2
I1
sS'1.9'
p3
I1
sS'month'
p4
I1
sS'7.6'
p5
I1
sS'year'
p6
I1
sS'44-4527'
p7
I1
sS'2.5'
p8
I1
sS'jose'
p9
I1
sS'said'
p10
I1
sS'8.6'
p11
I1
sS'percent.annual'
p12
I1
sS'percent'
p13
I5
sS'11.1'
p14
I1
sS'amarilla'
p15
I1
sS'march'
p16
I3
sS'tuesday.inflation'
p17
I1
sS'inflation'
p18
I2
sS'paraguayan'
p19
I1
sS'asuncion'
p20
I1
sS'bank'
p21
I1
sS'maria'
p22
I1
sS'february'
p23
I2
sS'central'
p24
I1
sS'1996'
p25
I1
sS'newsroom'
p26
I1
s.