(dp0
S'pardon'
p1
I1
sS'1,775'
p2
I1
sS'foul'
p3
I1
sS'facilities'
p4
I1
sS'asian'
p5
I1
sS'consists'
p6
I1
sS'cyprus'
p7
I2
sS'1.16'
p8
I1
sS'1.14'
p9
I1
sS'pedro'
p10
I1
sS'1.12'
p11
I1
sS'calculate'
p12
I1
sS'granting'
p13
I1
sS'electricity'
p14
I1
sS'193.044'
p15
I1
sS'james'
p16
I1
sS'voted'
p17
I3
sS'sway'
p18
I1
sS'legislators'
p19
I3
sS'eirl'
p20
I1
sS'rise'
p21
I5
sS'affect'
p22
I1
sS'15.77'
p23
I1
sS'thursday.public'
p24
I1
sS'companies'
p25
I4
sS'solution'
p26
I4
sS'leaders'
p27
I2
sS'tired'
p28
I1
sS'estimates'
p29
I2
sS'japanese'
p30
I4
sS'feasibility'
p31
I1
sS'second'
p32
I5
sS'street'
p33
I2
sS'shining'
p34
I1
sS'blue'
p35
I5
sS'spokesman'
p36
I2
sS'petro'
p37
I1
sS'new'
p38
I12
sS'net'
p39
I4
sS'told'
p40
I5
sS'104-day'
p41
I1
sS'reliably'
p42
I1
sS'men'
p43
I2
sS'hundreds'
p44
I2
sS'met'
p45
I1
sS'protection'
p46
I2
sS'china'
p47
I1
sS'aid'
p48
I1
sS'represented'
p49
I1
sS'5.802'
p50
I1
sS'100'
p51
I5
sS'105'
p52
I1
sS'years.shougang'
p53
I1
sS'daughter'
p54
I3
sS'0.38'
p55
I1
sS'1.85'
p56
I1
sS'0.34'
p57
I2
sS'envoy'
p58
I1
sS'0.32'
p59
I1
sS'reports'
p60
I1
sS'credit'
p61
I1
sS'military'
p62
I2
sS'walkie'
p63
I1
sS'settled'
p64
I1
sS'year.gdp'
p65
I1
sS'julio'
p66
I1
sS'seven'
p67
I4
sS'charges.pro'
p68
I1
sS'soles.notes'
p69
I1
sS'patience'
p70
I1
sS'agurto'
p71
I1
sS'moran'
p72
I2
sS'total'
p73
I11
sS'unit'
p74
I1
sS'opponents'
p75
I1
sS'smelter'
p76
I3
sS'arms'
p77
I2
sS'1930s'
p78
I1
sS'friday.ingrid'
p79
I1
sS'raids'
p80
I1
sS'strike'
p81
I1
sS'type'
p82
I1
sS'morococha'
p83
I4
sS'holy'
p84
I1
sS'hurt'
p85
I1
sS'91'
p86
I1
sS'90'
p87
I2
sS'hold'
p88
I1
sS'said.peru'
p89
I1
sS'1990'
p90
I1
sS'1993'
p91
I1
sS'1992'
p92
I3
sS'1995'
p93
I3
sS'room'
p94
I1
sS'1997'
p95
I9
sS'rights'
p96
I2
sS'1999'
p97
I2
sS'1998'
p98
I2
sS'plunged'
p99
I1
sS'revenues'
p100
I1
sS'currency'
p101
I2
sS'want'
p102
I2
sS'118,270'
p103
I1
sS'end'
p104
I7
sS'returning'
p105
I1
sS'feature'
p106
I1
sS'interview'
p107
I1
sS'66.336'
p108
I1
sS'undergoing'
p109
I1
sS'customs'
p110
I5
sS'511'
p111
I22
sS'lay'
p112
I2
sS'president'
p113
I5
sS'law'
p114
I12
sS'parallel'
p115
I1
sS'stronghold'
p116
I1
sS'paid.the'
p117
I1
sS'jungle'
p118
I5
sS'operate'
p119
I1
sS'operations'
p120
I1
sS'office'
p121
I1
sS'6.4'
p122
I2
sS'12.6'
p123
I1
sS'japan'
p124
I1
sS'10.2'
p125
I1
sS'10.5'
p126
I1
sS'personal'
p127
I1
sS'expectations'
p128
I1
sS'better'
p129
I2
sS'production'
p130
I6
sS'400'
p131
I1
sS'weeks'
p132
I2
sS'overcome'
p133
I1
sS'versus'
p134
I2
sS'said.stocks'
p135
I1
sS'affected'
p136
I1
sS'tourist'
p137
I1
sS'combination'
p138
I1
sS'marcial'
p139
I1
sS'safe'
p140
I1
sS'bouts'
p141
I1
sS'1,664.91'
p142
I1
sS'silver'
p143
I1
sS'bank'
p144
I20
sS'1.03'
p145
I1
sS'1.04'
p146
I1
sS'victory'
p147
I1
sS'went'
p148
I2
sS'adobe'
p149
I1
sS'wednesday'
p150
I3
sS'carry'
p151
I1
sS'trading'
p152
I1
sS'decree'
p153
I4
sS'mason'
p154
I2
sS'revolving'
p155
I1
sS'2005-09'
p156
I1
sS'eternal'
p157
I1
sS'revenge'
p158
I2
sS'free'
p159
I4
sS'245'
p160
I1
sS'struggle'
p161
I2
sS'estimate'
p162
I1
sS'wanted'
p163
I1
sS'249'
p164
I1
sS'piecemeal'
p165
I1
sS'days'
p166
I5
sS'105,700'
p167
I1
sS'fujimori'
p168
I11
sS'reuters.women'
p169
I1
sS'170'
p170
I1
sS'agriculture'
p171
I1
sS'confectionery'
p172
I1
sS'service'
p173
I4
sS'0.01'
p174
I1
sS'cerpa'
p175
I3
sS'0.04'
p176
I1
sS'0.05'
p177
I1
sS'rates'
p178
I2
sS'percentage'
p179
I2
sS'took'
p180
I4
sS'direct'
p181
I2
sS'shortly'
p182
I1
sS'sulphur'
p183
I1
sS'showed'
p184
I1
sS'soonest'
p185
I1
sS'hike'
p186
I2
sS'negotiator'
p187
I1
sS'project'
p188
I2
sS'20.471'
p189
I1
sS'persuade'
p190
I1
sS'iron'
p191
I4
sS'bidder'
p192
I1
sS'minus'
p193
I4
sS'palace'
p194
I2
sS'seen'
p195
I1
sS'unaffected'
p196
I1
sS'seek'
p197
I1
sS'circles'
p198
I1
sS'nuevos'
p199
I1
sS'impurities'
p200
I1
sS'involving'
p201
I1
sS'maria'
p202
I2
sS'points'
p203
I6
sS'tech'
p204
I1
sS'consumer'
p205
I1
sS'dow'
p206
I2
sS'reserve'
p207
I7
sS'saying'
p208
I1
sS'bomb'
p209
I2
sS'meetings'
p210
I1
sS'1,580,579'
p211
I1
sS'7.0'
p212
I1
sS'7.7'
p213
I1
sS'intercapital'
p214
I1
sS'1.701'
p215
I1
sS'headline'
p216
I1
sS'huayna'
p217
I1
sS'debts'
p218
I1
sS'bush'
p219
I1
sS'rich'
p220
I1
sS'oct'
p221
I1
sS'4.04'
p222
I1
sS'amazon'
p223
I2
sS'despite'
p224
I1
sS'report'
p225
I2
sS'comply'
p226
I1
sS'volatility'
p227
I1
sS'countries'
p228
I4
sS'fields'
p229
I1
sS'guns'
p230
I1
sS'19'
p231
I2
sS'release'
p232
I5
sS'ruins'
p233
I1
sS'human'
p234
I1
sS'observer'
p235
I1
sS'guerre'
p236
I1
sS'2014.the'
p237
I1
sS'result'
p238
I1
sS'best'
p239
I1
sS'said'
p240
I79
sS'capacity'
p241
I1
sS'973,605'
p242
I1
sS'away'
p243
I1
sS'tuesday.in'
p244
I1
sS'future'
p245
I3
sS'tolerance'
p246
I1
sS'terms'
p247
I1
sS'confusion'
p248
I1
sS'southeast'
p249
I1
sS'385'
p250
I1
sS'news'
p251
I1
sS'debt'
p252
I12
sS'blasted'
p253
I1
sS'faced'
p254
I1
sS'received'
p255
I1
sS'country'
p256
I5
sS'540.43'
p257
I1
sS'pre'
p258
I1
sS'tough'
p259
I1
sS'height'
p260
I1
sS'path'
p261
I1
sS'250'
p262
I1
sS'cementos'
p263
I1
sS'speak'
p264
I1
sS'conference'
p265
I1
sS'jobless'
p266
I1
sS'puts'
p267
I1
sS'commission'
p268
I3
sS'expected'
p269
I5
sS'collections'
p270
I1
sS'entered'
p271
I1
sS'contraction'
p272
I1
sS'correction'
p273
I1
sS'compania'
p274
I1
sS'families'
p275
I1
sS'eastern'
p276
I1
sS'cueva'
p277
I2
sS'0.15'
p278
I1
sS'0.10'
p279
I1
sS'child'
p280
I1
sS'worked'
p281
I2
sS'commerce'
p282
I1
sS'auction'
p283
I1
sS'applies'
p284
I1
sS'rose.brokers'
p285
I1
sS'balance'
p286
I2
sS'servicios'
p287
I1
sS'changed'
p288
I1
sS'unicameral'
p289
I1
sS'experts'
p290
I1
sS'comparative'
p291
I1
sS'victims'
p292
I1
sS'make'
p293
I3
sS'complex'
p294
I1
sS'damages'
p295
I1
sS'leftist'
p296
I1
sS'social'
p297
I1
sS'211.5'
p298
I1
sS'insisted'
p299
I1
sS'cycle'
p300
I1
sS'centred'
p301
I1
sS'kept'
p302
I1
sS'juridical'
p303
I1
sS'91.65-percent'
p304
I1
sS'left'
p305
I1
sS'seasonal'
p306
I1
sS'assembling'
p307
I1
sS'unemployment'
p308
I1
sS'fighters'
p309
I1
sS'thanks'
p310
I2
sS'victim'
p311
I1
sS'cuajone'
p312
I1
sS'plight'
p313
I1
sS'previous'
p314
I3
sS'adding'
p315
I1
sS'1.661'
p316
I1
sS'spread'
p317
I1
sS'shougang'
p318
I7
sS'board'
p319
I1
sS'innocent'
p320
I1
sS'prison'
p321
I2
sS'gave'
p322
I1
sS'19.415'
p323
I1
sS'palermo'
p324
I1
sS'vanessa'
p325
I1
sS'advances'
p326
I1
sS'programmes'
p327
I1
sS'possible'
p328
I3
sS'tarzan'
p329
I1
sS'feelings'
p330
I1
sS'dignity'
p331
I1
sS'bpd'
p332
I3
sS'performing'
p333
I1
sS'51'
p334
I1
sS'50'
p335
I1
sS'53'
p336
I1
sS'night'
p337
I1
sS'years.cerro'
p338
I1
sS'right'
p339
I2
sS'old'
p340
I1
sS'trained'
p341
I1
sS'deal'
p342
I1
sS'people'
p343
I2
sS'begin'
p344
I1
sS'elderly'
p345
I1
sS'eyeing'
p346
I1
sS'born'
p347
I1
sS'escape'
p348
I2
sS'hours.the'
p349
I1
sS'ice'
p350
I1
sS'councilor'
p351
I1
sS'denied'
p352
I1
sS'cerro'
p353
I2
sS'jorge'
p354
I3
sS'buenaventura'
p355
I3
sS'restructuring'
p356
I3
sS'corp'
p357
I3
sS'brokerage'
p358
I3
sS'manufacturing'
p359
I1
sS'dollars'
p360
I2
sS'citizens'
p361
I1
sS'plus'
p362
I2
sS'efforts'
p363
I1
sS'sept'
p364
I1
sS'beacuse'
p365
I1
sS'raised'
p366
I1
sS'statements'
p367
I2
sS'facility'
p368
I3
sS'pays'
p369
I1
sS'puzzle'
p370
I1
sS'successive'
p371
I1
sS'1,430'
p372
I1
sS'balances'
p373
I1
sS'siege.japanese'
p374
I1
sS'39.7'
p375
I1
sS'year.the'
p376
I1
sS'21.5'
p377
I2
sS'support'
p378
I1
sS'initial'
p379
I1
sS'quiet'
p380
I1
sS'way'
p381
I1
sS'resulted'
p382
I1
sS'head'
p383
I2
sS'crude.u.s'
p384
I1
sS'victim.the'
p385
I1
sS'verde'
p386
I3
sS'removed'
p387
I1
sS'analyst'
p388
I3
sS'220'
p389
I1
sS'gigawatt'
p390
I2
sS'inside'
p391
I5
sS'bellwether'
p392
I2
sS'vanguard'
p393
I1
sS'3.5'
p394
I2
sS'penal'
p395
I1
sS'150'
p396
I1
sS'promises'
p397
I1
sS'peruvian'
p398
I17
sS'0.60'
p399
I1
sS'minas'
p400
I1
sS'said.mining'
p401
I1
sS'promised'
p402
I1
sS'0.66'
p403
I1
sS'accounting'
p404
I1
sS'redaccion'
p405
I1
sS'negotiations'
p406
I1
sS'marxist'
p407
I2
sS'agreeing'
p408
I1
sS'stake'
p409
I1
sS'1.879'
p410
I1
sS'interested'
p411
I1
sS'holding'
p412
I1
sS'vanished'
p413
I1
sS'1.876'
p414
I1
sS'humberto'
p415
I1
sS'welcome'
p416
I1
sS'miscellaneous'
p417
I1
sS'marcona'
p418
I1
sS'fell'
p419
I10
sS'invested'
p420
I2
sS'scores'
p421
I3
sS'authorities'
p422
I1
sS'weekend'
p423
I3
sS'died'
p424
I1
sS'billion'
p425
I23
sS'domingo'
p426
I1
sS'daily'
p427
I6
sS'filing'
p428
I1
sS'telefonica'
p429
I8
sS'reception'
p430
I1
sS'time'
p431
I7
sS'pellets'
p432
I2
sS'profits'
p433
I2
sS'concept'
p434
I1
sS'assets.the'
p435
I1
sS'manager'
p436
I1
sS'comments'
p437
I1
sS'1.519'
p438
I1
sS'machu'
p439
I1
sS'1.381'
p440
I1
sS'95'
p441
I1
sS'reverting'
p442
I1
sS'suffered'
p443
I1
sS'string'
p444
I1
sS'advantage'
p445
I2
sS'refinance'
p446
I2
sS'seemingly'
p447
I1
sS'1.125'
p448
I1
sS'morally'
p449
I1
sS'word'
p450
I1
sS'1994'
p451
I1
sS'electroperu'
p452
I1
sS'level'
p453
I2
sS'did'
p454
I3
sS'steeply'
p455
I1
sS'percent.president'
p456
I1
sS'brother'
p457
I2
sS'1,812,046'
p458
I1
sS'leave'
p459
I1
sS'team'
p460
I1
sS'speculation'
p461
I2
sS'round'
p462
I1
sS'mid-1998'
p463
I1
sS'revolution'
p464
I1
sS'says'
p465
I1
sS'trend'
p466
I1
sS'sign'
p467
I1
sS'cost'
p468
I1
sS'port'
p469
I3
sS'rapist'
p470
I1
sS'stands'
p471
I1
sS'1.724'
p472
I1
sS'contracted'
p473
I1
sS'shares'
p474
I12
sS'current'
p475
I1
sS'international'
p476
I10
sS'falling'
p477
I1
sS'boost'
p478
I1
sS'water'
p479
I1
sS'output.state'
p480
I1
sS'groups'
p481
I4
sS'change'
p482
I1
sS'dec'
p483
I2
sS'coerced'
p484
I1
sS'canadian'
p485
I1
sS'institute'
p486
I3
sS'shift'
p487
I1
sS'9.254'
p488
I1
sS'studies'
p489
I2
sS'extra'
p490
I1
sS'hopeful'
p491
I2
sS'prefer'
p492
I1
sS'guarantors'
p493
I4
sS'colchado'
p494
I1
sS'previously.according'
p495
I1
sS'crisis'
p496
I4
sS'market'
p497
I8
sS'troops'
p498
I1
sS'working'
p499
I2
sS'positive'
p500
I3
sS'live'
p501
I2
sS'peru'
p502
I48
sS'australian'
p503
I1
sS'repentance'
p504
I2
sS'cases'
p505
I1
sS'effort'
p506
I1
sS'local'
p507
I14
sS'slowness'
p508
I1
sS'following'
p509
I4
sS'making'
p510
I1
sS'months'
p511
I7
sS'abaco'
p512
I1
sS'figure'
p513
I2
sS'expanding'
p514
I1
sS'chip'
p515
I5
sS'118,930'
p516
I1
sS'dropped'
p517
I1
sS'236'
p518
I1
sS'requirements'
p519
I1
sS'infantile'
p520
I1
sS'secured'
p521
I1
sS'bonds'
p522
I1
sS'1'
p523
I1
sS'sunday'
p524
I1
sS'sword'
p525
I1
sS'19.45'
p526
I1
sS'60,337'
p527
I1
sS'economy'
p528
I4
sS'cocktail'
p529
I1
sS'southern'
p530
I7
sS'designed'
p531
I1
sS'date'
p532
I2
sS'data'
p533
I2
sS'grow'
p534
I2
sS'pressuring'
p535
I1
sS'man'
p536
I2
sS'120'
p537
I2
sS'sectors'
p538
I2
sS'conscious'
p539
I1
sS'slightly'
p540
I2
sS'investa'
p541
I1
sS'inform'
p542
I1
sS'progressively'
p543
I1
sS'swollen'
p544
I1
sS'sa'
p545
I7
sS'typical'
p546
I1
sS'output.the'
p547
I1
sS'barnyard'
p548
I1
sS'mainly'
p549
I1
sS'years'
p550
I14
sS'stability'
p551
I1
sS'ended'
p552
I2
sS'tranche'
p553
I1
sS'merino'
p554
I1
sS'police'
p555
I3
sS'acknowledge'
p556
I1
sS'jin'
p557
I1
sS'according'
p558
I4
sS'main'
p559
I2
sS'prisoners'
p560
I3
sS'limbo'
p561
I1
sS'nom'
p562
I1
sS'finance'
p563
I1
sS'barron'
p564
I1
sS'100,000'
p565
I1
sS'sol'
p566
I1
sS'half'
p567
I2
sS'hall'
p568
I1
sS'term'
p569
I5
sS'24.9'
p570
I1
sS'14.3'
p571
I1
sS'january'
p572
I4
sS'drop'
p573
I2
sS'establishing'
p574
I1
sS'possibilities'
p575
I1
sS'wong'
p576
I2
sS'quarter'
p577
I5
sS'1,659.55'
p578
I1
sS'el'
p579
I3
sS'square'
p580
I1
sS'fired'
p581
I1
sS'year'
p582
I32
sS'brokerage.turnover'
p583
I1
sS'year.total'
p584
I1
sS'journalists.a'
p585
I1
sS'living'
p586
I1
sS'bullish'
p587
I1
sS'factors'
p588
I1
sS'profit'
p589
I1
sS'issuances'
p590
I1
sS'increase'
p591
I2
sS'attracted'
p592
I1
sS'nominal'
p593
I1
sS'internet'
p594
I1
sS'friday.growth'
p595
I1
sS'million'
p596
I66
sS'possibility'
p597
I3
sS'rebel'
p598
I3
sS'remainder'
p599
I1
sS'care'
p600
I1
sS'training'
p601
I1
sS'ministry'
p602
I4
sS'1.731'
p603
I1
sS'turn'
p604
I1
sS'code.similar'
p605
I1
sS'place'
p606
I2
sS'545.93'
p607
I1
sS'margin'
p608
I2
sS'promotion'
p609
I1
sS'think'
p610
I2
sS'620'
p611
I1
sS'140,649'
p612
I1
sS'cuzco'
p613
I2
sS'fast'
p614
I1
sS'spanish'
p615
I1
sS'vote'
p616
I3
sS'open'
p617
I1
sS'tomorrow'
p618
I1
sS'city'
p619
I1
sS'little'
p620
I2
sS'1996'
p621
I17
sS'structured'
p622
I1
sS'returns'
p623
I1
sS'2'
p624
I1
sS'prosecution.although'
p625
I1
sS'mining'
p626
I4
sS'hut'
p627
I1
sS'released'
p628
I1
sS'specify'
p629
I1
sS'10'
p630
I4
sS'television'
p631
I1
sS'12'
p632
I1
sS'15'
p633
I5
sS'14'
p634
I3
sS'17'
p635
I3
sS'16'
p636
I1
sS'repentants'
p637
I5
sS'optimism'
p638
I2
sS'accused'
p639
I1
sS'year.consumer'
p640
I1
sS'prospect'
p641
I1
sS'san'
p642
I2
sS'investors'
p643
I5
sS'craig'
p644
I1
sS'pro'
p645
I1
sS'say'
p646
I2
sS'recover'
p647
I2
sS'thursday.total'
p648
I1
sS'coal'
p649
I1
sS'note'
p650
I2
sS'potential'
p651
I2
sS'200'
p652
I2
sS'santiago'
p653
I1
sS'sure'
p654
I1
sS'normal'
p655
I1
sS'arguing'
p656
I1
sS'price'
p657
I2
sS'paid'
p658
I3
sS'falls'
p659
I1
sS'assault'
p660
I1
sS'sheets'
p661
I1
sS'stormed'
p662
I1
sS'318,560'
p663
I1
sS'6,207'
p664
I1
sS'america'
p665
I3
sS'cuban'
p666
I1
sS'especially'
p667
I2
sS'maoist'
p668
I1
sS'average'
p669
I3
sS'later'
p670
I2
sS'steady'
p671
I1
sS'occidental'
p672
I1
sS'liquidity'
p673
I1
sS'laws'
p674
I3
sS'heeding'
p675
I1
sS'0.45'
p676
I1
sS'ground'
p677
I1
sS'prisoners.but'
p678
I1
sS'going'
p679
I2
sS'lorenzo'
p680
I1
sS'congressional'
p681
I2
sS'ranking'
p682
I1
sS'hostage'
p683
I5
sS'nearly'
p684
I3
sS'celebrate'
p685
I1
sS'213.54'
p686
I1
sS'miles'
p687
I3
sS'physically'
p688
I1
sS'1924'
p689
I2
sS'eliminating'
p690
I1
sS'crimping'
p691
I1
sS'collects'
p692
I1
sS'concern'
p693
I1
sS'commitments'
p694
I1
sS'outside'
p695
I2
sS'jobs'
p696
I4
sS'rumours'
p697
I1
sS'aberration'
p698
I1
sS'article'
p699
I1
sS'come'
p700
I1
sS'chavez'
p701
I1
sS'javier'
p702
I1
sS'124,575'
p703
I1
sS'residence'
p704
I7
sS'region'
p705
I4
sS'trades'
p706
I3
sS'gwh'
p707
I5
sS's'
p708
I7
sS'traded'
p709
I3
sS'comes'
p710
I1
sS'yearly'
p711
I1
sS'endless'
p712
I1
sS'period'
p713
I8
sS'17.diplomatic'
p714
I1
sS'60'
p715
I1
sS'62'
p716
I1
sS'65'
p717
I1
sS'perpetrators'
p718
I1
sS'tropical'
p719
I1
sS'peaceful'
p720
I2
sS'0.09'
p721
I1
sS'statement.apres'
p722
I1
sS'formed'
p723
I1
sS'andrew'
p724
I1
sS'minister'
p725
I2
sS'suspected'
p726
I1
sS'paying'
p727
I1
sS'predicament'
p728
I1
sS'hughes'
p729
I3
sS'coca'
p730
I1
sS'situation'
p731
I1
sS'480.88'
p732
I1
sS'1,298'
p733
I1
sS'commander'
p734
I1
sS'middle'
p735
I1
sS'law.president'
p736
I1
sS'drug'
p737
I2
sS'residence.fujimori'
p738
I1
sS'worry'
p739
I1
sS'movements'
p740
I1
sS'11.8'
p741
I1
sS'11.9'
p742
I1
sS'assure'
p743
I1
sS'11.4'
p744
I2
sS'pay'
p745
I1
sS'granted'
p746
I4
sS'11.7'
p747
I1
sS'spiraling'
p748
I1
sS'tour'
p749
I1
sS'11.3'
p750
I1
sS'17.2'
p751
I1
sS'streams'
p752
I1
sS'reminder'
p753
I1
sS'week'
p754
I6
sS'oil'
p755
I6
sS'centuries'
p756
I1
sS'drives'
p757
I1
sS'producers'
p758
I2
sS'running'
p759
I1
sS'statue'
p760
I5
sS'recapture'
p761
I1
sS'128,800'
p762
I1
sS'tracking'
p763
I1
sS'largely'
p764
I1
sS'charges'
p765
I1
sS'macro'
p766
I1
sS'roughly'
p767
I1
sS'relief'
p768
I1
sS'charged'
p769
I1
sS'tecnicos'
p770
I1
sS'215'
p771
I1
sS'rest'
p772
I2
sS'violent'
p773
I1
sS'sinter'
p774
I2
sS'underline'
p775
I1
sS'weekly'
p776
I1
sS'death'
p777
I1
sS'feminist'
p778
I1
sS'rose'
p779
I19
sS'22.90'
p780
I1
sS'4'
p781
I1
sS'said.representaciones'
p782
I1
sS'municipality.pizarro'
p783
I1
sS'early'
p784
I1
sS'inflation'
p785
I3
sS'chincha'
p786
I1
sS'world'
p787
I2
sS'0.54'
p788
I1
sS'fortuna'
p789
I1
sS'fractionally'
p790
I1
sS'203.929'
p791
I1
sS'pounds'
p792
I1
sS'explodethey'
p793
I1
sS'annually'
p794
I3
sS'output'
p795
I7
sS'callao'
p796
I1
sS'orozco'
p797
I3
sS'reduced'
p798
I3
sS'6.61'
p799
I1
sS'privatization'
p800
I5
sS'provided'
p801
I2
sS'legal'
p802
I2
sS'120,320'
p803
I1
sS'moderate'
p804
I2
sS'felt'
p805
I1
sS'business'
p806
I1
sS'problems'
p807
I3
sS'equivalent'
p808
I1
sS'credito'
p809
I1
sS'broken'
p810
I1
sS'banks.the'
p811
I1
sS'shrs'
p812
I2
sS'raul'
p813
I1
sS'233,681'
p814
I1
sS'subdued'
p815
I1
sS'central'
p816
I11
sS'violence'
p817
I5
sS'stand'
p818
I1
sS'testimony'
p819
I1
sS'mixed'
p820
I2
sS'45,912'
p821
I1
sS'backup'
p822
I1
sS'outlook'
p823
I1
sS'protests'
p824
I1
sS'communication'
p825
I1
sS'persecution'
p826
I1
sS'accounts'
p827
I1
sS'heated'
p828
I1
sS'2,371.49'
p829
I1
sS'accumulated'
p830
I2
sS'thursday.of'
p831
I1
sS'haskel'
p832
I1
sS'lot'
p833
I2
sS'brazilian'
p834
I1
sS'energy'
p835
I2
sS'jones'
p836
I2
sS'fundamentals'
p837
I2
sS'cabinet'
p838
I2
sS'trying'
p839
I1
sS'percent.among'
p840
I1
sS'reporters.supporters'
p841
I1
sS'221-2134'
p842
I17
sS'wholesale'
p843
I3
sS'221-2130'
p844
I5
sS'miguel'
p845
I1
sS'8.540'
p846
I1
sS"can't"
p847
I1
sS'31.8'
p848
I1
sS'strongly'
p849
I2
sS'600'
p850
I1
sS'certain'
p851
I1
sS'totaling'
p852
I1
sS'sales'
p853
I2
sS'fellow'
p854
I1
sS'financial'
p855
I3
sS'file'
p856
I2
sS'watched'
p857
I1
sS'cream'
p858
I1
sS'4.5'
p859
I1
sS'4.1'
p860
I1
sS'4.2'
p861
I1
sS'floored'
p862
I1
sS'abolish'
p863
I1
sS'immunity'
p864
I1
sS'poor'
p865
I3
sS'2,700'
p866
I1
sS'2004'
p867
I1
sS'congress'
p868
I4
sS'67,264'
p869
I1
sS'includes'
p870
I1
sS'peak'
p871
I2
sS'included'
p872
I3
sS'5.897'
p873
I1
sS'scrutiny'
p874
I1
sS'building'
p875
I1
sS'calls'
p876
I1
sS'wife'
p877
I1
sS'invest'
p878
I5
sS'project.the'
p879
I1
sS'propects'
p880
I1
sS'mass'
p881
I1
sS'treason'
p882
I1
sS'consider'
p883
I1
sS'chinese'
p884
I1
sS'lack'
p885
I1
sS'dollar'
p886
I2
sS'month'
p887
I15
sS'deadline'
p888
I1
sS'zinc'
p889
I1
sS'talks'
p890
I3
sS'february.peru'
p891
I1
sS'102,700'
p892
I1
sS'incas'
p893
I1
sS'pledged'
p894
I1
sS'thursday'
p895
I5
sS'modernization'
p896
I5
sS'program'
p897
I5
sS'alberto'
p898
I6
sS'dominated'
p899
I1
sS'lawmakers'
p900
I1
sS'24.38'
p901
I1
sS'case'
p902
I1
sS'woman'
p903
I1
sS'sitting'
p904
I1
sS'far'
p905
I1
sS'1,506'
p906
I1
sS'arequipa'
p907
I1
sS'vera'
p908
I2
sS'psychologist'
p909
I1
sS'worst'
p910
I1
sS'productin'
p911
I1
sS'fall'
p912
I1
sS'soles'
p913
I26
sS'condition'
p914
I1
sS'aleman'
p915
I1
sS'small'
p916
I2
sS'soles.revs'
p917
I1
sS'191'
p918
I1
sS'past'
p919
I3
sS'rate'
p920
I6
sS'pluspetrol'
p921
I1
sS'markets'
p922
I1
sS'investment'
p923
I6
sS'1996.natural'
p924
I1
sS'lima.the'
p925
I2
sS'stood'
p926
I2
sS'1.838'
p927
I1
sS'pescaperu'
p928
I2
sS'sur'
p929
I1
sS'public'
p930
I4
sS'movement'
p931
I4
sS'friday'
p932
I3
sS'christian'
p933
I1
sS'report.output'
p934
I1
sS'hours'
p935
I3
sS'trades.a'
p936
I1
sS'selective'
p937
I4
sS'operating'
p938
I1
sS'november'
p939
I1
sS'strong'
p940
I3
sS'atacocha'
p941
I2
sS'allows'
p942
I5
sS'457.56'
p943
I1
sS'airport'
p944
I1
sS'published'
p945
I3
sS'136,600'
p946
I1
sS'corrects'
p947
I3
sS'sticking'
p948
I1
sS'followed'
p949
I3
sS'family'
p950
I2
sS'unchanged.trading'
p951
I1
sS'appliances'
p952
I1
sS'armed'
p953
I1
sS'eye'
p954
I1
sS'annuallyperu'
p955
I1
sS'contains'
p956
I1
sS'petroleum'
p957
I1
sS'antonio.the'
p958
I1
sS'interview.he'
p959
I1
sS'taken'
p960
I3
sS'torre'
p961
I1
sS'mora'
p962
I1
sS'beatriz'
p963
I1
sS'converters'
p964
I1
sS'flat'
p965
I1
sS'edegel'
p966
I1
sS'company'
p967
I17
sS'basically'
p968
I2
sS'known'
p969
I1
sS'182.229'
p970
I1
sS'1.697'
p971
I1
sS'town'
p972
I1
sS'recall'
p973
I1
sS'paragraph'
p974
I1
sS'del'
p975
I5
sS'said.customs'
p976
I1
sS'male'
p977
I2
sS'history'
p978
I1
sS'purchases'
p979
I1
sS'rodriguez'
p980
I2
sS'share'
p981
I7
sS'accept'
p982
I1
sS'minimum'
p983
I3
sS'numbers'
p984
I2
sS'year.average'
p985
I1
sS'bided'
p986
I1
sS'information'
p987
I5
sS'5.5'
p988
I1
sS'equities'
p989
I1
sS'frequently.still'
p990
I1
sS'rapists'
p991
I4
sS'plant'
p992
I3
sS'plans'
p993
I2
sS'inflationary'
p994
I1
sS'institutions.the'
p995
I1
sS'coming'
p996
I2
sS'prospecting'
p997
I1
sS'bleak'
p998
I1
sS'refuse'
p999
I1
sS'short'
p1000
I3
sS'tupac'
p1001
I2
sS'percent.the'
p1002
I2
sS'nacionthat'
p1003
I1
sS'fundamental'
p1004
I1
sS'media'
p1005
I2
sS'banks'
p1006
I5
sS'turnover'
p1007
I1
sS'help'
p1008
I2
sS'59,535'
p1009
I1
sS'trade'
p1010
I5
sS'held'
p1011
I2
sS'attitude'
p1012
I1
sS'committee'
p1013
I1
sS'committed'
p1014
I2
sS'1.95'
p1015
I1
sS'27'
p1016
I1
sS'20'
p1017
I4
sS'21'
p1018
I2
sS'23'
p1019
I2
sS'minera'
p1020
I1
sS'28'
p1021
I1
sS'minerals'
p1022
I1
sS'reuters'
p1023
I1
sS'argentina'
p1024
I1
sS'pipoli'
p1025
I1
sS'good'
p1026
I3
sS'walls'
p1027
I1
sS'17.8'
p1028
I1
sS'imprisoned'
p1029
I1
sS'truths'
p1030
I1
sS'notes'
p1031
I1
sS'barrels'
p1032
I2
sS'1,049'
p1033
I1
sS'fish'
p1034
I1
sS'reduce'
p1035
I1
sS'terusuke'
p1036
I1
sS'repressive'
p1037
I1
sS'discouraging'
p1038
I1
sS'health'
p1039
I1
sS'issue'
p1040
I2
sS'said.bellwether'
p1041
I1
sS'risen'
p1042
I1
sS'dirt'
p1043
I1
sS'sparked'
p1044
I1
sS'differ'
p1045
I1
sS'extraordinary'
p1046
I2
sS'reason'
p1047
I1
sS'base'
p1048
I1
sS'members'
p1049
I1
sS'beginning'
p1050
I1
sS'hearing.from'
p1051
I1
sS'revolutionary'
p1052
I2
sS'tributaries'
p1053
I1
sS'american'
p1054
I1
sS'threat'
p1055
I1
sS'trickle'
p1056
I1
sS'copper'
p1057
I9
sS'slipped'
p1058
I2
sS'6.02'
p1059
I1
sS'6.06'
p1060
I1
sS'feet'
p1061
I4
sS'sympathy'
p1062
I1
sS'pablo'
p1063
I1
sS'horse'
p1064
I1
sS'leading'
p1065
I2
sS'construct'
p1066
I1
sS'station'
p1067
I2
sS'passed'
p1068
I2
sS'2,171,770'
p1069
I1
sS'brokerage.according'
p1070
I1
sS'statement'
p1071
I7
sS'5.90'
p1072
I1
sS'draped'
p1073
I1
sS'crop'
p1074
I1
sS'believe'
p1075
I1
sS'convinced'
p1076
I1
sS'kind'
p1077
I1
sS'b'
p1078
I3
sS'double'
p1079
I1
sS'determined'
p1080
I1
sS'marriage'
p1081
I1
sS'supposed'
p1082
I1
sS'0.95'
p1083
I2
sS'taxis'
p1084
I1
sS'0.96'
p1085
I1
sS'0.90'
p1086
I2
sS'liabilities'
p1087
I1
sS'19,524'
p1088
I1
sS'outstanding'
p1089
I1
sS'imports'
p1090
I1
sS'comrades'
p1091
I1
sS'aged'
p1092
I1
sS'torre.he'
p1093
I1
sS'picturethe'
p1094
I1
sS'3,631,000.net'
p1095
I1
sS'officers'
p1096
I1
sS'internal'
p1097
I1
sS'play'
p1098
I2
sS'added'
p1099
I6
sS'electric'
p1100
I2
sS'resurgence'
p1101
I1
sS'reach'
p1102
I1
sS'74'
p1103
I1
sS'sponsored'
p1104
I1
sS'72'
p1105
I1
sS'71'
p1106
I1
sS'70'
p1107
I2
sS'approved'
p1108
I1
sS'mineral'
p1109
I1
sS'clear'
p1110
I2
sS'mediation'
p1111
I1
sS'km'
p1112
I2
sS'victims.the'
p1113
I1
sS'1995.opponents'
p1114
I1
sS'promises.a'
p1115
I1
sS'dragged'
p1116
I1
sS'sector'
p1117
I5
sS'gdp'
p1118
I2
sS'particularly'
p1119
I4
sS'rebels'
p1120
I12
sS'gold'
p1121
I1
sS'obligations'
p1122
I4
sS'661'
p1123
I1
sS'session'
p1124
I2
sS'fine'
p1125
I1
sS'justice'
p1126
I1
sS'nervous'
p1127
I1
sS'evoked'
p1128
I1
sS'failed'
p1129
I2
sS'feminists'
p1130
I1
sS'columns'
p1131
I1
sS'120-member'
p1132
I1
sS'capital'
p1133
I1
sS'financing'
p1134
I2
sS'furnaces'
p1135
I1
sS'grew'
p1136
I1
sS'longest'
p1137
I1
sS'closely'
p1138
I1
sS'reporters'
p1139
I2
sS'1.83'
p1140
I1
sS'pellet'
p1141
I1
sS'resolve'
p1142
I1
sS'terada'
p1143
I1
sS'nacion'
p1144
I1
sS'banking'
p1145
I3
sS'vincent'
p1146
I1
sS'000s'
p1147
I1
sS'intelligence'
p1148
I1
sS'2.9'
p1149
I1
sS'2.8'
p1150
I2
sS'points.turnover'
p1151
I2
sS'close'
p1152
I5
sS'forthcoming'
p1153
I1
sS'vote.the'
p1154
I1
sS'added.peru'
p1155
I1
sS'expert'
p1156
I1
sS'visiting'
p1157
I1
sS'currently'
p1158
I1
sS'won'
p1159
I1
sS'architect'
p1160
I1
sS'nestor'
p1161
I2
sS'conditions'
p1162
I1
sS'latin'
p1163
I4
sS'sold'
p1164
I2
sS'sole'
p1165
I2
sS'selectively'
p1166
I1
sS'prospects'
p1167
I2
sS'improved'
p1168
I1
sS'annual'
p1169
I4
sS'foreign'
p1170
I14
sS'1,679.84'
p1171
I1
sS'1.62'
p1172
I1
sS'15.87'
p1173
I1
sS'forgotten'
p1174
I1
sS'poverty'
p1175
I2
sS'year.under'
p1176
I1
sS'point'
p1177
I2
sS'3-year'
p1178
I1
sS'loan'
p1179
I9
sS'deposit'
p1180
I1
sS'church'
p1181
I1
sS'12,492'
p1182
I1
sS'monthly'
p1183
I2
sS'million.the'
p1184
I2
sS'said.the'
p1185
I7
sS'threaten'
p1186
I1
sS'meeting'
p1187
I2
sS'firm'
p1188
I5
sS'generating'
p1189
I3
sS'partly'
p1190
I1
sS'gas'
p1191
I2
sS'anthony'
p1192
I1
sS'lives'
p1193
I1
sS'brokers'
p1194
I8
sS'demand'
p1195
I4
sS'prices'
p1196
I10
sS'plants'
p1197
I1
sS'judicial'
p1198
I1
sS'3.37'
p1199
I1
sS'shares.mining'
p1200
I3
sS'3.33'
p1201
I1
sS'behavior'
p1202
I1
sS'involved'
p1203
I1
sS'31'
p1204
I3
sS'larger'
p1205
I1
sS'costly'
p1206
I1
sS'century'
p1207
I1
sS'35'
p1208
I1
sS'ready'
p1209
I2
sS'65.05'
p1210
I1
sS'anymore'
p1211
I1
sS'grant'
p1212
I1
sS'20-odd'
p1213
I1
sS'higher'
p1214
I7
sS'development'
p1215
I1
sS'used'
p1216
I3
sS'8.83'
p1217
I1
sS'8.80'
p1218
I1
sS'renzo'
p1219
I1
sS'cement'
p1220
I1
sS'man.the'
p1221
I1
sS'recent'
p1222
I1
sS'buybacks'
p1223
I1
sS'lower'
p1224
I2
sS'15.9'
p1225
I1
sS'spent'
p1226
I1
sS'edge'
p1227
I1
sS'belen'
p1228
I2
sS'spend'
p1229
I1
sS'ambassador'
p1230
I5
sS'hierro'
p1231
I2
sS'using'
p1232
I1
sS'injuries'
p1233
I1
sS'wage'
p1234
I2
sS'marrying'
p1235
I1
sS'guaranteed'
p1236
I1
sS'source'
p1237
I2
sS'2.19'
p1238
I1
sS'said.during'
p1239
I1
sS'2.15'
p1240
I1
sS'2.14'
p1241
I1
sS'easter'
p1242
I2
sS'remaining'
p1243
I1
sS'collected'
p1244
I3
sS'marco'
p1245
I1
sS'march'
p1246
I15
sS'amaru'
p1247
I2
sS'bid'
p1248
I2
sS'bit'
p1249
I2
sS'upswing.among'
p1250
I1
sS'projects'
p1251
I1
sS'genaro'
p1252
I1
sS'uphill'
p1253
I1
sS'bolsa'
p1254
I4
sS'sunat'
p1255
I2
sS'continue'
p1256
I3
sS'indication'
p1257
I1
sS'popular'
p1258
I1
sS'sunad'
p1259
I2
sS'obliged'
p1260
I1
sS'metres'
p1261
I1
sS'3.6'
p1262
I1
sS'urgent'
p1263
I1
sS'thursday.that'
p1264
I1
sS'economic'
p1265
I4
sS'3.0'
p1266
I1
sS'3.1'
p1267
I2
sS'solesnotes'
p1268
I1
sS'contacts'
p1269
I1
sS'eliminate'
p1270
I2
sS'dating'
p1271
I2
sS'4.82'
p1272
I1
sS'rui'
p1273
I1
sS'run'
p1274
I2
sS'300'
p1275
I2
sS'tuesday.prices'
p1276
I1
sS'processing'
p1277
I1
sS'agreement'
p1278
I1
sS'stem'
p1279
I1
sS'hostages'
p1280
I6
sS'million.pescaperu'
p1281
I1
sS'plaza'
p1282
I1
sS'congressman'
p1283
I1
sS'peruvians'
p1284
I3
sS'wednesday.customs'
p1285
I1
sS'colorado'
p1286
I1
sS'program.cyprus'
p1287
I1
sS'awaited'
p1288
I1
sS'repaid'
p1289
I2
sS'statistics'
p1290
I5
sS'besieged'
p1291
I1
sS'long'
p1292
I5
sS'amax'
p1293
I1
sS"we're"
p1294
I3
sS'fishmeal'
p1295
I1
sS'blueprint'
p1296
I1
sS'mountains'
p1297
I1
sS'byzantine'
p1298
I1
sS'archaic'
p1299
I2
sS'line'
p1300
I2
sS'raising'
p1301
I1
sS'fulfilling'
p1302
I1
sS'autonomous'
p1303
I1
sS'similar'
p1304
I1
sS'called'
p1305
I2
sS'said.in'
p1306
I1
sS'140.491'
p1307
I1
sS'constant'
p1308
I1
sS'curb'
p1309
I1
sS'disputes.in'
p1310
I1
sS'dragging'
p1311
I1
sS'dashed'
p1312
I1
sS'overseeing'
p1313
I1
sS'politicians'
p1314
I1
sS'accounted'
p1315
I3
sS'electrical'
p1316
I2
sS'income'
p1317
I4
sS'department'
p1318
I1
sS'1.375'
p1319
I1
sS'prosecution'
p1320
I3
sS'prepared'
p1321
I1
sS'helping'
p1322
I1
sS'sider'
p1323
I1
sS'sides'
p1324
I2
sS'ago'
p1325
I2
sS'413.2'
p1326
I1
sS'land'
p1327
I1
sS'overlooking'
p1328
I1
sS'required'
p1329
I1
sS'institutions'
p1330
I2
sS'2002'
p1331
I1
sS'2003'
p1332
I1
sS'2000'
p1333
I6
sS'2001'
p1334
I2
sS'banishing'
p1335
I1
sS'2005'
p1336
I1
sS'sounded'
p1337
I1
sS'said.sunad'
p1338
I1
sS'crisis.cipriani'
p1339
I1
sS'results'
p1340
I3
sS'existing'
p1341
I1
sS'gang'
p1342
I1
sS'worrisome'
p1343
I2
sS'include'
p1344
I3
sS'deficit'
p1345
I2
sS'seized'
p1346
I1
sS'miners'
p1347
I1
sS'9.173'
p1348
I1
sS'continued'
p1349
I1
sS'n.a.net'
p1350
I2
sS'1995.the'
p1351
I1
sS'positions'
p1352
I1
sS'marry'
p1353
I2
sS'deals'
p1354
I1
sS'1,657.06'
p1355
I1
sS'2.23'
p1356
I1
sS'2.21'
p1357
I1
sS'2.26'
p1358
I2
sS'averaged'
p1359
I1
sS'vela'
p1360
I4
sS'decreed'
p1361
I2
sS'index'
p1362
I9
sS'power'
p1363
I7
sS'said.peruvians'
p1364
I1
sS'waiting'
p1365
I2
sS'industrialized'
p1366
I1
sS'firms'
p1367
I5
sS'asociados'
p1368
I1
sS'body'
p1369
I1
sS'led'
p1370
I7
sS'exchange'
p1371
I8
sS'2,415.33'
p1372
I1
sS'commercial'
p1373
I3
sS'growing'
p1374
I2
sS'slogans'
p1375
I1
sS'2,392.67'
p1376
I1
sS'focused'
p1377
I4
sS'totalled'
p1378
I1
sS'luis'
p1379
I2
sS'great'
p1380
I1
sS'38'
p1381
I3
sS'receive'
p1382
I1
sS'32'
p1383
I1
sS'guarantor'
p1384
I1
sS'30'
p1385
I2
sS'37'
p1386
I1
sS'tambo'
p1387
I1
sS'574,000'
p1388
I1
sS'products'
p1389
I1
sS'principally'
p1390
I1
sS'honor'
p1391
I1
sS'tarapoto'
p1392
I2
sS'foresee'
p1393
I1
sS'private'
p1394
I6
sS'scaled'
p1395
I1
sS'lima'
p1396
I36
sS'confidence'
p1397
I1
sS'inei'
p1398
I6
sS'archbishop'
p1399
I1
sS'ministers'
p1400
I2
sS'timetable'
p1401
I2
sS'cipriani'
p1402
I2
sS'tminimum'
p1403
I1
sS'formally'
p1404
I1
sS'inclined'
p1405
I1
sS'benchmark'
p1406
I1
sS'2,381.98'
p1407
I1
sS'women'
p1408
I6
sS'account'
p1409
I1
sS'clients'
p1410
I2
sS'jailed'
p1411
I1
sS'beijing'
p1412
I1
sS'weaker'
p1413
I1
sS'process'
p1414
I1
sS'0.3'
p1415
I1
sS'tax'
p1416
I4
sS'exports'
p1417
I5
sS'0.6'
p1418
I1
sS'high'
p1419
I3
sS'reserves'
p1420
I5
sS'sociedad'
p1421
I1
sS'rape'
p1422
I3
sS'weaken'
p1423
I1
sS'holds'
p1424
I1
sS'struggled'
p1425
I1
sS'stock'
p1426
I6
sS'204.4'
p1427
I1
sS'timetable.shougang'
p1428
I1
sS'alcalde'
p1429
I1
sS'chief'
p1430
I2
sS'allow'
p1431
I1
sS'producer'
p1432
I1
sS'produced'
p1433
I3
sS'repentant'
p1434
I1
sS'130'
p1435
I1
sS'137'
p1436
I2
sS'motorcycle'
p1437
I1
sS'33,742'
p1438
I1
sS'negotiated'
p1439
I1
sS'complicate'
p1440
I1
sS'la'
p1441
I4
sS'banner'
p1442
I1
sS'guerrilla'
p1443
I3
sS'labor'
p1444
I1
sS'covered'
p1445
I1
sS'criminal'
p1446
I1
sS'pending'
p1447
I1
sS'fourth'
p1448
I1
sS'outlined'
p1449
I1
sS'day'
p1450
I5
sS'presidential'
p1451
I2
sS'february'
p1452
I16
sS'cawthorne'
p1453
I1
sS'warned'
p1454
I1
sS'slipping'
p1455
I1
sS'rising'
p1456
I1
sS'experienced'
p1457
I1
sS'doing'
p1458
I1
sS'related'
p1459
I1
sS'alejandro'
p1460
I2
sS'books'
p1461
I2
sS'measure'
p1462
I2
sS'82'
p1463
I1
sS'80'
p1464
I1
sS'81'
p1465
I2
sS'tenth'
p1466
I1
sS'87'
p1467
I1
sS'category'
p1468
I1
sS'257,851'
p1469
I1
sS'added.outside'
p1470
I1
sS'favours'
p1471
I1
sS'libor'
p1472
I3
sS'announced'
p1473
I1
sS'humiliating'
p1474
I1
sS'machismo'
p1475
I1
sS'york'
p1476
I2
sS'conflicts'
p1477
I1
sS'repairing'
p1478
I1
sS'comrade'
p1479
I1
sS'david'
p1480
I1
sS'conversation'
p1481
I1
sS'said.following'
p1482
I1
sS'south'
p1483
I2
sS'swapped'
p1484
I1
sS'scene'
p1485
I1
sS'owned'
p1486
I1
sS'improving'
p1487
I1
sS'steamy'
p1488
I1
sS'reached'
p1489
I2
sS'ancient'
p1490
I1
sS'publication'
p1491
I1
sS'attack'
p1492
I1
sS'final'
p1493
I1
sS'painful'
p1494
I1
sS'argos'
p1495
I1
sS'reflecting'
p1496
I1
sS'41.57'
p1497
I1
sS'overwhelming'
p1498
I1
sS'mrta'
p1499
I15
sS'bother'
p1500
I1
sS'bed'
p1501
I2
sS'day.total'
p1502
I1
sS'aquino'
p1503
I1
sS'unchanged'
p1504
I1
sS'unlikely'
p1505
I1
sS'need'
p1506
I3
sS'apparently'
p1507
I1
sS'mountainous'
p1508
I1
sS'agency'
p1509
I3
sS'able'
p1510
I1
sS'mid'
p1511
I1
sS'1.38'
p1512
I1
sS'tranches'
p1513
I1
sS'astride'
p1514
I1
sS'toughest'
p1515
I1
sS'worldwide'
p1516
I1
sS'centre'
p1517
I2
sS'1,170'
p1518
I1
sS'centro'
p1519
I1
sS'preliminary'
p1520
I1
sS'expired'
p1521
I1
sS'payment'
p1522
I1
sS'face'
p1523
I5
sS'1,000'
p1524
I1
sS'xavier'
p1525
I1
sS'text'
p1526
I1
sS'agreed'
p1527
I1
sS'supported'
p1528
I2
sS'asylum'
p1529
I1
sS'debate'
p1530
I3
sS'principal'
p1531
I1
sS'unanimously'
p1532
I1
sS'based'
p1533
I4
sS'credited'
p1534
I1
sS'sulfur'
p1535
I1
sS'thousands'
p1536
I1
sS'achieve'
p1537
I1
sS'cuba'
p1538
I1
sS'overall'
p1539
I1
sS'mgs'
p1540
I1
sS'consecutive'
p1541
I1
sS'2010-16'
p1542
I1
sS'entity'
p1543
I1
sS'areas'
p1544
I1
sS'shr'
p1545
I2
sS'taxes'
p1546
I2
sS'34.601'
p1547
I1
sS'including'
p1548
I2
sS'marries'
p1549
I1
sS'requirement'
p1550
I1
sS'34.8'
p1551
I1
sS'national'
p1552
I6
sS'officials'
p1553
I5
sS'closer'
p1554
I1
sS'cruchaga'
p1555
I1
sS'state'
p1556
I9
sS'closed'
p1557
I7
sS'crude'
p1558
I1
sS'bought'
p1559
I4
sS'attention'
p1560
I2
sS'explosive'
p1561
I1
sS'peruano'
p1562
I3
sS'embarrassment'
p1563
I1
sS'job'
p1564
I1
sS'group'
p1565
I2
sS'staring'
p1566
I1
sS'taking'
p1567
I4
sS'attributed'
p1568
I1
sS'april'
p1569
I1
sS'figures'
p1570
I8
sS'conquered'
p1571
I1
sS'comrades.hostage'
p1572
I1
sS'taken.for'
p1573
I1
sS'diplomats'
p1574
I1
sS'wall'
p1575
I2
sS'tuesday'
p1576
I6
sS'ambushes'
p1577
I1
sS'8.3'
p1578
I1
sS'8.5'
p1579
I1
sS'quotas'
p1580
I1
sS'areas.merino'
p1581
I1
sS'730'
p1582
I1
sS'proposal'
p1583
I2
sS'citadel'
p1584
I2
sS'arllano'
p1585
I1
sS'eduardo'
p1586
I3
sS'overwhelmingly'
p1587
I1
sS'460'
p1588
I1
sS'462'
p1589
I1
sS'guerrillas'
p1590
I2
sS'solesrevs'
p1591
I1
sS'general'
p1592
I5
sS'present'
p1593
I1
sS'2016'
p1594
I1
sS'abandoned'
p1595
I1
sS'5.574'
p1596
I1
sS'ilo'
p1597
I4
sS"d'onofrio"
p1598
I1
sS'chiesa'
p1599
I1
sS'lush'
p1600
I1
sS'captors'
p1601
I1
sS'helped'
p1602
I1
sS'vs'
p1603
I4
sS'avg'
p1604
I2
sS'4.50'
p1605
I1
sS'ransom'
p1606
I1
sS'conquistador'
p1607
I1
sS'22.70'
p1608
I1
sS'newsroom'
p1609
I21
sS'juan'
p1610
I1
sS'member'
p1611
I2
sS'inca'
p1612
I3
sS'largest'
p1613
I3
sS'units'
p1614
I2
sS'party'
p1615
I3
sS'terrorism'
p1616
I1
sS'40.580'
p1617
I1
sS'cubic'
p1618
I2
sS'effect'
p1619
I1
sS'compared'
p1620
I9
sS'takers'
p1621
I3
sS'macedo'
p1622
I1
sS'reflection'
p1623
I1
sS'antonio'
p1624
I2
sS'1.29'
p1625
I1
sS'position'
p1626
I2
sS'1.20'
p1627
I1
sS'1.27'
p1628
I2
sS'drawing'
p1629
I1
sS'latest'
p1630
I1
sS'intransigence'
p1631
I1
sS'percent'
p1632
I84
sS'fishing'
p1633
I2
sS'paul'
p1634
I3
sS'mavarro'
p1635
I1
sS'camet'
p1636
I7
sS'headed'
p1637
I1
sS'deposits'
p1638
I4
sS'arrest'
p1639
I2
sS'add'
p1640
I1
sS'crack'
p1641
I1
sS'1,562'
p1642
I1
sS'resolved'
p1643
I1
sS'increased'
p1644
I1
sS'government'
p1645
I25
sS'shares.brokers'
p1646
I1
sS'265'
p1647
I1
sS'45.95'
p1648
I1
sS'necessary'
p1649
I1
sS'like'
p1650
I2
sS'lost'
p1651
I1
sS'payments'
p1652
I2
sS'martin'
p1653
I2
sS'works'
p1654
I1
sS'traitors'
p1655
I1
sS'1.325'
p1656
I1
sS'copri'
p1657
I2
sS'growth'
p1658
I6
sS'export'
p1659
I1
sS'110'
p1660
I1
sS'home'
p1661
I1
sS'transport'
p1662
I1
sS'revs'
p1663
I2
sS'5.555'
p1664
I2
sS'0.26'
p1665
I1
sS'miner'
p1666
I4
sS'mines'
p1667
I2
sS'does'
p1668
I1
sS'leader'
p1669
I2
sS'wars.now'
p1670
I1
sS'mollendo'
p1671
I1
sS'expansion'
p1672
I5
sS'27.2'
p1673
I1
sS'pizarro'
p1674
I3
sS'offset'
p1675
I1
sS'snapped'
p1676
I1
sS'27.9'
p1677
I1
sS'this.the'
p1678
I1
sS'stage'
p1679
I4
sS'carried'
p1680
I4
sS'getting'
p1681
I1
sS'column'
p1682
I2
sS'freedom'
p1683
I3
sS'630,000'
p1684
I1
sS'political'
p1685
I1
sS'commitment'
p1686
I2
sS'19.the'
p1687
I1
sS'banco'
p1688
I3
sS'aceros'
p1689
I1
sS'utility'
p1690
I1
sS'stocks'
p1691
I9
sS'additional'
p1692
I1
sS'2.55'
p1693
I1
sS'confident'
p1694
I3
sS'museum'
p1695
I1
sS'frustration'
p1696
I1
sS'9.7'
p1697
I1
sS'naturally'
p1698
I1
sS'fiscal'
p1699
I1
sS'north'
p1700
I1
sS'funds'
p1701
I1
sS'years.despite'
p1702
I1
sS'highlands.an'
p1703
I1
sS'construction'
p1704
I1
sS'gain'
p1705
I2
sS'courts'
p1706
I1
sS'backstop'
p1707
I1
sS'congresswoman'
p1708
I1
sS'official'
p1709
I2
sS'record'
p1710
I1
sS'duties'
p1711
I1
sS'problem'
p1712
I3
sS'broadly'
p1713
I1
sS'6.19'
p1714
I1
sS'141.3'
p1715
I1
sS'hearing.camet'
p1716
I1
sS'identities'
p1717
I1
sS'petroperu'
p1718
I1
sS'firefights'
p1719
I1
sS'86'
p1720
I1
sS'45'
p1721
I1
sS'offensive'
p1722
I1
sS'talkie'
p1723
I1
sS'picchu'
p1724
I2
sS'11.1'
p1725
I1
sS'francisco'
p1726
I1
sS'monday'
p1727
I3
sS'stay'
p1728
I1
sS'tonnes'
p1729
I5
sS'repeal'
p1730
I6
sS'29.0'
p1731
I1
sS'ties.while'
p1732
I1
sS'lasted'
p1733
I1
sS'hikes'
p1734
I1
sS'475'
p1735
I1
sS'rural'
p1736
I1
s.