(dp0
S'limited'
p1
I2
sS'warrants.ana'
p2
I1
sS'0.13'
p3
I2
sS'believed'
p4
I2
sS'consolidated'
p5
I1
sS'cabel.piltel'
p6
I1
sS'desirable'
p7
I2
sS'yellow'
p8
I6
sS'laxa'
p9
I3
sS'facilities'
p10
I1
sS'9.58'
p11
I3
sS'asian'
p12
I14
sS'controversial'
p13
I1
sS'16.50'
p14
I1
sS'9.52'
p15
I3
sS'14.50'
p16
I1
sS'9.50'
p17
I8
sS'window.the'
p18
I1
sS'9.57'
p19
I1
sS'9.55'
p20
I9
sS'increase'
p21
I18
sS'0.52'
p22
I1
sS'granting'
p23
I2
sS'eligible'
p24
I1
sS'electricity'
p25
I12
sS'1.18'
p26
I1
sS'trade.value'
p27
I1
sS'neighbours'
p28
I1
sS'bln'
p29
I2
sS'67,000'
p30
I1
sS'swap'
p31
I1
sS'kalimantan'
p32
I2
sS'worth'
p33
I9
sS'divergent'
p34
I2
sS'sinking'
p35
I1
sS'pact'
p36
I1
sS'digit'
p37
I6
sS'statute'
p38
I1
sS'risk'
p39
I2
sS'dynamic'
p40
I2
sS'regional'
p41
I4
sS'sellers'
p42
I5
sS'launch.the'
p43
I1
sS'affect'
p44
I11
sS'exporters'
p45
I1
sS'bringing'
p46
I3
sS'neighbouring'
p47
I1
sS'mejia.mejia'
p48
I2
sS'anscor'
p49
I6
sS'18-member'
p50
I2
sS'companies'
p51
I21
sS'wednesday'
p52
I35
sS'days.prices'
p53
I2
sS'frozen'
p54
I1
sS'delegate'
p55
I1
sS'indices'
p56
I4
sS'enhance'
p57
I3
sS'buddha'
p58
I2
sS'293'
p59
I1
sS'290'
p60
I1
sS'enjoy'
p61
I1
sS'aeronautics'
p62
I1
sS'points.the'
p63
I2
sS'force'
p64
I2
sS'pragmatic'
p65
I1
sS'consistent'
p66
I3
sS'guidelines'
p67
I3
sS'japanese'
p68
I8
sS'likely'
p69
I13
sS'street'
p70
I17
sS'bartolome'
p71
I2
sS'estimated'
p72
I6
sS'appetite'
p73
I1
sS'milled'
p74
I1
sS'established'
p75
I1
sS'1.1879'
p76
I1
sS'preferences'
p77
I3
sS'hunt.swiss'
p78
I1
sS'ruben'
p79
I4
sS'40.14'
p80
I1
sS'cooking'
p81
I1
sS'contributed'
p82
I3
sS'profitability'
p83
I1
sS'solidbank'
p84
I1
sS'lights'
p85
I1
sS'irrevocable'
p86
I1
sS'toll'
p87
I2
sS'supplies'
p88
I2
sS'net'
p89
I39
sS'increasing'
p90
I4
sS'officially'
p91
I1
sS'reform'
p92
I2
sS'told'
p93
I27
sS'med'
p94
I1
sS'barometer'
p95
I4
sS'wg&a'
p96
I4
sS'1.17'
p97
I1
sS'guido'
p98
I3
sS'1800'
p99
I2
sS'redeploy'
p100
I1
sS'herd'
p101
I1
sS'conglomerate'
p102
I2
sS'reported'
p103
I17
sS'china'
p104
I19
sS'active'
p105
I1
sS'103'
p106
I2
sS'100'
p107
I6
sS'101'
p108
I3
sS'half'
p109
I2
sS'105'
p110
I1
sS'doldrums'
p111
I2
sS'cyclical'
p112
I4
sS'balance'
p113
I5
sS'2.8'
p114
I2
sS'1.10'
p115
I1
sS'0.39'
p116
I1
sS'said.finance'
p117
I1
sS'auction'
p118
I4
sS'study'
p119
I2
sS'marcos'
p120
I16
sS'3.7961'
p121
I1
sS'reports'
p122
I2
sS'0.30'
p123
I2
sS'credit'
p124
I5
sS'depreciated'
p125
I2
sS'analysts'
p126
I23
sS'permit'
p127
I1
sS'pesos.market'
p128
I1
sS'sectoral'
p129
I2
sS'laju'
p130
I1
sS'liboro'
p131
I1
sS'reuters.belle'
p132
I1
sS'ipps'
p133
I4
sS'projection'
p134
I1
sS'campaign'
p135
I1
sS'ground'
p136
I1
sS'matushita'
p137
I1
sS'brought'
p138
I1
sS'repurchase'
p139
I1
sS'specifics'
p140
I1
sS'50-kg'
p141
I1
sS'opportunities'
p142
I2
sS'soybean'
p143
I6
sS'socioeconomic'
p144
I1
sS'bre'
p145
I3
sS'total'
p146
I11
sS'unit'
p147
I8
sS'118,658'
p148
I1
sS'pineridge'
p149
I1
sS'miguel.san'
p150
I1
sS'sales.traders'
p151
I1
sS'hospital'
p152
I1
sS'century'
p153
I1
sS'overshadow'
p154
I1
sS'negative'
p155
I5
sS'tenders'
p156
I2
sS'noting'
p157
I4
sS'music'
p158
I1
sS'asset'
p159
I5
sS'recommend'
p160
I2
sS'miguel.the'
p161
I2
sS'dairy'
p162
I2
sS'month.from'
p163
I1
sS'type'
p164
I1
sS'statement.pnoc'
p165
I1
sS'said.dalit'
p166
I2
sS'posting'
p167
I2
sS'wary'
p168
I1
sS'composite'
p169
I5
sS'giovanni'
p170
I2
sS'722.50'
p171
I3
sS'hurt'
p172
I2
sS'1.046'
p173
I5
sS'pleasephone'
p174
I3
sS'export'
p175
I5
sS'bookrunner'
p176
I1
sS'91'
p177
I1
sS'6267'
p178
I8
sS'hold'
p179
I7
sS'inc.bate'
p180
I1
sS'blocking'
p181
I1
sS'97'
p182
I2
sS'96'
p183
I1
sS'1991'
p184
I2
sS'1990'
p185
I1
sS'1993'
p186
I3
sS'1992'
p187
I5
sS'1995'
p188
I15
sS'1994'
p189
I2
sS'1997'
p190
I16
sS'rights'
p191
I4
sS'pursue'
p192
I1
sS'mo'
p193
I1
sS'gasoline'
p194
I2
sS'mt'
p195
I1
sS'mv'
p196
I40
sS'erb'
p197
I1
sS'containment'
p198
I1
sS'revenues'
p199
I7
sS'criminal'
p200
I1
sS'example'
p201
I1
sS'merchant'
p202
I1
sS'transition'
p203
I1
sS'estate'
p204
I9
sS'weeks.the'
p205
I1
sS'28,000'
p206
I1
sS'cited'
p207
I6
sS'india'
p208
I5
sS'uptick'
p209
I3
sS'53.5'
p210
I2
sS'involve'
p211
I2
sS'currency'
p212
I4
sS'orion'
p213
I3
sS'reviewing'
p214
I2
sS'want'
p215
I6
sS'14.may.97'
p216
I1
sS'misalignments'
p217
I3
sS'attract'
p218
I1
sS'26800'
p219
I1
sS'addressing'
p220
I2
sS'lower.another'
p221
I1
sS'hog'
p222
I1
sS'end'
p223
I12
sS'recovery'
p224
I4
sS'turn'
p225
I1
sS'provide'
p226
I8
sS'returning'
p227
I1
sS'feature'
p228
I1
sS'interview'
p229
I5
sS'symposium'
p230
I1
sS'resignation'
p231
I3
sS'charging'
p232
I2
sS'offshore'
p233
I1
sS'pizza'
p234
I1
sS'gaming'
p235
I1
sS'rise'
p236
I17
sS'minority'
p237
I1
sS'earlier'
p238
I12
sS'confirmed'
p239
I1
sS'privatisation.delgado'
p240
I1
sS'modest'
p241
I2
sS'week.wg'
p242
I1
sS'2843'
p243
I1
sS'president'
p244
I39
sS'law'
p245
I1
sS'purchase'
p246
I3
sS'7/8'
p247
I5
sS'effective'
p248
I8
sS'capitalise'
p249
I1
sS'claimant'
p250
I2
sS'amid'
p251
I3
sS'strict'
p252
I1
sS'revolt'
p253
I2
sS'headquarters'
p254
I5
sS'1.2120'
p255
I1
sS'luring'
p256
I1
sS'maintain'
p257
I4
sS'green'
p258
I2
sS'4.6-4.7'
p259
I2
sS'726.25'
p260
I1
sS'correlation'
p261
I1
sS'meeting.apec'
p262
I1
sS'operate'
p263
I7
sS'order'
p264
I6
sS'operations'
p265
I5
sS'senators'
p266
I1
sS'foresaw'
p267
I1
sS'office'
p268
I14
sS'citisec'
p269
I4
sS'telecom'
p270
I2
sS'hectare'
p271
I3
sS'expects'
p272
I14
sS'58.93'
p273
I1
sS'12.2'
p274
I1
sS'pascal'
p275
I2
sS'fortify'
p276
I1
sS'responsive'
p277
I2
sS'japan'
p278
I10
sS'218'
p279
I1
sS'3.16information'
p280
I1
sS'10.0'
p281
I1
sS'10.3'
p282
I2
sS'10.4'
p283
I2
sS'imf'
p284
I18
sS'10.9'
p285
I1
sS'pilipinas'
p286
I1
sS'trying'
p287
I1
sS'expectations'
p288
I1
sS'better'
p289
I7
sS'matured'
p290
I1
sS'compelling'
p291
I1
sS'401'
p292
I1
sS'persist'
p293
I2
sS'weeks'
p294
I8
sS'pass'
p295
I1
sS'easier'
p296
I1
sS'split'
p297
I1
sS'9.45'
p298
I12
sS'eventually'
p299
I1
sS'9.47'
p300
I2
sS'9.46'
p301
I2
sS'affected'
p302
I2
sS'9.40'
p303
I7
sS'combination'
p304
I2
sS'9.42'
p305
I1
sS'weakness'
p306
I1
sS'slate'
p307
I1
sS'2030'
p308
I1
sS"we'll"
p309
I3
sS'scene'
p310
I1
sS'percemt'
p311
I1
sS'bang'
p312
I2
sS'bankroll'
p313
I2
sS'effects'
p314
I1
sS'strategic'
p315
I4
sS'bank'
p316
I133
sS'months.the'
p317
I1
sS'gloom'
p318
I1
sS'1.05'
p319
I1
sS'1.04'
p320
I2
sS'1.08'
p321
I1
sS'debut'
p322
I12
sS'alexis'
p323
I3
sS'affiliate'
p324
I2
sS'went'
p325
I2
sS'3.8254'
p326
I1
sS'bond'
p327
I5
sS'consolidate'
p328
I2
sS'week.singson'
p329
I2
sS'tabaco'
p330
I4
sS'655,000'
p331
I1
sS'financial'
p332
I38
sS'woes'
p333
I1
sS'list'
p334
I3
sS'principles'
p335
I6
sS'solution'
p336
I5
sS'carry'
p337
I2
sS'114,059'
p338
I1
sS'trading'
p339
I27
sS'caustic'
p340
I1
sS'substantially'
p341
I3
sS'chronicle'
p342
I1
sS'said.according'
p343
I1
sS'saturday'
p344
I2
sS'stabilised'
p345
I2
sS'projections'
p346
I2
sS'308,000'
p347
I1
sS'trending'
p348
I1
sS'network'
p349
I1
sS'10.30pci'
p350
I1
sS'waive'
p351
I1
sS'diesel'
p352
I1
sS'vessels'
p353
I1
sS'content'
p354
I2
sS'kwhs'
p355
I2
sS'encourage'
p356
I3
sS'owning'
p357
I1
sS'banning'
p358
I1
sS'surprise'
p359
I1
sS'gov'
p360
I1
sS'sluggish'
p361
I1
sS'1.14kabuhayan'
p362
I1
sS'60830'
p363
I1
sS'perception'
p364
I1
sS'largely'
p365
I2
sS'threatened'
p366
I1
sS'ntt'
p367
I4
sS'ramon'
p368
I1
sS'standard'
p369
I2
sS'unconvinced'
p370
I1
sS'ramos'
p371
I6
sS'corrects'
p372
I1
sS'fraud'
p373
I2
sS'checked'
p374
I1
sS'estimate'
p375
I1
sS'wanted'
p376
I1
sS'unauthorised'
p377
I1
sS'bail.the'
p378
I1
sS'iss'
p379
I1
sS'starts'
p380
I1
sS'days'
p381
I8
sS'priorities'
p382
I1
sS'ati'
p383
I1
sS'renew'
p384
I3
sS'borrowers.volume'
p385
I1
sS'possiblity'
p386
I1
sS'soda'
p387
I1
sS'moving'
p388
I3
sS'louie'
p389
I1
sS'ransom'
p390
I1
sS'industrial'
p391
I2
sS'economists'
p392
I4
sS'grade'
p393
I2
sS'december'
p394
I1
sS'failure.the'
p395
I1
sS'0.9612'
p396
I1
sS'issuances.following'
p397
I1
sS'establishments'
p398
I2
sS'chevron'
p399
I2
sS'millers'
p400
I3
sS'navigator'
p401
I2
sS'perking'
p402
I1
sS'electronic'
p403
I2
sS'171'
p404
I1
sS'leaders'
p405
I4
sS'0.09'
p406
I1
sS'service'
p407
I5
sS'defect'
p408
I1
sS'13/32'
p409
I1
sS'0.04'
p410
I1
sS'needed'
p411
I1
sS'0.10information'
p412
I1
sS'rates'
p413
I75
sS'listed'
p414
I8
sS'6,611.05'
p415
I2
sS'percentage'
p416
I8
sS'euro'
p417
I1
sS'1996.cosmos'
p418
I1
sS'5-10'
p419
I4
sS'5-13'
p420
I1
sS'10.525'
p421
I1
sS'rest'
p422
I5
sS'relative'
p423
I2
sS'diversified'
p424
I4
sS'took'
p425
I4
sS'rejected'
p426
I1
sS'direct'
p427
I1
sS'western'
p428
I2
sS'shortly'
p429
I2
sS'diversifies'
p430
I1
sS'securities.indeed'
p431
I1
sS'begins'
p432
I1
sS'distance'
p433
I1
sS'trek'
p434
I1
sS'recto'
p435
I2
sS'target'
p436
I8
sS'showed'
p437
I8
sS'hike'
p438
I2
sS'zero'
p439
I1
sS'modernisation'
p440
I1
sS'project'
p441
I8
sS'matter'
p442
I1
sS'12/32'
p443
I8
sS'centavo'
p444
I1
sS'k'
p445
I1
sS'0-1/2'
p446
I1
sS'bridge'
p447
I1
sS'sees'
p448
I2
sS'tuesday.president'
p449
I1
sS'0-1/4'
p450
I2
sS'helpful.with'
p451
I1
sS'853,000'
p452
I1
sS'500,000'
p453
I1
sS'services.the'
p454
I1
sS'talking'
p455
I1
sS'manner'
p456
I2
sS'exchange.premiere'
p457
I1
sS'seen'
p458
I6
sS'warburg'
p459
I2
sS'seek'
p460
I4
sS'relatively'
p461
I2
sS'forced'
p462
I1
sS'abroad'
p463
I3
sS'strength'
p464
I1
sS'effort.dickie'
p465
I1
sS'person'
p466
I1
sS'cope'
p467
I1
sS'26,173'
p468
I1
sS'eagerly'
p469
I5
sS'edge'
p470
I2
sS'luxury'
p471
I3
sS'113.30'
p472
I7
sS'shelf'
p473
I1
sS'0.43'
p474
I1
sS'rule.marcos'
p475
I1
sS'worsening'
p476
I1
sS'reversed'
p477
I4
sS'conducive'
p478
I1
sS'shipments'
p479
I1
sS'spencer'
p480
I2
sS'7.40'
p481
I2
sS'shall'
p482
I3
sS'russel'
p483
I1
sS'exercised'
p484
I3
sS'phileo'
p485
I4
sS'8.00'
p486
I2
sS'involving'
p487
I1
sS'1.2007'
p488
I1
sS'x'
p489
I5
sS'phase'
p490
I2
sS'stood'
p491
I3
sS'autopsy'
p492
I3
sS'sub'
p493
I4
sS'zealand'
p494
I9
sS'reimbursement'
p495
I1
sS'ortigas'
p496
I2
sS'flops'
p497
I1
sS'mitsuzuka'
p498
I1
sS'unlisted'
p499
I1
sS'7-apr'
p500
I1
sS'medical'
p501
I1
sS'flow'
p502
I8
sS'investments'
p503
I9
sS'makati'
p504
I2
sS'mgt'
p505
I1
sS'points'
p506
I37
sS'place'
p507
I4
sS'neg'
p508
I1
sS'outnumbered'
p509
I2
sS'consumer'
p510
I7
sS'dow'
p511
I25
sS'urgency'
p512
I1
sS'reserve'
p513
I5
sS'saying'
p514
I9
sS'ambassador'
p515
I1
sS'cabel'
p516
I3
sS'hotelsunday'
p517
I1
sS'meetings'
p518
I1
sS'probe'
p519
I1
sS'teresa'
p520
I1
sS'ending'
p521
I1
sS'7.0'
p522
I1
sS'criteria.but'
p523
I2
sS'asia'
p524
I23
sS'participate'
p525
I1
sS'quezon'
p526
I2
sS'availability'
p527
I2
sS'charity'
p528
I1
sS'overwhelming'
p529
I1
sS'quoted'
p530
I9
sS'advanced'
p531
I1
sS'implementation'
p532
I2
sS'chong'
p533
I1
sS'sentence'
p534
I1
sS'institution'
p535
I1
sS'estimated.the'
p536
I1
sS'geologist'
p537
I4
sS'screening'
p538
I1
sS'borrowers.market'
p539
I1
sS'announce'
p540
I1
sS'rice'
p541
I48
sS'nullified'
p542
I1
sS'island.simplicio'
p543
I1
sS'mixture'
p544
I1
sS'cecilia'
p545
I2
sS'9.875'
p546
I2
sS'wide'
p547
I2
sS'commodity'
p548
I6
sS'endorse'
p549
I1
sS'stop'
p550
I1
sS'leisure'
p551
I2
sS'4.09'
p552
I1
sS'25,000'
p553
I3
sS'discharing'
p554
I1
sS'57.44'
p555
I4
sS'haunted'
p556
I1
sS'lenders'
p557
I4
sS'new'
p558
I43
sS'report'
p559
I16
sS'ben'
p560
I2
sS'9.475'
p561
I2
sS'spilling'
p562
I1
sS'countries'
p563
I10
sS'deterioration'
p564
I1
sS'accordance'
p565
I1
sS'conference.delamuraz'
p566
I1
sS'bay'
p567
I3
sS'liberalising'
p568
I3
sS'refers'
p569
I2
sS'rival'
p570
I1
sS'release'
p571
I11
sS'3ml'
p572
I1
sS'automatic'
p573
I1
sS'secretary'
p574
I5
sS'attest'
p575
I1
sS'development.the'
p576
I3
sS'victim'
p577
I1
sS'ipma2'
p578
I1
sS'president1500'
p579
I1
sS'reporting'
p580
I1
sS'year.in'
p581
I1
sS'observed'
p582
I2
sS'depends'
p583
I3
sS'decided'
p584
I8
sS'result'
p585
I12
sS'discussions'
p586
I1
sS'activities'
p587
I1
sS'best'
p588
I2
sS'03'
p589
I1
sS'00'
p590
I1
sS'said'
p591
I358
sS'11,500'
p592
I1
sS'ackerman'
p593
I4
sS'afloat'
p594
I2
sS'appealing'
p595
I2
sS'1,356'
p596
I1
sS'santos'
p597
I1
sS'targets'
p598
I4
sS'pressures'
p599
I10
sS'bien'
p600
I4
sS'unable'
p601
I1
sS'cooperation'
p602
I14
sS'deputies'
p603
I2
sS'92'
p604
I1
sS'approach'
p605
I3
sS'360'
p606
I1
sS'terms'
p607
I9
sS'qinhuangdao'
p608
I1
sS'hai'
p609
I2
sS'1015'
p610
I1
sS'weak'
p611
I2
sS'southeast'
p612
I1
sS'outages'
p613
I2
sS'news'
p614
I11
sS'debt'
p615
I2
sS'42.4'
p616
I2
sS'42.7'
p617
I2
sS'suggested'
p618
I4
sS'unq'
p619
I7
sS'1.1932'
p620
I1
sS'accused'
p621
I2
sS'2.7914'
p622
I1
sS'percent.economists'
p623
I1
sS'country'
p624
I32
sS'governmentsecurities'
p625
I4
sS'amortized'
p626
I1
sS'estates'
p627
I1
sS'planned'
p628
I3
sS'contribution'
p629
I1
sS'hwang'
p630
I1
sS'asked'
p631
I5
sS'negotiation'
p632
I1
sS'suggest'
p633
I2
sS'accrued.the'
p634
I1
sS'1.5'
p635
I1
sS'irresponsible'
p636
I1
sS'corp.analysts'
p637
I2
sS'88.23'
p638
I1
sS'bank.the'
p639
I1
sS'said.on'
p640
I2
sS'initiative'
p641
I1
sS'exclusively'
p642
I3
sS'arsenio'
p643
I2
sS'1.0'
p644
I1
sS'250'
p645
I1
sS'trust'
p646
I8
sS'256'
p647
I1
sS'said.rates'
p648
I2
sS'10-17'
p649
I2
sS'conference'
p650
I1
sS'signals'
p651
I1
sS'skidded'
p652
I2
sS'angel'
p653
I1
sS'puts'
p654
I1
sS'basis'
p655
I6
sS'holdings'
p656
I28
sS'9.70'
p657
I7
sS'10-15'
p658
I1
sS'sachs'
p659
I1
sS'quickly'
p660
I2
sS'commission'
p661
I4
sS'beer'
p662
I2
sS'spread'
p663
I1
sS'further.a'
p664
I1
sS'noel'
p665
I3
sS'basic'
p666
I4
sS'expected'
p667
I41
sS'entered'
p668
I6
sS'0.9743'
p669
I1
sS'10.063'
p670
I1
sS'obtained'
p671
I2
sS'fleeting'
p672
I1
sS'eastern'
p673
I3
sS'concerning'
p674
I2
sS'pat'
p675
I1
sS'said.tan'
p676
I1
sS'irving'
p677
I2
sS'catering'
p678
I2
sS'0.15'
p679
I1
sS'0.14'
p680
I1
sS'0.16'
p681
I1
sS'tapping'
p682
I2
sS'chile'
p683
I8
sS'personally'
p684
I1
sS'165'
p685
I2
sS'worked'
p686
I1
sS'732.50'
p687
I1
sS'diverted'
p688
I1
sS'applied'
p689
I1
sS'exception'
p690
I1
sS'traced'
p691
I1
sS'forum'
p692
I12
sS'system.the'
p693
I4
sS'affirm'
p694
I1
sS'economies'
p695
I31
sS'disclosed'
p696
I1
sS'air'
p697
I2
sS'aim'
p698
I1
sS'moratorium'
p699
I1
sS'abrupt'
p700
I1
sS'surprised'
p701
I1
sS'applies'
p702
I1
sS'bate'
p703
I2
sS'panamax'
p704
I1
sS'overtaking'
p705
I1
sS'anchor'
p706
I3
sS'launched'
p707
I1
sS'seven'
p708
I10
sS'cane'
p709
I1
sS'said.another'
p710
I1
sS'1.0525'
p711
I1
sS'metropolitan'
p712
I4
sS'mexico'
p713
I7
sS'assetvalues'
p714
I1
sS'pesos.earnings'
p715
I1
sS'indonesian'
p716
I3
sS'said.phileo'
p717
I1
sS'barrels'
p718
I2
sS'player'
p719
I1
sS'upscale'
p720
I1
sS'exile'
p721
I2
sS'victims'
p722
I4
sS'10.375/10.325citibank'
p723
I1
sS'controversy'
p724
I1
sS'hong'
p725
I13
sS'mauban'
p726
I1
sS'bottler'
p727
I1
sS'cools'
p728
I1
sS'perform'
p729
I2
sS'belle'
p730
I5
sS'make'
p731
I5
sS'debuted'
p732
I2
sS'vorios'
p733
I1
sS'complex'
p734
I6
sS'ocampo'
p735
I1
sS'sidelines'
p736
I1
sS'rebound'
p737
I3
sS'entitled'
p738
I1
sS'independent'
p739
I2
sS'declaring'
p740
I2
sS'redevelop'
p741
I2
sS'hang'
p742
I1
sS'hand'
p743
I6
sS'action'
p744
I3
sS'ownership'
p745
I1
sS'overperformance'
p746
I2
sS'tolice'
p747
I1
sS'kept'
p748
I7
sS'1977'
p749
I1
sS'changes'
p750
I6
sS'panajon'
p751
I1
sS'supervisors'
p752
I1
sS'deferred'
p753
I1
sS'savings'
p754
I3
sS'rizal'
p755
I1
sS'7,700'
p756
I1
sS'increase.cebu'
p757
I1
sS'claims'
p758
I1
sS'jean'
p759
I2
sS'800'
p760
I1
sS'corporate'
p761
I3
sS'securities.noel'
p762
I1
sS'left'
p763
I3
sS'spurred'
p764
I2
sS'3,064.63'
p765
I1
sS'just'
p766
I11
sS'yen'
p767
I12
sS'201.8'
p768
I1
sS'photo'
p769
I1
sS'distribute'
p770
I4
sS'unfair'
p771
I1
sS'mindanao'
p772
I1
sS'quotes'
p773
I6
sS'identify'
p774
I3
sS'human'
p775
I4
sS'firmed'
p776
I2
sS'yes'
p777
I2
sS'8.10'
p778
I1
sS'previous'
p779
I10
sS'adding'
p780
I5
sS'buyers'
p781
I9
sS'got'
p782
I1
sS'5,500'
p783
I3
sS'51.19'
p784
I5
sS'royal'
p785
I1
sS'208,000'
p786
I1
sS'greatly'
p787
I1
sS'transformed'
p788
I4
sS'board'
p789
I19
sS'easy'
p790
I1
sS'east'
p791
I27
sS'said.quezon'
p792
I1
sS'hau'
p793
I1
sS'gave'
p794
I6
sS'1.12philequity'
p795
I1
sS'busang'
p796
I6
sS'agenices'
p797
I1
sS'1100'
p798
I2
sS'appreciated'
p799
I2
sS'africa'
p800
I1
sS'zangzashan'
p801
I1
sS'possible'
p802
I5
sS'9.80'
p803
I8
sS'cultural'
p804
I1
sS'indicative'
p805
I6
sS'securities.rudsend'
p806
I1
sS'shadow'
p807
I1
sS'unfounded'
p808
I1
sS'retreat'
p809
I2
sS'59'
p810
I6
sS'congressman'
p811
I1
sS'vis'
p812
I4
sS'55'
p813
I3
sS'57'
p814
I2
sS'performing'
p815
I1
sS'orlando'
p816
I2
sS'50'
p817
I6
sS'lapsed'
p818
I1
sS'securities'
p819
I52
sS'bpi'
p820
I5
sS'berba'
p821
I1
sS'officer'
p822
I10
sS'3,066.27'
p823
I2
sS'hung'
p824
I4
sS'inc.thursday'
p825
I1
sS'ltd.solid'
p826
I1
sS'right'
p827
I6
sS'old'
p828
I1
sS'298,000'
p829
I2
sS'deal'
p830
I12
sS'people'
p831
I9
sS'landlines.mobile'
p832
I1
sS'successfully'
p833
I2
sS'malaysia'
p834
I9
sS'productions'
p835
I2
sS'meters'
p836
I4
sS'insistence'
p837
I1
sS'bureau'
p838
I3
sS'indirect'
p839
I1
sS'denies'
p840
I1
sS'unsuspecting'
p841
I1
sS'203.3'
p842
I1
sS'treasurers'
p843
I2
sS'armed'
p844
I1
sS'centre'
p845
I2
sS'year.earlier'
p846
I2
sS'ice'
p847
I1
sS'contributing'
p848
I1
sS'asking'
p849
I1
sS'fob'
p850
I3
sS'denied'
p851
I7
sS'eei'
p852
I1
sS'beating'
p853
I1
sS'mayjn'
p854
I1
sS'participation'
p855
I5
sS'infrstructure.the'
p856
I1
sS'subscriptions'
p857
I1
sS'marketing'
p858
I2
sS'corn'
p859
I8
sS'said.this'
p860
I2
sS'6,000'
p861
I1
sS'plg'
p862
I1
sS'restructuring'
p863
I8
sS'subcriber'
p864
I1
sS'corp'
p865
I74
sS'said.liboro'
p866
I1
sS'losing'
p867
I3
sS'brokerage'
p868
I1
sS'post'
p869
I6
sS'strike'
p870
I1
sS'properties'
p871
I15
sS'sector.lazaro'
p872
I1
sS'session.the'
p873
I1
sS'852'
p874
I1
sS'filipino'
p875
I8
sS'company.terms'
p876
I1
sS'dollars'
p877
I7
sS'months'
p878
I9
sS'dinner'
p879
I3
sS'horizon'
p880
I2
sS'steadily'
p881
I1
sS'islands'
p882
I4
sS'efforts'
p883
I7
sS'said.market'
p884
I1
sS'10.385/10.20multinational'
p885
I1
sS'trade.empire'
p886
I1
sS'raised'
p887
I6
sS'trounce'
p888
I1
sS'managers'
p889
I3
sS'amounted'
p890
I3
sS'civil'
p891
I2
sS'year.rfm'
p892
I1
sS'share.concepcion'
p893
I1
sS'tanchoco'
p894
I2
sS'gearing'
p895
I2
sS'prices.but'
p896
I1
sS'capped'
p897
I1
sS'coastal'
p898
I1
sS'stockholder'
p899
I1
sS'balanced'
p900
I2
sS'1990s'
p901
I1
sS'federal'
p902
I3
sS'year.the'
p903
I6
sS'85,412,820'
p904
I4
sS'21.4'
p905
I1
sS'rose.the'
p906
I2
sS'america'
p907
I5
sS'delos'
p908
I1
sS'product.the'
p909
I1
sS'support'
p910
I10
sS'initial'
p911
I8
sS'3.35philam'
p912
I1
sS'2000.manila'
p913
I1
sS'smppi'
p914
I4
sS'125.0'
p915
I1
sS'accordingly'
p916
I1
sS'corp.he'
p917
I1
sS'way'
p918
I1
sS'camdessus'
p919
I2
sS'letter'
p920
I1
sS'150,000'
p921
I2
sS'jang'
p922
I1
sS'1/16'
p923
I3
sS'launching'
p924
I2
sS'10.30solidbank'
p925
I1
sS'lowest'
p926
I7
sS'head'
p927
I12
sS'medium'
p928
I1
sS'criteria.the'
p929
I1
sS'offering'
p930
I23
sS'offer'
p931
I18
sS'differences'
p932
I1
sS'downswing.even'
p933
I1
sS'failure'
p934
I3
sS'syndicate'
p935
I2
sS'8,500'
p936
I1
sS'fivefold'
p937
I1
sS'true'
p938
I4
sS'analyst'
p939
I13
sS'220'
p940
I2
sS'said.when'
p941
I1
sS'understood'
p942
I1
sS'era.the'
p943
I1
sS'hitting'
p944
I1
sS'bellwether'
p945
I1
sS'devices'
p946
I1
sS'peso'
p947
I39
sS'mth'
p948
I1
sS'3.5'
p949
I1
sS'pesos'
p950
I142
sS'corrected'
p951
I2
sS'26.37'
p952
I10
sS'cosmos'
p953
I5
sS'2017.the'
p954
I1
sS'26.30'
p955
I3
sS'paracale'
p956
I1
sS'150'
p957
I1
sS'strengthening'
p958
I3
sS'stockbrokering'
p959
I1
sS'lowering'
p960
I1
sS'area.smart'
p961
I1
sS'meagre'
p962
I2
sS'0.11filipino'
p963
I1
sS'expertise'
p964
I1
sS'promised'
p965
I1
sS'telecoms'
p966
I1
sS'claimants'
p967
I5
sS'accounting'
p968
I1
sS'ship'
p969
I20
sS'bearishness'
p970
I3
sS'dealer'
p971
I19
sS'negotiations'
p972
I3
sS'added.analysts'
p973
I1
sS'weakened'
p974
I1
sS'floor'
p975
I4
sS'agreeing'
p976
I1
sS'stake'
p977
I9
sS'generally'
p978
I4
sS'senatorial'
p979
I1
sS'ng'
p980
I2
sS'securitisation'
p981
I1
sS'interested'
p982
I2
sS'role'
p983
I2
sS'unsubscribed'
p984
I3
sS'holding'
p985
I3
sS'soundly'
p986
I2
sS'test'
p987
I1
sS'nq'
p988
I23
sS'injuring'
p989
I1
sS'kerosene'
p990
I1
sS'reconsider'
p991
I1
sS'said.gothong'
p992
I1
sS'added.simplicio'
p993
I1
sS'15.88'
p994
I1
sS'juices'
p995
I1
sS'felt'
p996
I2
sS'stealing'
p997
I2
sS'45,143'
p998
I1
sS'fell'
p999
I17
sS'invested'
p1000
I1
sS'said.no'
p1001
I1
sS'meeting.the'
p1002
I1
sS'authorities'
p1003
I3
sS'pierced'
p1004
I1
sS'weekend'
p1005
I8
sS'died'
p1006
I2
sS'jones'
p1007
I8
sS'30,000'
p1008
I2
sS'longer'
p1009
I3
sS'bullet'
p1010
I1
sS'phone'
p1011
I5
sS'paces'
p1012
I1
sS'proposed'
p1013
I4
sS'apprehensions'
p1014
I2
sS'daily'
p1015
I16
sS'filing'
p1016
I1
sS'difficulties.empire'
p1017
I1
sS'vietnam'
p1018
I35
sS'time'
p1019
I16
sS'push'
p1020
I1
sS'shipment.the'
p1021
I2
sS'backward'
p1022
I2
sS'profits'
p1023
I12
sS'pldt'
p1024
I7
sS'managed'
p1025
I2
sS'chain'
p1026
I1
sS'rating'
p1027
I2
sS'strengthened'
p1028
I1
sS'global'
p1029
I6
sS'focus'
p1030
I2
sS'91-day'
p1031
I17
sS'pnoc'
p1032
I4
sS'manager'
p1033
I4
sS'01.apr.97'
p1034
I1
sS'thursday.spread'
p1035
I1
sS'computation'
p1036
I2
sS'90'
p1037
I2
sS'battle'
p1038
I1
sS'chair'
p1039
I1
sS'davao'
p1040
I2
sS'milk'
p1041
I1
sS'hibernated'
p1042
I1
sS'supposedly'
p1043
I2
sS'anticipation'
p1044
I2
sS'ver'
p1045
I1
sS'zone'
p1046
I5
sS'tariff'
p1047
I1
sS'passage'
p1048
I3
sS'environment'
p1049
I2
sS'0'
p1050
I15
sS'euroconvertible'
p1051
I1
sS'promoting'
p1052
I5
sS'vea'
p1053
I2
sS'0.70kabuhayan'
p1054
I1
sS'circumstances'
p1055
I1
sS'817'
p1056
I8
sS'telegraph'
p1057
I2
sS'jerk'
p1058
I1
sS'3,150'
p1059
I1
sS'bulletin'
p1060
I2
sS'consolidation'
p1061
I5
sS'spate'
p1062
I1
sS'5/16'
p1063
I2
sS'firms.tentative'
p1064
I1
sS'gloomy'
p1065
I1
sS'softrinks'
p1066
I1
sS'servicing'
p1067
I3
sS'10-year'
p1068
I4
sS'join'
p1069
I1
sS'minute'
p1070
I1
sS'governments'
p1071
I3
sS'dim'
p1072
I1
sS'perceived'
p1073
I3
sS'down.investors'
p1074
I1
sS'unresolved.interport'
p1075
I1
sS'swapping'
p1076
I1
sS'said.he'
p1077
I1
sS'presented'
p1078
I5
sS'did'
p1079
I14
sS'philippines'
p1080
I74
sS'permits'
p1081
I2
sS'proposals'
p1082
I1
sS'bright'
p1083
I1
sS'thursday.inflation'
p1084
I1
sS'standards'
p1085
I2
sS'1999'
p1086
I2
sS'settle'
p1087
I2
sS'rate.he'
p1088
I1
sS'philippines.philrock'
p1089
I1
sS'defaults'
p1090
I1
sS'team'
p1091
I1
sS'quick'
p1092
I1
sS'movie'
p1093
I2
sS'speculation'
p1094
I3
sS'923,000'
p1095
I1
sS'59-7/8'
p1096
I1
sS'accumulation'
p1097
I1
sS'said.delfin'
p1098
I1
sS'pork'
p1099
I1
sS'discussion1600'
p1100
I1
sS'says'
p1101
I17
sS'hepatitis'
p1102
I1
sS'trend'
p1103
I2
sS'plunged'
p1104
I2
sS'leaders.the'
p1105
I1
sS'55.8'
p1106
I1
sS'discover'
p1107
I1
sS'coalition'
p1108
I1
sS'841-8937'
p1109
I25
sS'slowed'
p1110
I1
sS'saturday.an'
p1111
I2
sS'quayline'
p1112
I1
sS'10.50/10.325solidbank'
p1113
I1
sS'submit'
p1114
I1
sS'port'
p1115
I1
sS'841-8939'
p1116
I9
sS'cargo'
p1117
I1
sS'soured'
p1118
I1
sS'97.1'
p1119
I2
sS'adds'
p1120
I1
sS'appear'
p1121
I2
sS'jnjl'
p1122
I1
sS'movies'
p1123
I1
sS'56'
p1124
I1
sS'units.earlier'
p1125
I1
sS'baht'
p1126
I2
sS'8936'
p1127
I1
sS'shares'
p1128
I58
sS'uniform'
p1129
I2
sS'current'
p1130
I18
sS'300'
p1131
I1
sS'520'
p1132
I1
sS'aiwa'
p1133
I1
sS'international'
p1134
I20
sS'falling'
p1135
I2
sS'geography'
p1136
I3
sS'boost'
p1137
I3
sS'developments'
p1138
I1
sS'supporting'
p1139
I3
sS'tonne.there'
p1140
I1
sS'morgan'
p1141
I1
sS'bottling'
p1142
I12
sS'17.388'
p1143
I1
sS'understanding'
p1144
I1
sS'water'
p1145
I6
sS'groups'
p1146
I5
sS'address'
p1147
I2
sS'privatisation.the'
p1148
I1
sS'change'
p1149
I17
sS'wait'
p1150
I1
sS'passengers'
p1151
I1
sS'financiers'
p1152
I1
sS'9.498'
p1153
I9
sS'canadian'
p1154
I1
sS'healthy'
p1155
I1
sS'bot'
p1156
I5
sS'jungles'
p1157
I1
sS'widening'
p1158
I1
sS'husband'
p1159
I1
sS'simultaneous'
p1160
I1
sS'def'
p1161
I1
sS'438'
p1162
I2
sS'bob'
p1163
I1
sS'12-month'
p1164
I1
sS'influx'
p1165
I2
sS'slackened'
p1166
I1
sS'said.apec'
p1167
I1
sS'soybeans'
p1168
I2
sS'inducing'
p1169
I1
sS'lending'
p1170
I1
sS'sign'
p1171
I1
sS'ipo'
p1172
I11
sS'bill.the'
p1173
I3
sS'flexibility'
p1174
I4
sS'jose'
p1175
I3
sS'1st'
p1176
I3
sS'saying.the'
p1177
I1
sS'crisis'
p1178
I2
sS'market'
p1179
I126
sS'trinidad'
p1180
I1
sS'everybody'
p1181
I1
sS'opposes'
p1182
I1
sS'said.torres'
p1183
I1
sS'working'
p1184
I1
sS'congress.the'
p1185
I1
sS'visit'
p1186
I1
sS'selecta'
p1187
I2
sS'france'
p1188
I1
sS'centavos'
p1189
I8
sS'lauded'
p1190
I1
sS'upheld'
p1191
I1
sS'opposed'
p1192
I1
sS'films'
p1193
I6
sS'shouldered'
p1194
I1
sS'australian'
p1195
I1
sS'prev'
p1196
I5
sS'repos'
p1197
I9
sS'today'
p1198
I9
sS'cuyegkeng'
p1199
I1
sS'49.all'
p1200
I1
sS'towers'
p1201
I2
sS'acceptable'
p1202
I2
sS'apparent'
p1203
I1
sS'dismal'
p1204
I1
sS'difficulties.he'
p1205
I1
sS'friday.food'
p1206
I1
sS'14.7'
p1207
I1
sS'valued'
p1208
I1
sS'10,000'
p1209
I2
sS'statement.for'
p1210
I1
sS'originally'
p1211
I1
sS'facilitating'
p1212
I2
sS'added.a'
p1213
I1
sS'flagship'
p1214
I2
sS'1.764'
p1215
I1
sS'values'
p1216
I9
sS'achieve'
p1217
I3
sS'following'
p1218
I18
sS'making'
p1219
I5
sS'trans'
p1220
I1
sS'newspapers'
p1221
I11
sS'placements'
p1222
I1
sS'attain'
p1223
I1
sS'claim'
p1224
I1
sS'del'
p1225
I1
sS'figure'
p1226
I19
sS'expanding'
p1227
I2
sS'rates.a'
p1228
I1
sS'supremacy'
p1229
I1
sS'heard'
p1230
I3
sS'issue.first'
p1231
I1
sS'cavite'
p1232
I1
sS'dropped'
p1233
I8
sS'thuong'
p1234
I1
sS'friday.paul'
p1235
I1
sS'spanning'
p1236
I2
sS'inflows'
p1237
I5
sS'requirements'
p1238
I4
sS'stricken'
p1239
I1
sS'divided'
p1240
I1
sS'club'
p1241
I2
sS'concession.the'
p1242
I1
sS'1'
p1243
I22
sS'hostage'
p1244
I1
sS'rubin'
p1245
I1
sS'973,000'
p1246
I1
sS'gains.moreover'
p1247
I1
sS'fourth'
p1248
I2
sS'filing.proceeds'
p1249
I1
sS'guarantee'
p1250
I2
sS'economy'
p1251
I5
sS'146'
p1252
I3
sS'guoco'
p1253
I2
sS'product'
p1254
I3
sS'mar'
p1255
I2
sS'paramount'
p1256
I1
sS'3,222.98'
p1257
I1
sS'crashes'
p1258
I1
sS'c&f'
p1259
I3
sS'fed'
p1260
I1
sS'southern'
p1261
I2
sS'needs'
p1262
I3
sS'224.9'
p1263
I1
sS'rehabilitate'
p1264
I2
sS'islamic'
p1265
I1
sS'mac'
p1266
I1
sS'produce'
p1267
I2
sS'0.77'
p1268
I1
sS'enunciating'
p1269
I1
sS'0.75'
p1270
I2
sS'commit'
p1271
I1
sS'privatise'
p1272
I7
sS'5.4'
p1273
I2
sS'maj'
p1274
I1
sS'data'
p1275
I4
sS'grow'
p1276
I3
sS'lifting'
p1277
I1
sS'man'
p1278
I2
sS'sectors'
p1279
I3
sS'joint'
p1280
I11
sS'slightly'
p1281
I6
sS'corp.it'
p1282
I1
sS'12.94'
p1283
I1
sS'borrowing'
p1284
I6
sS'accelerated'
p1285
I2
sS'jail'
p1286
I1
sS'deposit'
p1287
I3
sS'basket'
p1288
I2
sS'depress'
p1289
I1
sS'sa'
p1290
I1
sS'talk'
p1291
I8
sS'exclusive'
p1292
I2
sS'hoped'
p1293
I1
sS'repair'
p1294
I1
sS'bottomed'
p1295
I1
sS'mainly'
p1296
I3
sS'discharging'
p1297
I5
sS'kong'
p1298
I16
sS'nonecoconut'
p1299
I1
sS'ended'
p1300
I7
sS'bucking'
p1301
I1
sS'cuts'
p1302
I1
sS'philippines.copra'
p1303
I1
sS'dalit'
p1304
I3
sS'tendency'
p1305
I1
sS'cola'
p1306
I23
sS'delgado'
p1307
I6
sS'group'
p1308
I12
sS'jin'
p1309
I2
sS'interesting'
p1310
I1
sS'organisation'
p1311
I3
sS'facility'
p1312
I3
sS'pncc'
p1313
I1
sS'agencies.the'
p1314
I1
sS'forms'
p1315
I1
sS'window'
p1316
I1
sS'apec'
p1317
I42
sS'rediscount'
p1318
I2
sS'sail'
p1319
I1
sS'10.30'
p1320
I1
sS'listing'
p1321
I16
sS'policy'
p1322
I6
sS'90600'
p1323
I1
sS'main'
p1324
I20
sS'decades'
p1325
I2
sS'happened'
p1326
I3
sS'actuarily'
p1327
I1
sS'non'
p1328
I4
sS'2.22kabuhayan'
p1329
I1
sS'registration1400'
p1330
I1
sS'finance'
p1331
I36
sS'views'
p1332
I6
sS'devastated'
p1333
I2
sS'100,000'
p1334
I3
sS'introduce'
p1335
I1
sS'warranted'
p1336
I2
sS'course'
p1337
I1
sS'subscribers'
p1338
I14
sS'40800'
p1339
I1
sS'anymore'
p1340
I2
sS'spend'
p1341
I1
sS'provision'
p1342
I1
sS'discuss'
p1343
I6
sS'maintaining'
p1344
I1
sS'accommodate'
p1345
I1
sS'term'
p1346
I12
sS'24.8'
p1347
I1
sS'59-3/8'
p1348
I1
sS'january'
p1349
I7
sS'drop'
p1350
I7
sS'0.055'
p1351
I1
sS'fabian'
p1352
I1
sS'shores'
p1353
I1
sS'12300'
p1354
I1
sS'realise'
p1355
I1
sS'saturday.torres'
p1356
I1
sS'amnesty'
p1357
I4
sS'quarter'
p1358
I21
sS'exchange.its'
p1359
I1
sS'government.under'
p1360
I1
sS'square'
p1361
I2
sS'significantly'
p1362
I1
sS'latin'
p1363
I1
sS'states.the'
p1364
I4
sS'receipt'
p1365
I1
sS'challenges'
p1366
I2
sS'157-point'
p1367
I1
sS'each.some'
p1368
I2
sS'ramos0930'
p1369
I1
sS'begun'
p1370
I1
sS'year'
p1371
I143
sS'distributor'
p1372
I5
sS'happen'
p1373
I1
sS'affluent'
p1374
I1
sS'canada'
p1375
I7
sS'asked.the'
p1376
I1
sS'citing'
p1377
I1
sS'container'
p1378
I4
sS'opened'
p1379
I2
sS'bullish'
p1380
I3
sS'factors'
p1381
I10
sS'profit'
p1382
I4
sS'receptionsaturday'
p1383
I1
sS'looking'
p1384
I9
sS'investigation'
p1385
I2
sS'papers'
p1386
I1
sS'poch'
p1387
I4
sS'27.66united'
p1388
I1
sS'formula'
p1389
I2
sS'correct'
p1390
I2
sS'2/32'
p1391
I1
sS'eagle'
p1392
I1
sS'experienced'
p1393
I4
sS'authorities.specifically'
p1394
I1
sS'sideways'
p1395
I3
sS'million'
p1396
I81
sS'possibility'
p1397
I5
sS'32.6'
p1398
I1
sS'cut'
p1399
I1
sS'23bp'
p1400
I1
sS'complicated'
p1401
I1
sS'vinyl'
p1402
I2
sS'listing.equitable'
p1403
I1
sS'727.5'
p1404
I1
sS'obligation'
p1405
I1
sS'saturday.the'
p1406
I1
sS'ccbpi'
p1407
I4
sS'advance'
p1408
I2
sS'training'
p1409
I1
sS'fixed'
p1410
I1
sS'0345'
p1411
I1
sS'espiridion'
p1412
I1
sS'routes.pal'
p1413
I1
sS'impose'
p1414
I1
sS'problems.megaworld'
p1415
I1
sS'thing'
p1416
I3
sS'locksmith'
p1417
I4
sS'massive'
p1418
I4
sS'yun'
p1419
I1
sS'repurcussions'
p1420
I1
sS'think'
p1421
I9
sS'waited'
p1422
I1
sS'origin'
p1423
I1
sS'benefited'
p1424
I1
sS'revenue'
p1425
I3
sS'ong'
p1426
I2
sS'yasay'
p1427
I1
sS'owers'
p1428
I1
sS'lippo'
p1429
I1
sS'long'
p1430
I14
sS'overheating'
p1431
I1
sS'comprises'
p1432
I2
sS'corporations'
p1433
I2
sS'array'
p1434
I2
sS'open'
p1435
I9
sS'kuan'
p1436
I1
sS'discharged'
p1437
I3
sS'computed'
p1438
I2
sS'city'
p1439
I2
sS'little'
p1440
I8
sS'1996'
p1441
I24
sS'sheet'
p1442
I2
sS'district'
p1443
I3
sS'caught'
p1444
I2
sS'trillion'
p1445
I1
sS'2.97philam'
p1446
I1
sS'11.41first'
p1447
I1
sS'inflight'
p1448
I1
sS'bourse'
p1449
I6
sS'2'
p1450
I60
sS'67.30'
p1451
I1
sS'4.5-5.0'
p1452
I2
sS'white'
p1453
I6
sS'national'
p1454
I29
sS'speaking'
p1455
I1
sS'mining'
p1456
I4
sS'quay'
p1457
I1
sS'inefficient'
p1458
I1
sS'allegedly'
p1459
I1
sS'time1900'
p1460
I1
sS'hun'
p1461
I1
sS'0.84information'
p1462
I1
sS'80.00'
p1463
I1
sS'9.835'
p1464
I1
sS'released'
p1465
I7
sS'pesos.the'
p1466
I4
sS'thai'
p1467
I4
sS'copy'
p1468
I5
sS'representing'
p1469
I2
sS'interbank'
p1470
I9
sS'11'
p1471
I4
sS'10'
p1472
I18
sS'television'
p1473
I3
sS'12'
p1474
I7
sS'15'
p1475
I21
sS'14'
p1476
I3
sS'17'
p1477
I2
sS'16'
p1478
I3
sS'19'
p1479
I6
sS'18'
p1480
I10
sS'mariveles'
p1481
I2
sS'pakistan.some'
p1482
I1
sS'transferred'
p1483
I4
sS'victorias'
p1484
I2
sS'hagedorn'
p1485
I6
sS'june.the'
p1486
I1
sS'metre'
p1487
I1
sS'venture'
p1488
I11
sS'fruits'
p1489
I2
sS'3,046.97.value'
p1490
I1
sS'happy'
p1491
I2
sS'recommendations1445'
p1492
I1
sS'catching'
p1493
I1
sS'mountain'
p1494
I2
sS'coconut'
p1495
I8
sS'illness'
p1496
I1
sS'san'
p1497
I41
sS'investors'
p1498
I19
sS'remained'
p1499
I8
sS'meeting1200'
p1500
I1
sS'correction'
p1501
I3
sS'turned'
p1502
I2
sS'hershey'
p1503
I4
sS'arrangements1030'
p1504
I1
sS'say'
p1505
I14
sS'monday.but'
p1506
I1
sS'saw'
p1507
I3
sS'0400'
p1508
I1
sS'conversion'
p1509
I1
sS'form'
p1510
I1
sS'exploratory'
p1511
I1
sS'efficient'
p1512
I5
sS'consortium'
p1513
I1
sS'note'
p1514
I2
sS'equipment'
p1515
I1
sS'potential'
p1516
I4
sS'ruling'
p1517
I2
sS'coincide'
p1518
I1
sS'concern'
p1519
I2
sS'registered'
p1520
I6
sS'200'
p1521
I1
sS'handing'
p1522
I1
sS'sure'
p1523
I5
sS'infrastructure.imf'
p1524
I2
sS'anchored'
p1525
I1
sS'baiyuquan'
p1526
I2
sS'price'
p1527
I36
sS'enter'
p1528
I1
sS'paid'
p1529
I4
sS'falls'
p1530
I2
sS'97,456'
p1531
I1
sS'successive'
p1532
I1
sS'remarks'
p1533
I4
sS'cleared'
p1534
I1
sS'said.they'
p1535
I1
sS'9.625'
p1536
I1
sS'pilipino'
p1537
I2
sS'especially'
p1538
I6
sS'payable'
p1539
I1
sS'considered'
p1540
I1
sS'jakarta'
p1541
I1
sS'average'
p1542
I30
sS'later'
p1543
I5
sS'steady'
p1544
I9
sS'sale'
p1545
I7
sS'polyvinyl'
p1546
I1
sS'inflation.he'
p1547
I1
sS'jitters'
p1548
I1
sS'pante'
p1549
I2
sS'senior'
p1550
I7
sS'aglay'
p1551
I1
sS'liquidity'
p1552
I13
sS'laws'
p1553
I2
sS'0134'
p1554
I1
sS'17.538'
p1555
I1
sS'719.16'
p1556
I1
sS'privatising'
p1557
I3
sS'circulating'
p1558
I1
sS'boys'
p1559
I1
sS'25.6'
p1560
I1
sS'discovered'
p1561
I2
sS'31.59united'
p1562
I1
sS'0.48'
p1563
I1
sS'sustained'
p1564
I2
sS'0.44'
p1565
I1
sS'sdn'
p1566
I1
sS'fifth'
p1567
I1
sS'2.011'
p1568
I4
sS'frequent'
p1569
I1
sS'slow'
p1570
I4
sS'ratio'
p1571
I2
sS'treasure'
p1572
I2
sS'3'
p1573
I16
sS'year.vea'
p1574
I1
sS'liberation'
p1575
I2
sS'going'
p1576
I16
sS'ceremonies'
p1577
I1
sS'treasury'
p1578
I16
sS'3,171.79'
p1579
I5
sS'cautioned'
p1580
I4
sS'pegged'
p1581
I1
sS'presidentfidel'
p1582
I1
sS'dispute'
p1583
I1
sS'ranking'
p1584
I1
sS'contracts'
p1585
I1
sS'assistant'
p1586
I1
sS'expectation'
p1587
I4
sS'mission'
p1588
I1
sS'repo'
p1589
I1
sS'leon'
p1590
I2
sS'nearly'
p1591
I5
sS'awaiting'
p1592
I1
sS'secondary'
p1593
I4
sS'afternoon.increased'
p1594
I1
sS'hover'
p1595
I1
sS'10.275hong'
p1596
I1
sS'keenly'
p1597
I2
sS'softdrinks'
p1598
I4
sS'7,300'
p1599
I4
sS'yield'
p1600
I5
sS'3.one'
p1601
I1
sS'cellsites'
p1602
I2
sS'amando'
p1603
I1
sS'paper'
p1604
I15
sS'losers'
p1605
I7
sS'predicted'
p1606
I2
sS'london'
p1607
I1
sS'hinged'
p1608
I1
sS'bank.equitable'
p1609
I1
sS'salomon'
p1610
I1
sS'declared'
p1611
I5
sS'milling'
p1612
I3
sS'violated'
p1613
I1
sS'committed'
p1614
I1
sS'trading.traders'
p1615
I1
sS'welcome'
p1616
I3
sS'actively'
p1617
I8
sS'notes.the'
p1618
I1
sS'1.5472'
p1619
I1
sS'period.petron'
p1620
I1
sS'10.375/10.325standchart'
p1621
I1
sS'encouraged'
p1622
I1
sS'kurt'
p1623
I1
sS'satisfying'
p1624
I1
sS'1.40kabuhayan'
p1625
I1
sS'voluntary'
p1626
I3
sS'ways'
p1627
I3
sS'reiterated.the'
p1628
I1
sS'representatives'
p1629
I2
sS'forecast'
p1630
I10
sS'procedures'
p1631
I3
sS'outside'
p1632
I6
sS'0.025'
p1633
I2
sS'landline'
p1634
I2
sS'herma'
p1635
I2
sS'affecting'
p1636
I2
sS'0.028'
p1637
I1
sS'6.8'
p1638
I3
sS'expose'
p1639
I1
sS'checks'
p1640
I1
sS'urban'
p1641
I3
sS'arrival'
p1642
I22
sS'limelight'
p1643
I1
sS'infrastructure'
p1644
I23
sS'august'
p1645
I1
sS'rumours'
p1646
I8
sS'saigon'
p1647
I1
sS'nemesio'
p1648
I1
sS'1,533'
p1649
I1
sS'jp'
p1650
I1
sS'residents'
p1651
I1
sS'spare'
p1652
I1
sS'fluctuations'
p1653
I3
sS'rapidly'
p1654
I1
sS'said.five'
p1655
I1
sS'come'
p1656
I4
sS'lopez'
p1657
I3
sS'reaction'
p1658
I1
sS'recovered'
p1659
I1
sS'successes'
p1660
I2
sS'trader'
p1661
I5
sS'trades'
p1662
I1
sS'according'
p1663
I2
sS'contract'
p1664
I1
sS'aprmay'
p1665
I3
sS's'
p1666
I6
sS'sustain'
p1667
I2
sS'holders'
p1668
I2
sS'traded'
p1669
I17
sS'comes'
p1670
I3
sS'nearby'
p1671
I3
sS'duty'
p1672
I1
sS'pakistan'
p1673
I3
sS'28.the'
p1674
I1
sS'tonne'
p1675
I10
sS'mandate'
p1676
I2
sS'period'
p1677
I11
sS'mirroring'
p1678
I1
sS'29'
p1679
I1
sS'60'
p1680
I6
sS'maintained'
p1681
I1
sS'63'
p1682
I45
sS'anti'
p1683
I3
sS'3000'
p1684
I1
sS'68'
p1685
I2
sS'industry.oil'
p1686
I1
sS'poll'
p1687
I10
sS'consider'
p1688
I3
sS'spark'
p1689
I1
sS'forecasted'
p1690
I1
sS'considering'
p1691
I11
sS'plantation'
p1692
I1
sS'aiming'
p1693
I1
sS'details'
p1694
I4
sS'subscribed'
p1695
I1
sS'thursday.the'
p1696
I1
sS'west'
p1697
I2
sS'informed'
p1698
I1
sS'airlines'
p1699
I2
sS'mark'
p1700
I1
sS'subscriber'
p1701
I1
sS'specifics.the'
p1702
I2
sS'production'
p1703
I2
sS'combined'
p1704
I2
sS'158'
p1705
I1
sS'technical'
p1706
I3
sS'helicopter'
p1707
I2
sS'1030'
p1708
I1
sS'hardly'
p1709
I2
sS'503'
p1710
I1
sS'500'
p1711
I6
sS'systems'
p1712
I5
sS'wants'
p1713
I3
sS'direction'
p1714
I10
sS'enable'
p1715
I1
sS'0.51philequity'
p1716
I1
sS'offered'
p1717
I14
sS'formed'
p1718
I1
sS'andrew'
p1719
I3
sS'edser'
p1720
I1
sS'exchangesaid.a'
p1721
I1
sS'dramatic'
p1722
I3
sS'lunch1330'
p1723
I1
sS'minister'
p1724
I4
sS'declaration'
p1725
I3
sS'suspected'
p1726
I2
sS'8.in'
p1727
I2
sS'10.30metrobank'
p1728
I1
sS'sound'
p1729
I3
sS'economy.helen'
p1730
I2
sS'developing'
p1731
I8
sS'4-8'
p1732
I1
sS'6-mths'
p1733
I4
sS'cash'
p1734
I19
sS'premature'
p1735
I3
sS'w'
p1736
I6
sS'14.618'
p1737
I1
sS'ongoing'
p1738
I1
sS'coca'
p1739
I22
sS'newspaper'
p1740
I4
sS'situation'
p1741
I2
sS'shops'
p1742
I2
sS'spotlight'
p1743
I2
sS'9.725'
p1744
I3
sS'9.724'
p1745
I8
sS'coupled'
p1746
I2
sS'telephone'
p1747
I10
sS'scheme.the'
p1748
I2
sS'middle'
p1749
I4
sS'ctry'
p1750
I1
sS'good'
p1751
I4
sS'ounces'
p1752
I1
sS'heels'
p1753
I1
sS'somebody'
p1754
I2
sS'protein'
p1755
I2
sS'property'
p1756
I4
sS'philrock'
p1757
I1
sS'floating'
p1758
I1
sS'meralco'
p1759
I9
sS'movements'
p1760
I2
sS'different'
p1761
I5
sS'11.8'
p1762
I6
sS'assure'
p1763
I2
sS'pay'
p1764
I7
sS'pesos.many'
p1765
I1
sS'zamboanga'
p1766
I3
sS'wednesday.but'
p1767
I1
sS'manila'
p1768
I125
sS'document'
p1769
I1
sS'pal'
p1770
I11
sS'week'
p1771
I25
sS'oil'
p1772
I24
sS'edged'
p1773
I1
sS'singapore'
p1774
I10
sS'year.paul'
p1775
I2
sS'165-peso'
p1776
I2
sS'director'
p1777
I14
sS'persons'
p1778
I1
sS'macroeconomic'
p1779
I4
sS'19.90-20.00'
p1780
I1
sS'statue'
p1781
I2
sS'anticipated'
p1782
I2
sS'complained'
p1783
I1
sS'publically.husain'
p1784
I1
sS'keeping'
p1785
I1
sS'band'
p1786
I2
sS'60,000'
p1787
I2
sS'lawrence'
p1788
I2
sS'10.93first'
p1789
I1
sS'severe'
p1790
I4
sS'costs'
p1791
I2
sS'solve'
p1792
I1
sS'said.a'
p1793
I3
sS'pesos.equitable'
p1794
I3
sS'easing'
p1795
I2
sS'grounds'
p1796
I1
sS'cca'
p1797
I8
sS'loot'
p1798
I1
sS'25.empire'
p1799
I1
sS'charged'
p1800
I1
sS'gdp'
p1801
I1
sS'summer'
p1802
I2
sS'outdoor'
p1803
I1
sS'213'
p1804
I1
sS'money'
p1805
I27
sS'94.04'
p1806
I2
sS'ninth'
p1807
I3
sS'toronto'
p1808
I1
sS'0.15-peso'
p1809
I1
sS'positions'
p1810
I6
sS'manila.terms'
p1811
I1
sS'speed'
p1812
I1
sS'multiples'
p1813
I2
sS'weekly'
p1814
I3
sS'announcement'
p1815
I1
sS'pesos.last'
p1816
I1
sS'death'
p1817
I3
sS'dipped'
p1818
I1
sS'incident.some'
p1819
I1
sS'generator'
p1820
I2
sS'grouped'
p1821
I3
sS'thinking'
p1822
I1
sS'rose'
p1823
I12
sS'improvement'
p1824
I1
sS'authorised'
p1825
I3
sS'setting'
p1826
I1
sS'4'
p1827
I9
sS'computerised'
p1828
I1
sS'struck'
p1829
I1
sS'0300'
p1830
I1
sS'real'
p1831
I16
sS'24-30'
p1832
I1
sS'negotiating'
p1833
I2
sS'laundering'
p1834
I2
sS'represents'
p1835
I1
sS'read'
p1836
I1
sS'cayman'
p1837
I1
sS'income'
p1838
I31
sS'3.60'
p1839
I2
sS'pse'
p1840
I3
sS'dark'
p1841
I2
sS'department'
p1842
I15
sS'inflation'
p1843
I63
sS'world'
p1844
I7
sS'accepted'
p1845
I1
sS'lady'
p1846
I2
sS'0.57'
p1847
I1
sS'meat'
p1848
I2
sS'acute'
p1849
I1
sS'fortune'
p1850
I2
sS'deviate'
p1851
I1
sS'facing'
p1852
I5
sS'market.initial'
p1853
I1
sS't'
p1854
I14
sS'daily.at'
p1855
I2
sS'64'
p1856
I1
sS'downward'
p1857
I2
sS'endorsed'
p1858
I2
sS'reduced'
p1859
I1
sS'vangie'
p1860
I1
sS'depend'
p1861
I1
sS'12.50'
p1862
I1
sS'157.11'
p1863
I2
sS'competition'
p1864
I6
sS'cabe'
p1865
I1
sS'specified'
p1866
I1
sS'guillermo'
p1867
I2
sS'thinks'
p1868
I1
sS'brothers'
p1869
I1
sS'booming'
p1870
I4
sS'provided'
p1871
I8
sS'thursday.speaking'
p1872
I1
sS'mood'
p1873
I1
sS'freer'
p1874
I6
sS'recorded'
p1875
I2
sS'moslem'
p1876
I1
sS'legal'
p1877
I3
sS'bottlers'
p1878
I6
sS'viray'
p1879
I2
sS'deficit'
p1880
I3
sS'provider'
p1881
I1
sS'71'
p1882
I1
sS'45,000'
p1883
I2
sS'10.375'
p1884
I1
sS'111,452'
p1885
I1
sS'freed'
p1886
I2
sS'projects.the'
p1887
I2
sS'outage'
p1888
I2
sS'wheat'
p1889
I11
sS'4-apr'
p1890
I2
sS'business'
p1891
I21
sS'airways'
p1892
I1
sS'prosecution'
p1893
I1
sS'equivalent'
p1894
I1
sS'broker'
p1895
I3
sS'utilities'
p1896
I3
sS'broken'
p1897
I1
sS'thailand'
p1898
I19
sS'francis'
p1899
I1
sS'currencies'
p1900
I1
sS'10.00'
p1901
I7
sS'manufacturer'
p1902
I2
sS'8.9375'
p1903
I1
sS'sra'
p1904
I1
sS'central'
p1905
I60
sS'841'
p1906
I20
sS'package'
p1907
I2
sS'island'
p1908
I2
sS'industry'
p1909
I15
sS'discussed'
p1910
I2
sS'chon'
p1911
I1
sS'barings'
p1912
I3
sS'2000.garcia'
p1913
I1
sS'8.9'
p1914
I1
sS'airline'
p1915
I3
sS'percent.although'
p1916
I1
sS'mixed'
p1917
I7
sS'dien'
p1918
I4
sS'mean'
p1919
I5
sS'provisional'
p1920
I1
sS'confidence'
p1921
I1
sS'corp.pnoc'
p1922
I1
sS'1997.mabuhay'
p1923
I1
sS'outlook'
p1924
I4
sS'interruption'
p1925
I1
sS'coupon'
p1926
I1
sS'oceanic'
p1927
I1
sS'2.7081'
p1928
I1
sS'scores'
p1929
I1
sS'unnerved'
p1930
I2
sS'renovate'
p1931
I1
sS'secure'
p1932
I1
sS'shrs'
p1933
I1
sS'determine'
p1934
I4
sS'parties'
p1935
I1
sS'operator'
p1936
I1
sS'gomez'
p1937
I2
sS'8.498'
p1938
I1
sS'highway.the'
p1939
I1
sS'area'
p1940
I4
sS'stoppage'
p1941
I2
sS'alleged'
p1942
I1
sS'start'
p1943
I12
sS'outflow'
p1944
I2
sS'low'
p1945
I15
sS'lot'
p1946
I6
sS'series'
p1947
I5
sS'hunt.manila'
p1948
I1
sS'alleges'
p1949
I2
sS'dalian'
p1950
I1
sS'fish'
p1951
I2
sS'billion'
p1952
I80
sS'continents'
p1953
I2
sS'fundamentals'
p1954
I6
sS'delayed'
p1955
I4
sS'17.81'
p1956
I1
sS'cabinet'
p1957
I4
sS'201.80'
p1958
I1
sS'wednesday.the'
p1959
I3
sS'said.joel'
p1960
I1
sS'level'
p1961
I19
sS'prices.meanwhile'
p1962
I2
sS'mwss'
p1963
I3
sS'faster'
p1964
I2
sS"they're"
p1965
I2
sS'october'
p1966
I1
sS'6,477.35'
p1967
I1
sS'proceeds'
p1968
I2
sS'1997.the'
p1969
I1
sS'5/8'
p1970
I6
sS'energy.the'
p1971
I1
sS'1.755'
p1972
I1
sS'arranger'
p1973
I2
sS'miguel'
p1974
I44
sS'10.30citibank'
p1975
I1
sS'abuses'
p1976
I2
sS'manuel'
p1977
I4
sS'privatisation.details'
p1978
I2
sS'builders'
p1979
I1
sS'agree'
p1980
I3
sS'regimes'
p1981
I2
sS'strongly'
p1982
I5
sS'gone'
p1983
I1
sS'26.363'
p1984
I2
sS'606'
p1985
I1
sS'accentuated'
p1986
I2
sS'26.364'
p1987
I4
sS'26.367'
p1988
I5
sS'26.366'
p1989
I1
sS'26.368'
p1990
I2
sS'hosted'
p1991
I3
sS'moved'
p1992
I2
sS'sales'
p1993
I12
sS'deep'
p1994
I2
sS'general'
p1995
I2
sS'18-25'
p1996
I1
sS'exploration'
p1997
I1
sS'treasury.besides'
p1998
I1
sS'philippinefinance'
p1999
I1
sS'saturnino'
p2000
I2
sS'ago.in'
p2001
I1
sS'cream'
p2002
I1
sS'4.5'
p2003
I2
sS'4.4'
p2004
I23
sS'managing'
p2005
I6
sS'4.0'
p2006
I1
sS'4.3'
p2007
I6
sS'owing'
p2008
I1
sS'10.525/10.425hong'
p2009
I1
sS'4.9'
p2010
I2
sS'4.8'
p2011
I11
sS'napocor'
p2012
I15
sS'insurance'
p2013
I2
sS'1445'
p2014
I1
sS'beverage'
p2015
I7
sS'5'
p2016
I10
sS'securities.the'
p2017
I3
sS'said.phibor'
p2018
I1
sS'opportunities.in'
p2019
I1
sS'yop'
p2020
I1
sS'357,000'
p2021
I1
sS'met'
p2022
I2
sS'collaborative'
p2023
I3
sS'separate'
p2024
I3
sS'm'
p2025
I12
sS'includes'
p2026
I2
sS'2.18filipino'
p2027
I1
sS'important'
p2028
I4
sS'peak'
p2029
I4
sS'coverage'
p2030
I2
sS'realised'
p2031
I1
sS'tackle'
p2032
I2
sS'equitable'
p2033
I24
sS'stocks'
p2034
I11
sS'securitis'
p2035
I1
sS'deadline'
p2036
I2
sS'480'
p2037
I1
sS'building'
p2038
I8
sS'up.the'
p2039
I1
sS'assets'
p2040
I7
sS'calls'
p2041
I3
sS'invest'
p2042
I1
sS'factor.meralco'
p2043
I1
sS'lethargy.analysts'
p2044
I1
sS'kilowatt'
p2045
I1
sS'2.03philam'
p2046
I1
sS'35000'
p2047
I1
sS'repay'
p2048
I1
sS'susan'
p2049
I1
sS'mass'
p2050
I1
sS'restored'
p2051
I3
sS'doubted'
p2052
I1
sS'overseas'
p2053
I1
sS'resolution'
p2054
I2
sS'original'
p2055
I2
sS'external'
p2056
I2
sS'ago.the'
p2057
I1
sS'9/16'
p2058
I6
sS'chinese'
p2059
I2
sS'lack'
p2060
I3
sS'dollar'
p2061
I22
sS'month'
p2062
I40
sS'1.1963'
p2063
I1
sS'mayjun'
p2064
I2
sS'talks'
p2065
I3
sS'follow'
p2066
I3
sS'settlement'
p2067
I3
sS'1996.in'
p2068
I2
sS'grandair'
p2069
I5
sS'2.69'
p2070
I1
sS'referring'
p2071
I2
sS'pledged'
p2072
I2
sS'3.7780'
p2073
I1
sS'0930'
p2074
I1
sS'thursday'
p2075
I49
sS'fundamentally'
p2076
I1
sS'alvarez'
p2077
I2
sS'adversely'
p2078
I2
sS'chartering'
p2079
I1
sS'presentation'
p2080
I1
sS'case'
p2081
I3
sS'fax'
p2082
I63
sS'liter'
p2083
I1
sS'premium'
p2084
I4
sS'ministerial'
p2085
I3
sS'song'
p2086
I7
sS'far'
p2087
I10
sS'inquirer'
p2088
I6
sS'marapr'
p2089
I3
sS'0.98philequity'
p2090
I1
sS'2000.currently'
p2091
I1
sS'460'
p2092
I1
sS'earning'
p2093
I1
sS'percent.caltex'
p2094
I1
sS'fall'
p2095
I6
sS'sony'
p2096
I1
sS'fire.wg'
p2097
I1
sS'condition'
p2098
I1
sS'augusto'
p2099
I1
sS'dampen'
p2100
I1
sS'clinched'
p2101
I1
sS'asiamerit'
p2102
I2
sS'large'
p2103
I8
sS'highway'
p2104
I1
sS'megaworld'
p2105
I15
sS'small'
p2106
I2
sS'0330'
p2107
I1
sS'10800'
p2108
I1
sS'sank'
p2109
I3
sS'programme'
p2110
I6
sS'appointment'
p2111
I1
sS"i'd"
p2112
I1
sS'191'
p2113
I2
sS'citisecurities'
p2114
I1
sS'past'
p2115
I8
sS'llc'
p2116
I1
sS'rate'
p2117
I83
sS'10.45'
p2118
I6
sS'design'
p2119
I1
sS'settled'
p2120
I2
sS'10.40'
p2121
I8
sS'25-kg'
p2122
I2
sS'25-year'
p2123
I1
sS'investment'
p2124
I17
sS'returned'
p2125
I4
sS'imported'
p2126
I2
sS'opted'
p2127
I1
sS'consumers'
p2128
I2
sS'cast'
p2129
I1
sS'investing'
p2130
I1
sS'sun'
p2131
I2
sS'firm.pnoc'
p2132
I1
sS'5.064'
p2133
I1
sS'brief'
p2134
I1
sS'abn'
p2135
I2
sS'reeled'
p2136
I1
sS'sur'
p2137
I1
sS'berlian'
p2138
I1
sS'showed.the'
p2139
I3
sS'public'
p2140
I22
sS'movement'
p2141
I2
sS'adacapan'
p2142
I1
sS'outgoing'
p2143
I1
sS'sparked'
p2144
I1
sS'1.235'
p2145
I1
sS'policies'
p2146
I6
sS'malaria'
p2147
I1
sS'ranged'
p2148
I1
sS'impact.stable'
p2149
I1
sS'depreciation'
p2150
I4
sS'component'
p2151
I3
sS'hours'
p2152
I3
sS'suicide'
p2153
I3
sS'operating'
p2154
I6
sS'free'
p2155
I7
sS'grapples'
p2156
I1
sS'november'
p2157
I4
sS'strong'
p2158
I7
sS'respect'
p2159
I1
sS'canuto'
p2160
I2
sS'filemon'
p2161
I1
sS'laboratories'
p2162
I1
sS'arena'
p2163
I4
sS'search'
p2164
I3
sS'ahead'
p2165
I4
sS'sbc'
p2166
I2
sS'losses'
p2167
I6
sS'allows'
p2168
I3
sS'said.banks'
p2169
I2
sS'fired'
p2170
I1
sS'prior'
p2171
I4
sS'said.premiere'
p2172
I1
sS'1.0371'
p2173
I1
sS'27,198'
p2174
I1
sS'collated'
p2175
I1
sS'narrow'
p2176
I4
sS'encountering'
p2177
I1
sS'vic'
p2178
I2
sS'members'
p2179
I4
sS'family'
p2180
I13
sS'semiconductors'
p2181
I1
sS'interview.the'
p2182
I1
sS'vin'
p2183
I1
sS'young'
p2184
I1
sS'utilisation'
p2185
I1
sS'tendered'
p2186
I2
sS'establish'
p2187
I1
sS'sheet.under'
p2188
I1
sS'1900'
p2189
I1
sS'singson'
p2190
I4
sS'shareholders'
p2191
I9
sS'shares.but'
p2192
I1
sS'objectives'
p2193
I2
sS'partners.opening'
p2194
I2
sS'petroleum'
p2195
I7
sS'waterworks'
p2196
I3
sS'rediscounting'
p2197
I1
sS'bigness'
p2198
I1
sS'oecd'
p2199
I1
sS'0.80'
p2200
I1
sS'thins'
p2201
I1
sS'moro'
p2202
I2
sS'0.84'
p2203
I1
sS'6'
p2204
I7
sS'taken'
p2205
I2
sS'0.89'
p2206
I1
sS'markets'
p2207
I17
sS'31-kilometer'
p2208
I1
sS'0.001'
p2209
I1
sS'flat'
p2210
I1
sS'statement.the'
p2211
I3
sS'6,517.01'
p2212
I2
sS'bottle'
p2213
I1
sS'company'
p2214
I107
sS'line'
p2215
I5
sS'lazaro'
p2216
I2
sS'flag'
p2217
I1
sS'basically'
p2218
I1
sS'broke'
p2219
I1
sS'disclosed.in'
p2220
I1
sS'known'
p2221
I1
sS'suffered'
p2222
I2
sS'commercially'
p2223
I1
sS'phils'
p2224
I33
sS'weighed'
p2225
I2
sS'berth'
p2226
I2
sS'0.9794'
p2227
I1
sS'hour'
p2228
I4
sS'anxieties'
p2229
I1
sS'des'
p2230
I1
sS'entertainment'
p2231
I5
sS'8934'
p2232
I4
sS'remain'
p2233
I6
sS'8937'
p2234
I6
sS'exchange.the'
p2235
I1
sS'sent'
p2236
I2
sS'reshaping'
p2237
I1
sS'8938'
p2238
I3
sS'8939'
p2239
I1
sS'junjuly'
p2240
I1
sS'friday.three'
p2241
I1
sS'beautiful'
p2242
I1
sS'purchases'
p2243
I1
sS'prompt'
p2244
I2
sS'share'
p2245
I23
sS'states'
p2246
I18
sS'pushed'
p2247
I1
sS'minimum'
p2248
I5
sS'numbers'
p2249
I2
sS'purchased'
p2250
I1
sS'sense'
p2251
I1
sS'sharp'
p2252
I7
sS'tetangco'
p2253
I1
sS'refiners'
p2254
I4
sS'5.0'
p2255
I3
sS'maturing'
p2256
I1
sS'5.2'
p2257
I1
sS'court'
p2258
I9
sS'5.5'
p2259
I1
sS'5.8'
p2260
I6
sS'equities'
p2261
I5
sS'peregrine'
p2262
I7
sS'3.7728'
p2263
I1
sS'stayed'
p2264
I1
sS'earnings'
p2265
I18
sS'said.amid'
p2266
I1
sS'reyes'
p2267
I5
sS'added.finance'
p2268
I1
sS'explains'
p2269
I1
sS'tumbled'
p2270
I2
sS'plans'
p2271
I7
sS'9.695'
p2272
I1
sS'inflationary'
p2273
I5
sS'calm'
p2274
I1
sS'par'
p2275
I4
sS'doubts'
p2276
I1
sS'27.57-point'
p2277
I1
sS'fundamental'
p2278
I1
sS'plane'
p2279
I1
sS'coming'
p2280
I4
sS'verified'
p2281
I4
sS'appealed'
p2282
I1
sS'response'
p2283
I1
sS'alpasan'
p2284
I1
sS'profited'
p2285
I1
sS'jiang'
p2286
I1
sS'monday.this'
p2287
I1
sS'percent.the'
p2288
I5
sS'register'
p2289
I1
sS'overnight'
p2290
I13
sS'spectre'
p2291
I1
sS'coal'
p2292
I1
sS'shore'
p2293
I2
sS'shade'
p2294
I1
sS'media'
p2295
I2
sS'banks'
p2296
I35
sS'rentals'
p2297
I1
sS'began'
p2298
I1
sS'turnover'
p2299
I10
sS'president1015'
p2300
I1
sS'help'
p2301
I3
sS'copper'
p2302
I1
sS'september'
p2303
I8
sS'developed'
p2304
I3
sS'soon'
p2305
I4
sS'trade'
p2306
I16
sS'held'
p2307
I6
sS'60-1/8'
p2308
I1
sS'insitutions'
p2309
I1
sS'committee'
p2310
I3
sS'replies'
p2311
I1
sS'developer'
p2312
I2
sS'24'
p2313
I3
sS'25'
p2314
I7
sS'26'
p2315
I5
sS'27'
p2316
I3
sS'20'
p2317
I15
sS'alliedbank'
p2318
I1
sS'22'
p2319
I4
sS'23'
p2320
I2
sS'border'
p2321
I1
sS'lito'
p2322
I3
sS'pct'
p2323
I13
sS'ricardo'
p2324
I1
sS'late'
p2325
I15
sS'resort'
p2326
I3
sS'absence'
p2327
I2
sS'reuters'
p2328
I35
sS'dolly'
p2329
I1
sS'rice.the'
p2330
I2
sS'evening'
p2331
I1
sS'return'
p2332
I2
sS'said.ccbpi'
p2333
I1
sS'seeking'
p2334
I2
sS'food'
p2335
I30
sS'components'
p2336
I2
sS'tumbles'
p2337
I1
sS'socially'
p2338
I1
sS'reflected'
p2339
I4
sS'framework'
p2340
I1
sS'36,981'
p2341
I1
sS'party'
p2342
I1
sS'lmts'
p2343
I1
sS'abacus'
p2344
I8
sS'association'
p2345
I8
sS'easily'
p2346
I4
sS'coursed'
p2347
I2
sS'amatil'
p2348
I11
sS'fully'
p2349
I5
sS'intervene'
p2350
I1
sS'habito'
p2351
I2
sS'capability'
p2352
I2
sS'transmission'
p2353
I9
sS'val'
p2354
I3
sS'stopped'
p2355
I2
sS'eager'
p2356
I1
sS'repayment'
p2357
I2
sS'subic'
p2358
I5
sS'dominating'
p2359
I1
sS'heavy'
p2360
I9
sS'1600'
p2361
I2
sS'finances.in'
p2362
I1
sS'conflicting'
p2363
I2
sS'generation'
p2364
I9
sS'house'
p2365
I6
sS'energy'
p2366
I7
sS'hard'
p2367
I1
sS'reduce'
p2368
I1
sS'10.375/10.20multinational'
p2369
I1
sS'hawaii'
p2370
I2
sS'favour'
p2371
I1
sS'114,111'
p2372
I1
sS'extended'
p2373
I2
sS'expect'
p2374
I5
sS'organised'
p2375
I1
sS'operation'
p2376
I3
sS'236.7'
p2377
I1
sS'pesos.panajon'
p2378
I1
sS'really'
p2379
I7
sS'initiatives'
p2380
I5
sS'consonance'
p2381
I1
sS'funding'
p2382
I1
sS'discussion1200'
p2383
I1
sS'succumbed'
p2384
I1
sS'shareholders.at'
p2385
I1
sS'robert'
p2386
I1
sS'projected'
p2387
I5
sS'viability'
p2388
I3
sS'research'
p2389
I14
sS'capital.but'
p2390
I1
sS'participants'
p2391
I2
sS'adoption'
p2392
I2
sS'health'
p2393
I3
sS'shipment'
p2394
I1
sS'boosted'
p2395
I1
sS'urgent'
p2396
I1
sS'darling'
p2397
I1
sS'issue'
p2398
I15
sS'fled'
p2399
I1
sS'region.jeremias'
p2400
I2
sS'drifting'
p2401
I1
sS'friday'
p2402
I33
sS'0100'
p2403
I1
sS'bulls'
p2404
I1
sS'34.62'
p2405
I1
sS'difficulty'
p2406
I1
sS'terminals'
p2407
I1
sS'base'
p2408
I10
sS'cielito'
p2409
I2
sS'proxy'
p2410
I1
sS'goseco'
p2411
I4
sS'rises'
p2412
I1
sS'beginning'
p2413
I3
sS'generate'
p2414
I1
sS'pur'
p2415
I1
sS'sates'
p2416
I1
sS'producers'
p2417
I2
sS'customers.meralco'
p2418
I1
sS'launch'
p2419
I2
sS'seahorse'
p2420
I1
sS'computers'
p2421
I1
sS'running'
p2422
I1
sS'11,600'
p2423
I1
sS'american'
p2424
I3
sS'said.san'
p2425
I5
sS'expecting'
p2426
I3
sS'tamayo'
p2427
I2
sS'circuit'
p2428
I1
sS'joey'
p2429
I2
sS'fallen'
p2430
I2
sS'exhibited'
p2431
I1
sS'feed'
p2432
I1
sS'6.09'
p2433
I2
sS'major'
p2434
I9
sS'slipped'
p2435
I8
sS'feel'
p2436
I5
sS'moderately'
p2437
I1
sS'10.325standchart'
p2438
I1
sS'number'
p2439
I3
sS'12.37'
p2440
I2
sS'linking'
p2441
I1
sS'bernadette'
p2442
I1
sS'13,000'
p2443
I3
sS'301.23'
p2444
I1
sS'said.mabuhay'
p2445
I1
sS'fees'
p2446
I3
sS'added.tan'
p2447
I1
sS'wages'
p2448
I4
sS'islands.on'
p2449
I1
sS'story'
p2450
I1
sS'0.32filipino'
p2451
I1
sS'leverage'
p2452
I1
sS'22.apr.97'
p2453
I1
sS'leading'
p2454
I6
sS'imelda'
p2455
I2
sS'26.370'
p2456
I1
sS'strategy'
p2457
I1
sS'180'
p2458
I2
sS'assumption'
p2459
I2
sS'4.50-4.75'
p2460
I2
sS'statement'
p2461
I23
sS'185'
p2462
I1
sS'pesos.empire'
p2463
I2
sS'compromise'
p2464
I2
sS'fradulent'
p2465
I1
sS'scheme'
p2466
I2
sS'finances'
p2467
I1
sS'bechtel'
p2468
I1
sS'catapult'
p2469
I1
sS'3,162.21'
p2470
I3
sS'selling'
p2471
I9
sS'kids'
p2472
I1
sS'passed'
p2473
I3
sS'pump'
p2474
I1
sS'hotel'
p2475
I3
sS'immediate'
p2476
I1
sS'appreciation'
p2477
I7
sS'treasurer'
p2478
I1
sS'velasquez'
p2479
I1
sS'sold'
p2480
I10
sS'believe'
p2481
I3
sS'convinced'
p2482
I1
sS'kind'
p2483
I6
sS'b'
p2484
I6
sS'reason'
p2485
I2
sS'islands.tanchoco'
p2486
I1
sS'widened'
p2487
I1
sS'double'
p2488
I7
sS'close.mining'
p2489
I1
sS'plowed'
p2490
I1
sS'grey'
p2491
I4
sS'aims'
p2492
I1
sS'charges'
p2493
I1
sS'cost'
p2494
I1
sS'2020'
p2495
I2
sS'risks'
p2496
I2
sS'0.95'
p2497
I2
sS'elaborate'
p2498
I1
sS'0.013'
p2499
I1
sS'ousted'
p2500
I3
sS'0.92'
p2501
I1
sS'sentenced'
p2502
I1
sS'mabuhay'
p2503
I8
sS'880'
p2504
I1
sS'corp.the'
p2505
I1
sS'outstanding'
p2506
I2
sS'fuelling'
p2507
I1
sS'imports'
p2508
I3
sS'philippine'
p2509
I116
sS'bhd'
p2510
I2
sS'1.60filipino'
p2511
I1
sS'husain'
p2512
I1
sS'substantial'
p2513
I2
sS'room'
p2514
I1
sS'cumbersome'
p2515
I1
sS'antonio'
p2516
I1
sS'orders'
p2517
I5
sS'interport'
p2518
I4
sS'sell'
p2519
I9
sS'ratings'
p2520
I3
sS'3,447.60'
p2521
I1
sS'8418937'
p2522
I2
sS'evasion'
p2523
I1
sS'8418938'
p2524
I20
sS'8418939'
p2525
I8
sS'1.29'
p2526
I1
sS'cargoes'
p2527
I1
sS'majority'
p2528
I3
sS'caesar'
p2529
I1
sS'build'
p2530
I10
sS'obviously'
p2531
I1
sS'deepening'
p2532
I2
sS'occurred.at'
p2533
I1
sS'drinks'
p2534
I2
sS'phils.the'
p2535
I1
sS'province'
p2536
I4
sS'1.5538'
p2537
I1
sS'added'
p2538
I14
sS'aritao'
p2539
I1
sS'electric'
p2540
I7
sS'1.52philam'
p2541
I1
sS'quote'
p2542
I1
sS'kai'
p2543
I4
sS'measures'
p2544
I3
sS'eruption'
p2545
I2
sS'chart'
p2546
I1
sS'phibor'
p2547
I6
sS'75'
p2548
I2
sS'experiences'
p2549
I3
sS'plan'
p2550
I10
sS'significant'
p2551
I3
sS'70'
p2552
I3
sS'services'
p2553
I9
sS'accepting'
p2554
I2
sS'approved'
p2555
I18
sS'stands'
p2556
I1
sS'reward'
p2557
I2
sS'kg'
p2558
I4
sS'dealers'
p2559
I9
sS'1045'
p2560
I1
sS'clear'
p2561
I1
sS'1.2059'
p2562
I1
sS'cover'
p2563
I1
sS"they'll"
p2564
I1
sS'concessions'
p2565
I1
sS'forerunner'
p2566
I2
sS'mammoth'
p2567
I2
sS'clean'
p2568
I1
sS'1.24'
p2569
I1
sS'institutions'
p2570
I6
sS'sector'
p2571
I36
sS'7,400'
p2572
I1
sS'contracted'
p2573
I1
sS'rebels'
p2574
I1
sS'gold'
p2575
I11
sS'tuesday.the'
p2576
I2
sS'obligations'
p2577
I1
sS'26.341'
p2578
I1
sS'memorandum'
p2579
I2
sS'bearish'
p2580
I2
sS'nasdaq'
p2581
I1
sS'session'
p2582
I12
sS'businesses'
p2583
I2
sS'multilateral'
p2584
I2
sS'stores'
p2585
I3
sS'candelaria'
p2586
I1
sS'restructure'
p2587
I2
sS'impact'
p2588
I9
sS'giant'
p2589
I3
sS'cebu'
p2590
I20
sS'delinquent'
p2591
I1
sS'northern'
p2592
I3
sS'merger'
p2593
I10
sS'stockholders'
p2594
I12
sS'19th'
p2595
I1
sS'fruit'
p2596
I1
sS'failed'
p2597
I3
sS'interview.bautista'
p2598
I1
sS'kidnap'
p2599
I1
sS'pesos.it'
p2600
I2
sS'pretty'
p2601
I1
sS'equity'
p2602
I5
sS'8'
p2603
I3
sS'aquino'
p2604
I1
sS'merged'
p2605
I1
sS'subscribers.the'
p2606
I1
sS'interview.energy'
p2607
I2
sS'fraud.however'
p2608
I1
sS'hit'
p2609
I7
sS'gains'
p2610
I3
sS'26.09united'
p2611
I1
sS'30.86united'
p2612
I1
sS'financing'
p2613
I5
sS'cheaper'
p2614
I1
sS'1.89'
p2615
I2
sS'grew'
p2616
I2
sS'5,000'
p2617
I3
sS'3/4'
p2618
I7
sS'closely'
p2619
I1
sS'reporters'
p2620
I8
sS'3/8'
p2621
I8
sS'1.82'
p2622
I2
sS'unrestricted'
p2623
I1
sS'dampened'
p2624
I1
sS'crs'
p2625
I1
sS'1400'
p2626
I1
sS'39.66'
p2627
I1
sS'millenium'
p2628
I2
sS'witwatersrand'
p2629
I1
sS'garcia'
p2630
I13
sS'done.details'
p2631
I1
sS'common'
p2632
I3
sS'activity'
p2633
I1
sS'switzerland'
p2634
I5
sS'9.375'
p2635
I4
sS'9.825'
p2636
I2
sS'rfm'
p2637
I9
sS'vinh'
p2638
I1
sS'later.delamuraz'
p2639
I1
sS'set'
p2640
I17
sS'achieved'
p2641
I3
sS'declines'
p2642
I2
sS'90-day'
p2643
I1
sS'upsurge'
p2644
I3
sS'instituted'
p2645
I1
sS'315'
p2646
I2
sS'collectively'
p2647
I1
sS'2.9'
p2648
I4
sS'totalling'
p2649
I1
sS'sec'
p2650
I1
sS'2.3'
p2651
I2
sS'close'
p2652
I17
sS'2.0'
p2653
I2
sS'2.7'
p2654
I3
sS'embarking'
p2655
I2
sS'locals'
p2656
I2
sS'bong'
p2657
I1
sS'25-may'
p2658
I1
sS'spirits'
p2659
I2
sS'visiting'
p2660
I1
sS'unrealized'
p2661
I1
sS'currently'
p2662
I1
sS'won'
p2663
I3
sS'various'
p2664
I2
sS'hayley'
p2665
I1
sS'santillan'
p2666
I2
sS'probably'
p2667
I2
sS'conditions'
p2668
I3
sS'market.analyst'
p2669
I1
sS'15th'
p2670
I1
sS'available'
p2671
I5
sS'korea'
p2672
I7
sS'recently'
p2673
I4
sS'creating'
p2674
I2
sS'initially'
p2675
I5
sS'dividends'
p2676
I3
sS'franchises'
p2677
I2
sS'attention'
p2678
I2
sS'incident'
p2679
I1
sS'importers'
p2680
I1
sS'opposition'
p2681
I3
sS'franchise'
p2682
I7
sS'dividend'
p2683
I15
sS'baring'
p2684
I1
sS'said.that'
p2685
I1
sS'prospects'
p2686
I4
sS'1.0585'
p2687
I1
sS'duong'
p2688
I2
sS'reverse'
p2689
I11
sS'adores'
p2690
I1
sS'annual'
p2691
I9
sS'event'
p2692
I1
sS'foreign'
p2693
I24
sS'sensitive'
p2694
I1
sS'said.still'
p2695
I2
sS'1.61'
p2696
I1
sS'roadshow.premiere'
p2697
I1
sS'subscribers.vea'
p2698
I1
sS'tra'
p2699
I1
sS'friday.among'
p2700
I2
sS'upgraded'
p2701
I2
sS't&m'
p2702
I2
sS'volcanic'
p2703
I2
sS'000s'
p2704
I1
sS'customary'
p2705
I1
sS'loan'
p2706
I6
sS'powersupply'
p2707
I1
sS'harbour'
p2708
I1
sS'17.24'
p2709
I2
sS'guzman'
p2710
I9
sS'agents'
p2711
I1
sS'share.the'
p2712
I1
sS'vessel'
p2713
I2
sS'grenfell'
p2714
I1
sS'conference1900'
p2715
I1
sS'decline'
p2716
I4
sS'raise'
p2717
I5
sS'pt'
p2718
I1
sS'monthly'
p2719
I1
sS'create'
p2720
I3
sS'632'
p2721
I51
sS'kidnapped'
p2722
I1
sS'convicted'
p2723
I1
sS'reduction'
p2724
I1
sS'said.the'
p2725
I36
sS'combine'
p2726
I1
sS'territory'
p2727
I2
sS'meeting'
p2728
I30
sS'treatment'
p2729
I2
sS'firm'
p2730
I43
sS'generating'
p2731
I5
sS'modern'
p2732
I1
sS'1.5509'
p2733
I1
sS'account.the'
p2734
I1
sS'gas'
p2735
I1
sS'great'
p2736
I2
sS'1.5503'
p2737
I1
sS'priced'
p2738
I7
sS'fund'
p2739
I30
sS'38'
p2740
I1
sS'katherine'
p2741
I7
sS'brokers'
p2742
I6
sS'bidding'
p2743
I2
sS'demand'
p2744
I9
sS'prices'
p2745
I47
sS'comptroller'
p2746
I1
sS'employees.delgado'
p2747
I3
sS'1-yearbank'
p2748
I4
sS'plants'
p2749
I5
sS'uncertain'
p2750
I1
sS'look'
p2751
I2
sS'grains'
p2752
I5
sS'raw'
p2753
I2
sS'solid'
p2754
I6
sS'accomodate'
p2755
I1
sS'straight'
p2756
I1
sS'expanded'
p2757
I2
sS'mln'
p2758
I3
sS'4.411'
p2759
I1
sS'governor'
p2760
I2
sS'pace'
p2761
I7
sS'evaluating'
p2762
I1
sS'involved'
p2763
I2
sS'3,800'
p2764
I1
sS'projecting'
p2765
I3
sS'scheduled'
p2766
I2
sS'larger'
p2767
I3
sS'hoping'
p2768
I2
sS'employees'
p2769
I1
sS'pienaar'
p2770
I1
sS'funded'
p2771
I2
sS'projects.dickie'
p2772
I1
sS'binding'
p2773
I1
sS'rim'
p2774
I2
sS'723.75'
p2775
I1
sS'leaving'
p2776
I2
sS'topics.new'
p2777
I1
sS'earn'
p2778
I1
sS'refiner'
p2779
I2
sS'grant'
p2780
I1
sS'partnerhip'
p2781
I1
sS'manager.first'
p2782
I1
sS'13,700'
p2783
I5
sS'elevated'
p2784
I1
sS'propping'
p2785
I2
sS'percent.money'
p2786
I1
sS'rules'
p2787
I1
sS'10.30bpi'
p2788
I2
sS'grand'
p2789
I1
sS'9'
p2790
I41
sS'10,700'
p2791
I2
sS'attack'
p2792
I1
sS'higher'
p2793
I32
sS'development'
p2794
I22
sS'used'
p2795
I4
sS'temporary'
p2796
I2
sS'mcmoran'
p2797
I1
sS'eaux'
p2798
I1
sS'flooded'
p2799
I1
sS'yesterday'
p2800
I9
sS'flows'
p2801
I5
sS'february.analysts'
p2802
I2
sS'levels'
p2803
I14
sS'arrived'
p2804
I1
sS'purpose'
p2805
I2
sS'yuan'
p2806
I1
sS'masarrat'
p2807
I1
sS'recent'
p2808
I16
sS'early'
p2809
I7
sS'lower'
p2810
I27
sS'studies'
p2811
I3
sS'docked'
p2812
I1
sS'wedged'
p2813
I1
sS'phil'
p2814
I7
sS'8913'
p2815
I5
sS'dharmala'
p2816
I5
sS'1,260-1,270'
p2817
I1
sS'swiss'
p2818
I11
sS'entry'
p2819
I1
sS'bounced'
p2820
I2
sS'speculative'
p2821
I2
sS'comprise'
p2822
I3
sS'1.0392'
p2823
I1
sS'things'
p2824
I3
sS'guang'
p2825
I1
sS'ruler'
p2826
I1
sS'expertise.the'
p2827
I1
sS'polled'
p2828
I4
sS'competitive'
p2829
I3
sS'conference.delfin'
p2830
I1
sS'questions'
p2831
I2
sS'using'
p2832
I2
sS'39500'
p2833
I1
sS'taiwan'
p2834
I7
sS'caltex'
p2835
I5
sS'wage'
p2836
I2
sS'tektite'
p2837
I5
sS'helping'
p2838
I2
sS'112,000'
p2839
I1
sS'informal'
p2840
I1
sS'reap'
p2841
I1
sS'declined'
p2842
I5
sS'percent.though'
p2843
I1
sS'source'
p2844
I2
sS'cue'
p2845
I2
sS'internal'
p2846
I1
sS'76.5'
p2847
I2
sS'flows.but'
p2848
I1
sS'7'
p2849
I2
sS'remaining'
p2850
I2
sS'unloading'
p2851
I5
sS'lumpur'
p2852
I1
sS'associations'
p2853
I4
sS'customers'
p2854
I5
sS'australia'
p2855
I11
sS'march'
p2856
I79
sS'forces'
p2857
I1
sS'lacking'
p2858
I1
sS'demands'
p2859
I1
sS'25-30'
p2860
I1
sS'big'
p2861
I7
sS'showing'
p2862
I2
sS'khuc'
p2863
I1
sS'dividend.empire'
p2864
I1
sS'26.355/26.37.giving'
p2865
I1
sS'suffering'
p2866
I4
sS'amari'
p2867
I2
sS'foreigners'
p2868
I2
sS'emma'
p2869
I2
sS'bit'
p2870
I1
sS'9,000'
p2871
I3
sS'projects'
p2872
I9
sS'husain.the'
p2873
I1
sS'inviting'
p2874
I1
sS'flight'
p2875
I1
sS'10,500'
p2876
I2
sS'7600'
p2877
I1
sS'consensus'
p2878
I3
sS'communications'
p2879
I5
sS'continue'
p2880
I13
sS'80'
p2881
I1
sS'depositary'
p2882
I1
sS'weekend.the'
p2883
I1
sS'popular'
p2884
I2
sS'1415'
p2885
I1
sS'17.258'
p2886
I2
sS'spring'
p2887
I2
sS'732.5'
p2888
I1
sS'million.dealers'
p2889
I1
sS'3.7'
p2890
I2
sS'trends'
p2891
I2
sS'economic'
p2892
I22
sS'pricing'
p2893
I3
sS'3.0'
p2894
I1
sS'7,500'
p2895
I1
sS'26.364/362'
p2896
I1
sS'3.8'
p2897
I1
sS'gradually'
p2898
I2
sS'scale'
p2899
I2
sS'describing'
p2900
I1
sS'broadband'
p2901
I1
sS'prov'
p2902
I1
sS'decision'
p2903
I4
sS'integration'
p2904
I1
sS'goldman'
p2905
I1
sS'to.federal'
p2906
I1
sS'done.under'
p2907
I2
sS'disacharged'
p2908
I1
sS'delamuraz'
p2909
I4
sS'varying'
p2910
I1
sS'tankers'
p2911
I1
sS'run'
p2912
I7
sS'beneficiaries'
p2913
I1
sS'economoic'
p2914
I1
sS'reach'
p2915
I2
sS'302'
p2916
I1
sS'continuing'
p2917
I3
sS'agreement'
p2918
I7
sS'722.5'
p2919
I1
sS'step'
p2920
I3
sS'bp'
p2921
I2
sS'4.62'
p2922
I5
sS'output'
p2923
I2
sS'chairman'
p2924
I5
sS'dictated'
p2925
I1
sS'dilution'
p2926
I2
sS'dormant'
p2927
I1
sS'cautious'
p2928
I1
sS'said.about'
p2929
I1
sS'usa'
p2930
I1
sS'papua'
p2931
I7
sS'remains'
p2932
I2
sS'range'
p2933
I3
sS'regular'
p2934
I3
sS'beans'
p2935
I1
sS'ballgame'
p2936
I2
sS'positive'
p2937
I3
sS'shareholder'
p2938
I2
sS'10.28125'
p2939
I1
sS'72'
p2940
I2
sS'seeing'
p2941
I2
sS'12,000'
p2942
I2
sS'director1045'
p2943
I1
sS'nso'
p2944
I4
sS'zubiri'
p2945
I1
sS'awaited'
p2946
I5
sS'retaining'
p2947
I1
sS'cooperate'
p2948
I1
sS'9.95'
p2949
I4
sS'9.93'
p2950
I1
sS'9.90'
p2951
I7
sS'drifted'
p2952
I1
sS'20.20-20.30'
p2953
I1
sS'statistics'
p2954
I7
sS'vocean'
p2955
I1
sS'baguio'
p2956
I1
sS'projected.bre'
p2957
I1
sS'fast'
p2958
I1
sS'1.50'
p2959
I1
sS'1.56'
p2960
I1
sS"we're"
p2961
I8
sS'forward'
p2962
I3
sS'prey'
p2963
I1
sS'1.59'
p2964
I5
sS'10.32standchart'
p2965
I1
sS'oilseeds'
p2966
I1
sS'east.empire'
p2967
I1
sS'withholding'
p2968
I2
sS'adjusting'
p2969
I2
sS'oils'
p2970
I1
sS'slump'
p2971
I5
sS'2.41information'
p2972
I1
sS'reiterated'
p2973
I1
sS'inched'
p2974
I1
sS'ramos.they'
p2975
I1
sS'pacific'
p2976
I21
sS'filed'
p2977
I3
sS'subsidiary'
p2978
I12
sS'crane'
p2979
I1
sS'10,300'
p2980
I1
sS'raising'
p2981
I3
sS'posted'
p2982
I13
sS'balancing'
p2983
I1
sS'44.18'
p2984
I2
sS'cif'
p2985
I3
sS'said.one'
p2986
I1
sS'26200'
p2987
I1
sS'maturity'
p2988
I1
sS'added.company'
p2989
I1
sS'717.50'
p2990
I3
sS'apiece'
p2991
I2
sS'highlight'
p2992
I2
sS'called'
p2993
I2
sS'110'
p2994
I1
sS'bell'
p2995
I3
sS'said.in'
p2996
I2
sS'ordered'
p2997
I2
sS'likewise'
p2998
I1
sS'influence'
p2999
I1
sS'61.338'
p3000
I1
sS'coordinator'
p3001
I1
sS'single'
p3002
I8
sS'associates'
p3003
I5
sS'monday.the'
p3004
I1
sS'11.20first'
p3005
I1
sS'said.it'
p3006
I3
sS'struggled'
p3007
I1
sS'3-apr'
p3008
I2
sS'1.1744'
p3009
I1
sS'2130'
p3010
I2
sS'borneo'
p3011
I1
sS'dividend.the'
p3012
I2
sS'peace'
p3013
I1
sS'fears'
p3014
I4
sS'intensifying'
p3015
I1
sS'application'
p3016
I4
sS'definitely'
p3017
I3
sS'nav'
p3018
I4
sS'benguet'
p3019
I4
sS'forge'
p3020
I1
sS'freighter'
p3021
I2
sS'lepanto'
p3022
I2
sS'monday.value'
p3023
I1
sS'abducted'
p3024
I1
sS'particular'
p3025
I2
sS'lucio'
p3026
I1
sS'draw'
p3027
I4
sS'users'
p3028
I3
sS'gross'
p3029
I3
sS'favourite'
p3030
I1
sS'purged'
p3031
I1
sS'problems'
p3032
I4
sS'liners'
p3033
I1
sS'properies'
p3034
I2
sS'prepared'
p3035
I1
sS'regulations'
p3036
I1
sS'generated'
p3037
I1
sS'restoration'
p3038
I1
sS'cater'
p3039
I1
sS'allowing'
p3040
I1
sS'lunch'
p3041
I1
sS'lent'
p3042
I1
sS'1/8'
p3043
I7
sS'structure'
p3044
I2
sS'rightful'
p3045
I3
sS'ago'
p3046
I4
sS'land'
p3047
I14
sS'344-day'
p3048
I1
sS'vice'
p3049
I5
sS'overlay'
p3050
I1
sS'10.50/10.325'
p3051
I1
sS'responded'
p3052
I1
sS'2000'
p3053
I1
sS'summit'
p3054
I2
sS'came'
p3055
I1
sS'rallies'
p3056
I1
sS'fresh'
p3057
I1
sS'rates.in'
p3058
I1
sS'having'
p3059
I2
sS'denoms'
p3060
I1
sS'advisory'
p3061
I2
sS'issued'
p3062
I2
sS'results'
p3063
I9
sS'tested'
p3064
I3
sS'existing'
p3065
I6
sS'farms'
p3066
I1
sS'gang'
p3067
I1
sS'0.23'
p3068
I1
sS'15,000'
p3069
I6
sS'cases'
p3070
I1
sS'issues'
p3071
I14
sS'issuer'
p3072
I1
sS'wednesday.he'
p3073
I2
sS'asphalt'
p3074
I1
sS'transacted'
p3075
I1
sS'concerned'
p3076
I1
sS'10600'
p3077
I1
sS'send'
p3078
I1
sS'suits'
p3079
I1
sS'intensive'
p3080
I2
sS'franchises.eizmendi'
p3081
I1
sS'nippon'
p3082
I2
sS'problems.the'
p3083
I1
sS'cesar'
p3084
I1
sS'ceilings.in'
p3085
I2
sS'stable'
p3086
I8
sS'quarterly'
p3087
I1
sS'breach'
p3088
I1
sS'include'
p3089
I6
sS'dramatically'
p3090
I1
sS'resources'
p3091
I2
sS'aspirants'
p3092
I1
sS'10.30multinational'
p3093
I1
sS'715'
p3094
I2
sS'schedule'
p3095
I1
sS'wave'
p3096
I1
sS'indication'
p3097
I1
sS'deal.coca'
p3098
I1
sS'putting'
p3099
I1
sS'cellular'
p3100
I7
sS'continued'
p3101
I10
sS'minerals'
p3102
I2
sS'timely'
p3103
I1
sS'deposits'
p3104
I1
sS'moderate'
p3105
I1
sS'magic'
p3106
I2
sS'harbor'
p3107
I1
sS'experiencing'
p3108
I2
sS'notes'
p3109
I4
sS'country.in'
p3110
I1
sS'michael'
p3111
I2
sS'excessive'
p3112
I2
sS'deals'
p3113
I5
sS'148'
p3114
I1
sS'toreuters'
p3115
I3
sS'noted'
p3116
I2
sS'93.5'
p3117
I1
sS'secondarymarketrates'
p3118
I4
sS'capital1030'
p3119
I1
sS'dilute'
p3120
I2
sS'crop'
p3121
I2
sS'unprofitable'
p3122
I1
sS'selldown'
p3123
I1
sS'gains.analysts'
p3124
I1
sS'usher'
p3125
I3
sS'friday.finance'
p3126
I1
sS'pace.sun'
p3127
I2
sS'year.as'
p3128
I1
sS'berhad'
p3129
I1
sS'makers'
p3130
I1
sS'index'
p3131
I27
sS'gainers'
p3132
I4
sS'power'
p3133
I44
sS'3,060.59'
p3134
I2
sS'giving'
p3135
I3
sS'multimedia'
p3136
I2
sS'9.775'
p3137
I1
sS'expressed'
p3138
I1
sS'access'
p3139
I2
sS'paying'
p3140
I3
sS'waiting'
p3141
I4
sS'turnaround'
p3142
I2
sS'capital'
p3143
I54
sS'incidents'
p3144
I1
sS'firms'
p3145
I11
sS'9.575'
p3146
I1
sS'exercise'
p3147
I8
sS'1630'
p3148
I2
sS'body'
p3149
I3
sS'brunei'
p3150
I7
sS'benpres'
p3151
I1
sS'448'
p3152
I2
sS'led'
p3153
I3
sS'lee'
p3154
I1
sS'degree'
p3155
I1
sS'exchange'
p3156
I49
sS'respectively'
p3157
I1
sS'pushing'
p3158
I6
sS'commercial'
p3159
I6
sS'1330'
p3160
I1
sS'jointly'
p3161
I1
sS'slated'
p3162
I2
sS'defector'
p3163
I1
sS'growing'
p3164
I5
sS'added.the'
p3165
I1
sS'750.872'
p3166
I1
sS'cab'
p3167
I3
sS'thirdliners'
p3168
I1
sS'galleon'
p3169
I4
sS'lyonnaise'
p3170
I1
sS'39'
p3171
I3
sS'engage'
p3172
I1
sS'metro'
p3173
I5
sS'10,600'
p3174
I1
sS'33'
p3175
I6
sS'32'
p3176
I2
sS'31'
p3177
I6
sS'30'
p3178
I13
sS'37'
p3179
I2
sS'36'
p3180
I3
sS'35'
p3181
I1
sS'34'
p3182
I2
sS'justice'
p3183
I1
sS'10.15625'
p3184
I3
sS'awakened'
p3185
I1
sS'products'
p3186
I12
sS"weren't"
p3187
I1
sS'morgan.the'
p3188
I1
sS'currencies.another'
p3189
I1
sS'auxillary'
p3190
I1
sS'makes'
p3191
I3
sS'involves'
p3192
I3
sS'looted'
p3193
I2
sS'0.9'
p3194
I1
sS'assistance'
p3195
I1
sS'foresee'
p3196
I3
sS'clark'
p3197
I1
sS'deputy'
p3198
I3
sS'win'
p3199
I1
sS'added.cabel'
p3200
I1
sS'manage'
p3201
I2
sS'private'
p3202
I23
sS'4.76'
p3203
I1
sS'hub.these'
p3204
I2
sS'unhappy'
p3205
I1
sS'specifics.he'
p3206
I1
sS'projects.only'
p3207
I1
sS'ends'
p3208
I1
sS'sugar'
p3209
I4
sS'staple'
p3210
I2
sS'strapped'
p3211
I2
sS'use'
p3212
I7
sS'months.bautista'
p3213
I1
sS'feb'
p3214
I1
sS'stream'
p3215
I2
sS'consumption'
p3216
I1
sS'giang'
p3217
I1
sS'space.the'
p3218
I1
sS'illegal'
p3219
I1
sS'examined'
p3220
I1
sS'ministers'
p3221
I33
sS'50900'
p3222
I1
sS'privatisation.in'
p3223
I2
sS'vehicle'
p3224
I2
sS'concepcion'
p3225
I3
sS'bonds'
p3226
I1
sS'panel'
p3227
I2
sS'chloride'
p3228
I1
sS'payout'
p3229
I2
sS'1/4'
p3230
I3
sS'1/2'
p3231
I2
sS'comparison'
p3232
I1
sS'started'
p3233
I6
sS'mention'
p3234
I1
sS'factor'
p3235
I4
sS'benchmark'
p3236
I8
sS'occurred'
p3237
I2
sS'improve'
p3238
I1
sS'0.4'
p3239
I5
sS'east.stock'
p3240
I1
sS'9.85'
p3241
I9
sS'sharply'
p3242
I7
sS'9.89'
p3243
I1
sS'zamora'
p3244
I4
sS'43.6'
p3245
I2
sS'appointed'
p3246
I1
sS'subscription'
p3247
I3
sS'customer'
p3248
I2
sS'account'
p3249
I9
sS'announcing'
p3250
I1
sS'f'
p3251
I2
sS'gabriel'
p3252
I2
sS'averaged'
p3253
I1
sS'community.he'
p3254
I1
sS'erwin'
p3255
I3
sS'initiativesapec'
p3256
I1
sS'simplicio'
p3257
I3
sS'stakeholders.mabuhay'
p3258
I1
sS'meet'
p3259
I4
sS'closing'
p3260
I7
sS'drops'
p3261
I1
sS'solid.she'
p3262
I1
sS'fetch'
p3263
I1
sS'1.42'
p3264
I2
sS'control'
p3265
I5
sS'0.8'
p3266
I2
sS'slid'
p3267
I2
sS'weaker'
p3268
I3
sS'dividend.it'
p3269
I1
sS'links'
p3270
I3
sS'year.napocor'
p3271
I1
sS'process'
p3272
I2
sS'0.3'
p3273
I3
sS'tax'
p3274
I8
sS'purposes'
p3275
I2
sS'0.6'
p3276
I1
sS'high'
p3277
I17
sS'reserves'
p3278
I2
sS'shipping'
p3279
I9
sS'62,172,820'
p3280
I1
sS'sought'
p3281
I1
sS'dominant'
p3282
I2
sS'tan'
p3283
I13
sS'rates.meralco'
p3284
I1
sS'10.06'
p3285
I1
sS'10.07'
p3286
I1
sS'10.05'
p3287
I2
sS'17.42'
p3288
I2
sS'united'
p3289
I29
sS'amro'
p3290
I2
sS'10.125'
p3291
I5
sS'reuter'
p3292
I4
sS'2,811'
p3293
I1
sS'traders'
p3294
I38
sS'located'
p3295
I1
sS'sentiments'
p3296
I1
sS'century.bre'
p3297
I1
sS'said.but'
p3298
I1
sS'instead'
p3299
I1
sS'revs'
p3300
I2
sS'stock'
p3301
I60
sS'administrator'
p3302
I4
sS'attend'
p3303
I2
sS'ayala'
p3304
I6
sS'farm'
p3305
I2
sS'locked'
p3306
I1
sS'act'
p3307
I1
sS'collection'
p3308
I2
sS'halted'
p3309
I2
sS'maturities'
p3310
I5
sS'preferred'
p3311
I1
sS'year.targets'
p3312
I1
sS'notes.one'
p3313
I1
sS'26.367.offshore'
p3314
I1
sS'hepatitis.when'
p3315
I1
sS'12-17'
p3316
I1
sS'thursday.garcia'
p3317
I1
sS'binh'
p3318
I1
sS'bine'
p3319
I1
sS'light'
p3320
I7
sS'counter'
p3321
I3
sS'interrupted'
p3322
I1
sS'commodities'
p3323
I1
sS'chief'
p3324
I14
sS'road'
p3325
I1
sS'allow'
p3326
I3
sS'handover'
p3327
I1
sS'said.meralco'
p3328
I1
sS'billion.the'
p3329
I1
sS'secured'
p3330
I1
sS'preparing'
p3331
I1
sS'borrower'
p3332
I1
sS'centers.cloning'
p3333
I1
sS'reeling'
p3334
I1
sS'1.309'
p3335
I1
sS'hiroshi'
p3336
I1
sS'despite'
p3337
I4
sS'doubtful'
p3338
I1
sS'produced'
p3339
I3
sS'including'
p3340
I10
sS'135'
p3341
I4
sS'26.337'
p3342
I1
sS'interpreter'
p3343
I1
sS'industries'
p3344
I1
sS'alabastro'
p3345
I3
sS'chosen'
p3346
I1
sS'ships'
p3347
I4
sS'0.9650'
p3348
I1
sS'6.30'
p3349
I2
sS'willing'
p3350
I5
sS'public.a'
p3351
I1
sS'0215'
p3352
I1
sS'covered'
p3353
I2
sS'bye'
p3354
I2
sS'2010'
p3355
I2
sS'weeks.this'
p3356
I1
sS'friday.the'
p3357
I2
sS'vergara'
p3358
I5
sS'greater'
p3359
I2
sS'flour'
p3360
I7
sS'2.33'
p3361
I2
sS'practice'
p3362
I1
sS'runs'
p3363
I1
sS'8176267'
p3364
I46
sS'landlines'
p3365
I1
sS'said.earlier'
p3366
I1
sS'refinery'
p3367
I1
sS'resolve'
p3368
I2
sS'hands'
p3369
I2
sS'night.the'
p3370
I1
sS'stabilise'
p3371
I2
sS'psecaused'
p3372
I1
sS'investor'
p3373
I7
sS'day'
p3374
I20
sS'presidential'
p3375
I3
sS'philippines.first'
p3376
I1
sS'kilometres'
p3377
I2
sS'february'
p3378
I31
sS'nfa'
p3379
I6
sS'said.smart'
p3380
I1
sS'mnlf'
p3381
I2
sS'merge'
p3382
I2
sS'slide'
p3383
I3
sS'shortage'
p3384
I4
sS'rising'
p3385
I4
sS'bills'
p3386
I18
sS'projects.details'
p3387
I1
sS'prevailing'
p3388
I2
sS'chuna'
p3389
I1
sS'exacerbated'
p3390
I2
sS'privatisation'
p3391
I22
sS'doing'
p3392
I1
sS'globe'
p3393
I2
sS'programmed'
p3394
I2
sS'restructured'
p3395
I2
sS'speculated'
p3396
I1
sS'88'
p3397
I1
sS'books'
p3398
I1
sS'changed'
p3399
I1
sS'slumped'
p3400
I1
sS'reenter'
p3401
I1
sS'81'
p3402
I2
sS'362,000'
p3403
I1
sS'87'
p3404
I1
sS'special'
p3405
I7
sS'recommended.finance'
p3406
I1
sS'14.418'
p3407
I1
sS'12.053'
p3408
I2
sS'sentiment'
p3409
I4
sS'bag'
p3410
I2
sS'aside'
p3411
I1
sS'10.35metrobank'
p3412
I2
sS'develop'
p3413
I4
sS'bad'
p3414
I1
sS'wholly'
p3415
I1
sS'liberalisation'
p3416
I2
sS'dominated'
p3417
I1
sS'grits'
p3418
I1
sS'points.in'
p3419
I1
sS'thriving'
p3420
I3
sS'utility'
p3421
I1
sS'cause'
p3422
I2
sS'integrated'
p3423
I1
sS'announced'
p3424
I7
sS'disclose'
p3425
I2
sS'torres'
p3426
I2
sS'maize'
p3427
I4
sS'234.0'
p3428
I1
sS'recommendations'
p3429
I1
sS'0.55'
p3430
I1
sS'delegates'
p3431
I3
sS'embassy'
p3432
I1
sS'attending'
p3433
I2
sS'regulators'
p3434
I1
sS'york'
p3435
I2
sS'karunungan'
p3436
I11
sS'usual'
p3437
I1
sS'regulatory'
p3438
I8
sS'region'
p3439
I15
sS'delegated'
p3440
I2
sS'20,000'
p3441
I1
sS'resumed'
p3442
I2
sS'182-day'
p3443
I1
sS'1430'
p3444
I1
sS'27,966'
p3445
I1
sS'times'
p3446
I15
sS'3,093.21'
p3447
I1
sS'length'
p3448
I2
sS'allied'
p3449
I3
sS'said.following'
p3450
I1
sS'retail'
p3451
I5
sS'facilitate'
p3452
I2
sS'vegetables'
p3453
I2
sS'south'
p3454
I10
sS'9.9375'
p3455
I11
sS'prospective'
p3456
I2
sS'38.50'
p3457
I2
sS'metering'
p3458
I1
sS'owned'
p3459
I9
sS'dickie'
p3460
I4
sS'date'
p3461
I8
sS'spots'
p3462
I1
sS'owner'
p3463
I2
sS'reached'
p3464
I8
sS'awarded'
p3465
I1
sS'buoyed'
p3466
I1
sS'opportune'
p3467
I1
sS'legislative'
p3468
I1
sS'23.24'
p3469
I1
sS'management'
p3470
I4
sS'media.grandair'
p3471
I1
sS'intention'
p3472
I1
sS'bears'
p3473
I1
sS'7718'
p3474
I1
sS'relations'
p3475
I3
sS'priority'
p3476
I1
sS'backdoor'
p3477
I1
sS'1500'
p3478
I1
sS'confectionery'
p3479
I2
sS'slightlyvarying'
p3480
I4
sS'final'
p3481
I1
sS'p.m.local'
p3482
I1
sS'interests'
p3483
I5
sS'genco'
p3484
I3
sS'development1430'
p3485
I1
sS'shell'
p3486
I2
sS'liang'
p3487
I1
sS'earmarked'
p3488
I1
sS'completed'
p3489
I2
sS'acquire'
p3490
I1
sS'vouch'
p3491
I4
sS'reflecting'
p3492
I1
sS'tended'
p3493
I1
sS'6960'
p3494
I1
sS'6,281'
p3495
I1
sS'july'
p3496
I4
sS'20-year'
p3497
I3
sS'elite'
p3498
I1
sS'58.47'
p3499
I2
sS'towns.in'
p3500
I1
sS'yap.traders'
p3501
I2
sS'asianbank'
p3502
I7
sS'bid'
p3503
I12
sS'liquid'
p3504
I2
sS'meeting1830'
p3505
I1
sS'roberto'
p3506
I1
sS'reacted'
p3507
I1
sS'submitted'
p3508
I4
sS'shares.the'
p3509
I2
sS'aggressive'
p3510
I6
sS'allure'
p3511
I2
sS'oversold'
p3512
I1
sS'briefing'
p3513
I3
sS'negatively'
p3514
I1
sS'steep'
p3515
I3
sS'creditors'
p3516
I3
sS'cloning'
p3517
I3
sS'1.4'
p3518
I3
sS'accusing'
p3519
I1
sS'1.6'
p3520
I3
sS'1.7'
p3521
I1
sS'racho'
p3522
I2
sS'1.2'
p3523
I1
sS'unchanged'
p3524
I14
sS'1.8'
p3525
I1
sS'unlikely'
p3526
I1
sS'dictate'
p3527
I3
sS'need'
p3528
I4
sS'9.75'
p3529
I5
sS'8.50'
p3530
I4
sS'linked'
p3531
I3
sS'viewed'
p3532
I3
sS'venturing'
p3533
I2
sS'finances.one'
p3534
I1
sS'studying'
p3535
I1
sS'able'
p3536
I7
sS'mid'
p3537
I1
sS'arm'
p3538
I4
sS'instance'
p3539
I1
sS'bloodbath'
p3540
I2
sS'concerns'
p3541
I3
sS'combining'
p3542
I2
sS'piltel'
p3543
I4
sS'korean'
p3544
I1
sS'competence'
p3545
I1
sS'accuracy'
p3546
I4
sS'10.37'
p3547
I1
sS'10.35'
p3548
I6
sS'231.56'
p3549
I1
sS'agenda'
p3550
I2
sS'fidel'
p3551
I6
sS'langeron'
p3552
I1
sS'petron'
p3553
I2
sS'dutch'
p3554
I1
sS'01'
p3555
I1
sS'palace'
p3556
I2
sS'energise'
p3557
I1
sS'future'
p3558
I1
sS'payment'
p3559
I2
sS'police'
p3560
I2
sS'macroasia'
p3561
I3
sS'thursday.already'
p3562
I1
sS'volume'
p3563
I13
sS'added.laxa'
p3564
I1
sS'consequences'
p3565
I2
sS'gather'
p3566
I3
sS'said.coke'
p3567
I1
sS'pesos.additionally'
p3568
I1
sS'ago.aside'
p3569
I1
sS'michel'
p3570
I2
sS'guinea'
p3571
I7
sS'built'
p3572
I3
sS'deng'
p3573
I1
sS'away'
p3574
I1
sS'impression'
p3575
I1
sS'emerging'
p3576
I4
sS'dismisses'
p3577
I1
sS'voyage'
p3578
I1
sS'chances'
p3579
I1
sS'agreed'
p3580
I5
sS'supported'
p3581
I1
sS'12m'
p3582
I3
sS'electorate'
p3583
I1
sS'brother'
p3584
I2
sS'bring'
p3585
I5
sS'69.00'
p3586
I1
sS'planning'
p3587
I3
sS'12,600'
p3588
I2
sS'reaching'
p3589
I1
sS'portfolio'
p3590
I1
sS'102-unit'
p3591
I1
sS'determined'
p3592
I1
sS'economist'
p3593
I8
sS'decade'
p3594
I5
sS'staff'
p3595
I1
sS'partners'
p3596
I7
sS'promote'
p3597
I1
sS'based'
p3598
I19
sS'q4'
p3599
I2
sS'458.195'
p3600
I3
sS'pstc'
p3601
I2
sS'institutional'
p3602
I2
sS'finalised'
p3603
I3
sS'buying'
p3604
I3
sS'fuel'
p3605
I10
sS'reuters.de'
p3606
I1
sS'local'
p3607
I14
sS'hope'
p3608
I4
sS'meant'
p3609
I2
sS'wilfrido'
p3610
I2
sS'espina'
p3611
I7
sS'pull'
p3612
I3
sS'beat'
p3613
I1
sS'overall'
p3614
I2
sS'bear'
p3615
I1
sS'120'
p3616
I7
sS'121'
p3617
I1
sS'confiscated.manila'
p3618
I1
sS'124'
p3619
I4
sS'125'
p3620
I7
sS'said.done'
p3621
I2
sS'consecutive'
p3622
I1
sS'years'
p3623
I18
sS'spur'
p3624
I1
sS'areas'
p3625
I4
sS'percent.dealers'
p3626
I1
sS'shr'
p3627
I2
sS'evident'
p3628
I2
sS'tobacco'
p3629
I2
sS'bloodied.empire'
p3630
I1
sS'5,811.15'
p3631
I1
sS'helpful.the'
p3632
I1
sS'taxes'
p3633
I3
sS'calling'
p3634
I1
sS'cooperation.among'
p3635
I1
sS'jaime'
p3636
I2
sS'rates.freddie'
p3637
I1
sS'contain'
p3638
I2
sS'proponents'
p3639
I1
sS'tightening'
p3640
I5
sS'gerardo'
p3641
I3
sS'pesos.but'
p3642
I1
sS'view'
p3643
I7
sS'europe'
p3644
I3
sS'said.belle'
p3645
I1
sS'issue.empire'
p3646
I1
sS'acquired'
p3647
I5
sS'34.5'
p3648
I1
sS'benigno'
p3649
I1
sS'34.1'
p3650
I1
sS'decade.apec'
p3651
I2
sS'officials'
p3652
I14
sS'enhanced'
p3653
I3
sS'27.57'
p3654
I1
sS'bidders'
p3655
I1
sS'awaits'
p3656
I1
sS'closer'
p3657
I1
sS'closes'
p3658
I1
sS'borrowers'
p3659
I3
sS'imposition'
p3660
I2
sS'placed'
p3661
I3
sS'clearing'
p3662
I3
sS'luz'
p3663
I4
sS'bias'
p3664
I1
sS'flour.the'
p3665
I1
sS'tend'
p3666
I1
sS'rolled'
p3667
I1
sS'state'
p3668
I8
sS'difficulties'
p3669
I5
sS'unravel'
p3670
I1
sS'closed'
p3671
I24
sS'allotted'
p3672
I2
sS'crude'
p3673
I2
sS'722'
p3674
I1
sS'3,104.77'
p3675
I4
sS'globalisation'
p3676
I2
sS'disgruntled'
p3677
I1
sS'bought'
p3678
I10
sS'keynote'
p3679
I1
sS'said.canada'
p3680
I1
sS'opening'
p3681
I6
sS'542'
p3682
I1
sS'beverages'
p3683
I2
sS'agencies'
p3684
I4
sS'23,189'
p3685
I1
sS'perfecto'
p3686
I1
sS'key'
p3687
I1
sS'approval'
p3688
I2
sS'february.a'
p3689
I2
sS'problem'
p3690
I3
sS'declining'
p3691
I3
sS'2.40'
p3692
I2
sS'restrictions'
p3693
I1
sS'hits'
p3694
I1
sS'2.44'
p3695
I1
sS'sewerage'
p3696
I1
sS'taking'
p3697
I1
sS'deficits'
p3698
I5
sS'attributed'
p3699
I1
sS'trips'
p3700
I1
sS'april'
p3701
I62
sS'liquidating'
p3702
I1
sS'figures'
p3703
I3
sS'kinds'
p3704
I1
sS'32.4'
p3705
I1
sS'unconvincing'
p3706
I1
sS'adjusted'
p3707
I1
sS'english'
p3708
I1
sS'wall'
p3709
I17
sS'tuesday'
p3710
I38
sS'607'
p3711
I1
sS'febmar'
p3712
I2
sS'subscribe'
p3713
I1
sS'products.earlier'
p3714
I1
sS'fledging'
p3715
I2
sS'councillor'
p3716
I3
sS'26.365'
p3717
I1
sS'50,000'
p3718
I2
sS'3,100'
p3719
I2
sS'february.from'
p3720
I1
sS'10.375/10.30citibank'
p3721
I1
sS'8.0'
p3722
I1
sS'provinces'
p3723
I2
sS'8.4'
p3724
I4
sS'second'
p3725
I11
sS'8.6'
p3726
I1
sS'addition'
p3727
I5
sS'yap'
p3728
I6
sS'sold.in'
p3729
I1
sS'18bp'
p3730
I1
sS'730'
p3731
I3
sS'offers'
p3732
I3
sS'735'
p3733
I2
sS'agreements'
p3734
I2
sS'certain'
p3735
I7
sS'restrain'
p3736
I2
sS'proposal'
p3737
I3
sS'importsby'
p3738
I1
sS'6,583.48'
p3739
I2
sS'adopted'
p3740
I1
sS'europeso'
p3741
I1
sS'valuations'
p3742
I3
sS'received'
p3743
I1
sS'eduardo'
p3744
I1
sS'sufficient'
p3745
I2
sS'c'
p3746
I6
sS'1200'
p3747
I3
sS'finished'
p3748
I3
sS'expenditure'
p3749
I1
sS'sector1430'
p3750
I1
sS'10.375/10.325hong'
p3751
I1
sS'constructing'
p3752
I1
sS'improved'
p3753
I1
sS'showed.petron'
p3754
I1
sS'present'
p3755
I2
sS'495,000'
p3756
I1
sS'multi'
p3757
I1
sS'11.16first'
p3758
I1
sS'9.885'
p3759
I1
sS'align'
p3760
I1
sS'freeport'
p3761
I4
sS'terms.in'
p3762
I1
sS'value'
p3763
I7
sS'unusually'
p3764
I1
sS'entrepreneurial'
p3765
I2
sS'broadly'
p3766
I1
sS'owns'
p3767
I1
sS'pictures'
p3768
I2
sS'digits'
p3769
I2
sS'18-22'
p3770
I1
sS'supply'
p3771
I4
sS'noticed'
p3772
I1
sS'said.central'
p3773
I1
sS'deutsche'
p3774
I1
sS'surveyed.on'
p3775
I1
sS'site'
p3776
I1
sS'helped'
p3777
I7
sS'vs'
p3778
I3
sS'optimistic'
p3779
I1
sS'claimed'
p3780
I2
sS'partner'
p3781
I3
sS'0.26philequity'
p3782
I1
sS'avg'
p3783
I1
sS'halt'
p3784
I1
sS'parent'
p3785
I1
sS'denial'
p3786
I1
sS'10.425/10.325pnb'
p3787
I1
sS'newsroom'
p3788
I73
sS'marcoses'
p3789
I1
sS'juan'
p3790
I1
sS'administration'
p3791
I1
sS'cross'
p3792
I2
sS'eric'
p3793
I1
sS'member'
p3794
I9
sS'cilette'
p3795
I1
sS'year.cellsites'
p3796
I1
sS'digital'
p3797
I1
sS'incumbent'
p3798
I1
sS'largest'
p3799
I10
sS'units'
p3800
I2
sS'9.425'
p3801
I2
sS'negotiate'
p3802
I1
sS'tapped'
p3803
I2
sS'repercussions'
p3804
I1
sS'roxas'
p3805
I3
sS'malaya'
p3806
I1
sS'15/16'
p3807
I3
sS'0.1'
p3808
I1
sS'philippines.caltex'
p3809
I1
sS'raymond'
p3810
I2
sS'premiere'
p3811
I4
sS'drink'
p3812
I4
sS'effect'
p3813
I7
sS'817-62-67'
p3814
I9
sS'4.6'
p3815
I9
sS'expected.equitable'
p3816
I1
sS'issuance'
p3817
I1
sS'bakery'
p3818
I1
sS'downtrend'
p3819
I1
sS'9.65'
p3820
I1
sS'39.19'
p3821
I1
sS'9.60'
p3822
I3
sS'transaction'
p3823
I7
sS'center'
p3824
I1
sS'banking'
p3825
I18
sS'year.globe'
p3826
I1
sS'builder'
p3827
I1
sS'indonesia'
p3828
I12
sS'meeting.among'
p3829
I1
sS'intiative'
p3830
I1
sS'2.7760'
p3831
I1
sS'development.bot'
p3832
I1
sS'thought'
p3833
I1
sS'355'
p3834
I1
sS'7.70'
p3835
I1
sS'sets'
p3836
I3
sS'1.23'
p3837
I2
sS'position'
p3838
I4
sS'1.20'
p3839
I3
sS'1.26'
p3840
I1
sS'latest'
p3841
I6
sS'load'
p3842
I2
sS'riveted'
p3843
I1
sS'february.the'
p3844
I5
sS'heavily'
p3845
I1
sS'1,100'
p3846
I1
sS'executive'
p3847
I5
sS'domestic'
p3848
I21
sS'obtain'
p3849
I1
sS'sources'
p3850
I3
sS'clinic'
p3851
I1
sS'underlying'
p3852
I3
sS'bautista'
p3853
I6
sS'paul'
p3854
I5
sS'2.this'
p3855
I1
sS'235.8'
p3856
I1
sS'mysterious'
p3857
I1
sS'adr'
p3858
I2
sS'residential'
p3859
I3
sS'point'
p3860
I6
sS'eizmendi'
p3861
I7
sS'transparent'
p3862
I4
sS'26.3'
p3863
I4
sS'add'
p3864
I2
sS'adb'
p3865
I8
sS'attractive'
p3866
I3
sS'usage'
p3867
I1
sS'280'
p3868
I1
sS'warrant'
p3869
I5
sS'smart'
p3870
I6
sS'gmt'
p3871
I9
sS'increased'
p3872
I9
sS'ample'
p3873
I3
sS'government'
p3874
I40
sS'dest'
p3875
I1
sS'frcd'
p3876
I1
sS'ferdinand'
p3877
I3
sS'2-apr'
p3878
I1
sS'841-89-36'
p3879
I9
sS'phuoc'
p3880
I2
sS'increases'
p3881
I5
sS'260'
p3882
I1
sS'know'
p3883
I1
sS'press'
p3884
I1
sS'immediately'
p3885
I7
sS'pier'
p3886
I2
sS'hochner'
p3887
I2
sS'prominent'
p3888
I1
sS'loss'
p3889
I14
sS'lilian'
p3890
I11
sS'necessary'
p3891
I1
sS'like'
p3892
I7
sS'success'
p3893
I1
sS'266.25'
p3894
I1
sS'vibrant'
p3895
I2
sS'10.658'
p3896
I1
sS'fernando'
p3897
I2
sS'resin'
p3898
I1
sS'rates.for'
p3899
I1
sS'kuala'
p3900
I1
sS'lose'
p3901
I2
sS'deregulation'
p3902
I1
sS'59-5/8'
p3903
I1
sS'soft'
p3904
I7
sS'page'
p3905
I4
sS'backlog'
p3906
I1
sS'awash'
p3907
I1
sS'shed'
p3908
I5
sS'10.305standchart'
p3909
I1
sS'arbitrage'
p3910
I4
sS'propel'
p3911
I2
sS'programme.under'
p3912
I1
sS'scared'
p3913
I1
sS'reclamation'
p3914
I1
sS'authority'
p3915
I8
sS'117'
p3916
I2
sS'growth'
p3917
I24
sS'111'
p3918
I1
sS'10.31multinational'
p3919
I1
sS'recommendation'
p3920
I1
sS'home'
p3921
I1
sS'empire'
p3922
I12
sS'employment'
p3923
I1
sS'118'
p3924
I3
sS'transport'
p3925
I4
sS'congress'
p3926
I5
sS'lead'
p3927
I4
sS'13/16'
p3928
I1
sS'percent.prior'
p3929
I1
sS'0.25'
p3930
I1
sS'objected'
p3931
I1
sS'0.20'
p3932
I1
sS'february.in'
p3933
I2
sS'telecommunications'
p3934
I2
sS'leap'
p3935
I1
sS'does'
p3936
I8
sS'february.it'
p3937
I1
sS'assuming'
p3938
I1
sS'sweepstakes'
p3939
I1
sS'leader'
p3940
I2
sS'points.decliners'
p3941
I1
sS'redeveloping'
p3942
I2
sS'slight'
p3943
I5
sS'1,220-1,250'
p3944
I1
sS'journal'
p3945
I2
sS'monetary'
p3946
I11
sS'batangas'
p3947
I2
sS'pressure'
p3948
I5
sS'host'
p3949
I2
sS'snapped'
p3950
I1
sS'loans'
p3951
I5
sS'entirely'
p3952
I2
sS'stage'
p3953
I2
sS'gained'
p3954
I1
sS'actual'
p3955
I1
sS'billing'
p3956
I1
sS'extension'
p3957
I1
sS'getting'
p3958
I2
sS'gothong'
p3959
I2
sS'urged'
p3960
I2
sS'surge'
p3961
I2
sS'23.5'
p3962
I1
sS'carrier'
p3963
I1
sS'23.1'
p3964
I1
sS'prudente'
p3965
I1
sS'economy.a'
p3966
I1
sS'update'
p3967
I1
sS'kapitan'
p3968
I1
sS'executives'
p3969
I2
sS'contending'
p3970
I1
sS'letters'
p3971
I2
sS'warrants'
p3972
I4
sS'businessworld'
p3973
I5
sS'1.055'
p3974
I1
sS'included'
p3975
I1
sS'5.25'
p3976
I1
sS'weather'
p3977
I1
sS'index.another'
p3978
I1
sS'registration'
p3979
I1
sS'roads'
p3980
I2
sS'angping'
p3981
I4
sS'alpay'
p3982
I1
sS'liquidity.in'
p3983
I1
sS'1986'
p3984
I3
sS'1987'
p3985
I2
sS'3-mths'
p3986
I4
sS'van'
p3987
I1
sS'additional'
p3988
I7
sS'2.55'
p3989
I1
sS'confident'
p3990
I4
sS'texaco'
p3991
I2
sS'transfer'
p3992
I3
sS'housing'
p3993
I12
sS'zurich'
p3994
I1
sS'1988'
p3995
I1
sS'listing.bautista'
p3996
I1
sS'continental'
p3997
I2
sS'lost'
p3998
I2
sS'9.9'
p3999
I5
sS'biggest'
p4000
I13
sS'9.5'
p4001
I3
sS'yrs'
p4002
I1
sS'touted'
p4003
I1
sS'fiscal'
p4004
I2
sS'buy'
p4005
I14
sS'north'
p4006
I1
sS"i've"
p4007
I2
sS'funds'
p4008
I31
sS'coke'
p4009
I6
sS'renegotiation'
p4010
I2
sS'infrastructure.apec'
p4011
I1
sS'delivery'
p4012
I1
sS'neutral'
p4013
I1
sS'construction'
p4014
I2
sS'gain'
p4015
I8
sS'yang'
p4016
I2
sS'convergence'
p4017
I1
sS'highest'
p4018
I2
sS'valuation'
p4019
I4
sS'transco'
p4020
I3
sS'9.525'
p4021
I4
sS'jlag'
p4022
I1
sS'interport.mabuhay'
p4023
I1
sS'wish'
p4024
I1
sS'official'
p4025
I14
sS'signed'
p4026
I4
sS'record'
p4027
I7
sS'725'
p4028
I2
sS'stories'
p4029
I12
sS'loading'
p4030
I1
sS'720'
p4031
I3
sS'pumped'
p4032
I1
sS'distribution'
p4033
I5
sS'minutes'
p4034
I1
sS'bearing'
p4035
I1
sS'supreme'
p4036
I4
sS'accounts'
p4037
I3
sS'contribute'
p4038
I5
sS'dialogue'
p4039
I1
sS'dearth'
p4040
I2
sS'persistent'
p4041
I1
sS'3,200'
p4042
I1
sS'said.apparently'
p4043
I1
sS'plundered'
p4044
I1
sS'rates.load'
p4045
I1
sS'ing'
p4046
I4
sS'159.5'
p4047
I2
sS'tonnes.most'
p4048
I1
sS'mutual'
p4049
I8
sS'compared'
p4050
I10
sS'49'
p4051
I1
sS'prodded'
p4052
I1
sS'44'
p4053
I2
sS'45'
p4054
I1
sS'percent'
p4055
I231
sS'40'
p4056
I3
sS'41'
p4057
I3
sS'lakas'
p4058
I1
sS'84'
p4059
I1
sS'sick'
p4060
I2
sS'1.1817'
p4061
I1
sS'7/16'
p4062
I5
sS'gonzalez'
p4063
I2
sS'francisco'
p4064
I4
sS'star'
p4065
I3
sS'monday'
p4066
I21
sS'ubs'
p4067
I1
sS'thursday.for'
p4068
I1
sS'june'
p4069
I7
sS'shown'
p4070
I1
sS'stay'
p4071
I4
sS'chance'
p4072
I2
sS'gap'
p4073
I1
sS'disclosure'
p4074
I1
sS'incurred'
p4075
I1
sS'upwards'
p4076
I1
sS'ownership.the'
p4077
I2
sS'0.50'
p4078
I1
sS'2.6748'
p4079
I1
sS'ranks'
p4080
I1
sS'starting'
p4081
I1
sS'space'
p4082
I3
sS'lasted'
p4083
I2
sS'rule'
p4084
I2
sS'hikes'
p4085
I3
sS'portion'
p4086
I3
sS'lift'
p4087
I3
sS'pension'
p4088
I2
sS'announces'
p4089
I1
sS'15-20'
p4090
I2
sS'tonnes'
p4091
I18
sS'defend'
p4092
I1
sS'zobel'
p4093
I1
s.