(dp0
S'units.yukos'
p1
I1
sS'cyprus'
p2
I2
sS'payoff'
p3
I1
sS'looking'
p4
I7
sS'eligible'
p5
I2
sS'electricity'
p6
I10
sS'fingernails'
p7
I1
sS'then.logunov'
p8
I2
sS'digit'
p9
I5
sS'petrak'
p10
I4
sS'regional'
p11
I19
sS'bratislava'
p12
I2
sS'bringing'
p13
I2
sS'internally'
p14
I1
sS'wednesday'
p15
I55
sS'charter'
p16
I2
sS'hectres'
p17
I1
sS'millet'
p18
I1
sS'second'
p19
I21
sS'available'
p20
I6
sS'relieving'
p21
I1
sS'cooking'
p22
I1
sS'fingers'
p23
I2
sS'increasing'
p24
I3
sS'pioneering'
p25
I1
sS'specialist'
p26
I2
sS'1997f'
p27
I4
sS'kodeks'
p28
I1
sS'intentioned'
p29
I1
sS'reported'
p30
I4
sS'china'
p31
I2
sS'auctioned'
p32
I2
sS'31.86'
p33
I1
sS'coursault'
p34
I1
sS'borrowers'
p35
I1
sS'allies.the'
p36
I1
sS'reports'
p37
I14
sS'controversy'
p38
I1
sS'military'
p39
I8
sS"i'm"
p40
I2
sS'divide'
p41
I1
sS'replace'
p42
I1
sS'brought'
p43
I3
sS'guldimann'
p44
I1
sS'unit'
p45
I5
sS'opponents'
p46
I1
sS'spoke'
p47
I2
sS'year.norilsk'
p48
I1
sS'music'
p49
I1
sS'telegraph'
p50
I1
sS'strike'
p51
I4
sS'13.35'
p52
I2
sS'represented.ria'
p53
I1
sS'30-foot'
p54
I1
sS'mired'
p55
I3
sS'successful'
p56
I3
sS'motors'
p57
I2
sS'georgian'
p58
I4
sS'hurt'
p59
I3
sS'kuchma'
p60
I1
sS'728-day'
p61
I5
sS'90'
p62
I3
sS'5.18'
p63
I1
sS'hold'
p64
I7
sS'97'
p65
I4
sS'96'
p66
I5
sS'pursue'
p67
I1
sS'krasnoyarsk'
p68
I4
sS'revenues'
p69
I26
sS'shabdurasulov'
p70
I5
sS'example'
p71
I3
sS'currency'
p72
I9
sS'reviewing'
p73
I2
sS'want'
p74
I9
sS'provincial'
p75
I2
sS'turn'
p76
I8
sS'complaining'
p77
I2
sS'dialog.the'
p78
I1
sS'travel'
p79
I5
sS'machine'
p80
I2
sS'methodology'
p81
I3
sS'significance'
p82
I1
sS'industrialised'
p83
I1
sS'wrong'
p84
I2
sS'davydovfuel'
p85
I1
sS'siberia'
p86
I3
sS'effective'
p87
I3
sS'helsinki'
p88
I1
sS'deutsche'
p89
I4
sS'redressed.during'
p90
I1
sS'democratic'
p91
I3
sS'backdrop'
p92
I1
sS'telecom'
p93
I2
sS'sunseed'
p94
I6
sS'rewarded'
p95
I1
sS'96,200'
p96
I1
sS'danielyan'
p97
I7
sS'survivors'
p98
I1
sS'hidden'
p99
I1
sS'easier'
p100
I1
sS'year.deputies'
p101
I1
sS'effects'
p102
I1
sS'silver'
p103
I1
sS'structural'
p104
I7
sS'represents'
p105
I2
sS'debut'
p106
I1
sS'pyotr'
p107
I5
sS'expectancy'
p108
I2
sS'burial'
p109
I2
sS'0.1862'
p110
I1
sS'financial'
p111
I4
sS'series'
p112
I15
sS'contracting'
p113
I3
sS'substantially'
p114
I1
sS'ring'
p115
I2
sS'stabilised'
p116
I2
sS'2300'
p117
I1
sS'waive'
p118
I2
sS'encourage'
p119
I2
sS'adapt'
p120
I1
sS'strategist'
p121
I1
sS'midpoint'
p122
I1
sS'corrects'
p123
I2
sS'enormous'
p124
I2
sS'month.ues'
p125
I1
sS'piecemeal'
p126
I1
sS'ministries'
p127
I1
sS'shipped'
p128
I3
sS'1970s'
p129
I2
sS'nigel'
p130
I1
sS'briefing.russian'
p131
I1
sS'171'
p132
I15
sS'service'
p133
I18
sS'needed'
p134
I17
sS'listed'
p135
I4
sS'recent'
p136
I13
sS'bitter'
p137
I2
sS'listen'
p138
I1
sS'danish'
p139
I1
sS'collapse'
p140
I7
sS'geneva'
p141
I1
sS'fibrous'
p142
I1
sS'probems'
p143
I1
sS'showed'
p144
I8
sS'nations'
p145
I3
sS'project'
p146
I1
sS'feeling'
p147
I3
sS'runner'
p148
I2
sS'boston'
p149
I1
sS'cobalt.the'
p150
I1
sS'dozen'
p151
I1
sS'affairs'
p152
I8
sS'concrete'
p153
I3
sS'2.73'
p154
I1
sS'soaked'
p155
I1
sS'recommended'
p156
I2
sS'kremlin'
p157
I12
sS'shipments'
p158
I3
sS'shall'
p159
I1
sS'simplify'
p160
I1
sS'letter'
p161
I4
sS'amps'
p162
I2
sS'elaborate.leonida'
p163
I1
sS'rabay'
p164
I2
sS'detriment'
p165
I1
sS'came'
p166
I5
sS'saying'
p167
I20
sS'bomb'
p168
I2
sS'meetings'
p169
I1
sS'undue'
p170
I1
sS'hungary'
p171
I2
sS'industries.he'
p172
I1
sS'headline'
p173
I1
sS'5722/5736'
p174
I1
sS'workers.private'
p175
I1
sS'421-7-521-8402'
p176
I2
sS'rich'
p177
I1
sS'rice'
p178
I1
sS'critisised'
p179
I1
sS'capel'
p180
I1
sS'4.00'
p181
I3
sS'poland.the'
p182
I1
sS'grozny.he'
p183
I1
sS'57.43'
p184
I1
sS'reversal'
p185
I1
sS'said.nemtsov'
p186
I1
sS'48.00-48.25'
p187
I1
sS'release'
p188
I7
sS'blew'
p189
I3
sS'company.the'
p190
I2
sS'sensitivity'
p191
I1
sS'zrazhevsky'
p192
I1
sS'environment.table'
p193
I1
sS'day.russia'
p194
I2
sS'pads'
p195
I1
sS'optimism'
p196
I2
sS'resigned'
p197
I1
sS'hammer'
p198
I3
sS'best'
p199
I4
sS'clarifies'
p200
I1
sS'january.makharadze'
p201
I1
sS'ambitions'
p202
I1
sS'lott'
p203
I1
sS'pressures'
p204
I1
sS'preserve'
p205
I1
sS'nationwide'
p206
I3
sS'debt'
p207
I12
sS'not.he'
p208
I1
sS'wto'
p209
I3
sS'chelny'
p210
I2
sS'country'
p211
I32
sS'zhigach'
p212
I4
sS'planned'
p213
I14
sS'asked'
p214
I12
sS'102'
p215
I1
sS'yeltsin.moskovsky'
p216
I1
sS'ralfe'
p217
I2
sS'255'
p218
I1
sS'3.83'
p219
I1
sS'3.81'
p220
I1
sS'3.85'
p221
I1
sS'union'
p222
I32
sS'criticised'
p223
I3
sS'restarts'
p224
I1
sS'deal.de'
p225
I2
sS'life'
p226
I9
sS'eastern'
p227
I3
sS'doubts'
p228
I1
sS'year.long'
p229
I1
sS'worked'
p230
I3
sS'commerce'
p231
I4
sS'easter'
p232
I1
sS'played'
p233
I5
sS'player'
p234
I3
sS'tuesday.karl'
p235
I1
sS'trusted'
p236
I1
sS'bond.moscow'
p237
I1
sS'13.15'
p238
I1
sS'damaged'
p239
I1
sS'1092'
p240
I1
sS'things'
p241
I3
sS'split'
p242
I1
sS'laboratoires'
p243
I1
sS'european'
p244
I9
sS'fairly'
p245
I5
sS'svyazinvest.officials'
p246
I1
sS'josef'
p247
I1
sS'hectares'
p248
I2
sS'said.today'
p249
I1
sS'year.camdessus'
p250
I1
sS'ownership'
p251
I12
sS'83.03-98.79'
p252
I1
sS'month.odessa'
p253
I1
sS'deputy.basayev'
p254
I1
sS'rescinded'
p255
I1
sS'corporate'
p256
I3
sS'13333spring'
p257
I1
sS'buy.the'
p258
I1
sS'previous'
p259
I6
sS'politburo'
p260
I1
sS'ease'
p261
I3
sS'delinquents'
p262
I1
sS'easy'
p263
I3
sS'prison'
p264
I2
sS'east'
p265
I7
sS'hat'
p266
I1
sS'20-25'
p267
I1
sS'ukranian'
p268
I1
sS'said.foreign'
p269
I1
sS'1150'
p270
I1
sS'firmer'
p271
I2
sS'possibly'
p272
I3
sS'mosnenergo'
p273
I2
sS'indicative'
p274
I1
sS'birth'
p275
I2
sS'firmed'
p276
I4
sS'shadow'
p277
I3
sS'yastrzhembsky'
p278
I1
sS'steps'
p279
I2
sS'attorney'
p280
I1
sS'right'
p281
I7
sS'old'
p282
I9
sS'crowd'
p283
I1
sS'people'
p284
I35
sS'dollar.society'
p285
I1
sS'crown'
p286
I2
sS'brokerage.the'
p287
I1
sS'8520'
p288
I67
sS'enemies'
p289
I1
sS'polluted'
p290
I1
sS'continue'
p291
I11
sS'dental'
p292
I1
sS'defensive'
p293
I2
sS'1991-92'
p294
I1
sS'hardliners'
p295
I1
sS'dollars'
p296
I4
sS'russky'
p297
I1
sS'1997on'
p298
I1
sS'slightly'
p299
I7
sS'raised'
p300
I4
sS'statements'
p301
I2
sS'case.at'
p302
I1
sS'facility'
p303
I6
sS'0.1840'
p304
I2
sS'0.1845'
p305
I1
sS'arms'
p306
I3
sS'undermining'
p307
I1
sS'beings'
p308
I1
sS'bulgak'
p309
I2
sS'defendants'
p310
I3
sS'2,521'
p311
I1
sS'america'
p312
I3
sS'support'
p313
I26
sS'camdessus'
p314
I73
sS'russians.camdessus'
p315
I1
sS'grades.in'
p316
I1
sS'russia.in'
p317
I1
sS'launching'
p318
I1
sS'offer'
p319
I3
sS'possible.he'
p320
I1
sS'hemisphere'
p321
I1
sS'deal.chechen'
p322
I1
sS'defending.yeltsin'
p323
I1
sS'eruslan'
p324
I2
sS'inside'
p325
I2
sS'85.00-85.20'
p326
I1
sS'lays'
p327
I1
sS'panels'
p328
I1
sS'passenger'
p329
I5
sS'later'
p330
I10
sS'liberal'
p331
I2
sS'sidanko'
p332
I3
sS'federation.on'
p333
I1
sS'exist'
p334
I1
sS'accounting'
p335
I4
sS'ericsson'
p336
I1
sS'dealer'
p337
I13
sS'negotiations'
p338
I4
sS'5,725/39'
p339
I2
sS'solicitation'
p340
I1
sS'eventual'
p341
I1
sS'floor'
p342
I2
sS'crowns'
p343
I2
sS'republic'
p344
I6
sS'ambitious'
p345
I2
sS'models'
p346
I1
sS'rolling'
p347
I1
sS'32.98slovakia'
p348
I1
sS'time'
p349
I37
sS'push'
p350
I1
sS'crocodile'
p351
I1
sS'ministers.maskhadov'
p352
I1
sS'bandits'
p353
I1
sS'3.76'
p354
I1
sS'chair'
p355
I1
sS'5,738-40'
p356
I1
sS'878,000'
p357
I1
sS'suspending'
p358
I1
sS'burlington'
p359
I1
sS'veterans'
p360
I3
sS'bogus'
p361
I1
sS'pleshakov'
p362
I2
sS'gloomy'
p363
I1
sS'servicing'
p364
I1
sS'stays'
p365
I1
sS'32.39for'
p366
I1
sS'minute'
p367
I3
sS'tear'
p368
I1
sS'leave'
p369
I4
sS'solved'
p370
I1
sS'subway'
p371
I2
sS'team'
p372
I12
sS'prevent'
p373
I5
sS'occurrence'
p374
I1
sS'boca'
p375
I1
sS'sign'
p376
I10
sS'station.many'
p377
I1
sS'current'
p378
I18
sS'5,742-43'
p379
I1
sS'crashing'
p380
I2
sS'boost'
p381
I7
sS'5,742-44'
p382
I1
sS'krasnodar'
p383
I4
sS'totalling'
p384
I2
sS'25-basis'
p385
I1
sS'understanding'
p386
I3
sS'passengers'
p387
I1
sS'funded'
p388
I2
sS'commonly'
p389
I1
sS'tasks'
p390
I1
sS'love'
p391
I2
sS'november.last'
p392
I1
sS'bloody'
p393
I3
sS'opposes'
p394
I3
sS'working'
p395
I16
sS'perished'
p396
I1
sS'positive'
p397
I2
sS'predictions'
p398
I1
sS'shortfalls'
p399
I1
sS'wondering'
p400
I1
sS'scope'
p401
I2
sS'prosecutor'
p402
I1
sS'loving'
p403
I1
sS'introducing'
p404
I1
sS'tsarist'
p405
I2
sS'1995.interfax'
p406
I1
sS'approving'
p407
I1
sS'sovecon'
p408
I2
sS'believes'
p409
I3
sS'believed'
p410
I2
sS'neyev.mini'
p411
I1
sS'239'
p412
I1
sS'allowed'
p413
I5
sS'232'
p414
I1
sS'monitoring'
p415
I2
sS'winter'
p416
I5
sS'divided'
p417
I1
sS'elephant'
p418
I1
sS'extensions'
p419
I1
sS'spot'
p420
I3
sS'improving'
p421
I2
sS'data'
p422
I7
sS'stress'
p423
I1
sS'natural'
p424
I21
sS'sectors'
p425
I4
sS'down.the'
p426
I2
sS'sq'
p427
I2
sS'sp'
p428
I2
sS'st'
p429
I7
sS'udugov'
p430
I1
sS'11.39'
p431
I3
sS'6.49'
p432
I1
sS'years'
p433
I34
sS'course'
p434
I4
sS'experiments'
p435
I1
sS'1.264'
p436
I2
sS'1.265'
p437
I1
sS'caucasus'
p438
I5
sS'overhaul'
p439
I1
sS'internationally'
p440
I1
sS'president.lukoil'
p441
I2
sS'budennovsk'
p442
I2
sS'suspension'
p443
I1
sS'troubled'
p444
I1
sS'decades'
p445
I4
sS'downsizing'
p446
I2
sS'modestly'
p447
I1
sS'civilian'
p448
I1
sS'matches'
p449
I1
sS'moves.they'
p450
I1
sS'nation'
p451
I4
sS'arriving'
p452
I2
sS'runners'
p453
I3
sS'firming'
p454
I1
sS'restrictions.some'
p455
I1
sS'establishing'
p456
I2
sS'forces.new'
p457
I1
sS'amnesty'
p458
I9
sS'quarter'
p459
I10
sS'repaired'
p460
I1
sS'square'
p461
I1
sS'bursting'
p462
I1
sS'receipt'
p463
I1
sS'rtkm.rts'
p464
I1
sS'breakthrough'
p465
I2
sS'owing'
p466
I1
sS'squared'
p467
I1
sS'bln'
p468
I1
sS'internet'
p469
I2
sS'yakutia'
p470
I2
sS'lopatin'
p471
I1
sS'abroschenko'
p472
I1
sS'million'
p473
I84
sS'seventh'
p474
I2
sS'governing'
p475
I1
sS'quite'
p476
I1
sS'complicated'
p477
I1
sS'unnamed'
p478
I1
sS'remainder'
p479
I1
sS'training'
p480
I1
sS'modest'
p481
I6
sS'aboard'
p482
I1
sS'routes'
p483
I3
sS'spoken'
p484
I1
sS'vote'
p485
I7
sS'open'
p486
I6
sS'city'
p487
I9
sS'indicate'
p488
I1
sS'2'
p489
I35
sS'draft'
p490
I11
sS'embalming'
p491
I1
sS'structures'
p492
I2
sS'lingering'
p493
I1
sS'14.80'
p494
I1
sS'specialists'
p495
I2
sS'pounds.but'
p496
I1
sS'depressed'
p497
I1
sS'capitalise'
p498
I1
sS'future'
p499
I10
sS'russia'
p500
I281
sS'shakeup'
p501
I1
sS'prospect'
p502
I1
sS'48.60-48.90'
p503
I2
sS'10-15'
p504
I2
sS'turned'
p505
I2
sS'sad'
p506
I1
sS'say'
p507
I27
sS'buried'
p508
I1
sS'saw'
p509
I9
sS'95,000'
p510
I2
sS'aside'
p511
I1
sS'note'
p512
I1
sS'intends'
p513
I2
sS'roadside'
p514
I1
sS'wanting'
p515
I1
sS'opposite'
p516
I1
sS'thursday.camdessus'
p517
I1
sS'slonik'
p518
I1
sS'remarks'
p519
I4
sS'pages'
p520
I1
sS'average'
p521
I16
sS'sale'
p522
I6
sS'federal'
p523
I20
sS'touche'
p524
I1
sS'wind'
p525
I1
sS'refining'
p526
I3
sS'atlantic'
p527
I1
sS'30,000'
p528
I1
sS'laws'
p529
I3
sS'scarce'
p530
I3
sS'aggressive'
p531
I1
sS'slow'
p532
I3
sS'better.common'
p533
I1
sS'slog'
p534
I1
sS'sector.at'
p535
I2
sS'saying.nemtsov'
p536
I1
sS"d'affaires"
p537
I1
sS'outlet'
p538
I1
sS'7968'
p539
I1
sS'prime'
p540
I36
sS'bestselling'
p541
I1
sS'worried'
p542
I5
sS'worries'
p543
I1
sS'3470'
p544
I1
sS'jumped'
p545
I1
sS'representatives'
p546
I1
sS'dismemberment'
p547
I1
sS'bureau'
p548
I1
sS'affecting'
p549
I2
sS'enjoys'
p550
I1
sS'jobs'
p551
I3
sS'uk'
p552
I2
sS'spartak'
p553
I8
sS'concentrate'
p554
I1
sS'8.49'
p555
I2
sS'undermine'
p556
I4
sS'rostelekom.the'
p557
I1
sS'residence'
p558
I2
sS'panickers'
p559
I2
sS'47.91'
p560
I1
sS's'
p561
I16
sS'seen.but'
p562
I1
sS"can't"
p563
I3
sS'yearly'
p564
I1
sS'purneftegaz'
p565
I1
sS'interview.last'
p566
I1
sS'anti'
p567
I2
sS'centralised'
p568
I1
sS'better'
p569
I10
sS'combines'
p570
I1
sS'west'
p571
I7
sS'airlines'
p572
I5
sS'concede'
p573
I2
sS'combined'
p574
I2
sS'1997moscow'
p575
I1
sS'wants'
p576
I3
sS'84,500'
p577
I1
sS'influence'
p578
I5
sS'formed'
p579
I2
sS'readings'
p580
I1
sS'rekindled'
p581
I2
sS'consultant'
p582
I1
sS'polls'
p583
I1
sS'policies'
p584
I4
sS'newspaper'
p585
I7
sS'situation'
p586
I14
sS'endured'
p587
I2
sS'aluminium'
p588
I4
sS'technology'
p589
I5
sS'missiles'
p590
I1
sS'possible.nezavisimaya'
p591
I1
sS'vandalism'
p592
I2
sS'kanishchev'
p593
I2
sS'edged'
p594
I3
sS'boosted'
p595
I2
sS'13.a'
p596
I1
sS'booster'
p597
I2
sS'tracking'
p598
I2
sS'60,000'
p599
I1
sS'vacant'
p600
I1
sS'costs'
p601
I2
sS'gdp'
p602
I8
sS'summer'
p603
I1
sS'213'
p604
I1
sS'rest'
p605
I4
sS'weekly'
p606
I1
sS'bank.at'
p607
I2
sS'geological'
p608
I1
sS'instrument'
p609
I1
sS'gazprom.he'
p610
I1
sS'dark'
p611
I1
sS'world'
p612
I46
sS'vague'
p613
I3
sS'snowmobiles'
p614
I1
sS'40-member'
p615
I1
sS'offenders'
p616
I2
sS'37.45'
p617
I1
sS'1.244'
p618
I1
sS'1.245'
p619
I2
sS'landowner'
p620
I1
sS'deal.the'
p621
I1
sS'plans.but'
p622
I1
sS'noon'
p623
I1
sS'moslem'
p624
I3
sS'said.potato'
p625
I1
sS'power'
p626
I24
sS'leadership'
p627
I3
sS'origins'
p628
I1
sS'industry'
p629
I8
sS'treaty.moskovsky'
p630
I1
sS'act'
p631
I9
sS'prisoners.two'
p632
I1
sS'curling'
p633
I1
sS'homeless'
p634
I1
sS'parties'
p635
I2
sS'accumulated'
p636
I1
sS'management.poor'
p637
I1
sS'ago'
p638
I7
sS'complete'
p639
I4
sS'saatchi'
p640
I4
sS'grow.he'
p641
I1
sS'executions.amnesty'
p642
I1
sS'survived'
p643
I1
sS'elimination'
p644
I1
sS'technologies'
p645
I1
sS'buying'
p646
I13
sS"they're"
p647
I1
sS'october'
p648
I4
sS'monopoly'
p649
I12
sS'abuses'
p650
I1
sS'advantage'
p651
I1
sS'agree'
p652
I7
sS'aa'
p653
I2
sS'gone'
p654
I3
sS'ag'
p655
I1
sS'trend.dealers'
p656
I1
sS'certain'
p657
I5
sS'ao'
p658
I2
sS'hobbies'
p659
I1
sS'watched'
p660
I2
sS'pedestal'
p661
I1
sS'cream'
p662
I1
sS'saw.alexei'
p663
I1
sS'izvestia'
p664
I5
sS'tight'
p665
I1
sS'beverage'
p666
I1
sS'a0'
p667
I2
sS'a5'
p668
I1
sS'a7'
p669
I1
sS'a6'
p670
I2
sS'waived'
p671
I1
sS'mask'
p672
I2
sS'deal.maskhadov'
p673
I1
sS'mast'
p674
I2
sS'mass'
p675
I2
sS'original'
p676
I2
sS'consider'
p677
I4
sS'caused'
p678
I5
sS'welfare'
p679
I1
sS'causes'
p680
I1
sS'tuesday.gronbjerg'
p681
I2
sS'5,737-38'
p682
I2
sS'5,737-39'
p683
I5
sS'paying'
p684
I9
sS'1,050'
p685
I1
sS'appointment'
p686
I1
sS'detention'
p687
I4
sS'floated'
p688
I1
sS'blockade'
p689
I3
sS'camdessus.a'
p690
I1
sS'labor'
p691
I1
sS'existing'
p692
I4
sS'condition'
p693
I2
sS'ageing'
p694
I5
sS'developing'
p695
I1
sS'joined'
p696
I2
sS'large'
p697
I12
sS'scrapping'
p698
I1
sS'small'
p699
I6
sS'duyn'
p700
I1
sS'ulyanova'
p701
I1
sS'penalties'
p702
I6
sS'190'
p703
I1
sS'past'
p704
I8
sS'sector.prime'
p705
I1
sS'pass'
p706
I6
sS'recalculate'
p707
I1
sS'investment'
p708
I23
sS'thorning'
p709
I3
sS'section'
p710
I1
sS'scientists'
p711
I3
sS'revealing'
p712
I1
sS'9150'
p713
I1
sS'11-13'
p714
I1
sS'11-12'
p715
I1
sS'threatened'
p716
I1
sS'hours'
p717
I5
sS'civilians'
p718
I1
sS'osce'
p719
I8
sS'brutal'
p720
I2
sS'prior'
p721
I2
sS'defectors'
p722
I1
sS'social'
p723
I6
sS'action'
p724
I9
sS'norville'
p725
I1
sS'followed'
p726
I2
sS'850'
p727
I1
sS'tricolour'
p728
I1
sS'pitching'
p729
I1
sS'6'
p730
I10
sS'kerosene'
p731
I1
sS'bates'
p732
I3
sS'keeping'
p733
I3
sS'klm'
p734
I1
sS'weekend.at'
p735
I1
sS'industrialists'
p736
I1
sS'percent.full'
p737
I1
sS'resources'
p738
I12
sS'morgan'
p739
I5
sS'embrace'
p740
I1
sS'male'
p741
I1
sS'ready'
p742
I17
sS'enemies.one'
p743
I1
sS'stated'
p744
I2
sS'accept'
p745
I3
sS'states'
p746
I21
sS'fiercely'
p747
I1
sS'sense'
p748
I2
sS'menatep'
p749
I3
sS'information'
p750
I2
sS'74,900'
p751
I1
sS'equities'
p752
I2
sS'dismissed'
p753
I2
sS'earnings'
p754
I2
sS'glinka'
p755
I1
sS'plant'
p756
I10
sS'seoul'
p757
I1
sS'countryside'
p758
I2
sS'variant'
p759
I1
sS'treatments'
p760
I2
sS'appealed'
p761
I1
sS'acquisitions'
p762
I1
sS'refuse'
p763
I1
sS'organization'
p764
I4
sS'fundamental'
p765
I2
sS'granted'
p766
I4
sS'georgyevna'
p767
I1
sS'6583.48'
p768
I1
sS'trade'
p769
I43
sS'paper'
p770
I7
sS'signs'
p771
I5
sS'roots'
p772
I1
sS'rapidly'
p773
I2
sS'zaitsev'
p774
I1
sS'symptoms'
p775
I1
sS'travelling'
p776
I1
sS'lentransgaz'
p777
I3
sS'tentatively'
p778
I1
sS'20-month'
p779
I1
sS'propose'
p780
I1
sS'home.russian'
p781
I1
sS'outlawing'
p782
I1
sS'truths'
p783
I1
sS'investigators'
p784
I1
sS'week'
p785
I14
sS'reduce'
p786
I1
sS'slowdown'
p787
I1
sS'operation'
p788
I4
sS'voronovo'
p789
I1
sS'really'
p790
I2
sS'yevgeny'
p791
I3
sS'20.3'
p792
I1
sS'aeroflot'
p793
I1
sS'missed'
p794
I8
sS'research'
p795
I7
sS'5.79'
p796
I1
sS'occurs'
p797
I3
sS'imagine'
p798
I1
sS'director'
p799
I41
sS'percent.religion'
p800
I1
sS'corruption.reforms'
p801
I1
sS'decendants'
p802
I1
sS'said.parts'
p803
I1
sS'major'
p804
I27
sS'friday.crude'
p805
I1
sS'slipped'
p806
I3
sS'emblazoned'
p807
I1
sS'6.00'
p808
I1
sS'6.03'
p809
I4
sS'number'
p810
I12
sS'preservation'
p811
I1
sS'heads'
p812
I1
sS'swipe'
p813
I1
sS'pitaleff.the'
p814
I1
sS'calculations'
p815
I2
sS'relationship'
p816
I1
sS'5.91'
p817
I1
sS'immediate'
p818
I1
sS'focusing'
p819
I1
sS'unrealistic'
p820
I2
sS'sources.two'
p821
I1
sS'charges'
p822
I1
sS'0.99'
p823
I1
sS'smirnova'
p824
I1
sS'0.92'
p825
I2
sS'bhi'
p826
I9
sS'nikolai'
p827
I8
sS'golovanyov'
p828
I1
sS'suffocating'
p829
I2
sS'sell'
p830
I9
sS'join.rodionov'
p831
I2
sS'self'
p832
I2
sS'yabloko'
p833
I1
sS'internal'
p834
I4
sS'mias'
p835
I1
sS'declines'
p836
I4
sS'619,200'
p837
I1
sS'play'
p838
I7
sS'newspaper.the'
p839
I1
sS'brooklyn'
p840
I3
sS'plan'
p841
I13
sS'singled'
p842
I3
sS'unequal'
p843
I2
sS'yedinaya'
p844
I3
sS'seize'
p845
I2
sS'cover'
p846
I2
sS'bodies'
p847
I1
sS'wednesday.nadezhda'
p848
I1
sS'bulletin'
p849
I2
sS'33.33'
p850
I1
sS'5,728/42'
p851
I2
sS'gold'
p852
I8
sS'goldthwait'
p853
I2
sS'cruised'
p854
I2
sS'session'
p855
I1
sS'monopolist'
p856
I1
sS'freight'
p857
I1
sS'martynenko'
p858
I4
sS'overwhelmed'
p859
I1
sS'impact'
p860
I1
sS'indicator'
p861
I2
sS'rbls'
p862
I10
sS'failed'
p863
I12
sS'equity'
p864
I1
sS'dependent'
p865
I2
sS'banned'
p866
I2
sS"they'd"
p867
I1
sS'remedy'
p868
I1
sS'preparing'
p869
I2
sS'closely'
p870
I3
sS'reporters'
p871
I4
sS'enemy'
p872
I2
sS'1970-71'
p873
I1
sS'prices.dealers'
p874
I1
sS'banking'
p875
I1
sS'river'
p876
I3
sS'4365'
p877
I1
sS'set'
p878
I24
sS'119-day'
p879
I1
sS'sea'
p880
I16
sS'muted'
p881
I1
sS'currently'
p882
I5
sS'knowing'
p883
I1
sS'targeted'
p884
I1
sS'agreement.a'
p885
I2
sS'postponement'
p886
I1
sS'respondents'
p887
I2
sS'renewed'
p888
I2
sS'36.00-36.98'
p889
I1
sS'prospects'
p890
I2
sS'improved'
p891
I5
sS'bill.ues'
p892
I2
sS'barely'
p893
I1
sS'increases.the'
p894
I1
sS'connection'
p895
I2
sS'1.64'
p896
I2
sS'1.62'
p897
I1
sS'rose'
p898
I9
sS'extracting'
p899
I1
sS'approve'
p900
I6
sS'lev'
p901
I1
sS'drunk'
p902
I1
sS'loan'
p903
I36
sS'community'
p904
I9
sS'agents'
p905
I6
sS'church'
p906
I3
sS'raw'
p907
I1
sS'indefinite'
p908
I1
sS'belt'
p909
I1
sS'yroil'
p910
I1
sS'monthly'
p911
I17
sS'convicted'
p912
I1
sS'citations'
p913
I1
sS'thislegislation'
p914
I1
sS'firm'
p915
I13
sS'nrb'
p916
I3
sS'34.0-34.5'
p917
I1
sS'fund'
p918
I42
sS'representative'
p919
I4
sS'systematic'
p920
I2
sS'galperin.dealers'
p921
I2
sS'towns'
p922
I3
sS'relations.oleg'
p923
I1
sS'1.962'
p924
I1
sS'judicial'
p925
I4
sS'reliable'
p926
I1
sS'expanded'
p927
I1
sS'seed.farms'
p928
I1
sS'budget'
p929
I24
sS'receive'
p930
I2
sS'pressed'
p931
I1
sS'involved'
p932
I9
sS'owed'
p933
I2
sS'filimonov'
p934
I1
sS'ducky'
p935
I2
sS'motory'
p936
I1
sS'backing'
p937
I4
sS'scaleat'
p938
I1
sS'binding'
p939
I3
sS'mediating'
p940
I1
sS'fibers'
p941
I3
sS'elevated'
p942
I1
sS'virtually'
p943
I2
sS'spiralling'
p944
I1
sS'alert'
p945
I1
sS'levels'
p946
I25
sS'nickname'
p947
I2
sS'euro'
p948
I1
sS'details.russian'
p949
I1
sS'tuleyevculture'
p950
I1
sS'arkhangelsk'
p951
I1
sS'person'
p952
I1
sS'responsible'
p953
I2
sS'strepsil'
p954
I1
sS'conclusions'
p955
I1
sS'signals'
p956
I5
sS'location'
p957
I1
sS'surprised'
p958
I1
sS'harvesting'
p959
I1
sS'australia'
p960
I1
sS'victims'
p961
I1
sS'emergency'
p962
I1
sS'couple'
p963
I1
sS'threeto'
p964
I1
sS'projects'
p965
I9
sS'formal'
p966
I1
sS'10.sidanko'
p967
I1
sS'imposed'
p968
I4
sS'd'
p969
I1
sS'communications'
p970
I1
sS'individuals'
p971
I3
sS'yields'
p972
I1
sS'ivan'
p973
I3
sS'suppliers'
p974
I1
sS'13546winter'
p975
I1
sS'lenin'
p976
I10
sS'senate'
p977
I2
sS'spring'
p978
I6
sS'bounce'
p979
I1
sS'curious'
p980
I2
sS'cheapness'
p981
I1
sS'religion'
p982
I1
sS'slovenia'
p983
I1
sS'4.83'
p984
I1
sS'tankers'
p985
I1
sS'bb'
p986
I2
sS'agreement'
p987
I12
sS'bv'
p988
I2
sS'relating'
p989
I1
sS'25.48'
p990
I2
sS'pass.duma'
p991
I1
sS'deserves'
p992
I4
sS'exaggerates'
p993
I1
sS'repair'
p994
I1
sS'clinton'
p995
I4
sS'points.alania'
p996
I1
sS'appropriate'
p997
I2
sS'lubomir'
p998
I1
sS'repaid'
p999
I1
sS'uncertainties'
p1000
I1
sS'week.western'
p1001
I1
sS'spending'
p1002
I6
sS'fragmented'
p1003
I1
sS'inches'
p1004
I1
sS'jewish'
p1005
I1
sS'slump'
p1006
I1
sS'link'
p1007
I1
sS'competition'
p1008
I4
sS'ling'
p1009
I4
sS'line'
p1010
I4
sS'cia'
p1011
I5
sS'funnelled'
p1012
I1
sS'cis'
p1013
I6
sS'maturity'
p1014
I21
sS'mature'
p1015
I1
sS'apiece'
p1016
I2
sS'consumed'
p1017
I1
sS'nationalist'
p1018
I1
sS'defined'
p1019
I1
sS'unsafe'
p1020
I1
sS'kemerovo'
p1021
I1
sS'fixing'
p1022
I1
sS'preventing'
p1023
I2
sS'definitely'
p1024
I1
sS'said.traders'
p1025
I1
sS'revision'
p1026
I1
sS'scapegoat'
p1027
I1
sS'prosecution'
p1028
I1
sS'lufthansa'
p1029
I4
sS'sides'
p1030
I6
sS'lang'
p1031
I4
sS'lane'
p1032
I1
sS'land'
p1033
I8
sS'age'
p1034
I2
sS'walked'
p1035
I1
sS'summit'
p1036
I1
sS'fresh'
p1037
I3
sS'having'
p1038
I2
sS'code'
p1039
I37
sS'reuters.the'
p1040
I2
sS'treasuries'
p1041
I3
sS'broaden'
p1042
I1
sS'mikhailovnatural'
p1043
I1
sS'results'
p1044
I8
sS'cobalt'
p1045
I2
sS'arranging'
p1046
I1
sS'24.4natural'
p1047
I1
sS'head.police'
p1048
I1
sS'parliament.growth'
p1049
I1
sS'concerned'
p1050
I1
sS'young'
p1051
I6
sS'send'
p1052
I5
sS'citing'
p1053
I2
sS'sent'
p1054
I1
sS'torture'
p1055
I14
sS'reopened'
p1056
I3
sS'growth.yeltsin'
p1057
I1
sS'continued'
p1058
I2
sS'minerals'
p1059
I1
sS'yakov'
p1060
I2
sS'491,000'
p1061
I1
sS'transmission'
p1062
I2
sS'11.the'
p1063
I1
sS'fewer'
p1064
I2
sS'try'
p1065
I2
sS'591'
p1066
I1
sS'agrarian'
p1067
I3
sS'sariye'
p1068
I1
sS'thursday.surgut'
p1069
I1
sS'licensed'
p1070
I1
sS'collection.but'
p1071
I1
sS'video'
p1072
I3
sS'dynamics'
p1073
I1
sS'ues'
p1074
I36
sS'victor'
p1075
I1
sS'index'
p1076
I21
sS'henceforth'
p1077
I1
sS'firms'
p1078
I7
sS'led'
p1079
I8
sS'respectively'
p1080
I1
sS'gathered'
p1081
I1
sS'let'
p1082
I2
sS'licence'
p1083
I2
sS'consideration'
p1084
I1
sS'great'
p1085
I3
sS'technical'
p1086
I5
sS'conference.itar'
p1087
I1
sS'survey'
p1088
I9
sS'defeat'
p1089
I3
sS'opinion'
p1090
I5
sS'residents'
p1091
I2
sS'makes'
p1092
I2
sS'debts'
p1093
I3
sS'standards.it'
p1094
I2
sS'moscow.first'
p1095
I1
sS'tsakhwithout'
p1096
I1
sS'standing'
p1097
I3
sS'confidence'
p1098
I4
sS'deals.recovery'
p1099
I2
sS'illegal'
p1100
I3
sS'ministers'
p1101
I10
sS'midday'
p1102
I4
sS'occurred'
p1103
I2
sS'carrying'
p1104
I3
sS'advil.bhi'
p1105
I1
sS'payrolls'
p1106
I1
sS'alexei'
p1107
I1
sS'mid-1970s'
p1108
I1
sS'63.4'
p1109
I1
sS'challenge'
p1110
I3
sS'clients'
p1111
I10
sS'process'
p1112
I6
sS'pieces'
p1113
I4
sS'high'
p1114
I21
sS'reuter'
p1115
I1
sS'delay'
p1116
I4
sS'fund.imf'
p1117
I1
sS'ceiling.a'
p1118
I1
sS'tied'
p1119
I1
sS'halted'
p1120
I3
sS'tier'
p1121
I1
sS'ties'
p1122
I5
sS'uralati'
p1123
I3
sS'counter'
p1124
I5
sS'worse.differing'
p1125
I1
sS'element'
p1126
I2
sS'allow'
p1127
I7
sS'intellectuals'
p1128
I1
sS'understate'
p1129
I1
sS'producer'
p1130
I12
sS'freeing'
p1131
I1
sS'produced'
p1132
I6
sS'tskhadadze'
p1133
I2
sS'chosen'
p1134
I1
sS'thieves'
p1135
I1
sS'stalled'
p1136
I7
sS'2011'
p1137
I3
sS'dock'
p1138
I1
sS'1993.he'
p1139
I1
sS'outlines'
p1140
I1
sS'presidential'
p1141
I6
sS'matches.krylya'
p1142
I1
sS'lotov'
p1143
I1
sS'meeting.kapelistaya'
p1144
I1
sS'shortage'
p1145
I3
sS'accounts'
p1146
I4
sS'stock'
p1147
I10
sS'exacerbated'
p1148
I1
sS'doing'
p1149
I4
sS'month.under'
p1150
I1
sS'heated'
p1151
I1
sS'society'
p1152
I2
sS'agriculture'
p1153
I11
sS'34,800'
p1154
I1
sS'krupskaya'
p1155
I1
sS'shrinking'
p1156
I1
sS'valve'
p1157
I1
sS'dominated'
p1158
I10
sS'reformist'
p1159
I4
sS'shut'
p1160
I4
sS'hyundai'
p1161
I3
sS'regulatory'
p1162
I4
sS'bothered'
p1163
I1
sS'defining'
p1164
I2
sS'length'
p1165
I2
sS'assumed'
p1166
I1
sS'onforeign'
p1167
I1
sS'450'
p1168
I1
sS'owned'
p1169
I5
sS'legislative'
p1170
I2
sS'vetoed'
p1171
I5
sS'293,000'
p1172
I1
sS'7717'
p1173
I1
sS'7718'
p1174
I1
sS'condensate'
p1175
I3
sS'detailing'
p1176
I1
sS'painful'
p1177
I2
sS'interests'
p1178
I6
sS'enforcement'
p1179
I3
sS'mi-8'
p1180
I2
sS'svyazinivest'
p1181
I1
sS'5,728-30'
p1182
I1
sS'25.64'
p1183
I1
sS'elite'
p1184
I2
sS'steen'
p1185
I1
sS'separatism.cis'
p1186
I1
sS'tortured'
p1187
I1
sS'3.86note'
p1188
I1
sS'briefing'
p1189
I2
sS'negatively'
p1190
I1
sS'steep'
p1191
I2
sS'result'
p1192
I5
sS'collecting'
p1193
I1
sS'false'
p1194
I3
sS'gently'
p1195
I1
sS'clearly'
p1196
I3
sS'9.73'
p1197
I1
sS'documents'
p1198
I2
sS'budget.only'
p1199
I1
sS'roadshows'
p1200
I1
sS'korean'
p1201
I1
sS'report.the'
p1202
I1
sS'soap'
p1203
I1
sS'worldwide'
p1204
I3
sS'pete'
p1205
I1
sS'providedthe'
p1206
I1
sS'face'
p1207
I8
sS'mechanical'
p1208
I1
sS'painting'
p1209
I1
sS'fact'
p1210
I2
sS'200,000-400,000'
p1211
I1
sS'bring'
p1212
I13
sS'rough'
p1213
I6
sS'economist'
p1214
I5
sS'decade'
p1215
I5
sS'principal'
p1216
I2
sS'23.90'
p1217
I1
sS'produces'
p1218
I2
sS'terminal'
p1219
I6
sS'entities'
p1220
I1
sS'tape'
p1221
I1
sS'8,000'
p1222
I1
sS'hope'
p1223
I8
sS'0.18717'
p1224
I2
sS'pogroms'
p1225
I1
sS'handle'
p1226
I1
sS'means'
p1227
I3
sS'deal.camdessus'
p1228
I1
sS'familiar'
p1229
I1
sS'ekspert'
p1230
I1
sS'following'
p1231
I14
sS'h'
p1232
I2
sS'440,000'
p1233
I1
sS'comprising'
p1234
I1
sS'taxes'
p1235
I10
sS'temporarily'
p1236
I1
sS'packet'
p1237
I3
sS'293,337'
p1238
I1
sS'edition'
p1239
I1
sS'wears'
p1240
I1
sS'coils'
p1241
I1
sS'wire'
p1242
I1
sS'nuclear'
p1243
I7
sS'metres.the'
p1244
I1
sS'1995.but'
p1245
I1
sS'sector.many'
p1246
I2
sS'explosive'
p1247
I1
sS'kechinov'
p1248
I1
sS'potential.he'
p1249
I1
sS'lawsuit'
p1250
I1
sS'restrictions'
p1251
I2
sS'invited'
p1252
I1
sS'drug'
p1253
I1
sS'krylya'
p1254
I4
sS'figures'
p1255
I11
sS'said.currently'
p1256
I1
sS'cm'
p1257
I1
sS'573'
p1258
I1
sS'descendants.some'
p1259
I1
sS'allocated'
p1260
I1
sS'acres'
p1261
I1
sS'said.ars'
p1262
I2
sS'8.2'
p1263
I1
sS'8.5'
p1264
I1
sS'waste'
p1265
I2
sS'46.39'
p1266
I1
sS'neighbour'
p1267
I2
sS'20,300'
p1268
I1
sS'spain'
p1269
I2
sS'tonne'
p1270
I1
sS'dmitriyeva'
p1271
I1
sS'naberezhyniye'
p1272
I1
sS'8580'
p1273
I1
sS'slovensky'
p1274
I1
sS'referring.hanoi'
p1275
I1
sS'vi'
p1276
I1
sS'diversification'
p1277
I1
sS'delaying'
p1278
I1
sS'site'
p1279
I2
sS'plenipontentiary'
p1280
I1
sS'zhuravsky'
p1281
I1
sS'optimistic'
p1282
I3
sS'politics'
p1283
I2
sS'vx'
p1284
I2
sS'complexes'
p1285
I1
sS'newsroom'
p1286
I86
sS'highlighted'
p1287
I2
sS'required.an'
p1288
I1
sS'terrorism'
p1289
I1
sS'restarting'
p1290
I1
sS'forecasts'
p1291
I1
sS'expand'
p1292
I4
sS'pows'
p1293
I3
sS'1.28'
p1294
I1
sS'command'
p1295
I2
sS'350'
p1296
I2
sS'1.23'
p1297
I1
sS'drawing'
p1298
I1
sS'newest'
p1299
I1
sS'10-billion'
p1300
I2
sS'transparent'
p1301
I1
sS'arrest'
p1302
I1
sS'villagers'
p1303
I1
sS'reuters.but'
p1304
I1
sS'increased'
p1305
I5
sS'government'
p1306
I117
sS'inkom'
p1307
I1
sS'increases'
p1308
I1
sS'said.coursault'
p1309
I1
sS'movladi'
p1310
I1
sS'high.depressed'
p1311
I1
sS'overdosed'
p1312
I1
sS'prospekt'
p1313
I1
sS'replacement'
p1314
I2
sS'amendment'
p1315
I3
sS'indications'
p1316
I2
sS'loan.camdessus'
p1317
I3
sS'transport'
p1318
I7
sS'avoid'
p1319
I1
sS'demonstrators'
p1320
I1
sS'does'
p1321
I5
sS'body.breaking'
p1322
I1
sS'schedule'
p1323
I3
sS'cellulose'
p1324
I1
sS'pressure'
p1325
I5
sS'5,739'
p1326
I1
sS'targeting'
p1327
I1
sS'1.437'
p1328
I1
sS'5,731'
p1329
I3
sS'lifestyle'
p1330
I1
sS'holdings'
p1331
I3
sS'concession'
p1332
I1
sS'stolyar'
p1333
I2
sS'alliance'
p1334
I1
sS'unfavourable'
p1335
I1
sS'housing'
p1336
I1
sS'storozhenko'
p1337
I8
sS'3.83.pitaleff'
p1338
I1
sS'slovakia'
p1339
I2
sS'0.19170.regional'
p1340
I2
sS'building'
p1341
I5
sS'unheated'
p1342
I1
sS'delivery'
p1343
I6
sS'construction'
p1344
I7
sS'count'
p1345
I2
sS'disbursement'
p1346
I3
sS'chained'
p1347
I1
sS'official'
p1348
I33
sS'smooth'
p1349
I1
sS'placed'
p1350
I1
sS'convince'
p1351
I1
sS'monument'
p1352
I6
sS'problem'
p1353
I11
sS'bearing'
p1354
I5
sS'kingston'
p1355
I1
sS'ing'
p1356
I1
sS'0.865'
p1357
I2
sS'planting'
p1358
I3
sS'compared'
p1359
I3
sS'0.860'
p1360
I2
sS'deadly'
p1361
I2
sS'104.even'
p1362
I1
sS'illusion'
p1363
I1
sS'monday'
p1364
I7
sS'exposure'
p1365
I2
sS'monopolies.deputies'
p1366
I1
sS'99.90'
p1367
I1
sS'zaretsky'
p1368
I1
sS'rule'
p1369
I5
sS'status'
p1370
I3
sS'pension'
p1371
I6
sS'child'
p1372
I2
sS'controversial'
p1373
I2
sS'aviation'
p1374
I7
sS'2,200'
p1375
I1
sS'integrity'
p1376
I1
sS'votes'
p1377
I5
sS'specialising'
p1378
I1
sS'primakovforeign'
p1379
I1
sS'voted'
p1380
I6
sS'regalia'
p1381
I2
sS'worth'
p1382
I6
sS'said.credit'
p1383
I1
sS'sellers'
p1384
I2
sS'exporters'
p1385
I1
sS'investments.sevodnya'
p1386
I1
sS'announced'
p1387
I8
sS'1,600'
p1388
I1
sS'kaliningrad'
p1389
I3
sS'machines'
p1390
I3
sS'established'
p1391
I3
sS'mosenergo'
p1392
I7
sS'chechen'
p1393
I6
sS'officially'
p1394
I2
sS'told'
p1395
I47
sS'residual'
p1396
I1
sS'protection'
p1397
I1
sS'obtained'
p1398
I1
sS'murders'
p1399
I1
sS'daughter'
p1400
I2
sS'friday.spokesman'
p1401
I1
sS'0.1.265'
p1402
I1
sS'bunker'
p1403
I1
sS'postponed'
p1404
I1
sS'envious'
p1405
I1
sS'secure'
p1406
I2
sS'servicemen'
p1407
I1
sS'gurevich'
p1408
I1
sS'highly'
p1409
I1
sS'opportunities'
p1410
I1
sS'total'
p1411
I16
sS'plot'
p1412
I1
sS'alligator'
p1413
I1
sS'bundled'
p1414
I1
sS'continual'
p1415
I1
sS'tariff'
p1416
I1
sS'blocking'
p1417
I1
sS'1991'
p1418
I10
sS'fakel'
p1419
I2
sS'1993'
p1420
I5
sS'1992'
p1421
I2
sS'1995'
p1422
I10
sS'1994'
p1423
I4
sS'1997'
p1424
I29
sS'1996'
p1425
I39
sS'1999'
p1426
I5
sS'1998'
p1427
I7
sS'work'
p1428
I20
sS'era'
p1429
I8
sS'vlasov'
p1430
I2
sS'2860'
p1431
I1
sS'2.83'
p1432
I1
sS'deadweight'
p1433
I1
sS'cited'
p1434
I4
sS'india'
p1435
I2
sS'550'
p1436
I1
sS'indies'
p1437
I1
sS'rybinskiye'
p1438
I1
sS'recovery'
p1439
I1
sS'carriers'
p1440
I1
sS'provide'
p1441
I10
sS'agony'
p1442
I1
sS'moroz'
p1443
I1
sS'void.the'
p1444
I1
sS'saying.roland'
p1445
I2
sS'interview'
p1446
I1
sS'ordinary'
p1447
I3
sS'evasion.tax'
p1448
I2
sS'resignation'
p1449
I6
sS'offshore'
p1450
I1
sS'5,741-42'
p1451
I5
sS'earlier'
p1452
I7
sS'analagous'
p1453
I1
sS'customs'
p1454
I6
sS'law'
p1455
I11
sS'supermarkets'
p1456
I2
sS'nascent'
p1457
I2
sS'haste'
p1458
I1
sS'order'
p1459
I8
sS'office'
p1460
I6
sS'hectare'
p1461
I1
sS'6.6'
p1462
I1
sS'12.5'
p1463
I1
sS'mayor'
p1464
I2
sS'9.the'
p1465
I1
sS'production'
p1466
I16
sS'nemtsov'
p1467
I8
sS'eventually'
p1468
I2
sS'sunday.an'
p1469
I1
sS'affected'
p1470
I1
sS'bans'
p1471
I1
sS'fragment'
p1472
I1
sS'economycollective'
p1473
I1
sS'roubles'
p1474
I49
sS'break'
p1475
I5
sS'1995.industry'
p1476
I1
sS'tzar'
p1477
I1
sS'bank'
p1478
I51
sS'pegs'
p1479
I2
sS'1.00'
p1480
I4
sS'oxygen'
p1481
I3
sS'rocks'
p1482
I1
sS'improvements'
p1483
I3
sS'interest.the'
p1484
I1
sS'entitled'
p1485
I1
sS'said.asbest'
p1486
I1
sS'schemes'
p1487
I2
sS'dumping'
p1488
I1
sS'12710'
p1489
I1
sS'schemed'
p1490
I1
sS'year.a'
p1491
I2
sS'network'
p1492
I1
sS'diesel'
p1493
I2
sS'vessels'
p1494
I1
sS'stolichnaya'
p1495
I1
sS'tuapse'
p1496
I8
sS'abdicated'
p1497
I2
sS'wealth.the'
p1498
I1
sS'standard'
p1499
I5
sS'rostelekom'
p1500
I15
sS'forcibly'
p1501
I1
sS'0.1917'
p1502
I1
sS'0.1910'
p1503
I4
sS'created'
p1504
I1
sS'refugee'
p1505
I1
sS'baltic'
p1506
I7
sS'manslaughter'
p1507
I1
sS'wednesday.tuapse'
p1508
I1
sS'thick'
p1509
I1
sS'rated'
p1510
I1
sS'rossii'
p1511
I5
sS'rates'
p1512
I17
sS'1992.he'
p1513
I1
sS'inflate'
p1514
I1
sS'farming'
p1515
I7
sS'5-10'
p1516
I4
sS'emblem'
p1517
I3
sS'grandchildren'
p1518
I2
sS'golovanyov.selling'
p1519
I1
sS'rejected'
p1520
I1
sS'parliament.the'
p1521
I2
sS'target'
p1522
I2
sS'hike'
p1523
I4
sS'scenes'
p1524
I1
sS'historical'
p1525
I2
sS'powers'
p1526
I4
sS'minus'
p1527
I2
sS'manned'
p1528
I1
sS'kovalyovlabour'
p1529
I1
sS'forced'
p1530
I5
sS'materials'
p1531
I4
sS'standingsfollowing'
p1532
I1
sS'circles'
p1533
I1
sS'extending'
p1534
I4
sS'involving'
p1535
I2
sS'germany'
p1536
I6
sS'assessed'
p1537
I1
sS'camdessus.camdessus'
p1538
I1
sS'accounted'
p1539
I3
sS'voting'
p1540
I1
sS'calculates'
p1541
I1
sS'reserve'
p1542
I1
sS'renting'
p1543
I1
sS'eurasia'
p1544
I6
sS'slesaryev'
p1545
I4
sS'u.s.treasuries'
p1546
I1
sS'precarious'
p1547
I1
sS'7.6'
p1548
I1
sS'said.russia'
p1549
I2
sS'rescheduling'
p1550
I2
sS'painfully'
p1551
I1
sS'implementation'
p1552
I2
sS'predecessor'
p1553
I2
sS'preferred'
p1554
I3
sS'policymakers'
p1555
I1
sS'crisis.imf'
p1556
I2
sS'covering'
p1557
I4
sS'israel.defence'
p1558
I1
sS'ems'
p1559
I1
sS'steal'
p1560
I1
sS'secretary'
p1561
I7
sS'corruption.but'
p1562
I1
sS'observed'
p1563
I1
sS'depends'
p1564
I4
sS'cattle'
p1565
I1
sS'discussions'
p1566
I2
sS'away'
p1567
I9
sS'unable'
p1568
I2
sS'cooperation'
p1569
I2
sS'drawn'
p1570
I2
sS'convention.it'
p1571
I1
sS'accord'
p1572
I1
sS'terms'
p1573
I4
sS'handful'
p1574
I3
sS'century.but'
p1575
I1
sS'42.2'
p1576
I1
sS'received'
p1577
I8
sS'climate'
p1578
I3
sS'ill'
p1579
I3
sS'exceeds'
p1580
I1
sS'parliament.but'
p1581
I1
sS'group.he'
p1582
I1
sS'tough'
p1583
I1
sS'changed.camdessus'
p1584
I1
sS'105,600'
p1585
I1
sS'tons'
p1586
I1
sS'telecommunications'
p1587
I1
sS'speak'
p1588
I1
sS'strong'
p1589
I11
sS'engines'
p1590
I6
sS'condemned'
p1591
I2
sS'said.sources'
p1592
I1
sS'allies.politics'
p1593
I1
sS'duties'
p1594
I3
sS'innocent'
p1595
I1
sS'lutsia.lutsia'
p1596
I1
sS'seaborne'
p1597
I2
sS'0.15'
p1598
I1
sS'ab99'
p1599
I1
sS'0.12'
p1600
I1
sS'ab97'
p1601
I1
sS'95.87'
p1602
I2
sS'importance.lenin'
p1603
I1
sS'air'
p1604
I11
sS'aim'
p1605
I5
sS'said.bhi'
p1606
I1
sS'aid'
p1607
I3
sS'property'
p1608
I8
sS'launched'
p1609
I6
sS'trinfiko.despite'
p1610
I1
sS'separatist'
p1611
I1
sS'ilya'
p1612
I1
sS'brake'
p1613
I1
sS'percent.but'
p1614
I1
sS'exile'
p1615
I1
sS'confirmed'
p1616
I2
sS'said.at'
p1617
I1
sS'involuntary'
p1618
I1
sS'descend'
p1619
I1
sS'said.an'
p1620
I1
sS'indictment'
p1621
I2
sS'independent'
p1622
I12
sS'raid'
p1623
I2
sS'sakha'
p1624
I4
sS'blames'
p1625
I1
sS'rail'
p1626
I2
sS'evil'
p1627
I1
sS'possible'
p1628
I13
sS'tsymbalar'
p1629
I1
sS'blamed'
p1630
I1
sS'kept'
p1631
I3
sS'2000.the'
p1632
I1
sS'1973'
p1633
I1
sS'1972'
p1634
I2
sS'1971'
p1635
I2
sS'warburg'
p1636
I1
sS'alix'
p1637
I1
sS'client'
p1638
I3
sS'centres'
p1639
I1
sS'unified'
p1640
I3
sS'traditions'
p1641
I1
sS'quoted'
p1642
I24
sS'belyayev'
p1643
I1
sS'shemetova'
p1644
I1
sS'quotes'
p1645
I1
sS'adding'
p1646
I14
sS'sochi'
p1647
I2
sS'belongs'
p1648
I2
sS'board'
p1649
I8
sS'troika'
p1650
I2
sS'1999earlier'
p1651
I1
sS'1.275'
p1652
I2
sS'russia.gazprom'
p1653
I1
sS'bpd'
p1654
I13
sS'turnover.the'
p1655
I2
sS'securities'
p1656
I8
sS'night'
p1657
I2
sS'security'
p1658
I10
sS'barter.at'
p1659
I1
sS'generalshareholders'
p1660
I1
sS'born'
p1661
I3
sS'unless'
p1662
I3
sS'year.moskvich'
p1663
I1
sS'comments'
p1664
I5
sS'romanov'
p1665
I1
sS'asking'
p1666
I1
sS'denied'
p1667
I4
sS'beating'
p1668
I1
sS'marketing'
p1669
I1
sS'restructuring'
p1670
I8
sS'plc'
p1671
I4
sS'priority.but'
p1672
I1
sS'post'
p1673
I10
sS'newspapers'
p1674
I1
sS'months'
p1675
I17
sS'5,731-33'
p1676
I1
sS'pays'
p1677
I2
sS'prisoners'
p1678
I8
sS'float'
p1679
I1
sS'capped'
p1680
I1
sS'renovating'
p1681
I1
sS'21.4'
p1682
I2
sS'4.17'
p1683
I1
sS'legislation'
p1684
I7
sS'sovereign'
p1685
I1
sS'fight'
p1686
I5
sS'czech'
p1687
I3
sS'accordingly'
p1688
I1
sS'way'
p1689
I24
sS'accords'
p1690
I2
sS'orlovnuclear'
p1691
I1
sS'war'
p1692
I11
sS'lowest'
p1693
I2
sS'dead'
p1694
I6
sS'true'
p1695
I4
sS'normalising'
p1696
I1
sS'gazp.rts'
p1697
I1
sS'maximum'
p1698
I2
sS'medication'
p1699
I2
sS'hotter'
p1700
I1
sS'dacha'
p1701
I1
sS'clive'
p1702
I1
sS'muscular'
p1703
I1
sS'evidence'
p1704
I1
sS'promised'
p1705
I4
sS'physical'
p1706
I2
sS'1,000'
p1707
I4
sS'itself.communist'
p1708
I1
sS'stake'
p1709
I14
sS'holding'
p1710
I7
sS'test'
p1711
I2
sS'unwilling'
p1712
I1
sS'brothers'
p1713
I1
sS'mulling'
p1714
I2
sS'it.territory'
p1715
I1
sS'update'
p1716
I1
sS'scores'
p1717
I1
sS'pmsjustice'
p1718
I1
sS'avante'
p1719
I1
sS'antibiotics'
p1720
I1
sS'governed'
p1721
I1
sS'governer'
p1722
I1
sS'songs'
p1723
I1
sS'0.1910.moscow'
p1724
I2
sS'35.3'
p1725
I1
sS'consul'
p1726
I1
sS'global'
p1727
I5
sS'atmosphere'
p1728
I1
sS'126-year'
p1729
I1
sS'battle'
p1730
I1
sS'creative'
p1731
I1
sS'superpower'
p1732
I6
sS'devoted'
p1733
I1
sS'certainly'
p1734
I1
sS'zone'
p1735
I1
sS'dissatisfied'
p1736
I1
sS'shindman'
p1737
I1
sS'brown'
p1738
I1
sS'emergencies'
p1739
I3
sS'april.he'
p1740
I1
sS'10-year'
p1741
I1
sS'13.82.rossiisky'
p1742
I2
sS'turns'
p1743
I1
sS'upper'
p1744
I6
sS'revolution'
p1745
I2
sS'regained'
p1746
I1
sS'discover'
p1747
I1
sS'cost'
p1748
I6
sS'83,000'
p1749
I1
sS'cargo'
p1750
I14
sS'appear'
p1751
I2
sS'shares'
p1752
I50
sS'uniform'
p1753
I1
sS'one.but'
p1754
I2
sS'appeal'
p1755
I1
sS'satisfy'
p1756
I1
sS'supporting'
p1757
I2
sS'explosion'
p1758
I5
sS'aline'
p1759
I1
sS'appears'
p1760
I4
sS'change'
p1761
I13
sS'flames'
p1762
I2
sS'precursor'
p1763
I1
sS'trial'
p1764
I2
sS'usually'
p1765
I5
sS'muscovite'
p1766
I1
sS'homecoming'
p1767
I1
sS'regardless'
p1768
I1
sS'extra'
p1769
I3
sS'lending'
p1770
I14
sS'marked'
p1771
I3
sS'receipts.ukraine'
p1772
I1
sS'fbi'
p1773
I1
sS'market'
p1774
I107
sS'prove'
p1775
I1
sS'live'
p1776
I7
sS'intently'
p1777
I2
sS'club'
p1778
I1
sS'clue'
p1779
I2
sS'available.ao'
p1780
I1
sS'defeats'
p1781
I2
sS'car'
p1782
I2
sS'totalled'
p1783
I9
sS'dmitry'
p1784
I5
sS'heart'
p1785
I2
sS'metallurgical'
p1786
I1
sS'spp'
p1787
I9
sS'december'
p1788
I3
sS'1980s'
p1789
I1
sS'heard'
p1790
I2
sS'occur'
p1791
I3
sS'fortunately'
p1792
I2
sS'exports.the'
p1793
I2
sS'discussion'
p1794
I1
sS'bonds'
p1795
I16
sS'beat'
p1796
I1
sS'rybinsk'
p1797
I1
sS'economy'
p1798
I47
sS'product'
p1799
I8
sS'said.asked'
p1800
I1
sS'dampened'
p1801
I2
sS'southern'
p1802
I4
sS'produce'
p1803
I5
sS'bear'
p1804
I1
sS'nomination'
p1805
I1
sS'remember'
p1806
I1
sS'grandson'
p1807
I1
sS'chief.curious'
p1808
I1
sS'voronezh'
p1809
I3
sS'michel'
p1810
I26
sS'embassies'
p1811
I1
sS'tyumentelekom'
p1812
I3
sS'rosprom'
p1813
I1
sS'ended'
p1814
I4
sS'8980'
p1815
I1
sS'managers'
p1816
I3
sS'states.foreign'
p1817
I2
sS'beaten.amnesty'
p1818
I1
sS'january.he'
p1819
I1
sS'1837'
p1820
I1
sS'forms'
p1821
I2
sS'window'
p1822
I2
sS'inefficiency'
p1823
I1
sS'non'
p1824
I7
sS'halt'
p1825
I1
sS'refineries'
p1826
I3
sS'scaling'
p1827
I1
sS'disbursals'
p1828
I1
sS'wealthy'
p1829
I1
sS'son'
p1830
I2
sS'provision'
p1831
I3
sS'discuss'
p1832
I5
sS'january'
p1833
I15
sS'drop'
p1834
I1
sS'en'
p1835
I1
sS'prompted'
p1836
I1
sS'956,000'
p1837
I1
sS'ostracised'
p1838
I1
sS'gueorgui'
p1839
I1
sS'ex'
p1840
I1
sS'year'
p1841
I147
sS'happen'
p1842
I2
sS'avoided'
p1843
I1
sS'shown'
p1844
I3
sS'opened'
p1845
I8
sS'space'
p1846
I8
sS'frightened'
p1847
I1
sS'corruption.the'
p1848
I1
sS'increase'
p1849
I15
sS'shows'
p1850
I3
sS'cars'
p1851
I5
sS'rebel'
p1852
I1
sS'obligation'
p1853
I1
sS'decade.oil'
p1854
I1
sS'lme'
p1855
I1
sS'reflect'
p1856
I2
sS'transition'
p1857
I3
sS'asbest'
p1858
I3
sS'forecast'
p1859
I6
sS'british'
p1860
I3
sS'honest'
p1861
I1
sS'312,000'
p1862
I1
sS'palaces'
p1863
I1
sS'survivable'
p1864
I1
sS'1994-1996'
p1865
I2
sS'5726winter'
p1866
I1
sS'custody.the'
p1867
I1
sS'lukoil.russia'
p1868
I1
sS'comprised'
p1869
I1
sS'directly'
p1870
I3
sS'sources.construction'
p1871
I1
sS'comprises'
p1872
I1
sS'impossible'
p1873
I1
sS'message'
p1874
I1
sS'forwarding'
p1875
I1
sS'tomorrow'
p1876
I7
sS'size'
p1877
I2
sS'sheep'
p1878
I1
sS'sheer'
p1879
I1
sS'caught'
p1880
I1
sS'details.but'
p1881
I1
sS'editor'
p1882
I1
sS'taxation'
p1883
I1
sS'jane'
p1884
I3
sS'flowers'
p1885
I1
sS'interbank'
p1886
I5
sS'television'
p1887
I3
sS'underwritten'
p1888
I1
sS'icebreakers'
p1889
I1
sS'3,451'
p1890
I3
sS'transferred'
p1891
I1
sS'hsbc'
p1892
I1
sS'monopolies'
p1893
I9
sS'prices.bellwether'
p1894
I1
sS'them.champions'
p1895
I2
sS'was.rybinsk'
p1896
I1
sS'fruits'
p1897
I1
sS'irkutskenergo'
p1898
I1
sS'investors'
p1899
I28
sS'remained'
p1900
I7
sS'premier'
p1901
I7
sS'said.naufor'
p1902
I1
sS'recover'
p1903
I1
sS'50-70'
p1904
I2
sS'offering'
p1905
I2
sS'veteran'
p1906
I2
sS'1,090'
p1907
I1
sS'equipment'
p1908
I3
sS'replenishment'
p1909
I1
sS'authorising'
p1910
I2
sS'begin'
p1911
I7
sS'price'
p1912
I14
sS'successive'
p1913
I2
sS'foothold'
p1914
I1
sS'said.they'
p1915
I1
sS'reform'
p1916
I26
sS'steady'
p1917
I1
sS'professional'
p1918
I2
sS'typically'
p1919
I1
sS'statement.such'
p1920
I1
sS'lebedev'
p1921
I1
sS'3.74'
p1922
I1
sS'german'
p1923
I4
sS'il-76td'
p1924
I1
sS'discovered'
p1925
I3
sS'excerpts'
p1926
I1
sS'fifth'
p1927
I2
sS'ground'
p1928
I2
sS'javurek'
p1929
I1
sS'proportion'
p1930
I1
sS'83,097'
p1931
I1
sS'pollsters'
p1932
I1
sS'alcoholism'
p1933
I1
sS'case.the'
p1934
I1
sS'pipelines.it'
p1935
I1
sS'said.leonid'
p1936
I2
sS'burst'
p1937
I1
sS'arrears.moskvich'
p1938
I1
sS'elected'
p1939
I3
sS'actively'
p1940
I2
sS'flatly'
p1941
I1
sS'concern'
p1942
I5
sS'suspects'
p1943
I2
sS'3'
p1944
I49
sS'import'
p1945
I4
sS'percent.rabay'
p1946
I1
sS'eesr.rts'
p1947
I5
sS'monarchy'
p1948
I3
sS'ruppel'
p1949
I4
sS'perceptions'
p1950
I2
sS'vtsiom'
p1951
I1
sS'comes'
p1952
I2
sS'nearby'
p1953
I2
sS'painkilling'
p1954
I1
sS'150'
p1955
I3
sS'50-50'
p1956
I1
sS'exploit'
p1957
I1
sS"couldn't"
p1958
I1
sS'leaguematches'
p1959
I1
sS'proved'
p1960
I2
sS'year.he'
p1961
I3
sS'chernogorneft'
p1962
I2
sS'informed'
p1963
I1
sS'dictator'
p1964
I1
sS'abating'
p1965
I1
sS'odessa'
p1966
I6
sS'aero'
p1967
I1
sS'e45'
p1968
I1
sS'wealthiest'
p1969
I1
sS"haven't"
p1970
I2
sS'editorial'
p1971
I1
sS'valery'
p1972
I2
sS'alcoholic'
p1973
I1
sS'uralsasbest'
p1974
I1
sS'soil'
p1975
I1
sS'population.moskovsky'
p1976
I1
sS'information.spp'
p1977
I1
sS'970404'
p1978
I1
sS'thursday.both'
p1979
I1
sS'adversely'
p1980
I1
sS'5728'
p1981
I1
sS'5729'
p1982
I1
sS'develop'
p1983
I8
sS'media'
p1984
I5
sS'conference.russian'
p1985
I1
sS'ceo'
p1986
I1
sS'document'
p1987
I9
sS'sweeper'
p1988
I2
sS'finish'
p1989
I2
sS'centuries'
p1990
I1
sS'closest'
p1991
I1
sS'reserves.nemtsov'
p1992
I1
sS'arctic'
p1993
I1
sS'fruit'
p1994
I1
sS'bradys'
p1995
I2
sS'passing'
p1996
I3
sS'zverev'
p1997
I2
sS'patchwork'
p1998
I1
sS'constitutional'
p1999
I5
sS'32nd'
p2000
I1
sS'coordinate'
p2001
I2
sS'laboratories'
p2002
I1
sS'charged'
p2003
I8
sS'disbursing'
p2004
I1
sS'sweeping'
p2005
I1
sS'touch'
p2006
I2
sS'speed'
p2007
I1
sS'death'
p2008
I3
sS'senseless'
p2009
I2
sS'institute.camdessus'
p2010
I1
sS'improvement'
p2011
I2
sS'lender'
p2012
I1
sS'treatment'
p2013
I3
sS'role'
p2014
I17
sS'struck'
p2015
I2
sS'momentum'
p2016
I1
sS'36.01'
p2017
I1
sS'real'
p2018
I10
sS'propped'
p2019
I2
sS'laundering'
p2020
I1
sS'spectacular'
p2021
I3
sS'rules'
p2022
I16
sS'early'
p2023
I16
sS'earnest'
p2024
I2
sS'using'
p2025
I4
sS'0.52'
p2026
I1
sS'0.55'
p2027
I1
sS'ruled'
p2028
I1
sS'unrepresentative'
p2029
I1
sS'pounds'
p2030
I2
sS'collective'
p2031
I11
sS'annually'
p2032
I1
sS'benefit'
p2033
I1
sS't'
p2034
I7
sS'output'
p2035
I25
sS'downward'
p2036
I5
sS'intervene'
p2037
I2
sS'reforms.commerce'
p2038
I1
sS'year.about'
p2039
I1
sS'conservative'
p2040
I2
sS'deficit'
p2041
I2
sS'wheat'
p2042
I7
sS'business'
p2043
I18
sS'atstrengthening'
p2044
I1
sS'sixth'
p2045
I1
sS'equivalent'
p2046
I1
sS'credits'
p2047
I3
sS'7095'
p2048
I61
sS'401,000'
p2049
I1
sS'trln'
p2050
I12
sS'comparison'
p2051
I2
sS'central'
p2052
I24
sS'ideology'
p2053
I1
sS'delimitation'
p2054
I1
sS'aleksandras'
p2055
I2
sS'greatly'
p2056
I5
sS'underway'
p2057
I1
sS'processor'
p2058
I1
sS'heavy'
p2059
I4
sS'outlook'
p2060
I2
sS'inclusion'
p2061
I2
sS'persecution'
p2062
I1
sS'stabilisation'
p2063
I3
sS'operator'
p2064
I2
sS'surgut'
p2065
I1
sS'area'
p2066
I2
sS'removing'
p2067
I2
sS'start'
p2068
I14
sS'forwarder'
p2069
I1
sS'low'
p2070
I14
sS'lot'
p2071
I7
sS'assumes'
p2072
I1
sS'jones'
p2073
I7
sS'delayed'
p2074
I13
sS'fighting.maskhadov'
p2075
I1
sS'wednesday.the'
p2076
I3
sS'trying'
p2077
I7
sS'komrakov'
p2078
I1
sS'hire'
p2079
I1
sS'fraud'
p2080
I4
sS'council.deputy'
p2081
I1
sS'illnesses'
p2082
I1
sS'moved'
p2083
I1
sS'sales'
p2084
I26
sS'said.some'
p2085
I1
sS'basis.most'
p2086
I1
sS'trace'
p2087
I1
sS'moves'
p2088
I4
sS'intallment'
p2089
I1
sS'sobell'
p2090
I1
sS'credibility'
p2091
I2
sS'foothills'
p2092
I1
sS'forcing'
p2093
I2
sS'poor'
p2094
I9
sS'peas'
p2095
I1
sS'savelyev'
p2096
I2
sS'peak'
p2097
I4
sS'fiscal'
p2098
I4
sS'bulk'
p2099
I2
sS'vadim'
p2100
I1
sS'3-0'
p2101
I1
sS'repay'
p2102
I1
sS'hire.the'
p2103
I1
sS'overseas'
p2104
I1
sS'month'
p2105
I45
sS'unrest'
p2106
I1
sS'messy'
p2107
I1
sS'managed'
p2108
I3
sS'religious'
p2109
I1
sS'referring'
p2110
I5
sS'refocus'
p2111
I1
sS'1930s'
p2112
I2
sS'spearhead'
p2113
I2
sS'safety'
p2114
I4
sS'pledges'
p2115
I1
sS'however.panchenko'
p2116
I1
sS'tuesday.under'
p2117
I1
sS'mph'
p2118
I2
sS'mps'
p2119
I2
sS'decide'
p2120
I4
sS'basayev'
p2121
I4
sS'kolkhoz'
p2122
I2
sS'mile'
p2123
I1
sS'fence'
p2124
I1
sS'3.11'
p2125
I2
sS'streets'
p2126
I1
sS'3.15'
p2127
I1
sS'consumers'
p2128
I7
sS'investing'
p2129
I3
sS'emotions'
p2130
I2
sS'learned'
p2131
I1
sS'raton'
p2132
I1
sS'loose'
p2133
I1
sS'iraq'
p2134
I2
sS'arena'
p2135
I1
sS'ahead'
p2136
I14
sS'inspired'
p2137
I1
sS'losses'
p2138
I3
sS'minsk'
p2139
I1
sS'advertising'
p2140
I6
sS'invalidate'
p2141
I1
sS'family'
p2142
I12
sS'298.36'
p2143
I1
sS'tendered'
p2144
I3
sS'aimed'
p2145
I5
sS'conventional'
p2146
I1
sS'takes'
p2147
I1
sS'kryuchkov'
p2148
I2
sS'taken'
p2149
I5
sS'ports.odessa'
p2150
I1
sS'surprisingly'
p2151
I1
sS'market.they'
p2152
I2
sS'broke'
p2153
I3
sS'mounted'
p2154
I1
sS'producing'
p2155
I4
sS'suffered'
p2156
I2
sS'market.russians'
p2157
I1
sS"d'azur"
p2158
I1
sS'oversight'
p2159
I1
sS'24011'
p2160
I2
sS'nebraska'
p2161
I1
sS'chernomyrdin'
p2162
I19
sS'5887'
p2163
I1
sS'history'
p2164
I2
sS'go.no'
p2165
I2
sS'tenor'
p2166
I4
sS'pushed'
p2167
I5
sS'cows'
p2168
I1
sS'exclude'
p2169
I1
sS'firmly'
p2170
I1
sS'processors'
p2171
I1
sS'375.06'
p2172
I3
sS'mykhailo'
p2173
I1
sS'36.30-36.55'
p2174
I2
sS'tried'
p2175
I2
sS'specific.transaero'
p2176
I1
sS'invasion'
p2177
I1
sS'tyurnin'
p2178
I1
sS'economy.the'
p2179
I1
sS'overnight'
p2180
I6
sS'ringfence'
p2181
I2
sS'telephones'
p2182
I1
sS'banks'
p2183
I16
sS'help'
p2184
I17
sS'administration'
p2185
I6
sS'soon'
p2186
I14
sS'held'
p2187
I10
sS'committee'
p2188
I35
sS'committed'
p2189
I4
sS'labours'
p2190
I1
sS'systems'
p2191
I3
sS'fines'
p2192
I1
sS'fool'
p2193
I5
sS'food'
p2194
I8
sS'reflected'
p2195
I3
sS'1997-1998'
p2196
I1
sS'foot'
p2197
I1
sS'yr'
p2198
I3
sS'tuesday.national'
p2199
I1
sS'fully'
p2200
I4
sS'tariffs.traders'
p2201
I1
sS'27.84'
p2202
I2
sS'301.23'
p2203
I1
sS'stopped'
p2204
I6
sS'referred'
p2205
I2
sS'barrels'
p2206
I13
sS'gennady'
p2207
I6
sS'officials.camdessus'
p2208
I1
sS'fuirst'
p2209
I1
sS'anarchy'
p2210
I1
sS'popova'
p2211
I9
sS'douglas'
p2212
I1
sS'sustain'
p2213
I1
sS'7'
p2214
I11
sS'issue'
p2215
I35
sS'same.the'
p2216
I1
sS'spindles.she'
p2217
I1
sS'reason'
p2218
I1
sS'dire'
p2219
I1
sS'ask'
p2220
I1
sS'conditions.it'
p2221
I1
sS'temperature'
p2222
I2
sS'unresolved'
p2223
I1
sS'launch'
p2224
I7
sS'programmes.traders'
p2225
I1
sS'over.the'
p2226
I1
sS'round'
p2227
I1
sS'american'
p2228
I9
sS'expecting'
p2229
I1
sS'shtyrov'
p2230
I2
sS'leading'
p2231
I19
sS'partnerships'
p2232
I1
sS'consultations'
p2233
I2
sS'fischer'
p2234
I3
sS'honcharuk'
p2235
I2
sS'arsenal'
p2236
I1
sS'loadings'
p2237
I4
sS'visions'
p2238
I1
sS'airborne'
p2239
I1
sS'station'
p2240
I6
sS'scheme'
p2241
I1
sS'raws'
p2242
I1
sS'selling'
p2243
I10
sS'passed'
p2244
I17
sS'1918'
p2245
I2
sS'authors'
p2246
I1
sS'1917'
p2247
I2
sS'financing'
p2248
I7
sS'grew'
p2249
I2
sS'syrup'
p2250
I1
sS'grey'
p2251
I1
sS'store'
p2252
I1
sS'deciding'
p2253
I1
sS'alongside'
p2254
I1
sS'substantial'
p2255
I6
sS'1.171'
p2256
I2
sS'vulnerable'
p2257
I2
sS'ratings'
p2258
I1
sS'evasion'
p2259
I4
sS'speculative'
p2260
I1
sS'officers'
p2261
I1
sS'229,400'
p2262
I1
sS'labour'
p2263
I1
sS'experienced'
p2264
I1
sS'binding.the'
p2265
I1
sS'quota'
p2266
I2
sS'ofz'
p2267
I8
sS'41.65-41.90'
p2268
I1
sS'alpha'
p2269
I1
sS'privatised'
p2270
I3
sS'279,000'
p2271
I1
sS'5-7'
p2272
I1
sS'5-6'
p2273
I1
sS'5-0'
p2274
I2
sS'said.amnesty'
p2275
I1
sS'clear'
p2276
I14
sS'2.08'
p2277
I1
sS'latest'
p2278
I3
sS'alania'
p2279
I9
sS'phenomenon'
p2280
I1
sS'completion'
p2281
I5
sS'northern'
p2282
I3
sS'dachas.leonida'
p2283
I1
sS'reforms.imf'
p2284
I1
sS'flights'
p2285
I2
sS'surveyed'
p2286
I1
sS'9.73export'
p2287
I1
sS'circle'
p2288
I1
sS'rotterdam'
p2289
I2
sS'dominant'
p2290
I1
sS'domestic'
p2291
I27
sS'boils'
p2292
I1
sS'falling'
p2293
I4
sS'alexander'
p2294
I6
sS'diamond'
p2295
I2
sS'growth.official'
p2296
I1
sS'varegyonneftegaz'
p2297
I2
sS'switzerland'
p2298
I1
sS'before.private'
p2299
I1
sS'close'
p2300
I25
sS'locals'
p2301
I1
sS'0915'
p2302
I1
sS'woo'
p2303
I1
sS'won'
p2304
I3
sS'probably'
p2305
I4
sS'conditions'
p2306
I21
sS'missing'
p2307
I3
sS'spray'
p2308
I1
sS'hardline'
p2309
I1
sS'league'
p2310
I6
sS"wouldn't"
p2311
I1
sS'transited'
p2312
I2
sS'minorities'
p2313
I3
sS'mausoleum'
p2314
I2
sS'yukos'
p2315
I1
sS'headed'
p2316
I7
sS'subsidised'
p2317
I1
sS'likes'
p2318
I1
sS'grenfell'
p2319
I4
sS'conditions.cases'
p2320
I1
sS'described'
p2321
I3
sS'stamp'
p2322
I1
sS'government.economy'
p2323
I1
sS'igor'
p2324
I10
sS'elektrosvyaz'
p2325
I2
sS'strengthen'
p2326
I2
sS'maintenance'
p2327
I5
sS'1997-98'
p2328
I4
sS'threaten'
p2329
I1
sS'territory'
p2330
I3
sS'budgeted'
p2331
I4
sS'generating'
p2332
I2
sS'partly'
p2333
I2
sS'deter'
p2334
I1
sS'lkoh.rts'
p2335
I1
sS'recalled'
p2336
I1
sS'301.30'
p2337
I1
sS'pact'
p2338
I3
sS'look'
p2339
I3
sS'governor'
p2340
I5
sS'ought'
p2341
I2
sS'fleet'
p2342
I3
sS'6050'
p2343
I1
sS'desaix'
p2344
I1
sS'lacklustre'
p2345
I1
sS'payers'
p2346
I1
sS'hyperbole'
p2347
I1
sS'recover.russian'
p2348
I2
sS'null'
p2349
I1
sS'abstained.the'
p2350
I1
sS'grant'
p2351
I3
sS'belong'
p2352
I1
sS'grand'
p2353
I5
sS'conflict'
p2354
I4
sS'used'
p2355
I11
sS'lawyers'
p2356
I1
sS'5,722/36'
p2357
I1
sS'000'
p2358
I1
sS'uses'
p2359
I1
sS'yeltsin'
p2360
I52
sS'older'
p2361
I2
sS'poland'
p2362
I4
sS'1.5-2.0'
p2363
I1
sS'obviously'
p2364
I1
sS'friday.vladimir'
p2365
I1
sS'cleary'
p2366
I1
sS'republics.in'
p2367
I1
sS'ambassador'
p2368
I3
sS'section.interfax'
p2369
I1
sS'month.other'
p2370
I1
sS'quarters'
p2371
I4
sS'slowly.many'
p2372
I1
sS'retirement'
p2373
I1
sS'informal'
p2374
I1
sS'guaranteed'
p2375
I3
sS'questioned'
p2376
I2
sS'remaining'
p2377
I3
sS'bonds.neftekhimbank'
p2378
I1
sS'march'
p2379
I27
sS'showing'
p2380
I2
sS'enthusiastically'
p2381
I2
sS'nadezhda'
p2382
I1
sS'game'
p2383
I3
sS'wings'
p2384
I2
sS'excluding'
p2385
I1
sS'pillar'
p2386
I1
sS'weekend.the'
p2387
I1
sS'popular'
p2388
I1
sS'month.but'
p2389
I1
sS'vesti'
p2390
I2
sS'zverev.at'
p2391
I1
sS'creation'
p2392
I1
sS'metres'
p2393
I5
sS'urgent'
p2394
I1
sS'trends'
p2395
I1
sS'economic'
p2396
I61
sS'trendy'
p2397
I1
sS'dilapidated'
p2398
I1
sS'loan.nezavisimaa'
p2399
I1
sS'everybody'
p2400
I3
sS'run'
p2401
I1
sS'processing'
p2402
I2
sS'step'
p2403
I6
sS'seleznyovspeaker'
p2404
I1
sS'at&t'
p2405
I2
sS'abroad'
p2406
I8
sS'elderly'
p2407
I1
sS'troops'
p2408
I5
sS'faith'
p2409
I1
sS'75'
p2410
I2
sS'latvian'
p2411
I1
sS'congressman'
p2412
I1
sS'therapeutic'
p2413
I1
sS'block'
p2414
I5
sS'seeing'
p2415
I4
sS'bank.on'
p2416
I1
sS'roubles.the'
p2417
I1
sS'slovak'
p2418
I9
sS'statistics'
p2419
I8
sS'computer'
p2420
I1
sS'placing'
p2421
I2
sS'approved'
p2422
I5
sS'203-day'
p2423
I5
sS'registered'
p2424
I2
sS'reiterated'
p2425
I2
sS'22047'
p2426
I1
sS'properly'
p2427
I2
sS'authority'
p2428
I2
sS'russian'
p2429
I271
sS'mineral'
p2430
I2
sS'295,200'
p2431
I1
sS'similar'
p2432
I2
sS'said.fischer'
p2433
I1
sS'affected.norilsk'
p2434
I1
sS'ordered'
p2435
I3
sS'petrenko'
p2436
I2
sS'yuzhuralzoloto'
p2437
I1
sS'metals'
p2438
I10
sS'said.it'
p2439
I1
sS'amounts'
p2440
I1
sS'fears'
p2441
I7
sS'application'
p2442
I1
sS'politicians'
p2443
I2
sS'department'
p2444
I6
sS'manhattan'
p2445
I1
sS'william'
p2446
I3
sS'reservation'
p2447
I2
sS'structure'
p2448
I8
sS'independently'
p2449
I1
sS'practically'
p2450
I3
sS'required'
p2451
I2
sS'humiliated'
p2452
I2
sS'depth'
p2453
I1
sS'requires'
p2454
I1
sS'reforms.the'
p2455
I1
sS'farms'
p2456
I14
sS'compact'
p2457
I1
sS'criminals.more'
p2458
I1
sS'lubricants'
p2459
I1
sS'floodlights'
p2460
I1
sS'said.millions'
p2461
I1
sS'wave'
p2462
I1
sS'cellular'
p2463
I1
sS'telling'
p2464
I4
sS'stiff'
p2465
I1
sS'meant'
p2466
I3
sS'positions'
p2467
I7
sS'michael'
p2468
I2
sS'watered'
p2469
I1
sS'enforce'
p2470
I3
sS'carter'
p2471
I1
sS'boots'
p2472
I11
sS'jump'
p2473
I2
sS'picked'
p2474
I2
sS'decrees'
p2475
I6
sS'bluntly'
p2476
I1
sS'experiment'
p2477
I1
sS'volatile'
p2478
I1
sS'naufor'
p2479
I6
sS'nicholas'
p2480
I9
sS'stance'
p2481
I1
sS'commercial'
p2482
I13
sS'growing'
p2483
I7
sS'focused'
p2484
I2
sS'convert'
p2485
I2
sS'products'
p2486
I10
sS'volga'
p2487
I3
sS'buckwheat'
p2488
I1
sS'gena'
p2489
I2
sS'stabilization'
p2490
I2
sS'danger'
p2491
I2
sS'clare'
p2492
I6
sS'win'
p2493
I2
sS'manage'
p2494
I3
sS'unpleasantly'
p2495
I1
sS'remains'
p2496
I9
sS'loans'
p2497
I5
sS'kochelayev'
p2498
I1
sS'stage'
p2499
I3
sS'creditanstalt'
p2500
I3
sS'reflects'
p2501
I1
sS'started'
p2502
I3
sS'missile'
p2503
I1
sS'appointed'
p2504
I16
sS'meet'
p2505
I7
sS'certainty'
p2506
I1
sS'control'
p2507
I10
sS'painkiller'
p2508
I1
sS'1994-96'
p2509
I1
sS'134.9'
p2510
I1
sS'costs.producers'
p2511
I1
sS'bochin'
p2512
I1
sS'pulling'
p2513
I1
sS'sought'
p2514
I3
sS'arrangement'
p2515
I2
sS'ordinaries'
p2516
I2
sS'located'
p2517
I2
sS'tuesday.among'
p2518
I1
sS'farm'
p2519
I12
sS'65-plus'
p2520
I1
sS'69.11'
p2521
I1
sS'belongings'
p2522
I1
sS'transaero'
p2523
I3
sS'healthcare'
p2524
I3
sS'msng.rts'
p2525
I4
sS'1.81'
p2526
I1
sS'including'
p2527
I18
sS'kosvinsky'
p2528
I1
sS'guerrilla'
p2529
I2
sS'lithuania'
p2530
I1
sS'producer.fuel'
p2531
I2
sS'3.74electricity'
p2532
I1
sS'obliterated'
p2533
I2
sS'hands'
p2534
I5
sS'documented'
p2535
I1
sS'reforms.it'
p2536
I1
sS'shaking'
p2537
I1
sS'gronbjerg'
p2538
I1
sS'upward'
p2539
I2
sS'commonwealth'
p2540
I7
sS'were.articles'
p2541
I1
sS'chunk'
p2542
I3
sS'700'
p2543
I2
sS'aggravated'
p2544
I2
sS'measure'
p2545
I1
sS'volgograd'
p2546
I2
sS'littered'
p2547
I1
sS'5317'
p2548
I1
sS'cause'
p2549
I5
sS'recommendations'
p2550
I1
sS'completely'
p2551
I2
sS'3150'
p2552
I1
sS'conservatives'
p2553
I2
sS'sitting'
p2554
I2
sS'il-62m'
p2555
I1
sS'people.interfax'
p2556
I1
sS'route'
p2557
I1
sS'rushed'
p2558
I1
sS'diminished'
p2559
I1
sS'times'
p2560
I11
sS'keen'
p2561
I1
sS'people.the'
p2562
I1
sS'fertiliser'
p2563
I2
sS'powerful'
p2564
I2
sS'date'
p2565
I12
sS'akkor'
p2566
I2
sS"you're"
p2567
I1
sS'management'
p2568
I10
sS'revealed'
p2569
I3
sS'durable'
p2570
I1
sS'soon.camdessus'
p2571
I1
sS'relations'
p2572
I5
sS'attach'
p2573
I1
sS'attack'
p2574
I1
sS'pavel'
p2575
I3
sS'final'
p2576
I6
sS'paved'
p2577
I2
sS'2-0'
p2578
I3
sS'fund.one'
p2579
I1
sS'2-7'
p2580
I1
sS'mariana'
p2581
I1
sS'viktor'
p2582
I21
sS'punish'
p2583
I2
sS'42.75-43.05'
p2584
I2
sS'lists'
p2585
I2
sS'chemicals'
p2586
I1
sS'said.panchenko'
p2587
I1
sS'overwhelming'
p2588
I1
sS'submitted'
p2589
I6
sS'defense'
p2590
I1
sS'staking'
p2591
I1
sS'spurt'
p2592
I1
sS'providing'
p2593
I1
sS'distinguished'
p2594
I1
sS'bet'
p2595
I1
sS'enforced'
p2596
I1
sS'unchanged'
p2597
I3
sS'said.republican'
p2598
I1
sS'enforces'
p2599
I1
sS'50,000-rouble'
p2600
I1
sS'constrained'
p2601
I1
sS'cisnote'
p2602
I1
sS'2.1'
p2603
I1
sS'rotor'
p2604
I2
sS'able'
p2605
I6
sS'relatives'
p2606
I2
sS'issuing'
p2607
I4
sS'declined'
p2608
I8
sS'tactic'
p2609
I1
sS'brand'
p2610
I3
sS'sewing'
p2611
I1
sS'connected'
p2612
I1
sS'0.1815'
p2613
I2
sS'consequences'
p2614
I1
sS'daiwa'
p2615
I1
sS'optimal'
p2616
I1
sS'emerging'
p2617
I6
sS'sentiment.camdessus'
p2618
I1
sS'melikyannationalities'
p2619
I1
sS'partners'
p2620
I4
sS'envy'
p2621
I1
sS'based'
p2622
I17
sS'earned'
p2623
I3
sS'shareholder'
p2624
I2
sS'credited'
p2625
I3
sS"won't"
p2626
I1
sS'employer'
p2627
I1
sS'department.ryurikov'
p2628
I1
sS'50-year'
p2629
I1
sS'fuel'
p2630
I17
sS'achieve'
p2631
I1
sS'boris'
p2632
I42
sS'1.310'
p2633
I2
sS'slows'
p2634
I2
sS'overall'
p2635
I3
sS'095'
p2636
I7
sS'120'
p2637
I2
sS'joint'
p2638
I27
sS'122'
p2639
I1
sS'124'
p2640
I3
sS'125'
p2641
I1
sS'127'
p2642
I2
sS'buyer'
p2643
I3
sS'leases'
p2644
I1
sS'gray'
p2645
I1
sS'processes'
p2646
I2
sS'sowing'
p2647
I3
sS'shy'
p2648
I4
sS'evaders'
p2649
I1
sS'processed'
p2650
I2
sS'widow'
p2651
I1
sS'burying'
p2652
I1
sS'cuts'
p2653
I1
sS'operates'
p2654
I1
sS'officials'
p2655
I28
sS'yugoslavia'
p2656
I1
sS'operated'
p2657
I1
sS'rezervny'
p2658
I1
sS'tend'
p2659
I1
sS'sibneft'
p2660
I1
sS'written'
p2661
I1
sS'tens'
p2662
I2
sS'one.no'
p2663
I1
sS'outsiders'
p2664
I1
sS'maskhadov'
p2665
I10
sS'comparable'
p2666
I1
sS'importance'
p2667
I2
sS'efficiency'
p2668
I3
sS'bpd.march'
p2669
I1
sS'key'
p2670
I13
sS'approval'
p2671
I6
sS'precious'
p2672
I4
sS'interview.factory'
p2673
I1
sS'hits'
p2674
I1
sS'limits'
p2675
I1
sS'career'
p2676
I1
sS'olga'
p2677
I10
sS'presentations'
p2678
I1
sS'parliament.camdessus'
p2679
I1
sS'jersey'
p2680
I1
sS'skating'
p2681
I1
sS'diplomats'
p2682
I1
sS'tuesday'
p2683
I32
sS'quit'
p2684
I3
sS'addition'
p2685
I1
sS'lokomotiv'
p2686
I5
sS'thanked'
p2687
I1
sS'cent'
p2688
I1
sS'yar'
p2689
I1
sS'signed.dueling'
p2690
I1
sS'contribute'
p2691
I2
sS'bolsheviks'
p2692
I4
sS'otc'
p2693
I2
sS'expenditure'
p2694
I1
sS'owns'
p2695
I5
sS'2,300'
p2696
I1
sS'resident'
p2697
I1
sS'169,385'
p2698
I1
sS'examined'
p2699
I1
sS'orbital'
p2700
I1
sS'began'
p2701
I4
sS'moscow.the'
p2702
I1
sS'parts'
p2703
I3
sS'speaker'
p2704
I1
sS'underground'
p2705
I5
sS'party'
p2706
I8
sS'tapped'
p2707
I1
sS'scheduled.moskovsky'
p2708
I1
sS'1-0'
p2709
I1
sS'1-5'
p2710
I1
sS'effect'
p2711
I4
sS'destruction'
p2712
I2
sS'transaction'
p2713
I1
sS'oao'
p2714
I1
sS'47'
p2715
I1
sS'increasingly'
p2716
I8
sS'42'
p2717
I3
sS'sources'
p2718
I3
sS'mistakes'
p2719
I2
sS'coordination'
p2720
I1
sS'yastrzhemsky'
p2721
I1
sS'attractive.infotek'
p2722
I1
sS'emblems'
p2723
I1
sS'nato'
p2724
I6
sS'kick'
p2725
I1
sS'details'
p2726
I11
sS'fate'
p2727
I3
sS'acceding'
p2728
I2
sS'reporters.asked'
p2729
I1
sS'immediately'
p2730
I1
sS'loss'
p2731
I2
sS'necessary'
p2732
I7
sS'lost'
p2733
I11
sS'popov'
p2734
I1
sS'cis.the'
p2735
I1
sS'payments'
p2736
I13
sS'conscripts'
p2737
I1
sS'lose'
p2738
I2
sS'refugees'
p2739
I1
sS'page'
p2740
I2
sS'backlog'
p2741
I2
sS'298.52'
p2742
I4
sS'eurobond'
p2743
I4
sS'belonged'
p2744
I1
sS'home'
p2745
I14
sS'24.3'
p2746
I1
sS'65,800'
p2747
I1
sS'moskva'
p2748
I2
sS'broad'
p2749
I4
sS'4.smith'
p2750
I1
sS'monetary'
p2751
I23
sS'expansion'
p2752
I3
sS'offset'
p2753
I1
sS'freedom'
p2754
I2
sS'consciousness'
p2755
I1
sS'gazprom.as'
p2756
I2
sS'stakes'
p2757
I7
sS'bill.but'
p2758
I1
sS'previously'
p2759
I8
sS'washington'
p2760
I5
sS'5.23'
p2761
I1
sS'sbc'
p2762
I1
sS'managing'
p2763
I23
sS'1.059'
p2764
I1
sS'utility'
p2765
I17
sS'accused'
p2766
I3
sS'additional'
p2767
I5
sS'imperial'
p2768
I3
sS'north'
p2769
I6
sS'friday.gas'
p2770
I1
sS'gain'
p2771
I1
sS'highest'
p2772
I3
sS'cells'
p2773
I2
sS'suspension.ominously'
p2774
I2
sS'signed'
p2775
I15
sS'aslan'
p2776
I3
sS'display'
p2777
I1
sS'urging'
p2778
I1
sS'147.9'
p2779
I1
sS'dialogue'
p2780
I2
sS'eric'
p2781
I1
sS'month.the'
p2782
I4
sS'functions'
p2783
I2
sS'year.summers'
p2784
I1
sS'vnesheconombank'
p2785
I1
sS'stay'
p2786
I3
sS'curbed'
p2787
I1
sS'15-minute'
p2788
I1
sS'florida.their'
p2789
I1
sS'lives'
p2790
I1
sS'zenit'
p2791
I5
sS'47.65-47.90'
p2792
I1
sS'farms.storozhenko'
p2793
I1
sS'asian'
p2794
I1
sS'consists'
p2795
I1
sS'calculate'
p2796
I1
sS'aug'
p2797
I3
sS'pensions'
p2798
I4
sS'investigation'
p2799
I4
sS'official.nezavisimaya'
p2800
I1
sS'0.1875'
p2801
I2
sS'said.there'
p2802
I1
sS'railways'
p2803
I2
sS'reforms'
p2804
I31
sS'affect'
p2805
I3
sS'vast'
p2806
I5
sS'crops'
p2807
I4
sS'companies'
p2808
I22
sS'solution'
p2809
I3
sS'unrelated'
p2810
I1
sS'sponsored'
p2811
I2
sS'heading'
p2812
I1
sS'clothes'
p2813
I2
sS'force'
p2814
I4
sS'vladimir'
p2815
I11
sS'japanese'
p2816
I1
sS'samara'
p2817
I7
sS'likely'
p2818
I9
sS'dodgers'
p2819
I1
sS'implemented'
p2820
I1
sS'ownedrussian'
p2821
I1
sS'prisons'
p2822
I1
sS'saved'
p2823
I3
sS'spokesman'
p2824
I28
sS'foodstuffs'
p2825
I2
sS'new'
p2826
I89
sS'net'
p2827
I6
sS'1.332'
p2828
I1
sS'men'
p2829
I4
sS'drew'
p2830
I1
sS'met'
p2831
I7
sS'108'
p2832
I2
sS'possibility'
p2833
I2
sS'active'
p2834
I7
sS'100'
p2835
I11
sS'reshuffle'
p2836
I2
sS'dry'
p2837
I2
sS'economics'
p2838
I1
sS'ignoring'
p2839
I1
sS'credit'
p2840
I16
sS'saying.it'
p2841
I1
sS'decades.with'
p2842
I1
sS'suitable'
p2843
I2
sS'campaign'
p2844
I4
sS'schooling'
p2845
I1
sS'jackets'
p2846
I1
sS'counts'
p2847
I1
sS'criminals'
p2848
I1
sS'army'
p2849
I3
sS'neighbours'
p2850
I2
sS'secessionist'
p2851
I1
sS'zaitsevscience'
p2852
I1
sS'113,000'
p2853
I1
sS'recommend'
p2854
I6
sS'survive'
p2855
I4
sS'tell'
p2856
I3
sS'kgs'
p2857
I5
sS'wars'
p2858
I1
sS'disruption'
p2859
I3
sS'kgb'
p2860
I3
sS'3,440'
p2861
I2
sS'room'
p2862
I1
sS'rights'
p2863
I12
sS'gasoline'
p2864
I1
sS'oleg'
p2865
I6
sS'guise'
p2866
I1
sS'vodka'
p2867
I2
sS'listings'
p2868
I1
sS'10,000'
p2869
I1
sS'foods'
p2870
I1
sS'menatep.chernogorneft'
p2871
I1
sS'aging'
p2872
I1
sS'autonomy'
p2873
I2
sS'colds'
p2874
I1
sS'massive'
p2875
I3
sS'unmined'
p2876
I3
sS'undergoing'
p2877
I1
sS'believers'
p2878
I1
sS'coup'
p2879
I1
sS'president'
p2880
I52
sS'muddling'
p2881
I1
sS'purchase'
p2882
I4
sS'1280'
p2883
I1
sS'micex'
p2884
I5
sS'think'
p2885
I16
sS'maintain'
p2886
I5
sS'operate'
p2887
I1
sS'operations'
p2888
I4
sS'cosmodrome'
p2889
I1
sS'intoxicated'
p2890
I1
sS'scoring'
p2891
I2
sS'personal'
p2892
I3
sS'chubais'
p2893
I10
sS'sprays'
p2894
I1
sS'ukragroconsult'
p2895
I2
sS'yaroslavl'
p2896
I2
sS'weeks'
p2897
I11
sS'belarus'
p2898
I19
sS'combination'
p2899
I1
sS'gazprom'
p2900
I31
sS'unregistered'
p2901
I1
sS'arrested'
p2902
I4
sS'went'
p2903
I2
sS'bond'
p2904
I6
sS'uralasbest'
p2905
I2
sS'aide'
p2906
I4
sS'41.95-42.25'
p2907
I1
sS'trading'
p2908
I40
sS'navy'
p2909
I1
sS'blame.the'
p2910
I1
sS'decree'
p2911
I5
sS'kiev'
p2912
I3
sS'crucial'
p2913
I3
sS'content'
p2914
I1
sS'reader'
p2915
I1
sS'surprise'
p2916
I1
sS'sluggish'
p2917
I3
sS'releases.two'
p2918
I1
sS'turning'
p2919
I1
sS'naberezhniye'
p2920
I1
sS'resume'
p2921
I11
sS'revenge'
p2922
I1
sS'negotiate'
p2923
I2
sS'244'
p2924
I1
sS'241'
p2925
I1
sS'struggle'
p2926
I5
sS'285,752'
p2927
I1
sS'players.the'
p2928
I1
sS'loud'
p2929
I2
sS'economists'
p2930
I1
sS'grade'
p2931
I7
sS'agro'
p2932
I1
sS'disappearing'
p2933
I1
sS'surgutneftegaz'
p2934
I2
sS'11-month'
p2935
I1
sS'wind.the'
p2936
I1
sS'shinnik'
p2937
I2
sS'villages'
p2938
I3
sS'swells'
p2939
I1
sS'begins'
p2940
I1
sS'distance'
p2941
I3
sS'146,000'
p2942
I1
sS'matter'
p2943
I4
sS'776,000'
p2944
I1
sS'norilsk'
p2945
I7
sS'sees'
p2946
I1
sS'reassert'
p2947
I1
sS'seed'
p2948
I1
sS'5.05'
p2949
I1
sS'seen'
p2950
I19
sS'seek'
p2951
I3
sS'reprieve'
p2952
I1
sS'0.1905'
p2953
I3
sS'chest'
p2954
I1
sS'niece'
p2955
I1
sS'details.gazprom'
p2956
I1
sS'kokh'
p2957
I2
sS'regular'
p2958
I3
sS'medical'
p2959
I4
sS'competitors'
p2960
I2
sS'points'
p2961
I10
sS'principle'
p2962
I2
sS'consumer'
p2963
I3
sS'dow'
p2964
I9
sS'hunger'
p2965
I1
sS'23047'
p2966
I1
sS'jurisdiction'
p2967
I1
sS'attempts'
p2968
I1
sS'thirds'
p2969
I6
sS'northeast'
p2970
I2
sS'ba2'
p2971
I1
sS'explain'
p2972
I1
sS'acne'
p2973
I1
sS'sugar'
p2974
I3
sS'integrate'
p2975
I2
sS'wearing'
p2976
I2
sS'exports'
p2977
I27
sS'killed.chechnya'
p2978
I1
sS'stop'
p2979
I2
sS'perceive'
p2980
I2
sS'coast'
p2981
I1
sS'slanderous'
p2982
I1
sS'23-share'
p2983
I6
sS'earn'
p2984
I3
sS'bar'
p2985
I1
sS'fields'
p2986
I3
sS'bad'
p2987
I4
sS'ventspils'
p2988
I6
sS'budrys'
p2989
I2
sS'ban'
p2990
I2
sS'reference'
p2991
I1
sS'armageddon'
p2992
I1
sS'subject'
p2993
I1
sS'brazil'
p2994
I1
sS'march.a'
p2995
I1
sS'said'
p2996
I533
sS'inappropriate'
p2997
I1
sS'scrap'
p2998
I3
sS'artificial'
p2999
I2
sS'tantamount'
p3000
I1
sS'pets'
p3001
I1
sS'gems'
p3002
I8
sS'said.united'
p3003
I2
sS'restricting'
p3004
I1
sS'0.1850'
p3005
I1
sS'richest'
p3006
I1
sS'380'
p3007
I1
sS'gronbjerg.he'
p3008
I1
sS'cousin'
p3009
I1
sS'suggested'
p3010
I2
sS'nurofen'
p3011
I10
sS'resistant'
p3012
I1
sS'uncertainty'
p3013
I3
sS'amendments.last'
p3014
I1
sS'peddling'
p3015
I1
sS'contribution'
p3016
I2
sS'repairs.they'
p3017
I1
sS'appeared'
p3018
I1
sS'lowly'
p3019
I2
sS'auctions.on'
p3020
I1
sS'immobile'
p3021
I1
sS'basis'
p3022
I5
sS'getsko'
p3023
I1
sS'referendum'
p3024
I1
sS'tiny'
p3025
I3
sS'commission'
p3026
I3
sS'basic'
p3027
I2
sS'quantities'
p3028
I1
sS'dismiss'
p3029
I1
sS'share.interros'
p3030
I1
sS'personally'
p3031
I6
sS'164'
p3032
I1
sS'deepen'
p3033
I2
sS'exception'
p3034
I1
sS'2.14'
p3035
I1
sS'economies'
p3036
I1
sS'transformation'
p3037
I1
sS'ventures'
p3038
I2
sS'near'
p3039
I8
sS'balance'
p3040
I4
sS'pessimistic'
p3041
I1
sS'seven'
p3042
I10
sS'said.another'
p3043
I1
sS'nomination.an'
p3044
I1
sS'ii'
p3045
I4
sS'mouse'
p3046
I1
sS'disappear'
p3047
I1
sS'grown'
p3048
I2
sS'quang'
p3049
I3
sS'make'
p3050
I22
sS'speculating'
p3051
I1
sS'80s'
p3052
I1
sS'kokhrailway'
p3053
I1
sS'differing'
p3054
I1
sS'renaissance'
p3055
I3
sS'opportunity'
p3056
I3
sS"he'll"
p3057
I1
sS'programs'
p3058
I1
sS'practices'
p3059
I1
sS'resuming'
p3060
I9
sS'claims'
p3061
I1
sS'800'
p3062
I3
sS'investments'
p3063
I1
sS'left'
p3064
I6
sS'facto'
p3065
I1
sS'just'
p3066
I20
sS'unfair'
p3067
I1
sS'fighters'
p3068
I1
sS'identify'
p3069
I2
sS'human'
p3070
I9
sS'facts'
p3071
I1
sS'yes'
p3072
I1
sS'nicolas'
p3073
I1
sS'4,400'
p3074
I1
sS'buyers'
p3075
I6
sS'nudge'
p3076
I2
sS'sunflower'
p3077
I1
sS'royal'
p3078
I3
sS'autumn.a'
p3079
I1
sS'shukshin'
p3080
I2
sS'save'
p3081
I1
sS'opt'
p3082
I1
sS'stockpiling'
p3083
I1
sS'aoot'
p3084
I1
sS'83.13'
p3085
I1
sS'background'
p3086
I2
sS'erected'
p3087
I3
sS'unnecessary'
p3088
I1
sS'lastochka'
p3089
I1
sS'disillusioned'
p3090
I1
sS'signal'
p3091
I9
sS'deal'
p3092
I17
sS'maxim'
p3093
I1
sS'maxin'
p3094
I2
sS'acquisition.clare'
p3095
I1
sS'suchkov'
p3096
I1
sS'tracked'
p3097
I1
sS'arguing'
p3098
I1
sS'predicting'
p3099
I2
sS'bury'
p3100
I3
sS'today.but'
p3101
I1
sS'yevenko.but'
p3102
I1
sS'cooperation.sevodnya'
p3103
I1
sS'magazine'
p3104
I1
sS'afternoon'
p3105
I2
sS'commit'
p3106
I2
sS'nerve'
p3107
I6
sS'tranche'
p3108
I16
sS'lies'
p3109
I1
sS'shippers'
p3110
I5
sS'refined'
p3111
I2
sS'39.2'
p3112
I1
sS'tuesday.full'
p3113
I1
sS'communists'
p3114
I4
sS'weathered'
p3115
I1
sS'flying'
p3116
I1
sS'said.yeltsin'
p3117
I1
sS'lowe'
p3118
I2
sS'form'
p3119
I5
sS'failure'
p3120
I2
sS'family.the'
p3121
I1
sS'analyst'
p3122
I1
sS'220'
p3123
I1
sS'optimistic.more'
p3124
I1
sS'1160'
p3125
I1
sS'strengthening'
p3126
I3
sS'3.0'
p3127
I3
sS'covers'
p3128
I2
sS'drive'
p3129
I4
sS'claimants'
p3130
I1
sS'anthrax'
p3131
I2
sS'ship'
p3132
I1
sS'agreeing'
p3133
I3
sS'generally'
p3134
I1
sS'warehouse'
p3135
I1
sS'added.ducky'
p3136
I1
sS'felt'
p3137
I1
sS'utilities'
p3138
I4
sS'fell'
p3139
I17
sS'authorities'
p3140
I14
sS'said.petrenko'
p3141
I1
sS'weekend'
p3142
I3
sS'died'
p3143
I4
sS'billion'
p3144
I66
sS'fsb'
p3145
I2
sS'potato'
p3146
I4
sS'daily'
p3147
I2
sS'cordiant'
p3148
I3
sS'premiums'
p3149
I2
sS'teeth'
p3150
I1
sS'parcels'
p3151
I1
sS'profits'
p3152
I8
sS'407,000'
p3153
I1
sS'revoke'
p3154
I1
sS'relieve'
p3155
I1
sS'manager'
p3156
I5
sS'pakhomov'
p3157
I1
sS'skin'
p3158
I2
sS'depend'
p3159
I1
sS'striving'
p3160
I1
sS'father'
p3161
I1
sS'0'
p3162
I37
sS'finally'
p3163
I1
sS'petersburg'
p3164
I7
sS'sovereignty'
p3165
I3
sS'5,740-42'
p3166
I1
sS'1990'
p3167
I3
sS'union.it'
p3168
I1
sS'lynch'
p3169
I1
sS'advised'
p3170
I2
sS'word'
p3171
I1
sS'governments'
p3172
I1
sS'did'
p3173
I28
sS'die'
p3174
I2
sS'percent.president'
p3175
I2
sS'forecastsgrain'
p3176
I1
sS'europe.it'
p3177
I1
sS'attracting'
p3178
I1
sS'tonnes.orlov'
p3179
I1
sS'1120'
p3180
I2
sS'targets'
p3181
I4
sS'majors'
p3182
I2
sS'favour'
p3183
I4
sS'suspect'
p3184
I2
sS'international'
p3185
I62
sS'yenisei'
p3186
I2
sS'filled'
p3187
I1
sS'transportation'
p3188
I1
sS'french'
p3189
I2
sS'moskvich'
p3190
I1
sS'preferrably'
p3191
I1
sS'wait'
p3192
I4
sS'boy'
p3193
I1
sS'canadian'
p3194
I1
sS'institute'
p3195
I8
sS'shift'
p3196
I1
sS'bob'
p3197
I1
sS'teenage'
p3198
I1
sS'rheumatic'
p3199
I1
sS'line.but'
p3200
I1
sS'plots'
p3201
I1
sS'sympathetic'
p3202
I1
sS'63rd'
p3203
I1
sS'wealth'
p3204
I1
sS'0500'
p3205
I1
sS'visit'
p3206
I10
sS'perm'
p3207
I2
sS'france'
p3208
I2
sS'going'
p3209
I15
sS'sharing'
p3210
I7
sS'baikonur'
p3211
I2
sS'effort'
p3212
I1
sS'fly'
p3213
I1
sS'demolish'
p3214
I1
sS'avoiding'
p3215
I1
sS'flu'
p3216
I2
sS'investors.international'
p3217
I1
sS'fla'
p3218
I1
sS'making'
p3219
I11
sS'february.its'
p3220
I1
sS'guarantees.she'
p3221
I1
sS'predict'
p3222
I1
sS'agent'
p3223
I2
sS'sample'
p3224
I2
sS'end.maskhadov'
p3225
I1
sS'council'
p3226
I6
sS'spanning'
p3227
I1
sS'rays'
p3228
I1
sS'chemical'
p3229
I4
sS'hostage'
p3230
I3
sS'sunday'
p3231
I2
sS'sworn'
p3232
I1
sS'map'
p3233
I1
sS'mar'
p3234
I8
sS'140'
p3235
I1
sS'membership'
p3236
I6
sS'privatise'
p3237
I2
sS'grow'
p3238
I4
sS'man'
p3239
I6
sS'relinquish'
p3240
I1
sS'outline'
p3241
I1
sS'16,000'
p3242
I1
sS'maybe'
p3243
I1
sS'borrowing'
p3244
I1
sS'switch'
p3245
I1
sS'deposit'
p3246
I5
sS'african'
p3247
I2
sS'tall'
p3248
I1
sS'talk'
p3249
I4
sS'said.dealers'
p3250
I2
sS'gradual'
p3251
I1
sS'pointed'
p3252
I2
sS'87.34'
p3253
I1
sS'stability'
p3254
I1
sS'shake'
p3255
I2
sS'argued'
p3256
I1
sS'peterson'
p3257
I1
sS'awaiting'
p3258
I2
sS'group'
p3259
I31
sS'monitor'
p3260
I3
sS'66,100'
p3261
I1
sS'said.kryuchkov'
p3262
I1
sS'policy'
p3263
I14
sS'mail'
p3264
I1
sS'main'
p3265
I13
sS'texas'
p3266
I1
sS'finance'
p3267
I11
sS'views'
p3268
I3
sS'killer'
p3269
I1
sS'killed'
p3270
I5
sS'developments'
p3271
I2
sS'rossiisky'
p3272
I2
sS'peasant'
p3273
I1
sS'bolshevik'
p3274
I2
sS'822'
p3275
I1
sS'bridging'
p3276
I1
sS'zurich'
p3277
I1
sS'saying.but'
p3278
I1
sS'goal.after'
p3279
I2
sS'canada'
p3280
I1
sS'living'
p3281
I7
sS'interference'
p3282
I1
sS'said.once'
p3283
I1
sS'nominal'
p3284
I4
sS'dominate'
p3285
I2
sS'yury'
p3286
I1
sS'tatyana'
p3287
I3
sS'yuri'
p3288
I4
sS'ore'
p3289
I4
sS'advance'
p3290
I2
sS'ministry'
p3291
I40
sS'infotek'
p3292
I2
sS'suisse'
p3293
I1
sS'thing'
p3294
I2
sS'party.top'
p3295
I1
sS'gazprom.under'
p3296
I1
sS'cheese'
p3297
I1
sS'36.49'
p3298
I2
sS'question'
p3299
I4
sS'americans'
p3300
I2
sS'suspended'
p3301
I8
sS'carry'
p3302
I2
sS'corporations'
p3303
I1
sS'little'
p3304
I14
sS'modernise'
p3305
I2
sS'murky'
p3306
I1
sS'glovanyov.electric'
p3307
I1
sS'alfred'
p3308
I3
sS'speaking'
p3309
I2
sS'mining'
p3310
I9
sS'allegedly'
p3311
I2
sS'moscow'
p3312
I179
sS'trader.the'
p3313
I1
sS'11'
p3314
I5
sS'10'
p3315
I43
sS'13'
p3316
I4
sS'12'
p3317
I5
sS'15'
p3318
I7
sS'17'
p3319
I3
sS'16'
p3320
I3
sS'19'
p3321
I2
sS'18'
p3322
I4
sS'browning'
p3323
I2
sS'venture'
p3324
I20
sS'gathering'
p3325
I1
sS'conspiracy'
p3326
I1
sS'nazi'
p3327
I1
sS'said.priority'
p3328
I1
sS'warsaw'
p3329
I1
sS'karelia'
p3330
I1
sS'efficient'
p3331
I2
sS'home.official'
p3332
I1
sS'potential'
p3333
I5
sS'interior'
p3334
I2
sS'performance'
p3335
I6
sS'1,250'
p3336
I1
sS'bets'
p3337
I1
sS'200'
p3338
I4
sS'203'
p3339
I1
sS'pain'
p3340
I5
sS'theatre'
p3341
I1
sS'investigations'
p3342
I1
sS'track'
p3343
I2
sS'predictions.russia'
p3344
I1
sS'paid'
p3345
I2
sS'assault'
p3346
I1
sS'sheets'
p3347
I1
sS'complaints'
p3348
I1
sS'commerzbank'
p3349
I1
sS'son.the'
p3350
I1
sS'cuban'
p3351
I1
sS'especially'
p3352
I5
sS'surprising'
p3353
I2
sS'friday.itar'
p3354
I1
sS'later.logunov'
p3355
I2
sS'shop'
p3356
I1
sS'rating'
p3357
I2
sS'shot'
p3358
I2
sS'privatising'
p3359
I1
sS'accession'
p3360
I2
sS'arrears'
p3361
I4
sS'corner'
p3362
I1
sS'a7e'
p3363
I2
sS'60.75-61.00'
p3364
I1
sS'year.nezavisimaya'
p3365
I1
sS'black'
p3366
I11
sS'treasury'
p3367
I13
sS'6.53'
p3368
I1
sS'hungarian'
p3369
I1
sS'contracts'
p3370
I4
sS'nearly'
p3371
I5
sS'said.each'
p3372
I1
sS'gem'
p3373
I4
sS'secondary'
p3374
I1
sS'girl'
p3375
I1
sS'yield'
p3376
I8
sS'morning'
p3377
I6
sS'miles'
p3378
I5
sS'rojkov'
p3379
I1
sS'declared'
p3380
I1
sS'states.analysts'
p3381
I1
sS'seal'
p3382
I1
sS'calendar'
p3383
I1
sS'foreword'
p3384
I1
sS'rouble'
p3385
I19
sS'gottlieb'
p3386
I1
sS'diamonds'
p3387
I3
sS'reading'
p3388
I1
sS'august'
p3389
I8
sS'parent'
p3390
I1
sS'jp'
p3391
I1
sS'18,800'
p3392
I1
sS'countenance'
p3393
I1
sS'tub'
p3394
I1
sS'780'
p3395
I1
sS'koryaksky'
p3396
I1
sS'trader'
p3397
I18
sS'trades'
p3398
I1
sS'according'
p3399
I8
sS'tour'
p3400
I1
sS'3,342,912'
p3401
I1
sS'holders'
p3402
I2
sS'traded'
p3403
I9
sS'forecasting'
p3404
I1
sS'cancer'
p3405
I1
sS'embalmed'
p3406
I1
sS'disciplinary'
p3407
I2
sS'custody'
p3408
I1
sS'considering'
p3409
I7
sS'barry'
p3410
I1
sS'vozdushny'
p3411
I1
sS'mark'
p3412
I10
sS'borders'
p3413
I1
sS'educated'
p3414
I1
sS'offered'
p3415
I2
sS'22-count'
p3416
I1
sS'bmw'
p3417
I1
sS'compile'
p3418
I1
sS'23004'
p3419
I2
sS'promising'
p3420
I2
sS'investigating'
p3421
I1
sS'cluster'
p3422
I1
sS'lukoil'
p3423
I5
sS'movements'
p3424
I7
sS'different'
p3425
I7
sS'vagaries'
p3426
I2
sS'harsh'
p3427
I1
sS'pay'
p3428
I16
sS'17.1'
p3429
I1
sS'speech'
p3430
I3
sS'struggling'
p3431
I6
sS'pan'
p3432
I1
sS'jeffrey'
p3433
I1
sS'oil'
p3434
I82
sS'running'
p3435
I6
sS'36.70-37.00'
p3436
I2
sS'climbing'
p3437
I1
sS'totally'
p3438
I1
sS'thefts.the'
p3439
I1
sS'largely'
p3440
I2
sS'died.russian'
p3441
I1
sS'solve'
p3442
I2
sS'364-day'
p3443
I1
sS'230,000'
p3444
I1
sS'overcrowding'
p3445
I2
sS'overseeing'
p3446
I3
sS'february.exports'
p3447
I1
sS'money'
p3448
I21
sS'unofficial'
p3449
I1
sS'95.00'
p3450
I1
sS'23917'
p3451
I1
sS'4'
p3452
I20
sS'extensive'
p3453
I2
sS'said.gazprom'
p3454
I1
sS'grip'
p3455
I1
sS'forge'
p3456
I1
sS'grid'
p3457
I2
sS'mol'
p3458
I1
sS'novorossiisk'
p3459
I11
sS'said.moscow'
p3460
I2
sS'vertically'
p3461
I2
sS'christina'
p3462
I5
sS'1.07'
p3463
I1
sS'serves'
p3464
I3
sS'facing'
p3465
I2
sS'chamber'
p3466
I5
sS'laughing'
p3467
I1
sS'fulfil'
p3468
I1
sS'irgz.rts'
p3469
I1
sS'order.in'
p3470
I1
sS'gross'
p3471
I6
sS'chubais.camdessus'
p3472
I1
sS'critical'
p3473
I1
sS'victory'
p3474
I2
sS'georgiyevna'
p3475
I2
sS'broker'
p3476
I1
sS'broken'
p3477
I1
sS'points.to'
p3478
I1
sS'details.anthrax'
p3479
I1
sS'manufacturer'
p3480
I1
sS'regulations'
p3481
I3
sS'preoccupied'
p3482
I1
sS'nafta'
p3483
I2
sS'fringe'
p3484
I1
sS'statistics.he'
p3485
I1
sS'smorodsky'
p3486
I2
sS'airline'
p3487
I2
sS'pockets'
p3488
I1
sS'mixed'
p3489
I2
sS'pfgs.rts'
p3490
I1
sS'provisional'
p3491
I1
sS'economy.he'
p3492
I1
sS'fertile'
p3493
I1
sS'coupon'
p3494
I7
sS'year.but'
p3495
I1
sS'lows.some'
p3496
I1
sS'khlystuncivil'
p3497
I1
sS'striker'
p3498
I3
sS'arranger'
p3499
I1
sS'netting'
p3500
I1
sS'inkombank'
p3501
I1
sS'resolving'
p3502
I2
sS'352,000'
p3503
I1
sS'deep'
p3504
I3
sS'general'
p3505
I10
sS'examine'
p3506
I1
sS'enable'
p3507
I1
sS'lifetime'
p3508
I2
sS'47.70'
p3509
I1
sS'amendments'
p3510
I2
sS'field'
p3511
I1
sS'astronaut'
p3512
I2
sS'4,000'
p3513
I3
sS'students'
p3514
I6
sS'important'
p3515
I13
sS'chris'
p3516
I1
sS'nash'
p3517
I2
sS'remote'
p3518
I3
sS'7748'
p3519
I1
sS'starting'
p3520
I6
sS'represent'
p3521
I1
sS'forget'
p3522
I1
sS'suburban'
p3523
I1
sS'dollar'
p3524
I22
sS'forged'
p3525
I2
sS'zinc'
p3526
I1
sS'talks'
p3527
I26
sS'children'
p3528
I2
sS'reluctant'
p3529
I1
sS'responsiveness'
p3530
I1
sS'premium'
p3531
I2
sS'returning'
p3532
I1
sS'minfin'
p3533
I4
sS'forwarders'
p3534
I4
sS'criticisms.she'
p3535
I1
sS'dictatorship'
p3536
I1
sS'applicable'
p3537
I1
sS'saudi'
p3538
I3
sS'biological'
p3539
I2
sS'economically'
p3540
I2
sS'market.the'
p3541
I2
sS'zero'
p3542
I1
sS'galperin'
p3543
I1
sS'defence'
p3544
I8
sS'illogical'
p3545
I1
sS'target.regional'
p3546
I1
sS'abn'
p3547
I1
sS'public'
p3548
I14
sS'movement'
p3549
I3
sS'3584'
p3550
I1
sS'ranged'
p3551
I1
sS'6.76'
p3552
I1
sS'favourably'
p3553
I1
sS'favourable'
p3554
I2
sS'friday.at'
p3555
I1
sS'operating'
p3556
I4
sS'anatloy'
p3557
I1
sS'900'
p3558
I1
sS'prosecutors'
p3559
I4
sS'published'
p3560
I1
sS'transit'
p3561
I4
sS'burial.but'
p3562
I1
sS'establish'
p3563
I1
sS'shareholders'
p3564
I5
sS'destination'
p3565
I1
sS'comparing'
p3566
I1
sS'45.like'
p3567
I1
sS'0.85'
p3568
I1
sS'achieving'
p3569
I4
sS'saint.a'
p3570
I2
sS'statement.the'
p3571
I1
sS'itar'
p3572
I4
sS'controlling'
p3573
I4
sS'particular'
p3574
I1
sS'town'
p3575
I9
sS'amro'
p3576
I1
sS'chikhachev.but'
p3577
I1
sS'hour'
p3578
I1
sS'middle'
p3579
I1
sS'phrasing'
p3580
I1
sS'remain'
p3581
I4
sS'clergy'
p3582
I1
sS'adruzhba'
p3583
I1
sS'purchases'
p3584
I1
sS'share'
p3585
I11
sS'moscow.another'
p3586
I1
sS'minimum'
p3587
I1
sS'numbers'
p3588
I3
sS'purchased'
p3589
I1
sS'sharp'
p3590
I3
sS'loan.it'
p3591
I1
sS'maturing'
p3592
I3
sS'cso'
p3593
I6
sS'plans'
p3594
I22
sS'rye'
p3595
I1
sS'sacred'
p3596
I1
sS'war.he'
p3597
I1
sS'tranches'
p3598
I12
sS'inflationary'
p3599
I1
sS'par'
p3600
I1
sS'48.15-48.40'
p3601
I2
sS'sistema'
p3602
I3
sS'acreage'
p3603
I2
sS'response'
p3604
I2
sS'brady'
p3605
I3
sS'toughening'
p3606
I1
sS'coal'
p3607
I4
sS'responsibility'
p3608
I2
sS'antoly'
p3609
I2
sS'rounded'
p3610
I1
sS'25'
p3611
I13
sS'27'
p3612
I3
sS'20'
p3613
I17
sS'21'
p3614
I6
sS'22'
p3615
I3
sS'23'
p3616
I8
sS'28'
p3617
I2
sS'29'
p3618
I1
sS'pct'
p3619
I11
sS'late'
p3620
I16
sS'thursday.the'
p3621
I2
sS'reuters'
p3622
I12
sS'pad'
p3623
I1
sS'50.other'
p3624
I1
sS'good'
p3625
I8
sS'7.00'
p3626
I1
sS'association'
p3627
I8
sS'accusations'
p3628
I1
sS'ashes'
p3629
I1
sS'ports'
p3630
I9
sS'house'
p3631
I27
sS'energy'
p3632
I33
sS'hard'
p3633
I8
sS'idea'
p3634
I1
sS'extended'
p3635
I6
sS'insurance'
p3636
I3
sS'initiatives'
p3637
I1
sS'vladivostok'
p3638
I1
sS'funding'
p3639
I2
sS'projected'
p3640
I1
sS'introduction.russian'
p3641
I1
sS'evaluation'
p3642
I1
sS'sbs'
p3643
I1
sS'lawrence'
p3644
I2
sS'bulls'
p3645
I1
sS'mikhail'
p3646
I6
sS'extraordinary'
p3647
I1
sS'terminals'
p3648
I1
sS'members'
p3649
I8
sS'backed'
p3650
I8
sS'beginning'
p3651
I10
sS'benefits'
p3652
I1
sS'sidanko.several'
p3653
I1
sS'finland'
p3654
I2
sS'0.02'
p3655
I1
sS'copper'
p3656
I1
sS'covering.dealers'
p3657
I1
sS'wages'
p3658
I9
sS'statement'
p3659
I15
sS'lease'
p3660
I1
sS'park'
p3661
I1
sS'right.but'
p3662
I2
sS'believe'
p3663
I7
sS'eastwards'
p3664
I1
sS'gotten'
p3665
I2
sS'energeticheskaya'
p3666
I3
sS'supposed'
p3667
I2
sS'polishing'
p3668
I1
sS'treated'
p3669
I3
sS'tonnes.the'
p3670
I1
sS'lutsia'
p3671
I2
sS'fuelling'
p3672
I1
sS'ages'
p3673
I1
sS'aged'
p3674
I2
sS'orders'
p3675
I6
sS'mountain'
p3676
I1
sS'built'
p3677
I5
sS'gorbachev'
p3678
I3
sS'majority'
p3679
I8
sS'build'
p3680
I3
sS'serve'
p3681
I1
sS'eggs'
p3682
I1
sS'chart'
p3683
I1
sS'significant'
p3684
I2
sS'services'
p3685
I5
sS'extremely'
p3686
I2
sS'orlov'
p3687
I6
sS'mediation'
p3688
I1
sS'km'
p3689
I7
sS'said.officials'
p3690
I1
sS'sector'
p3691
I20
sS'directorate'
p3692
I1
sS'particularly'
p3693
I4
sS'rebels'
p3694
I1
sS'outdoor'
p3695
I1
sS'businesses'
p3696
I1
sS'fine'
p3697
I1
sS'networks'
p3698
I1
sS'giant'
p3699
I2
sS'depended'
p3700
I2
sS'merger'
p3701
I1
sS'nervous'
p3702
I1
sS'ruin'
p3703
I2
sS'massing'
p3704
I1
sS'generators'
p3705
I1
sS'8'
p3706
I7
sS'1315'
p3707
I1
sS'permission'
p3708
I2
sS'express'
p3709
I1
sS'resolve'
p3710
I4
sS'said.prosecutors'
p3711
I1
sS'common'
p3712
I2
sS'individual'
p3713
I2
sS'forthcoming'
p3714
I1
sS'repairs'
p3715
I1
sS'halved'
p3716
I2
sS'visiting'
p3717
I2
sS'embalmers'
p3718
I1
sS'data.minfins'
p3719
I1
sS'days.roubles'
p3720
I1
sS'baltika'
p3721
I2
sS'dividends'
p3722
I1
sS'aircraft'
p3723
I3
sS'reverse'
p3724
I3
sS'annual'
p3725
I15
sS'foreign'
p3726
I48
sS'souvenirs.nicholas'
p3727
I1
sS'elaborating'
p3728
I1
sS'point'
p3729
I6
sS'simple'
p3730
I2
sS'prosecuting'
p3731
I1
sS'dietary'
p3732
I1
sS'simply'
p3733
I1
sS'volunteered'
p3734
I1
sS'said.thorning'
p3735
I1
sS'expensive'
p3736
I1
sS'headaches'
p3737
I1
sS'platinum'
p3738
I10
sS'raise'
p3739
I7
sS'market.but'
p3740
I1
sS'create'
p3741
I4
sS'million.the'
p3742
I1
sS'europe.gazprom'
p3743
I2
sS'rivals'
p3744
I3
sS'secret'
p3745
I4
sS'said.the'
p3746
I30
sS'meeting'
p3747
I12
sS'gaz'
p3748
I2
sS'ineptitude'
p3749
I1
sS'sour.russia'
p3750
I1
sS'gas'
p3751
I45
sS'gap'
p3752
I3
sS'35.36'
p3753
I1
sS'prices'
p3754
I29
sS'replaces'
p3755
I1
sS'politician'
p3756
I1
sS'interlocking'
p3757
I1
sS'grains'
p3758
I1
sS'coyle'
p3759
I1
sS'elections'
p3760
I1
sS'replaced'
p3761
I1
sS'denominations'
p3762
I2
sS'century'
p3763
I7
sS'cents'
p3764
I2
sS'vladikavkaz'
p3765
I5
sS'italy'
p3766
I2
sS'migraine'
p3767
I1
sS'textile'
p3768
I1
sS'said.output'
p3769
I1
sS'corridor'
p3770
I2
sS'urinson'
p3771
I1
sS'development'
p3772
I4
sS'contravene'
p3773
I1
sS'yesterday'
p3774
I6
sS'solicited'
p3775
I1
sS'moment'
p3776
I1
sS'announcement.there'
p3777
I1
sS'purpose'
p3778
I1
sS'downtrend'
p3779
I1
sS'task'
p3780
I1
sS'globus'
p3781
I5
sS'halve'
p3782
I1
sS'117,800'
p3783
I1
sS'spent'
p3784
I2
sS'plants.the'
p3785
I2
sS'swiss'
p3786
I1
sS'entry'
p3787
I2
sS'tass'
p3788
I8
sS'spend'
p3789
I2
sS'secrecy'
p3790
I1
sS'1961'
p3791
I1
sS'shape'
p3792
I3
sS'alternative'
p3793
I4
sS'timber'
p3794
I3
sS'wage'
p3795
I3
sS'cut'
p3796
I2
sS'source'
p3797
I9
sS'ukraine.table'
p3798
I1
sS'kuban'
p3799
I5
sS'impoverished'
p3800
I1
sS'administrative'
p3801
I1
sS'forces'
p3802
I5
sS'big'
p3803
I19
sS'bid'
p3804
I5
sS'matters'
p3805
I2
sS'foreigners'
p3806
I1
sS'bit'
p3807
I4
sS'environment.many'
p3808
I1
sS'knock'
p3809
I1
sS'follows'
p3810
I2
sS'indication'
p3811
I3
sS'depositary'
p3812
I7
sS'channelled'
p3813
I1
sS'absolutely'
p3814
I3
sS'delegation'
p3815
I3
sS'scale'
p3816
I1
sS'contacts'
p3817
I2
sS'pet'
p3818
I1
sS'decision'
p3819
I10
sS'integration'
p3820
I2
sS'constitution.the'
p3821
I1
sS'eliminate'
p3822
I2
sS'invade'
p3823
I1
sS'300'
p3824
I6
sS'continuing'
p3825
I12
sS'kozlov'
p3826
I1
sS'goods'
p3827
I4
sS'diversifying'
p3828
I1
sS'beans'
p3829
I1
sS'pollution'
p3830
I1
sS'retailer'
p3831
I1
sS'78.7'
p3832
I1
sS'rosneft'
p3833
I1
sS'production.he'
p3834
I1
sS'bankruptcy'
p3835
I2
sS'reformed.nemtsov'
p3836
I1
sS'added.overall'
p3837
I1
sS'1.56'
p3838
I1
sS'1.55'
p3839
I2
sS'forward'
p3840
I4
sS'opponent'
p3841
I1
sS'hazing'
p3842
I1
sS'hoped'
p3843
I3
sS'hopes'
p3844
I6
sS'subsidiary'
p3845
I2
sS'league.captain'
p3846
I1
sS'5724/5738'
p3847
I1
sS'deliveries.lukoil'
p3848
I1
sS'exploration'
p3849
I3
sS'planes'
p3850
I2
sS'autonomous'
p3851
I1
sS'shoigucommonwealth'
p3852
I1
sS'7930'
p3853
I2
sS'constant'
p3854
I1
sS'flow'
p3855
I1
sS'single'
p3856
I12
sS'prevail'
p3857
I1
sS'denying'
p3858
I1
sS'economy.for'
p3859
I1
sS'rossiya'
p3860
I1
sS'capital.sevodnya'
p3861
I1
sS'157.11'
p3862
I1
sS'prepared'
p3863
I3
sS'stockmarket'
p3864
I1
sS'hanson'
p3865
I2
sS'5,738-39'
p3866
I4
sS'rallied'
p3867
I1
sS'stroyev'
p3868
I1
sS'bankers'
p3869
I2
sS'2003'
p3870
I3
sS'2000'
p3871
I1
sS'2006'
p3872
I3
sS'2008'
p3873
I3
sS'exports.agriculture'
p3874
I1
sS'13.55'
p3875
I2
sS'then.but'
p3876
I2
sS'30.97'
p3877
I1
sS'varyoganneftegaz'
p3878
I2
sS'helps'
p3879
I1
sS'nervousness'
p3880
I1
sS'gritskevich'
p3881
I2
sS'soyuz'
p3882
I3
sS'shock'
p3883
I2
sS'disbursements'
p3884
I7
sS'ceasefire'
p3885
I3
sS'year.an'
p3886
I1
sS'crop'
p3887
I2
sS'profit.but'
p3888
I1
sS'giving'
p3889
I3
sS'anthem'
p3890
I2
sS'harvests'
p3891
I1
sS'enjoyed'
p3892
I1
sS'access'
p3893
I6
sS'body'
p3894
I7
sS'exchange'
p3895
I8
sS'440'
p3896
I1
sS'baring'
p3897
I1
sS'objects'
p3898
I1
sS'widening'
p3899
I1
sS'38'
p3900
I2
sS'33'
p3901
I1
sS'32'
p3902
I2
sS'31'
p3903
I9
sS'30'
p3904
I8
sS'37'
p3905
I1
sS'36'
p3906
I1
sS'35'
p3907
I2
sS'34'
p3908
I1
sS'4.98'
p3909
I1
sS'earnings.today'
p3910
I1
sS'added.russia'
p3911
I1
sS'implement'
p3912
I2
sS'named'
p3913
I5
sS'oxana'
p3914
I1
sS'ahead.the'
p3915
I1
sS'private'
p3916
I29
sS'staple'
p3917
I2
sS'ii.sevodnya'
p3918
I1
sS'0.1'
p3919
I1
sS'82.77'
p3920
I1
sS'calculated.the'
p3921
I1
sS'defendant'
p3922
I1
sS'trait'
p3923
I1
sS'kiosk'
p3924
I1
sS'debtors'
p3925
I2
sS'harvest'
p3926
I3
sS'subscription'
p3927
I1
sS'account'
p3928
I6
sS'percent.series'
p3929
I1
sS'0800'
p3930
I1
sS'antonov'
p3931
I1
sS'closing'
p3932
I1
sS'36.98'
p3933
I1
sS'kizenko'
p3934
I1
sS'reserves'
p3935
I13
sS'practical'
p3936
I1
sS'democracy'
p3937
I4
sS'holds'
p3938
I3
sS'hampshire'
p3939
I1
sS'regions'
p3940
I2
sS'said.but'
p3941
I5
sS'onlookers'
p3942
I1
sS'profile'
p3943
I1
sS'annualised'
p3944
I1
sS'collection'
p3945
I5
sS'286.03'
p3946
I2
sS'minfins'
p3947
I2
sS'billings'
p3948
I1
sS'decadepyotr'
p3949
I1
sS'fighters.guldimann'
p3950
I1
sS'941'
p3951
I68
sS'chief'
p3952
I11
sS'almazy'
p3953
I2
sS'resurgent'
p3954
I2
sS'polishers.the'
p3955
I2
sS'dmitrievainterior'
p3956
I1
sS'agricultural'
p3957
I6
sS'industries'
p3958
I1
sS'lm'
p3959
I2
sS'winning'
p3960
I1
sS'6.30'
p3961
I2
sS'willing'
p3962
I1
sS'revives'
p3963
I1
sS'market.in'
p3964
I1
sS'said.camdessus'
p3965
I6
sS'criminal'
p3966
I1
sS'friday.the'
p3967
I1
sS'rts-2'
p3968
I1
sS'greater'
p3969
I2
sS'descendants'
p3970
I2
sS'69.3'
p3971
I2
sS'cutting'
p3972
I3
sS'strike.a'
p3973
I1
sS'mandate'
p3974
I1
sS'insisting'
p3975
I1
sS'squabbling'
p3976
I1
sS'day'
p3977
I25
sS'straddling'
p3978
I1
sS'february'
p3979
I27
sS'airports'
p3980
I3
sS'latter.ventspils'
p3981
I1
sS'warned'
p3982
I1
sS'identified'
p3983
I2
sS'potapov'
p3984
I1
sS'issue.lenin'
p3985
I1
sS'programmes'
p3986
I4
sS'announces'
p3987
I1
sS'defend'
p3988
I1
sS'barley'
p3989
I2
sS'lecture'
p3990
I1
sS'postpone'
p3991
I1
sS'red'
p3992
I5
sS'chikhachev.he'
p3993
I1
sS'580'
p3994
I1
sS'payroll'
p3995
I1
sS'receipts'
p3996
I5
sS'chiefs'
p3997
I1
sS'allies'
p3998
I1
sS'stearns'
p3999
I1
sS'allied'
p4000
I2
sS'term.the'
p4001
I2
sS'barriers'
p4002
I1
sS'retain'
p4003
I1
sS'south'
p4004
I5
sS'2,000'
p4005
I1
sS'strategic'
p4006
I3
sS'hillcrest'
p4007
I1
sS'reached'
p4008
I5
sS'fahrenheit'
p4009
I2
sS'plantings'
p4010
I1
sS'7.43'
p4011
I1
sS'completed'
p4012
I3
sS'acquire'
p4013
I1
sS'compensation'
p4014
I1
sS'visited'
p4015
I1
sS'unlikely'
p4016
I1
sS'38.4'
p4017
I1
sS'throat'
p4018
I1
sS'apparently'
p4019
I1
sS'mia'
p4020
I1
sS'mic'
p4021
I1
sS'auctioning'
p4022
I3
sS'mid'
p4023
I1
sS'320'
p4024
I1
sS'concerns'
p4025
I1
sS'mir'
p4026
I4
sS'1.34'
p4027
I2
sS'serov'
p4028
I1
sS'kulik'
p4029
I3
sS'preliminary'
p4030
I2
sS'prisoner'
p4031
I1
sS'payment'
p4032
I5
sS'police'
p4033
I10
sS'gather'
p4034
I2
sS'request'
p4035
I1
sS'50total'
p4036
I1
sS'1,550'
p4037
I1
sS'eurobonds'
p4038
I3
sS'normally'
p4039
I2
sS'supported'
p4040
I4
sS'portfolio'
p4041
I1
sS'gasping'
p4042
I1
sS'staff'
p4043
I3
sS'communism'
p4044
I4
sS'knowledge'
p4045
I1
sS'controls'
p4046
I4
sS'communist'
p4047
I16
sS'equilibrium'
p4048
I2
sS'pull'
p4049
I2
sS'thursday.it'
p4050
I2
sS'pave'
p4051
I1
sS'deputies'
p4052
I11
sS'kazakhstan'
p4053
I5
sS'areas'
p4054
I6
sS'subways'
p4055
I1
sS'calling'
p4056
I4
sS'85.15-85.40'
p4057
I2
sS'mercedes'
p4058
I2
sS'137'
p4059
I1
sS'progressed.yesterday'
p4060
I1
sS'exists'
p4061
I1
sS'national'
p4062
I24
sS'breakaway'
p4063
I2
sS'said.hyundai'
p4064
I1
sS'5,729'
p4065
I4
sS'17700'
p4066
I1
sS'5,727'
p4067
I2
sS'liberalization'
p4068
I1
sS'attempting'
p4069
I1
sS'difficulties'
p4070
I3
sS'progress'
p4071
I10
sS'grumble'
p4072
I1
sS'deliver'
p4073
I1
sS'festering'
p4074
I1
sS'joke'
p4075
I3
sS'taking'
p4076
I12
sS'trips'
p4077
I1
sS'assure'
p4078
I2
sS'swallow'
p4079
I2
sS'comment'
p4080
I9
sS'detailed'
p4081
I2
sS'61.70-62.00'
p4082
I2
sS'secret.nina'
p4083
I1
sS'denis'
p4084
I1
sS'earning'
p4085
I1
sS'spokesman.the'
p4086
I1
sS'indicators'
p4087
I1
sS'pravda'
p4088
I1
sS'overwhelmingly'
p4089
I1
sS'1998.the'
p4090
I1
sS'programme.deputy'
p4091
I1
sS'ryzhkov'
p4092
I2
sS'finished'
p4093
I1
sS'clusters'
p4094
I2
sS'homes'
p4095
I1
sS'multi'
p4096
I2
sS'painkiller.since'
p4097
I1
sS'appearance'
p4098
I3
sS'stalin'
p4099
I3
sS'promoted'
p4100
I1
sS'147,000'
p4101
I1
sS'lenenergo'
p4102
I2
sS'cereals'
p4103
I1
sS'helped'
p4104
I4
sS'arrangements'
p4105
I1
sS'arabia'
p4106
I3
sS'partner'
p4107
I3
sS'progressing'
p4108
I1
sS'survey.pravda'
p4109
I1
sS'82.94'
p4110
I1
sS'reshuffled'
p4111
I2
sS'injured'
p4112
I1
sS'tighten'
p4113
I2
sS'cubic'
p4114
I5
sS'discredited'
p4115
I1
sS'9.66'
p4116
I1
sS'insure'
p4117
I1
sS'yasin'
p4118
I1
sS'investment.bhi'
p4119
I1
sS'month.nurofen'
p4120
I1
sS'thought'
p4121
I3
sS'position'
p4122
I6
sS'soviet'
p4123
I43
sS'usual'
p4124
I1
sS'ratify'
p4125
I1
sS'executive'
p4126
I5
sS'factories.today'
p4127
I1
sS'underlying'
p4128
I2
sS'tone'
p4129
I2
sS'year.vlasov'
p4130
I1
sS'adr'
p4131
I2
sS'ads'
p4132
I3
sS'reformer'
p4133
I5
sS'investor'
p4134
I8
sS'recommending'
p4135
I1
sS'match'
p4136
I2
sS'gmt'
p4137
I9
sS'resolved'
p4138
I1
sS'tests'
p4139
I1
sS'petrochemical'
p4140
I1
sS'like'
p4141
I17
sS'success'
p4142
I1
sS'admitted'
p4143
I2
sS'works'
p4144
I1
sS'eased'
p4145
I11
sS'ivanov.he'
p4146
I1
sS'hail'
p4147
I1
sS'washington.the'
p4148
I1
sS'36.90-37.20the'
p4149
I1
sS'happens'
p4150
I2
sS'progress-34'
p4151
I1
sS'eurobank'
p4152
I1
sS'year.shabdurasulov'
p4153
I1
sS'2200'
p4154
I1
sS'slight'
p4155
I4
sS'retribution'
p4156
I1
sS'actual'
p4157
I1
sS'nomura'
p4158
I1
sS'withdrew'
p4159
I2
sS'kakhaber'
p4160
I2
sS'tomb'
p4161
I1
sS'introduced'
p4162
I4
sS'submits'
p4163
I1
sS'brands'
p4164
I2
sS'playoff'
p4165
I2
sS'gazeta'
p4166
I4
sS'1986'
p4167
I1
sS'1987'
p4168
I3
sS'1983'
p4169
I2
sS'submarine'
p4170
I1
sS'vegetables'
p4171
I1
sS'1988'
p4172
I1
sS'awarded'
p4173
I2
sS'5,724/38'
p4174
I2
sS'biggest'
p4175
I17
sS'13.82.traders'
p4176
I2
sS'touted'
p4177
I1
sS'buy'
p4178
I15
sS'insurer'
p4179
I1
sS'issue.yeltsin'
p4180
I1
sS'preparations'
p4181
I1
sS'communism.today'
p4182
I1
sS'glory'
p4183
I1
sS'yegor'
p4184
I1
sS'anasthetic'
p4185
I1
sS'hand'
p4186
I3
sS'9.16cis'
p4187
I1
sS'replying'
p4188
I1
sS'deaths'
p4189
I2
sS'periods'
p4190
I1
sS'case.some'
p4191
I1
sS'proceeds'
p4192
I3
sS'48'
p4193
I6
sS'49'
p4194
I6
sS'46'
p4195
I1
sS'corporation'
p4196
I2
sS'44'
p4197
I15
sS'claiming'
p4198
I1
sS'40'
p4199
I7
sS'unaccounted'
p4200
I1
sS'dwindled.then'
p4201
I1
sS'tuesday.alexander'
p4202
I2
sS'ecological'
p4203
I1
sS'shrank'
p4204
I2
sS'resolution'
p4205
I6
sS'660,000'
p4206
I1
sS'38-percent'
p4207
I2
sS'tonnes.ukraine'
p4208
I1
sS'limited'
p4209
I2
sS'sergei'
p4210
I10
sS'fomintsev'
p4211
I1
sS'poorly'
p4212
I2
sS'feeding'
p4213
I2
sS'violate'
p4214
I1
sS'bureaucrats'
p4215
I1
sS'poorest'
p4216
I1
sS'daley'
p4217
I8
sS'318,000'
p4218
I1
sS'340'
p4219
I4
sS'convention.delegates'
p4220
I1
sS'legislators'
p4221
I1
sS'risk'
p4222
I2
sS'rise'
p4223
I10
sS'chernomorets'
p4224
I2
sS'lynnley'
p4225
I2
sS'enjoy'
p4226
I1
sS'leaders'
p4227
I13
sS'175,000'
p4228
I1
sS'estimates'
p4229
I2
sS'direct'
p4230
I3
sS'surrounding'
p4231
I1
sS'street'
p4232
I6
sS'0.1907'
p4233
I1
sS'estimated'
p4234
I2
sS'oneksimbank'
p4235
I1
sS'0.1900'
p4236
I1
sS'blue'
p4237
I8
sS'profitability'
p4238
I1
sS'supplies'
p4239
I6
sS'companies.last'
p4240
I1
sS'seeks'
p4241
I3
sS'licences'
p4242
I1
sS'bunkers'
p4243
I1
sS'hundreds'
p4244
I2
sS'december.moskovsky'
p4245
I1
sS'digits'
p4246
I1
sS'30-35'
p4247
I1
sS'auction'
p4248
I8
sS'changed'
p4249
I13
sS'analysts'
p4250
I4
sS'pipelineshipments'
p4251
I1
sS'changes'
p4252
I7
sS'punishment'
p4253
I1
sS'offs'
p4254
I1
sS'mordovia'
p4255
I1
sS'visibly'
p4256
I1
sS'feelings'
p4257
I1
sS'visible'
p4258
I1
sS'5,700'
p4259
I1
sS'18060'
p4260
I1
sS'28.prices'
p4261
I1
sS'hospital'
p4262
I1
sS'hanoi'
p4263
I5
sS'mediate'
p4264
I1
sS'noting'
p4265
I1
sS'asset'
p4266
I1
sS'court.sovietskaya'
p4267
I1
sS'resurfaced'
p4268
I1
sS'phone'
p4269
I1
sS'join'
p4270
I3
sS'panchenko'
p4271
I2
sS'0.253'
p4272
I1
sS'0.257'
p4273
I1
sS'5731.on'
p4274
I1
sS'petersen'
p4275
I4
sS'minutes.spartak'
p4276
I1
sS'disagreements.president'
p4277
I1
sS'estate'
p4278
I2
sS'preserving'
p4279
I2
sS'attract'
p4280
I1
sS'guarantee'
p4281
I3
sS'end'
p4282
I33
sS'sysuyev'
p4283
I1
sS'logunov'
p4284
I4
sS'toxin'
p4285
I3
sS'adjacent'
p4286
I1
sS'widespread'
p4287
I3
sS'charging'
p4288
I1
sS'kilowatt'
p4289
I1
sS'demanding'
p4290
I1
sS'urinsoneducation'
p4291
I1
sS'burly'
p4292
I1
sS'provisionally'
p4293
I1
sS'amid'
p4294
I1
sS'acknowledged'
p4295
I5
sS'enter'
p4296
I2
sS'reforming'
p4297
I2
sS'fall'
p4298
I14
sS'sickle'
p4299
I3
sS'london'
p4300
I23
sS'reformers'
p4301
I9
sS'rostov'
p4302
I2
sS'snowstorms'
p4303
I1
sS'imf'
p4304
I81
sS'expectations'
p4305
I2
sS'writing'
p4306
I1
sS'destroyed'
p4307
I3
sS'400'
p4308
I3
sS'rostok'
p4309
I1
sS'gloom'
p4310
I2
sS'pact.camdessus'
p4311
I1
sS'potatoes'
p4312
I2
sS'workers.touring'
p4313
I1
sS'company.ues'
p4314
I1
sS'lasting'
p4315
I2
sS'signing'
p4316
I4
sS'600,000'
p4317
I1
sS'defences'
p4318
I1
sS'saturday'
p4319
I1
sS'revisions'
p4320
I1
sS'driving'
p4321
I4
sS'laid'
p4322
I1
sS'unabashed'
p4323
I1
sS'got'
p4324
I9
sS'newly'
p4325
I5
sS'independence'
p4326
I2
sS'underwrite'
p4327
I1
sS'free'
p4328
I7
sS'natsionalny'
p4329
I1
sS'wanted'
p4330
I11
sS'longterm'
p4331
I2
sS'days'
p4332
I18
sS'priorities'
p4333
I3
sS'inspectors'
p4334
I3
sS'industrial'
p4335
I14
sS'encouraging'
p4336
I2
sS'restrict'
p4337
I1
sS'adopted'
p4338
I3
sS'difficulty'
p4339
I1
sS'revival'
p4340
I2
sS'nizhny'
p4341
I4
sS'0.05'
p4342
I1
sS'percentage'
p4343
I1
sS'urban'
p4344
I1
sS'ceiling'
p4345
I1
sS'murder'
p4346
I2
sS'svetlinskoye'
p4347
I3
sS'took'
p4348
I7
sS'negotiating'
p4349
I6
sS'western'
p4350
I29
sS'unsanitary'
p4351
I1
sS'roles'
p4352
I1
sS'immigrants'
p4353
I1
sS'power.but'
p4354
I1
sS'8.862'
p4355
I2
sS'18.8'
p4356
I1
sS'18.1'
p4357
I1
sS'rao'
p4358
I11
sS'1604'
p4359
I1
sS'talking'
p4360
I3
sS'regulate'
p4361
I2
sS'mamuka'
p4362
I1
sS'relatively'
p4363
I10
sS'1969'
p4364
I1
sS'4,500'
p4365
I1
sS'snow'
p4366
I2
sS'contact'
p4367
I1
sS'plans.many'
p4368
I1
sS'said.belov'
p4369
I1
sS'2.98'
p4370
I1
sS'rape.the'
p4371
I1
sS'metal'
p4372
I5
sS'treaty'
p4373
I9
sS'61.00-61.25'
p4374
I2
sS'61.00-61.20'
p4375
I1
sS'radio'
p4376
I3
sS'earth'
p4377
I2
sS'peasants'
p4378
I1
sS'delays'
p4379
I3
sS'542'
p4380
I14
sS'oct'
p4381
I2
sS'continuity'
p4382
I1
sS'asbestos'
p4383
I19
sS'145,500'
p4384
I1
sS'watch'
p4385
I1
sS'borrower'
p4386
I1
sS'despite'
p4387
I6
sS'report'
p4388
I20
sS'countries'
p4389
I8
sS'dollarise'
p4390
I1
sS'twice'
p4391
I1
sS'1960s'
p4392
I1
sS'corrupt'
p4393
I1
sS'capacity'
p4394
I6
sS'tuesday.it'
p4395
I1
sS'grandmother'
p4396
I1
sS'finger'
p4397
I1
sS'hopefully'
p4398
I1
sS'kredit'
p4399
I4
sS'364'
p4400
I1
sS'360'
p4401
I1
sS'failed.also'
p4402
I1
sS'boss'
p4403
I2
sS'phoning'
p4404
I1
sS'news'
p4405
I43
sS'blasted'
p4406
I2
sS'improve'
p4407
I7
sS'faced'
p4408
I7
sS'players'
p4409
I4
sS'games'
p4410
I5
sS'faces'
p4411
I1
sS'39th'
p4412
I1
sS'trust'
p4413
I1
sS'hitler'
p4414
I1
sS'conference'
p4415
I12
sS'jobless'
p4416
I1
sS'warehouses'
p4417
I1
sS'quickly'
p4418
I3
sS'confident'
p4419
I1
sS'spread'
p4420
I1
sS'expected'
p4421
I20
sS'drugs'
p4422
I2
sS'enterprises'
p4423
I1
sS'interests.the'
p4424
I1
sS'85.10-85.30'
p4425
I1
sS'palladium'
p4426
I4
sS'n'
p4427
I5
sS'lesser'
p4428
I1
sS'chrnomyrdin'
p4429
I1
sS'procedure'
p4430
I1
sS'wednesday.camdessus'
p4431
I1
sS'yeltsin.the'
p4432
I1
sS'anatoly'
p4433
I12
sS'need'
p4434
I14
sS'agreement.but'
p4435
I1
sS'experts'
p4436
I6
sS'containing'
p4437
I3
sS'suggest'
p4438
I2
sS'pensions.russia'
p4439
I2
sS'complex'
p4440
I1
sS'said.rendell'
p4441
I1
sS'shortly'
p4442
I1
sS'years.total'
p4443
I1
sS'greatest'
p4444
I1
sS'snowman'
p4445
I2
sS'reeks'
p4446
I1
sS'proposed'
p4447
I4
sS'unemployment'
p4448
I2
sS'grades'
p4449
I2
sS'chechnya'
p4450
I14
sS'pharmacy'
p4451
I1
sS'russia.camdessus'
p4452
I1
sS'technological'
p4453
I1
sS'tsar.nicholas'
p4454
I1
sS'sovietov'
p4455
I5
sS'gave'
p4456
I12
sS'0.1896'
p4457
I1
sS'8145'
p4458
I1
sS'appearing'
p4459
I1
sS'burns'
p4460
I3
sS'advanced'
p4461
I1
sS'apart'
p4462
I5
sS'59'
p4463
I1
sS'mansions'
p4464
I1
sS'55'
p4465
I1
sS'57'
p4466
I1
sS'56'
p4467
I1
sS'51'
p4468
I10
sS'50'
p4469
I14
sS'52'
p4470
I3
sS'pieces.police'
p4471
I1
sS'reform.camdessus'
p4472
I1
sS'election'
p4473
I5
sS'mattrer'
p4474
I1
sS'shamil'
p4475
I2
sS'proceeding'
p4476
I3
sS'armed'
p4477
I3
sS'debts.komsomolskaya'
p4478
I1
sS'pent'
p4479
I1
sS'signing.officials'
p4480
I1
sS'espionage'
p4481
I1
sS'core'
p4482
I1
sS'baltics'
p4483
I1
sS'corn'
p4484
I4
sS'discount'
p4485
I6
sS'corp'
p4486
I5
sS'plug'
p4487
I1
sS'ensure'
p4488
I2
sS'steadily'
p4489
I3
sS'efforts'
p4490
I10
sS'sept'
p4491
I1
sS'duke'
p4492
I2
sS'civil'
p4493
I1
sS'obtaining'
p4494
I1
sS'thursday.spokesman'
p4495
I1
sS'farms.as'
p4496
I1
sS'year.the'
p4497
I5
sS'apptd'
p4498
I1
sS'transform'
p4499
I2
sS'anderson'
p4500
I1
sS'fought'
p4501
I1
sS'difference.alania'
p4502
I1
sS'scheme.russia'
p4503
I1
sS'head'
p4504
I31
sS'attempted'
p4505
I1
sS'differences'
p4506
I1
sS'heat'
p4507
I2
sS'bpd.but'
p4508
I1
sS'sustained'
p4509
I2
sS'versions'
p4510
I2
sS'shafranik'
p4511
I2
sS'bids'
p4512
I4
sS'cobbled'
p4513
I1
sS'0.63'
p4514
I1
sS'telecoms'
p4515
I8
sS'0.67'
p4516
I1
sS'trip'
p4517
I1
sS'regime'
p4518
I2
sS'6.92'
p4519
I2
sS'nk'
p4520
I1
sS'6.97'
p4521
I1
sS'6.94'
p4522
I1
sS'tim'
p4523
I1
sS'setting'
p4524
I1
sS'company'
p4525
I78
sS'crowns.most'
p4526
I2
sS'picture'
p4527
I5
sS'added.not'
p4528
I1
sS'stake.volumes'
p4529
I2
sS'longer'
p4530
I5
sS'solokin'
p4531
I1
sS'vigorously'
p4532
I1
sS'vietnam'
p4533
I10
sS'remarkable'
p4534
I3
sS'focus'
p4535
I3
sS'deliveries'
p4536
I8
sS'annually.russian'
p4537
I1
sS'row'
p4538
I2
sS'ryurikov'
p4539
I1
sS'clarification'
p4540
I1
sS'charge'
p4541
I6
sS'promoting'
p4542
I1
sS'henderson'
p4543
I4
sS'federation'
p4544
I6
sS'broadly'
p4545
I2
sS'cska'
p4546
I2
sS'8.68'
p4547
I2
sS'tanks'
p4548
I1
sS'impressive'
p4549
I1
sS'level'
p4550
I16
sS'power.public'
p4551
I1
sS'posts'
p4552
I1
sS'standards'
p4553
I6
sS'domestically'
p4554
I1
sS'298.52.oil'
p4555
I1
sS'lever'
p4556
I1
sS'tu-154m'
p4557
I1
sS'network.he'
p4558
I1
sS'says'
p4559
I13
sS'trend'
p4560
I8
sS'roadshow'
p4561
I1
sS'slowed'
p4562
I1
sS'538,583'
p4563
I1
sS'trent'
p4564
I1
sS'port'
p4565
I9
sS'constitution'
p4566
I4
sS'contracted'
p4567
I1
sS'pleased'
p4568
I1
sS'goes'
p4569
I1
sS'reply'
p4570
I2
sS'amounting'
p4571
I2
sS'water'
p4572
I1
sS'rates.russian'
p4573
I2
sS'groups'
p4574
I6
sS'kiev.ukraine'
p4575
I1
sS'supplying'
p4576
I3
sS'unidentified'
p4577
I1
sS'cars.with'
p4578
I1
sS'emerge'
p4579
I1
sS'somersaults'
p4580
I2
sS'problematic'
p4581
I1
sS'farm.in'
p4582
I1
sS'crisis'
p4583
I6
sS'3,428'
p4584
I3
sS'shakhrai'
p4585
I1
sS'3,424'
p4586
I3
sS'3,420'
p4587
I1
sS'sports'
p4588
I1
sS'criteria'
p4589
I1
sS'yevenko'
p4590
I1
sS'today'
p4591
I17
sS'chapter'
p4592
I1
sS'sessions'
p4593
I2
sS'beers'
p4594
I14
sS'cases'
p4595
I1
sS'local'
p4596
I11
sS'flagship'
p4597
I3
sS'dodge'
p4598
I2
sS'figure'
p4599
I6
sS'stroke'
p4600
I2
sS'celsius'
p4601
I2
sS'dropped'
p4602
I5
sS'parliamentary'
p4603
I1
sS'requirements'
p4604
I1
sS'inheritance'
p4605
I1
sS'1'
p4606
I51
sS'409spring'
p4607
I1
sS'cardinal'
p4608
I2
sS'fourth'
p4609
I1
sS'10,028,736'
p4610
I1
sS'speaks'
p4611
I1
sS'banker'
p4612
I2
sS'1.5-1.8'
p4613
I1
sS'huge'
p4614
I4
sS'leased'
p4615
I1
sS'clone'
p4616
I2
sS'logistical'
p4617
I1
sS'needs'
p4618
I9
sS'crashed'
p4619
I3
sS'eighth'
p4620
I1
sS'say.kondratenko'
p4621
I1
sS'liquid'
p4622
I1
sS'propriety'
p4623
I1
sS'acts'
p4624
I1
sS'mainly'
p4625
I6
sS'5,741'
p4626
I2
sS'westerners'
p4627
I3
sS'blocked'
p4628
I1
sS'chips'
p4629
I7
sS'organisation'
p4630
I12
sS'coordinates'
p4631
I1
sS'offers'
p4632
I2
sS'farmer'
p4633
I5
sS'happened'
p4634
I4
sS'26.5'
p4635
I1
sS'makharadze'
p4636
I1
sS'term'
p4637
I13
sS'opera'
p4638
I1
sS'cash.gazprom'
p4639
I2
sS'realistic'
p4640
I2
sS'realise'
p4641
I1
sS'gaps'
p4642
I1
sS'begun'
p4643
I7
sS'distributor'
p4644
I2
sS'intended'
p4645
I1
sS'factors'
p4646
I2
sS'profit'
p4647
I10
sS'tensions'
p4648
I1
sS'factory'
p4649
I4
sS"shouldn't"
p4650
I1
sS'zhemchuzhina'
p4651
I2
sS'1990.but'
p4652
I1
sS'eagle'
p4653
I1
sS'attended'
p4654
I1
sS'186,737'
p4655
I1
sS'122,700'
p4656
I1
sS'saturday.the'
p4657
I2
sS'yuz'
p4658
I4
sS'motion'
p4659
I1
sS'unpaid'
p4660
I2
sS'clients.jan'
p4661
I1
sS'place'
p4662
I6
sS'1000'
p4663
I1
sS'georgy'
p4664
I2
sS'suspend'
p4665
I2
sS'merrill'
p4666
I1
sS'revenue'
p4667
I6
sS'coming'
p4668
I7
sS'symbolic'
p4669
I1
sS'oversaw'
p4670
I2
sS'array'
p4671
I2
sS'pleaded'
p4672
I1
sS'millions'
p4673
I6
sS'given'
p4674
I6
sS'district'
p4675
I3
sS'trillion'
p4676
I25
sS'bahamas'
p4677
I1
sS'convention'
p4678
I1
sS'legally'
p4679
I1
sS'white'
p4680
I2
sS'gives'
p4681
I2
sS'cope'
p4682
I2
sS'season'
p4683
I3
sS'region.the'
p4684
I1
sS'released'
p4685
I9
sS'copy'
p4686
I1
sS'28.4'
p4687
I1
sS'population'
p4688
I4
sS'wide'
p4689
I1
sS'unfortunately'
p4690
I1
sS'oats'
p4691
I3
sS'require'
p4692
I3
sS'diplomatic'
p4693
I1
sS'spokeswoman'
p4694
I5
sS'legacy'
p4695
I1
sS'cards'
p4696
I3
sS'pre'
p4697
I3
sS'ana'
p4698
I1
sS'pro'
p4699
I5
sS'sells'
p4700
I1
sS'emphasis'
p4701
I4
sS'gko'
p4702
I6
sS'rosgosstrakh'
p4703
I3
sS'oppurtunity'
p4704
I2
sS'sure'
p4705
I3
sS'ukrainian'
p4706
I8
sS'falls'
p4707
I2
sS'14,400'
p4708
I1
sS'cleared'
p4709
I1
sS'considered'
p4710
I1
sS'adopt'
p4711
I2
sS'trader.gronbjerg'
p4712
I1
sS'501,309'
p4713
I1
sS'10.83'
p4714
I1
sS'senior'
p4715
I17
sS'sokolin'
p4716
I7
sS'cheap'
p4717
I4
sS'0.42'
p4718
I1
sS'state'
p4719
I76
sS'crime'
p4720
I9
sS'wood'
p4721
I1
sS'centrally'
p4722
I3
sS'closure'
p4723
I2
sS'barbaric'
p4724
I1
sS'embassy'
p4725
I1
sS'develop.kondratenko'
p4726
I1
sS'say.but'
p4727
I1
sS'closures'
p4728
I2
sS'connections'
p4729
I1
sS'1924'
p4730
I1
sS'stanley'
p4731
I1
sS'encouraged'
p4732
I1
sS'farmers'
p4733
I10
sS'ways'
p4734
I1
sS'subsequent'
p4735
I1
sS'review'
p4736
I3
sS'anoshkin'
p4737
I1
sS'weapons'
p4738
I5
sS'rendell'
p4739
I2
sS'outside'
p4740
I9
sS'arrival'
p4741
I1
sS'rumours'
p4742
I2
sS'14.00.traders'
p4743
I1
sS'sirena'
p4744
I1
sS'sacked'
p4745
I1
sS'cities'
p4746
I3
sS'come'
p4747
I17
sS'reaction'
p4748
I3
sS'said.by'
p4749
I1
sS'successes'
p4750
I2
sS'region'
p4751
I26
sS'quiet'
p4752
I1
sS'contract'
p4753
I1
sS'symbolic.the'
p4754
I1
sS'senator'
p4755
I1
sS'railway'
p4756
I1
sS'duty'
p4757
I5
sS'kondratenko'
p4758
I3
sS'pow'
p4759
I1
sS'period'
p4760
I4
sS'60'
p4761
I6
sS'64'
p4762
I2
sS'65'
p4763
I2
sS'67'
p4764
I1
sS'poll'
p4765
I1
sS'conference.he'
p4766
I1
sS'consultancy'
p4767
I1
sS'katzarova'
p4768
I4
sS'peaceful'
p4769
I1
sS'helicopter'
p4770
I4
sS'500'
p4771
I5
sS'engine'
p4772
I1
sS'direction'
p4773
I1
sS'expatriates.the'
p4774
I1
sS'interpretations'
p4775
I1
sS'andrei'
p4776
I5
sS'minister'
p4777
I55
sS'champions'
p4778
I3
sS'case'
p4779
I7
sS'specialised'
p4780
I1
sS'42.00-42.25'
p4781
I2
sS'amend'
p4782
I1
sS'cash'
p4783
I7
sS'premature'
p4784
I1
sS'727-5646'
p4785
I1
sS'10-metre'
p4786
I2
sS'32457'
p4787
I1
sS'telephone'
p4788
I4
sS'converts'
p4789
I1
sS'42,000.alania'
p4790
I1
sS'author'
p4791
I2
sS'annapolis'
p4792
I1
sS'seeking'
p4793
I3
sS'reminded'
p4794
I4
sS'siberian'
p4795
I3
sS'wednesday.but'
p4796
I3
sS'events'
p4797
I3
sS'127.3'
p4798
I1
sS'auctions'
p4799
I4
sS'leonid'
p4800
I2
sS'barges'
p4801
I1
sS'producers'
p4802
I12
sS'years.but'
p4803
I1
sS'delicate'
p4804
I1
sS'statue'
p4805
I5
sS'changing'
p4806
I2
sS'cartoon'
p4807
I1
sS'millicom'
p4808
I1
sS'relief'
p4809
I2
sS'said.a'
p4810
I3
sS'inability'
p4811
I2
sS'researchers'
p4812
I2
sS'novgorod'
p4813
I4
sS'risking'
p4814
I4
sS'violent'
p4815
I1
sS'kill'
p4816
I1
sS'abstained'
p4817
I1
sS'similiarly'
p4818
I1
sS"we've"
p4819
I3
sS'5900'
p4820
I1
sS'rosy'
p4821
I1
sS'disrupt'
p4822
I1
sS'scheduled'
p4823
I7
sS'inflation'
p4824
I19
sS'accepted'
p4825
I7
sS'conquest.people'
p4826
I1
sS'parliamentarians'
p4827
I2
sS'patrick'
p4828
I1
sS'shunned'
p4829
I1
sS'madrid'
p4830
I1
sS'pacific'
p4831
I2
sS'ibuprofen'
p4832
I1
sS'provided'
p4833
I2
sS'94,807'
p4834
I1
sS'slick'
p4835
I1
sS'legal'
p4836
I7
sS'provides'
p4837
I1
sS'provider'
p4838
I1
sS'gronbjerg.the'
p4839
I2
sS'communicate'
p4840
I2
sS'banks.the'
p4841
I1
sS'stereotypes'
p4842
I1
sS'novokuznetsk'
p4843
I2
sS'sell.he'
p4844
I1
sS'craft'
p4845
I1
sS'discussed'
p4846
I6
sS'mosbiznesbank'
p4847
I1
sS'stand'
p4848
I1
sS'minashvili'
p4849
I1
sS'instruments'
p4850
I1
sS'finances.low'
p4851
I2
sS'crude.the'
p4852
I1
sS'rising'
p4853
I3
sS'rybalkin'
p4854
I1
sS'artur'
p4855
I1
sS'quiz'
p4856
I1
sS'alleged'
p4857
I2
sS'interfax'
p4858
I16
sS'strict'
p4859
I1
sS'unclear.rossiiskiye'
p4860
I2
sS'g-7'
p4861
I1
sS'lugunov'
p4862
I2
sS'relic'
p4863
I1
sS'regard'
p4864
I1
sS'cabinet'
p4865
I9
sS'promote'
p4866
I3
sS'mordvinov'
p4867
I1
sS'quickly.boots'
p4868
I1
sS'wholesale'
p4869
I1
sS'grasp'
p4870
I2
sS'strongly'
p4871
I7
sS'adss'
p4872
I1
sS'britain'
p4873
I3
sS'controlled'
p4874
I3
sS'4.5'
p4875
I2
sS'4.6'
p4876
I1
sS'4.1'
p4877
I1
sS'street.but'
p4878
I1
sS'5'
p4879
I12
sS'immunity'
p4880
I3
sS'briefly'
p4881
I1
sS'championship'
p4882
I2
sS'separate'
p4883
I1
sS'infighting'
p4884
I1
sS'symbol'
p4885
I2
sS'includes'
p4886
I3
sS'jokes.itar'
p4887
I1
sS'included'
p4888
I8
sS'accruals'
p4889
I2
sS'stocks'
p4890
I3
sS'5738'
p4891
I1
sS'bilateral'
p4892
I6
sS'calls'
p4893
I2
sS'wife'
p4894
I1
sS'invest'
p4895
I10
sS'arescheduled'
p4896
I1
sS'directors'
p4897
I3
sS'laca'
p4898
I1
sS'rostselmash'
p4899
I2
sS'cough'
p4900
I1
sS'lack'
p4901
I4
sS'earners'
p4902
I2
sS'321,600'
p4903
I1
sS'group.nemtsov'
p4904
I1
sS'follow'
p4905
I3
sS'settlement'
p4906
I13
sS'decisions'
p4907
I1
sS'catastrophe'
p4908
I1
sS'thursday'
p4909
I41
sS'gary'
p4910
I2
sS'program'
p4911
I6
sS'firms.he'
p4912
I1
sS'transneft'
p4913
I2
sS'activities'
p4914
I3
sS'belonging'
p4915
I1
sS'woman'
p4916
I1
sS'worse'
p4917
I8
sS'far'
p4918
I17
sS'fas'
p4919
I2
sS'worst'
p4920
I3
sS'difficult'
p4921
I8
sS'5,733-34'
p4922
I1
sS'list'
p4923
I15
sS'programme'
p4924
I35
sS'entourage'
p4925
I1
sS'1992.currency'
p4926
I1
sS'rate'
p4927
I23
sS'design'
p4928
I1
sS'functioning'
p4929
I3
sS'imported'
p4930
I3
sS'sub'
p4931
I1
sS'sum'
p4932
I1
sS'brief'
p4933
I3
sS'0755'
p4934
I1
sS'version'
p4935
I2
sS'attitudes'
p4936
I1
sS'racing'
p4937
I2
sS'meeting.interfax'
p4938
I1
sS'supposedly'
p4939
I1
sS'said.other'
p4940
I1
sS'observing'
p4941
I2
sS'tragedy'
p4942
I2
sS'naval'
p4943
I1
sS'goalscorer'
p4944
I2
sS'allows'
p4945
I1
sS'suddenly'
p4946
I1
sS'utilisation'
p4947
I1
sS'proceed'
p4948
I2
sS'mikhailovich'
p4949
I1
sS'branded'
p4950
I2
sS'markets'
p4951
I27
sS'minor'
p4952
I1
sS'flat'
p4953
I2
sS'knows'
p4954
I1
sS'operators'
p4955
I3
sS'flag'
p4956
I2
sS'known'
p4957
I3
sS'glad'
p4958
I1
sS'say.camdessus'
p4959
I1
sS'mud.long'
p4960
I1
sS'5,729-31'
p4961
I1
sS'protects'
p4962
I1
sS'influenced'
p4963
I2
sS'court'
p4964
I1
sS'goal'
p4965
I2
sS'5.8'
p4966
I1
sS'breaking'
p4967
I1
sS'occasionally'
p4968
I1
sS'niiproyektasbest'
p4969
I1
sS'vlad'
p4970
I1
sS'weaknesses'
p4971
I2
sS'rodionov'
p4972
I16
sS'8793'
p4973
I1
sS'unacceptable'
p4974
I3
sS'carmaker'
p4975
I4
sS'short'
p4976
I13
sS'artyom'
p4977
I7
sS'ustinova'
p4978
I2
sS'supervision'
p4979
I2
sS'tsar'
p4980
I6
sS'turnover'
p4981
I1
sS'september'
p4982
I2
sS'developed'
p4983
I3
sS'mission'
p4984
I2
sS'quarrels'
p4985
I2
sS'garant'
p4986
I1
sS'disagreed'
p4987
I1
sS'style'
p4988
I3
sS'bout'
p4989
I1
sS'return'
p4990
I10
sS'hoping'
p4991
I2
sS'framework'
p4992
I2
sS'186,200'
p4993
I1
sS'bigger'
p4994
I1
sS'instructions'
p4995
I2
sS'valentin'
p4996
I3
sS'hammering'
p4997
I2
sS'organiser'
p4998
I2
sS'duchess'
p4999
I4
sS'expect'
p5000
I18
sS'undertake'
p5001
I1
sS'organised'
p5002
I3
sS'349.27'
p5003
I2
sS'511,200'
p5004
I1
sS'adhere'
p5005
I1
sS'health'
p5006
I7
sS'shipment'
p5007
I1
sS'solvent'
p5008
I1
sS'3.01'
p5009
I1
sS'friday'
p5010
I34
sS'tractors'
p5011
I4
sS'fuller'
p5012
I1
sS'end.they'
p5013
I1
sS'chechens'
p5014
I2
sS'threat'
p5015
I2
sS'investment.under'
p5016
I1
sS'fallen'
p5017
I9
sS'feed'
p5018
I2
sS'radical'
p5019
I1
sS'feet'
p5020
I1
sS'sympathy'
p5021
I1
sS'alexandr'
p5022
I1
sS'fees'
p5023
I2
sS'inkombank.it'
p5024
I1
sS'passes'
p5025
I1
sS'scathing'
p5026
I1
sS'automobile'
p5027
I2
sS'financed'
p5028
I1
sS'rails'
p5029
I1
sS'storm'
p5030
I1
sS'kulikov'
p5031
I1
sS'finances'
p5032
I2
sS'recovered'
p5033
I1
sS'pipelines'
p5034
I4
sS'relieved'
p5035
I1
sS'13.97'
p5036
I1
sS'onstad'
p5037
I1
sS'convinced'
p5038
I2
sS'uncut'
p5039
I2
sS'hold.the'
p5040
I1
sS'kind'
p5041
I4
sS'viag'
p5042
I1
sS'double'
p5043
I4
sS'zachary'
p5044
I1
sS'deputise'
p5045
I1
sS'aims'
p5046
I2
sS'risks'
p5047
I4
sS'299.87'
p5048
I1
sS'identified.he'
p5049
I1
sS'exert'
p5050
I2
sS'said.exports'
p5051
I1
sS'imports'
p5052
I7
sS'shemetova.rostelekom'
p5053
I1
sS'biotechological'
p5054
I1
sS'chairman'
p5055
I9
sS'finding'
p5056
I2
sS'added'
p5057
I23
sS'electric'
p5058
I5
sS'measures'
p5059
I5
sS'reach'
p5060
I3
sS'76'
p5061
I2
sS'miserly'
p5062
I2
sS'74'
p5063
I4
sS'73'
p5064
I2
sS'70'
p5065
I1
sS'crops.the'
p5066
I1
sS'dealers'
p5067
I16
sS'traditional'
p5068
I1
sS'dissolved'
p5069
I1
sS'institutions'
p5070
I1
sS'lying'
p5071
I1
sS'stones'
p5072
I3
sS'sidorovdefence'
p5073
I1
sS'rts'
p5074
I7
sS'costing'
p5075
I1
sS'penalty'
p5076
I1
sS'east.the'
p5077
I1
sS'mfk'
p5078
I1
sS'hit'
p5079
I6
sS'buoying'
p5080
I1
sS'cote'
p5081
I1
sS'5,000'
p5082
I2
sS'medicines'
p5083
I1
sS'investigate'
p5084
I1
sS'activity'
p5085
I3
sS'snowstorm'
p5086
I1
sS'wrote'
p5087
I1
sS'bars'
p5088
I1
sS'ars'
p5089
I12
sS'achieved'
p5090
I3
sS'intelligence'
p5091
I3
sS'2.8'
p5092
I3
sS'russia.the'
p5093
I3
sS'duma'
p5094
I54
sS'2.3'
p5095
I1
sS'chambers'
p5096
I1
sS'1995.kapelistaya'
p5097
I1
sS'2.0'
p5098
I3
sS'arm'
p5099
I1
sS'2.5'
p5100
I3
sS'2.4'
p5101
I1
sS'threats'
p5102
I2
sS'various'
p5103
I1
sS'orbiting'
p5104
I1
sS'corruption'
p5105
I7
sS'korea'
p5106
I1
sS'recently'
p5107
I10
sS'creating'
p5108
I1
sS'sold'
p5109
I3
sS'attention'
p5110
I2
sS'confiscated'
p5111
I1
sS'denomination'
p5112
I3
sS'succeed'
p5113
I2
sS'importers'
p5114
I3
sS'opposition'
p5115
I5
sS'bronze'
p5116
I3
sS'states.aman'
p5117
I1
sS'prescription'
p5118
I1
sS'operas'
p5119
I1
sS'reasons'
p5120
I6
sS'regulated'
p5121
I1
sS'decline'
p5122
I2
sS'alone.chechnya'
p5123
I1
sS'political'
p5124
I12
sS'strategy'
p5125
I6
sS'flight'
p5126
I2
sS'36.90-37.15'
p5127
I1
sS'transferring'
p5128
I5
sS'brokers'
p5129
I5
sS'demand'
p5130
I8
sS'plants'
p5131
I3
sS'murmansk'
p5132
I1
sS'stolen'
p5133
I1
sS'frozen'
p5134
I3
sS'engineers'
p5135
I1
sS'19.2'
p5136
I1
sS'said.however'
p5137
I1
sS'said.katzarova'
p5138
I1
sS'lodged'
p5139
I1
sS'rid'
p5140
I1
sS'alliances'
p5141
I2
sS'komsomolskaya'
p5142
I1
sS'confirms'
p5143
I1
sS'july.yastrzhembsky'
p5144
I1
sS'propping'
p5145
I1
sS'widely'
p5146
I2
sS'9'
p5147
I9
sS'russia.grand'
p5148
I1
sS'higher'
p5149
I5
sS'8.87'
p5150
I1
sS'monolithic'
p5151
I1
sS'holidays'
p5152
I1
sS'revival.gdp'
p5153
I2
sS'lower'
p5154
I29
sS'anybody'
p5155
I1
sS'analysis'
p5156
I1
sS'dared'
p5157
I1
sS'deliverable'
p5158
I1
sS'machinery'
p5159
I2
sS'85.30-85.60'
p5160
I2
sS'competitive'
p5161
I2
sS'questions'
p5162
I1
sS'prince'
p5163
I1
sS'profitable'
p5164
I4
sS'boots.strepsils'
p5165
I1
sS'workers'
p5166
I5
sS'sought.a'
p5167
I1
sS'tamer'
p5168
I1
sS'64,612'
p5169
I1
sS'reinstate'
p5170
I1
sS'moody'
p5171
I1
sS'essential'
p5172
I2
sS'government.collective'
p5173
I1
sS'svyazinvest'
p5174
I9
sS'3.7'
p5175
I1
sS'industies.shabdurasulov'
p5176
I1
sS'modernize'
p5177
I1
sS'kremlin.britain'
p5178
I1
sS'3.9'
p5179
I3
sS'antimonopoly'
p5180
I1
sS'uneximbank'
p5181
I1
sS'fragments'
p5182
I1
sS'anna'
p5183
I1
sS'refused'
p5184
I2
sS'5,730/44'
p5185
I1
sS'refuses'
p5186
I2
sS'pipeline'
p5187
I8
sS'entrepreneurs'
p5188
I1
sS'firing'
p5189
I1
sS'range'
p5190
I6
sS'incommunicado'
p5191
I1
sS'dialog'
p5192
I1
sS'said.shabdurasulov'
p5193
I1
sS'credible'
p5194
I1
sS'on.the'
p5195
I1
sS'thursday.chief'
p5196
I2
sS'drifted'
p5197
I2
sS'cause.the'
p5198
I1
sS'fluctuate'
p5199
I1
sS'domination'
p5200
I1
sS'long'
p5201
I14
sS'vendors'
p5202
I1
sS"we're"
p5203
I6
sS'vienna'
p5204
I1
sS'files'
p5205
I1
sS'mountains'
p5206
I3
sS'plunge'
p5207
I1
sS'repeatedly'
p5208
I5
sS'agaronik'
p5209
I1
sS'fulfilling'
p5210
I1
sS'tupolev-204'
p5211
I1
sS'legislationin'
p5212
I1
sS'marketed'
p5213
I1
sS'called'
p5214
I19
sS'humanitarian'
p5215
I1
sS'associated'
p5216
I1
sS'2,000-page'
p5217
I1
sS'tsar.police'
p5218
I1
sS'warning'
p5219
I1
sS'rally'
p5220
I4
sS'peter'
p5221
I7
sS'1.275.some'
p5222
I1
sS'peace'
p5223
I5
sS'kamaz'
p5224
I4
sS'grouped'
p5225
I1
sS'income'
p5226
I8
sS'reforms.he'
p5227
I1
sS'backbone'
p5228
I1
sS'problems'
p5229
I15
sS'helping'
p5230
I4
sS'develops'
p5231
I1
sS'allowing'
p5232
I1
sS'overstated.the'
p5233
I1
sS'vice'
p5234
I1
sS'home.but'
p5235
I1
sS'77,213'
p5236
I1
sS'exports.norilsk'
p5237
I1
sS'issued'
p5238
I8
sS'resistance'
p5239
I1
sS'winds'
p5240
I2
sS'adjustment'
p5241
I1
sS'contributions'
p5242
I1
sS'issues'
p5243
I6
sS'13,600'
p5244
I1
sS'languages'
p5245
I1
sS'futureivan'
p5246
I1
sS'stable'
p5247
I4
sS'breach'
p5248
I1
sS'include'
p5249
I7
sS'dramatically'
p5250
I3
sS'confirmation'
p5251
I1
sS'revitalise'
p5252
I1
sS'18.58'
p5253
I1
sS'materialise'
p5254
I1
sS'deals'
p5255
I2
sS'panrusgas'
p5256
I1
sS'perform.russian'
p5257
I1
sS'products.the'
p5258
I1
sS'noted'
p5259
I1
sS'smaller'
p5260
I1
sS'abalkin'
p5261
I2
sS'attractive.bhi'
p5262
I1
sS'abominable'
p5263
I1
sS'growers'
p5264
I2
sS'folk'
p5265
I1
sS'waiting'
p5266
I8
sS'capital'
p5267
I18
sS'degree'
p5268
I1
sS'pushing'
p5269
I1
sS'explore'
p5270
I1
sS'separation'
p5271
I1
sS'scrapped'
p5272
I2
sS'ukraine'
p5273
I11
sS'letter.it'
p5274
I1
sS'kinelyovfinance'
p5275
I1
sS'guarantor'
p5276
I1
sS'larger'
p5277
I1
sS'metre'
p5278
I1
sS'leaving'
p5279
I7
sS'harmonisation'
p5280
I1
sS'olivier'
p5281
I1
sS'deputy'
p5282
I40
sS'apr'
p5283
I32
sS'app'
p5284
I1
sS'russians.their'
p5285
I1
sS'motor'
p5286
I2
sS'apply'
p5287
I2
sS'use'
p5288
I9
sS'feb'
p5289
I1
sS'consumption'
p5290
I2
sS'7415'
p5291
I1
sS'unequally'
p5292
I1
sS'sort'
p5293
I2
sS'parliament'
p5294
I26
sS'journalists'
p5295
I1
sS'april.the'
p5296
I1
sS'vyacheslav'
p5297
I3
sS'inclined'
p5298
I2
sS'factor'
p5299
I1
sS'tuesday.inkom'
p5300
I1
sS'6615'
p5301
I1
sS'ural'
p5302
I2
sS'women'
p5303
I2
sS'weighting'
p5304
I1
sS'russan'
p5305
I1
sS'critic'
p5306
I1
sS'145,000'
p5307
I1
sS'accrued'
p5308
I1
sS'0.9'
p5309
I1
sS'0.8'
p5310
I1
sS'spying'
p5311
I1
sS'0.5'
p5312
I1
sS'urged'
p5313
I7
sS'nadyrshina'
p5314
I2
sS'rape'
p5315
I1
sS'summers'
p5316
I10
sS'united'
p5317
I14
sS'handover'
p5318
I1
sS'tranches.several'
p5319
I1
sS'traders'
p5320
I28
sS'instead'
p5321
I2
sS'dubinin'
p5322
I1
sS'swedish'
p5323
I1
sS'restructured'
p5324
I3
sS'reuters.it'
p5325
I1
sS'abuse'
p5326
I1
sS'ethnic'
p5327
I4
sS'2123'
p5328
I1
sS'light'
p5329
I3
sS'collectivisation'
p5330
I3
sS'republics.kazakhstan'
p5331
I1
sS'22,300'
p5332
I1
sS'130'
p5333
I2
sS'pulses'
p5334
I1
sS'looks'
p5335
I1
sS'135'
p5336
I1
sS'corporation.regent'
p5337
I1
sS'monarchist'
p5338
I3
sS'sunseeds1.78'
p5339
I1
sS'estimating'
p5340
I1
sS'permanent'
p5341
I4
sS'restrain'
p5342
I2
sS'underpin'
p5343
I5
sS'covered'
p5344
I1
sS'pounds.clare'
p5345
I1
sS'holiday'
p5346
I1
sS'crowds'
p5347
I1
sS'crash'
p5348
I1
sS'pmsforeign'
p5349
I1
sS'orthodox'
p5350
I3
sS'said.he'
p5351
I11
sS'practice'
p5352
I2
sS'republican'
p5353
I1
sS'flee'
p5354
I1
sS'fled'
p5355
I1
sS'transmitter'
p5356
I1
sS'hamilton.tyumentelekom'
p5357
I1
sS'tran'
p5358
I1
sS'unpredictable'
p5359
I1
sS'rockets'
p5360
I1
sS'trap'
p5361
I1
sS'bills'
p5362
I14
sS'lobbies'
p5363
I1
sS'privatisation'
p5364
I10
sS'unreformed'
p5365
I1
sS'related'
p5366
I3
sS'89'
p5367
I1
sS'lobbied'
p5368
I1
sS'ambassadors'
p5369
I1
sS'80'
p5370
I7
sS'87'
p5371
I1
sS'tabulate'
p5372
I1
sS'85'
p5373
I2
sS'category'
p5374
I1
sS'respects'
p5375
I1
sS'2.30'
p5376
I1
sS'sentiment'
p5377
I1
sS'deloitte'
p5378
I1
sS'integrated'
p5379
I3
sS'disclose'
p5380
I1
sS'maintains'
p5381
I1
sS'york'
p5382
I2
sS'conflicts'
p5383
I1
sS'van'
p5384
I2
sS'said.basayev'
p5385
I1
sS'228,000'
p5386
I1
sS'rudolf'
p5387
I1
sS'destinations'
p5388
I4
sS'publication'
p5389
I2
sS'accent'
p5390
I1
sS'priority'
p5391
I4
sS'shell'
p5392
I1
sS'shelf'
p5393
I1
sS'reflecting'
p5394
I1
sS'july'
p5395
I8
sS'20-year'
p5396
I1
sS'institution'
p5397
I1
sS'22.65'
p5398
I1
sS'succeeded'
p5399
I1
sS'riches'
p5400
I1
sS'richer'
p5401
I1
sS'limiting'
p5402
I3
sS'dynamo'
p5403
I3
sS'cosmonauts'
p5404
I1
sS'1.4'
p5405
I3
sS'1.5'
p5406
I1
sS'1.6'
p5407
I1
sS'1.7'
p5408
I1
sS'1.0'
p5409
I1
sS'1.2'
p5410
I1
sS'1.3'
p5411
I1
sS'1.8'
p5412
I2
sS'1.9'
p5413
I1
sS'kotlerenko'
p5414
I2
sS'linked'
p5415
I3
sS'59.07'
p5416
I1
sS'unbearable'
p5417
I2
sS'afraid'
p5418
I1
sS'russians'
p5419
I22
sS'agency'
p5420
I32
sS'pharmacist'
p5421
I1
sS'patchy'
p5422
I1
sS'combat'
p5423
I1
sS'centre'
p5424
I2
sS'accountants'
p5425
I1
sS'49.98'
p5426
I1
sS'class'
p5427
I1
sS'leonida'
p5428
I7
sS'said.when'
p5429
I1
sS'goals'
p5430
I5
sS'chances'
p5431
I2
sS'agreed'
p5432
I14
sS'planning'
p5433
I5
sS'debate'
p5434
I4
sS'thousands'
p5435
I3
sS'990'
p5436
I1
sS'watching'
p5437
I5
sS'words'
p5438
I3
sS'coordinating'
p5439
I2
sS'spur'
p5440
I2
sS'manhattans'
p5441
I3
sS'revenues.an'
p5442
I1
sS'differential'
p5443
I1
sS'queries'
p5444
I1
sS'view'
p5445
I4
sS'europe'
p5446
I15
sS'cold'
p5447
I6
sS'closer'
p5448
I3
sS'mikhailovprivatisation'
p5449
I1
sS'suisse.dealers'
p5450
I1
sS'strepsils'
p5451
I2
sS'closed'
p5452
I9
sS'crude'
p5453
I12
sS'stories'
p5454
I4
sS'torpedo'
p5455
I5
sS'frustrated'
p5456
I3
sS'bought'
p5457
I3
sS'traders.integrated'
p5458
I1
sS'ability'
p5459
I3
sS'opening'
p5460
I5
sS'agencies'
p5461
I3
sS'job'
p5462
I2
sS'5.39'
p5463
I2
sS'declining'
p5464
I5
sS'april'
p5465
I41
sS'grain'
p5466
I16
sS'728'
p5467
I1
sS'committe'
p5468
I1
sS'illiquid'
p5469
I1
sS'regulators.the'
p5470
I1
sS'wall'
p5471
I5
sS'pieces.the'
p5472
I1
sS'11,000'
p5473
I1
sS'respect'
p5474
I3
sS'narrowed'
p5475
I1
sS'withdrawn'
p5476
I1
sS'provinces'
p5477
I1
sS'731'
p5478
I1
sS'agreements'
p5479
I4
sS'nickel'
p5480
I10
sS'sufficient'
p5481
I2
sS'2.35-2.86'
p5482
I1
sS'present'
p5483
I6
sS'influential'
p5484
I2
sS'hovering'
p5485
I2
sS'antigua'
p5486
I1
sS'komsomolets'
p5487
I5
sS'supply'
p5488
I5
sS'dual'
p5489
I3
sS'542-8065'
p5490
I1
sS'privileges'
p5491
I1
sS'member'
p5492
I4
sS'largest'
p5493
I12
sS'gets'
p5494
I3
sS'residing'
p5495
I1
sS'officials.michel'
p5496
I1
sS'disagree'
p5497
I1
sS'overcrowded'
p5498
I1
sS'slavs'
p5499
I1
sS'priemysel'
p5500
I1
sS'premiers'
p5501
I2
sS'1,360'
p5502
I1
sS'articles.ruppel'
p5503
I1
sS'fighting'
p5504
I5
sS'english'
p5505
I1
sS'undertaken'
p5506
I2
sS'tuesday.the'
p5507
I5
sS'profitability.at'
p5508
I1
sS'heavily'
p5509
I3
sS'lsng.rts'
p5510
I1
sS'half'
p5511
I10
sS'skincare'
p5512
I3
sS'22079'
p5513
I5
sS'22075'
p5514
I1
sS'22073'
p5515
I2
sS'rapid'
p5516
I1
sS'dizel'
p5517
I1
sS'smith'
p5518
I2
sS'attractive'
p5519
I3
sS'tax'
p5520
I82
sS'1995.tass'
p5521
I1
sS'414,000'
p5522
I1
sS'provisions'
p5523
I1
sS'famine'
p5524
I1
sS'republics'
p5525
I2
sS'know'
p5526
I5
sS'press'
p5527
I9
sS'kapelistaya'
p5528
I1
sS'helpful'
p5529
I1
sS'penion'
p5530
I1
sS'taxpayers'
p5531
I2
sS'james'
p5532
I1
sS'420,000'
p5533
I1
sS'exceed'
p5534
I2
sS'maryland.they'
p5535
I1
sS'scared'
p5536
I1
sS'searching'
p5537
I1
sS'growth'
p5538
I38
sS'export'
p5539
I20
sS'empire'
p5540
I1
sS'119'
p5541
I1
sS'118'
p5542
I3
sS'cutters'
p5543
I2
sS'lead'
p5544
I8
sS'spoofs'
p5545
I1
sS'lean'
p5546
I1
sS'arteries'
p5547
I1
sS'leader'
p5548
I6
sS'tyumen'
p5549
I6
sS'throne'
p5550
I1
sS'rare'
p5551
I1
sS'carried'
p5552
I5
sS'getting'
p5553
I7
sS'spilled'
p5554
I2
sS'begun.kevin'
p5555
I1
sS'shipping'
p5556
I6
sS'dependency'
p5557
I1
sS'perks'
p5558
I1
sS'carrier'
p5559
I1
sS'emperor'
p5560
I1
sS'owe'
p5561
I1
sS'weather'
p5562
I10
sS'promise'
p5563
I3
sS'maize'
p5564
I1
sS'sabre'
p5565
I1
sS'2.55'
p5566
I1
sS'transfer'
p5567
I5
sS'2.58'
p5568
I1
sS'limit'
p5569
I5
sS'continental'
p5570
I1
sS'intention'
p5571
I2
sS'them.in'
p5572
I1
sS"i've"
p5573
I2
sS'funds'
p5574
I14
sS'volume'
p5575
I9
sS'7646'
p5576
I3
sS'nassau'
p5577
I1
sS'teaming'
p5578
I1
sS'tactics'
p5579
I1
sS'record'
p5580
I4
sS'belov'
p5581
I4
sS'ruling'
p5582
I1
sS'stirring'
p5583
I1
sS'plynarensky'
p5584
I1
sS'resumption'
p5585
I5
sS'950,000'
p5586
I1
sS'quails'
p5587
I1
sS'diplomat'
p5588
I4
sS'percent'
p5589
I129
sS'boom'
p5590
I1
sS'days.varyoganneftegaz'
p5591
I1
sS'conclusion'
p5592
I1
sS'illegally'
p5593
I1
sS'june'
p5594
I3
sS'risked'
p5595
I1
sS'15-20'
p5596
I2
sS'tonnes'
p5597
I33
sS'upwards'
p5598
I1
sS'ranks'
p5599
I3
sS'urals'
p5600
I8
sS'volumes'
p5601
I3
sS'understand'
p5602
I2
s.