(dp0
S'59.25'
p1
I1
sS'yellow'
p2
I4
sS'funding.however'
p3
I1
sS'increase'
p4
I11
sS'27-11'
p5
I1
sS'electricity'
p6
I4
sS'sinking'
p7
I2
sS'regional'
p8
I1
sS'townships.mervyn'
p9
I1
sS'kabila.kabila'
p10
I1
sS'bringing'
p11
I5
sS'wednesday'
p12
I45
sS'17.34'
p13
I7
sS'reliable'
p14
I2
sS'miller'
p15
I1
sS'feasibility'
p16
I1
sS'second'
p17
I24
sS'275'
p18
I1
sS'shrugging'
p19
I1
sS'contributed'
p20
I2
sS'increasing'
p21
I3
sS'admiral'
p22
I2
sS'shocks'
p23
I1
sS'sevens'
p24
I1
sS'reporter'
p25
I1
sS'herd'
p26
I3
sS'reported'
p27
I3
sS'calculate'
p28
I1
sS'elaborate'
p29
I1
sS'reports'
p30
I12
sS'controversy'
p31
I2
sS"i'd"
p32
I1
sS'r150'
p33
I4
sS'military'
p34
I4
sS"i'm"
p35
I3
sS'federations'
p36
I1
sS'criticism'
p37
I1
sS'explained'
p38
I2
sS'replace'
p39
I1
sS'brought'
p40
I5
sS'unit'
p41
I9
sS'pretoria.zairean'
p42
I1
sS'strike'
p43
I3
sS'19,831'
p44
I3
sS'sanachem'
p45
I7
sS'division.nick'
p46
I1
sS'successful'
p47
I4
sS'brings'
p48
I1
sS'quinnell'
p49
I2
sS'hurt'
p50
I2
sS'90'
p51
I1
sS'hold'
p52
I12
sS'95'
p53
I1
sS'97'
p54
I15
sS'96'
p55
I8
sS'intake'
p56
I3
sS'locked'
p57
I1
sS'plunged'
p58
I2
sS'espcially'
p59
I1
sS'example'
p60
I5
sS'household'
p61
I1
sS'areas.south'
p62
I1
sS'currency'
p63
I5
sS'caution'
p64
I9
sS'want'
p65
I6
sS'51.7'
p66
I1
sS'provincial'
p67
I9
sS'travel'
p68
I2
sS'shareholders.friday'
p69
I2
sS'91,717'
p70
I2
sS'frombotswana'
p71
I3
sS'ronnie'
p72
I2
sS'modest'
p73
I4
sS'promotion'
p74
I1
sS'2,350.28note'
p75
I1
sS'effective'
p76
I9
sS'wins'
p77
I3
sS'rand.the'
p78
I4
sS'headquarters'
p79
I3
sS'16.8/17'
p80
I1
sS'keeps'
p81
I1
sS'democratic'
p82
I8
sS'wing'
p83
I4
sS'wine'
p84
I32
sS'623'
p85
I1
sS'620'
p86
I1
sS'fit'
p87
I2
sS'rankings'
p88
I1
sS'fix'
p89
I2
sS'survivors'
p90
I1
sS'end.the'
p91
I2
sS'wales'
p92
I12
sS'enrich'
p93
I1
sS'offer.mobutu'
p94
I1
sS'educating'
p95
I1
sS'effects'
p96
I4
sS'schools'
p97
I3
sS'silver'
p98
I4
sS'competitiveness'
p99
I3
sS'rumour'
p100
I1
sS'represents'
p101
I3
sS'debut'
p102
I5
sS'timeous'
p103
I1
sS'financial'
p104
I22
sS'woes'
p105
I2
sS'series'
p106
I3
sS'27/03'
p107
I11
sS'8,360.16'
p108
I1
sS'displacement'
p109
I1
sS'contracting'
p110
I1
sS'substantially'
p111
I1
sS'whip'
p112
I1
sS'borne'
p113
I1
sS'cents.skye'
p114
I2
sS'encourage'
p115
I1
sS'smk'
p116
I3
sS'rh'
p117
I1
sS'dsa'
p118
I3
sS'stamping'
p119
I2
sS'threatened'
p120
I4
sS'given'
p121
I8
sS'assurer'
p122
I1
sS'brandy.kwv'
p123
I3
sS'exposing'
p124
I1
sS'shelves'
p125
I6
sS'ministries'
p126
I3
sS'lubumbashi'
p127
I5
sS'sanlam'
p128
I4
sS'wast'
p129
I1
sS'175'
p130
I1
sS'171'
p131
I1
sS'exchequer'
p132
I1
sS'safripol'
p133
I1
sS'bourse'
p134
I6
sS'needed'
p135
I10
sS'listed'
p136
I4
sS'sunday.stafford'
p137
I1
sS'bitter'
p138
I2
sS'ranging'
p139
I2
sS'collapse'
p140
I2
sS'325.67'
p141
I1
sS'sunday.bjorkman'
p142
I1
sS'crawl'
p143
I1
sS'270'
p144
I1
sS'showed'
p145
I8
sS'21,107'
p146
I5
sS'nations'
p147
I15
sS'project'
p148
I2
sS'zimbabwean'
p149
I1
sS'feeling'
p150
I2
sS'acquisition'
p151
I12
sS'acclaim'
p152
I1
sS'willingness'
p153
I1
sS'rand.there'
p154
I1
sS'town.traders'
p155
I1
sS'affairs'
p156
I13
sS'2.71'
p157
I1
sS'2.70'
p158
I4
sS'responsible'
p159
I2
sS'recommended'
p160
I2
sS'causing'
p161
I1
sS'doors'
p162
I1
sS'sahnoun.the'
p163
I1
sS'taxation'
p164
I1
sS'36.0mon'
p165
I1
sS'committing'
p166
I1
sS'transactions'
p167
I8
sS'wells'
p168
I1
sS'retaining'
p169
I2
sS'drought'
p170
I1
sS'comment.police'
p171
I1
sS'twickenham'
p172
I1
sS'moonstar'
p173
I1
sS'multiracial'
p174
I1
sS'tuesday.reuters'
p175
I1
sS'bateman'
p176
I2
sS'7.4-8.5'
p177
I1
sS'saying'
p178
I23
sS'departing'
p179
I1
sS'meetings'
p180
I1
sS'nominated'
p181
I1
sS'participate'
p182
I2
sS'richemont'
p183
I1
sS'priv'
p184
I2
sS'touches'
p185
I1
sS'busy'
p186
I2
sS'headline'
p187
I1
sS'zaireans'
p188
I3
sS'rich'
p189
I2
sS'30,883individual'
p190
I2
sS'6,387/400'
p191
I1
sS'volatility'
p192
I1
sS'flanker'
p193
I3
sS'patch'
p194
I1
sS'release'
p195
I9
sS'harwill'
p196
I2
sS'boarded'
p197
I2
sS'fair'
p198
I3
sS'branding'
p199
I2
sS'peripheral'
p200
I1
sS'evolving'
p201
I1
sS'exhanges'
p202
I1
sS'6,958.8'
p203
I2
sS'136.30'
p204
I1
sS'radius'
p205
I1
sS'result'
p206
I11
sS'technicals'
p207
I1
sS'best'
p208
I9
sS'report.the'
p209
I2
sS'113.1retail'
p210
I2
sS'ackerman'
p211
I2
sS'said.under'
p212
I1
sS'score'
p213
I1
sS'said.trading'
p214
I1
sS'preserve'
p215
I1
sS'extend'
p216
I1
sS'40.5'
p217
I1
sS'extent'
p218
I5
sS'debt'
p219
I5
sS'powersharing'
p220
I1
sS'pits'
p221
I1
sS'demanded'
p222
I1
sS'planned'
p223
I9
sS'109.11'
p224
I1
sS'logic'
p225
I1
sS'asked'
p226
I6
sS'37.82'
p227
I2
sS'ceasefire.he'
p228
I1
sS'250'
p229
I2
sS'planned.the'
p230
I1
sS'union'
p231
I11
sS'estates.kwv'
p232
I2
sS'extraction'
p233
I1
sS'wyman'
p234
I1
sS'stadium'
p235
I1
sS'life'
p236
I11
sS'colts.simon'
p237
I1
sS'eastern'
p238
I8
sS'road.it'
p239
I1
sS'kwazulu'
p240
I8
sS'worker'
p241
I2
sS'dave'
p242
I1
sS'doubts'
p243
I2
sS'worked'
p244
I3
sS'commerce'
p245
I1
sS'presidency'
p246
I1
sS'4,562'
p247
I1
sS'1959.mark'
p248
I1
sS'talks.diplomatic'
p249
I1
sS'played'
p250
I17
sS'pressure.south'
p251
I1
sS'player'
p252
I13
sS'waddell'
p253
I1
sS'campaigning'
p254
I2
sS'13.10'
p255
I3
sS'things'
p256
I8
sS'cumulative'
p257
I5
sS'rebellion'
p258
I1
sS'split'
p259
I2
sS'european'
p260
I6
sS'fairly'
p261
I1
sS'marches'
p262
I2
sS'jungle'
p263
I1
sS'forecasts-zagdp1'
p264
I1
sS'marched'
p265
I2
sS'88.5kg'
p266
I1
sS'year.speaking'
p267
I2
sS'meads'
p268
I1
sS'echoed'
p269
I2
sS'government.kabila'
p270
I1
sS'corporate'
p271
I7
sS'27.4-29.3'
p272
I1
sS'spurred'
p273
I1
sS'distribute'
p274
I3
sS'previous'
p275
I6
sS'emphasis'
p276
I1
sS'easy'
p277
I1
sS'east'
p278
I7
sS'municipal'
p279
I1
sS'constitutional.mahlangu'
p280
I1
sS'possible'
p281
I11
sS'firmer'
p282
I5
sS'possibly'
p283
I1
sS'19,677'
p284
I2
sS'birth'
p285
I1
sS'31-year'
p286
I1
sS'desire'
p287
I1
sS'sahnoun'
p288
I18
sS'steps'
p289
I1
sS'grounds.speed'
p290
I1
sS'right'
p291
I5
sS'old'
p292
I14
sS'people'
p293
I31
sS'genbel'
p294
I2
sS'consultants'
p295
I3
sS'warring'
p296
I4
sS'enemies'
p297
I2
sS'ruffled'
p298
I1
sS'creative'
p299
I1
sS'tuesday.sander'
p300
I1
sS'foe'
p301
I2
sS'indication'
p302
I1
sS'annan'
p303
I7
sS'losing'
p304
I7
sS'manufacturing'
p305
I2
sS'statements.a'
p306
I1
sS'homesteads'
p307
I1
sS'said.market'
p308
I1
sS'consulting'
p309
I3
sS'statements'
p310
I1
sS'facility'
p311
I3
sS'son'
p312
I3
sS'wrap'
p313
I1
sS'reducing'
p314
I2
sS'wednesday.nominal'
p315
I1
sS'111kg'
p316
I2
sS'support'
p317
I5
sS'happi'
p318
I1
sS'resulted'
p319
I2
sS'launching'
p320
I3
sS'happy'
p321
I4
sS'offer'
p322
I18
sS'ordinaryperiod'
p323
I3
sS'hemisphere'
p324
I4
sS'understandable'
p325
I1
sS'1997.its'
p326
I1
sS'duel'
p327
I1
sS'90.0-108.0'
p328
I1
sS'unanimous'
p329
I2
sS'passenger'
p330
I7
sS'disgrace'
p331
I1
sS'157'
p332
I2
sS'tournament'
p333
I3
sS'textbook'
p334
I1
sS'dealer'
p335
I5
sS'negotiations'
p336
I38
sS'posting'
p337
I1
sS'floor'
p338
I1
sS'flood'
p339
I1
sS'282nd'
p340
I2
sS'role'
p341
I6
sS'jenkins'
p342
I7
sS'unnecessary.mobutu'
p343
I1
sS'irishmen'
p344
I1
sS'2721'
p345
I1
sS'1999.the'
p346
I1
sS'investec'
p347
I3
sS'invested'
p348
I2
sS'time'
p349
I26
sS'push'
p350
I1
sS'chain'
p351
I3
sS'reopened.spain'
p352
I1
sS'lonrho'
p353
I1
sS'6,365/80'
p354
I1
sS'88kg'
p355
I1
sS'efficiencies'
p356
I1
sS'810'
p357
I1
sS'allegations'
p358
I1
sS'consolidation'
p359
I1
sS'choice'
p360
I3
sS'embark'
p361
I1
sS'gloomy'
p362
I1
sS'cooks'
p363
I1
sS'7,015.8'
p364
I2
sS'skewed'
p365
I1
sS'leave'
p366
I7
sS'settle'
p367
I2
sS'team'
p368
I34
sS'speculation'
p369
I1
sS'assumptions.these'
p370
I4
sS'teamed'
p371
I1
sS'findings'
p372
I2
sS'insignificant'
p373
I2
sS'sigh'
p374
I2
sS'sign'
p375
I2
sS'december.centres'
p376
I1
sS'nedcor.the'
p377
I1
sS'current'
p378
I7
sS'300'
p379
I5
sS'falling'
p380
I8
sS'boost'
p381
I4
sS'drafted'
p382
I1
sS'totalling'
p383
I3
sS'continuing'
p384
I8
sS'understanding'
p385
I3
sS'gesture.tshisekedi'
p386
I1
sS'anchoring'
p387
I1
sS'mid-60s'
p388
I1
sS'redemption'
p389
I1
sS'dusty'
p390
I1
sS'funded'
p391
I1
sS'throughput'
p392
I1
sS'studies'
p393
I4
sS'stranglehold.there'
p394
I1
sS'coinciding'
p395
I1
sS'leadover'
p396
I1
sS'working'
p397
I3
sS'positive'
p398
I8
sS'films'
p399
I2
sS'scope'
p400
I1
sS'africa.kabila'
p401
I2
sS'introducing'
p402
I1
sS'valued'
p403
I3
sS'originally'
p404
I2
sS'facilitating'
p405
I2
sS'believes'
p406
I3
sS'albright'
p407
I1
sS'believed'
p408
I5
sS'larsson'
p409
I2
sS'unveiled'
p410
I1
sS'allowed'
p411
I1
sS'234'
p412
I2
sS'announced.pahad'
p413
I1
sS'stole'
p414
I1
sS'litre'
p415
I1
sS'winter'
p416
I1
sS'fpc'
p417
I3
sS'divided'
p418
I2
sS'spot'
p419
I1
sS'convincingly'
p420
I2
sS'applications'
p421
I2
sS'date'
p422
I38
sS'them.former'
p423
I1
sS'overehads.the'
p424
I1
sS'natural'
p425
I6
sS'sectors'
p426
I5
sS'yielding'
p427
I2
sS'game.in'
p428
I1
sS'st'
p429
I2
sS'sa'
p430
I4
sS'pulled'
p431
I3
sS'sides.the'
p432
I1
sS'6.42'
p433
I1
sS'years'
p434
I30
sS'structuring'
p435
I1
sS'enthusiast.he'
p436
I1
sS'13.73'
p437
I2
sS'internationally'
p438
I2
sS'troubles'
p439
I1
sS'hot'
p440
I1
sS'decreases'
p441
I1
sS'938'
p442
I2
sS'avis'
p443
I1
sS'suspension'
p444
I1
sS'troubled'
p445
I2
sS'decades'
p446
I1
sS'modestly'
p447
I1
sS'5.53'
p448
I4
sS'executors'
p449
I1
sS'matches'
p450
I1
sS'indigenous'
p451
I1
sS'sorted'
p452
I1
sS'matched'
p453
I2
sS'24.4'
p454
I1
sS'24.5'
p455
I2
sS'24.6'
p456
I2
sS'quarter'
p457
I18
sS'square'
p458
I2
sS'revised'
p459
I9
sS'entering'
p460
I3
sS'bouyant'
p461
I2
sS'squared'
p462
I1
sS'seriously'
p463
I1
sS'bln'
p464
I51
sS'internet'
p465
I3
sS'million'
p466
I129
sS'seventh'
p467
I3
sS'possibility'
p468
I3
sS'quite'
p469
I8
sS'complicated'
p470
I6
sS'scarred'
p471
I1
sS'remainder'
p472
I1
sS'training'
p473
I2
sS'undesirable'
p474
I1
sS'iveco'
p475
I2
sS'submit'
p476
I1
sS'yarrow'
p477
I1
sS'vote'
p478
I4
sS'inquiries'
p479
I1
sS'open'
p480
I8
sS'city'
p481
I5
sS'administratively'
p482
I1
sS'indicate'
p483
I1
sS'2'
p484
I13
sS'draft'
p485
I1
sS'structures'
p486
I2
sS'williams'
p487
I4
sS'peak.but'
p488
I2
sS'proving'
p489
I1
sS'goldblatt'
p490
I2
sS'representing'
p491
I4
sS'rival'
p492
I2
sS'counters'
p493
I1
sS'future'
p494
I10
sS'russia'
p495
I2
sS'25-2238'
p496
I11
sS'cowed'
p497
I1
sS'addressing'
p498
I1
sS'illness'
p499
I2
sS'sab'
p500
I4
sS'saa'
p501
I5
sS'obliging'
p502
I2
sS'turned'
p503
I5
sS'bakwanga'
p504
I1
sS'say'
p505
I10
sS'lurking'
p506
I2
sS'minesweepers'
p507
I1
sS'saw'
p508
I9
sS'43rd'
p509
I1
sS'aside'
p510
I3
sS'note'
p511
I2
sS'altered'
p512
I1
sS'opposite'
p513
I1
sS'knew'
p514
I4
sS'knee'
p515
I1
sS'percent.however'
p516
I1
sS'average'
p517
I13
sS'phil'
p518
I1
sS'sale'
p519
I4
sS'managing'
p520
I4
sS'jitters'
p521
I4
sS'refining'
p522
I3
sS'jittery'
p523
I2
sS'atlantic'
p524
I3
sS'19.50'
p525
I8
sS'30,000'
p526
I1
sS'liquidity'
p527
I3
sS'forecasters'
p528
I1
sS'sugarbelt'
p529
I1
sS'fifa'
p530
I1
sS'319.43m3'
p531
I1
sS'surplus'
p532
I2
sS'aggressive'
p533
I3
sS'slot'
p534
I1
sS'slow'
p535
I3
sS'liberation'
p536
I7
sS'going'
p537
I11
sS'posted'
p538
I7
sS'neath'
p539
I1
sS'injury.jonas'
p540
I1
sS'awaiting'
p541
I2
sS'macmed'
p542
I5
sS'losses.the'
p543
I1
sS'hinges'
p544
I1
sS'numsa'
p545
I1
sS'tranches.the'
p546
I4
sS'marred'
p547
I2
sS'vision'
p548
I1
sS'auction.the'
p549
I1
sS'surgery'
p550
I1
sS'defensively'
p551
I1
sS'representatives'
p552
I23
sS'jobs'
p553
I8
sS'africa.in'
p554
I1
sS'goalkickers'
p555
I1
sS'concentrated'
p556
I2
sS'oust'
p557
I3
sS'residence'
p558
I1
sS's'
p559
I17
sS'liqui'
p560
I1
sS"can't"
p561
I3
sS'kisingani'
p562
I1
sS'twin'
p563
I1
sS'anti'
p564
I5
sS'dislocation'
p565
I1
sS'west'
p566
I2
sS'1.745'
p567
I1
sS'raging'
p568
I1
sS'combined'
p569
I2
sS'wants'
p570
I2
sS'enable'
p571
I1
sS'43,038.6government'
p572
I1
sS'78kg'
p573
I1
sS'tribal'
p574
I2
sS'polls'
p575
I1
sS'prominence'
p576
I1
sS'endures'
p577
I2
sS'injury.paul'
p578
I1
sS'overcome'
p579
I1
sS'newspaper'
p580
I1
sS'situation'
p581
I6
sS'engaged'
p582
I3
sS'13.9'
p583
I3
sS'13.5'
p584
I7
sS'13.2'
p585
I1
sS'13.1'
p586
I2
sS'compatriots'
p587
I1
sS'verified'
p588
I4
sS'preparatory'
p589
I2
sS'underestimate'
p590
I1
sS'320'
p591
I4
sS'sterling'
p592
I4
sS'pretoria.the'
p593
I1
sS'edged'
p594
I7
sS'singapore'
p595
I2
sS'boosted'
p596
I2
sS'worldwide.the'
p597
I1
sS'mothballed'
p598
I1
sS'undefined'
p599
I2
sS'mynbou'
p600
I1
sS'costs'
p601
I7
sS'dimension'
p602
I1
sS'26/04/96'
p603
I4
sS'summer'
p604
I1
sS'ngoy'
p605
I1
sS'218'
p606
I1
sS'omissions'
p607
I1
sS'weekly'
p608
I1
sS'rover'
p609
I1
sS'doubt.they'
p610
I2
sS'21s'
p611
I1
sS'jannie'
p612
I1
sS'dark'
p613
I1
sS'vacuum'
p614
I3
sS'world'
p615
I38
sS'sadboc'
p616
I1
sS'championship.but'
p617
I1
sS'claw'
p618
I3
sS'learning'
p619
I1
sS'pressureinstead'
p620
I1
sS'5017'
p621
I1
sS'12.58'
p622
I4
sS'heartlands'
p623
I3
sS'diving'
p624
I1
sS'racial'
p625
I2
sS'statement.holomisa'
p626
I1
sS'35.43'
p627
I1
sS'memories'
p628
I1
sS'noon'
p629
I2
sS'backline'
p630
I1
sS'919'
p631
I1
sS'september.ferreira'
p632
I1
sS'23rd'
p633
I1
sS'915'
p634
I1
sS'operator.market'
p635
I1
sS'francois'
p636
I1
sS'biased'
p637
I1
sS'contingent'
p638
I1
sS'power'
p639
I22
sS'johannesburg.a'
p640
I1
sS'stone'
p641
I1
sS'retraced'
p642
I1
sS'package'
p643
I3
sS'industry'
p644
I29
sS'barings'
p645
I1
sS'act'
p646
I3
sS'68.85'
p647
I1
sS'johnston'
p648
I1
sS'bantu'
p649
I2
sS'goalkicker'
p650
I2
sS'tshisekedi'
p651
I22
sS'image'
p652
I1
sS'homeless'
p653
I1
sS'parties'
p654
I12
sS'wade'
p655
I1
sS'technically'
p656
I2
sS'traded.dealers'
p657
I1
sS'complete'
p658
I4
sS'103.7'
p659
I2
sS'103.2'
p660
I2
sS'gurney'
p661
I1
sS'9.5pct'
p662
I1
sS'technologies'
p663
I3
sS'103.9'
p664
I2
sS'103.8'
p665
I4
sS'buying'
p666
I11
sS"they're"
p667
I1
sS'rush'
p668
I2
sS'october'
p669
I8
sS'16on'
p670
I1
sS'operationally'
p671
I1
sS'dirty'
p672
I1
sS'31.0'
p673
I1
sS'abuses'
p674
I3
sS'agree'
p675
I5
sS'detailed'
p676
I7
sS'gone'
p677
I5
sS'certain'
p678
I2
sS'17.00'
p679
I4
sS'direction'
p680
I7
sS'ar'
p681
I1
sS'federale'
p682
I1
sS'9,868'
p683
I2
sS'tight'
p684
I3
sS'1440'
p685
I1
sS'zacpi1'
p686
I1
sS'congress'
p687
I7
sS'accounts'
p688
I3
sS'cpi'
p689
I4
sS'firebrand'
p690
I1
sS'raphael'
p691
I2
sS'mass'
p692
I1
sS'nelson'
p693
I5
sS'original'
p694
I1
sS'consider'
p695
I1
sS'3.37full'
p696
I1
sS'7.13'
p697
I1
sS'caused'
p698
I3
sS'7.19'
p699
I2
sS'ferreira'
p700
I15
sS'tours'
p701
I1
sS'restated'
p702
I1
sS'partial'
p703
I1
sS'1989.in'
p704
I2
sS'tv'
p705
I1
sS'tait'
p706
I1
sS'tj'
p707
I1
sS'dressing'
p708
I1
sS'paying'
p709
I1
sS'appointment'
p710
I5
sS'returned'
p711
I5
sS'102kg'
p712
I1
sS'diary'
p713
I1
sS'manageable'
p714
I1
sS'cable'
p715
I1
sS'joined'
p716
I3
sS'large'
p717
I6
sS'scrapping'
p718
I1
sS'days.talks'
p719
I1
sS'small'
p720
I7
sS'24.0-24.6'
p721
I1
sS'sank'
p722
I3
sS'199'
p723
I1
sS'198'
p724
I1
sS'190'
p725
I1
sS'192'
p726
I1
sS'past'
p727
I18
sS'healey'
p728
I1
sS'25-year'
p729
I5
sS'kempen'
p730
I4
sS'investment'
p731
I8
sS'richard'
p732
I1
sS'section'
p733
I2
sS'193.5'
p734
I1
sS'contrast'
p735
I3
sS'26,freightliner'
p736
I1
sS'hours'
p737
I3
sS'november'
p738
I1
sS'transformation'
p739
I2
sS'tuesday.they'
p740
I2
sS'268.85'
p741
I1
sS'experience'
p742
I4
sS'advtech'
p743
I1
sS'prior'
p744
I2
sS'defectors'
p745
I1
sS'social'
p746
I1
sS'action'
p747
I4
sS'luck'
p748
I1
sS'followed'
p749
I5
sS'alred'
p750
I1
sS'petroleum'
p751
I2
sS'6'
p752
I4
sS'initiated'
p753
I1
sS'company'
p754
I55
sS'empireamic'
p755
I1
sS'keeping'
p756
I1
sS'sent'
p757
I8
sS'morgan'
p758
I1
sS'stated'
p759
I5
sS'accept'
p760
I2
sS'states'
p761
I3
sS'lesotho'
p762
I5
sS'sense'
p763
I2
sS'huge'
p764
I3
sS'respective'
p765
I2
sS'equities'
p766
I13
sS'dismissed'
p767
I1
sS'earnings'
p768
I30
sS'year.retail'
p769
I1
sS'plant'
p770
I2
sS'lanky'
p771
I1
sS'intended'
p772
I3
sS'1.76m'
p773
I3
sS'economy.it'
p774
I1
sS'plane'
p775
I8
sS'acquisitions'
p776
I12
sS'mcgeechan'
p777
I3
sS'register'
p778
I1
sS'11.4'
p779
I4
sS'broadcasting'
p780
I3
sS'114.5kg'
p781
I1
sS'media'
p782
I11
sS'trade'
p783
I48
sS'embassy'
p784
I3
sS'scott'
p785
I3
sS'signs'
p786
I5
sS'494'
p787
I1
sS'roots'
p788
I1
sS'493'
p789
I2
sS'14.75/15.75'
p790
I2
sS'rapidly'
p791
I1
sS'fromstrategic'
p792
I1
sS'travelling'
p793
I2
sS'focussed'
p794
I1
sS'repayment'
p795
I2
sS'trc'
p796
I3
sS'investigators'
p797
I1
sS'management.dealers'
p798
I1
sS'begged'
p799
I1
sS'62-man'
p800
I1
sS'reduce'
p801
I2
sS'scotched'
p802
I1
sS'eve'
p803
I4
sS'898/920'
p804
I1
sS'operation'
p805
I2
sS'really'
p806
I6
sS'embattled'
p807
I3
sS'missed'
p808
I2
sS'blacks'
p809
I3
sS'mockery'
p810
I1
sS'16.39'
p811
I8
sS'valeurs'
p812
I1
sS'research'
p813
I6
sS'6,360/75'
p814
I1
sS'269.50'
p815
I1
sS'nervously'
p816
I1
sS'belief'
p817
I1
sS'risen'
p818
I1
sS'drifting'
p819
I1
sS'porcelain'
p820
I1
sS'10.73'
p821
I4
sS'driven'
p822
I1
sS'owners'
p823
I1
sS'retained'
p824
I1
sS'service'
p825
I4
sS'contingency'
p826
I2
sS'11.76'
p827
I1
sS'6.09'
p828
I2
sS'major'
p829
I31
sS'forwards'
p830
I2
sS'u.s.markets'
p831
I1
sS'contender'
p832
I1
sS'number'
p833
I17
sS'96total'
p834
I1
sS's.walker'
p835
I1
sS'jet'
p836
I5
sS'frankel'
p837
I2
sS'34,241.0short-term'
p838
I1
sS'threatening'
p839
I1
sS'excitable'
p840
I1
sS'15.806-month'
p841
I4
sS'relationship'
p842
I4
sS'immediate'
p843
I3
sS'servgro'
p844
I4
sS'repurchases'
p845
I1
sS'unrealistic'
p846
I1
sS'aad'
p847
I2
sS'determined'
p848
I3
sS'added.at'
p849
I1
sS'reorganisation'
p850
I1
sS'sell'
p851
I8
sS'7.73ttl'
p852
I4
sS'317.08private'
p853
I1
sS'historic'
p854
I2
sS'internal'
p855
I2
sS'month.hanekom'
p856
I2
sS'83.8'
p857
I2
sS'play'
p858
I5
sS'singles'
p859
I9
sS'virus'
p860
I2
sS'plan'
p861
I1
sS'darts'
p862
I12
sS'4.4165/4195'
p863
I1
sS'cover'
p864
I1
sS'barred'
p865
I1
sS'barrel'
p866
I1
sS'protege'
p867
I1
sS'attacking'
p868
I1
sS'aeci'
p869
I2
sS'era.a'
p870
I1
sS'gold'
p871
I24
sS'session'
p872
I7
sS'freight'
p873
I8
sS'impact'
p874
I14
sS'indicator'
p875
I9
sS'failed'
p876
I2
sS'wayne'
p877
I4
sS'equity'
p878
I5
sS'giants'
p879
I1
sS'rule.seen'
p880
I1
sS'banned'
p881
I3
sS'problem.the'
p882
I1
sS'client.on'
p883
I3
sS'15.06prime'
p884
I1
sS'reporters'
p885
I5
sS'banner'
p886
I1
sS'2.872'
p887
I1
sS'winterbottom'
p888
I1
sS'banking'
p889
I3
sS'said.according'
p890
I1
sS'river'
p891
I1
sS'approaching'
p892
I2
sS'set'
p893
I37
sS'grintek'
p894
I1
sS'him.the'
p895
I1
sS'98kg'
p896
I1
sS'sea'
p897
I1
sS'6,085.18'
p898
I1
sS'regulator'
p899
I4
sS'spirits'
p900
I6
sS'currently'
p901
I11
sS'319.35'
p902
I1
sS'election.alexander'
p903
I1
sS'avoidance'
p904
I4
sS'15th'
p905
I1
sS'europe'
p906
I3
sS'targeted'
p907
I1
sS'90kg'
p908
I1
sS'postponement'
p909
I1
sS'death'
p910
I1
sS'dividend'
p911
I6
sS'survey.the'
p912
I2
sS'prospects'
p913
I2
sS'improved'
p914
I6
sS'influential'
p915
I1
sS'1.67'
p916
I9
sS'connection'
p917
I1
sS"we've"
p918
I4
sS'loan'
p919
I2
sS'community'
p920
I2
sS'scottish'
p921
I2
sS'6,972.52'
p922
I1
sS'6,393'
p923
I1
sS'target.reports'
p924
I1
sS'monthly'
p925
I5
sS'acceptance'
p926
I1
sS'hitting'
p927
I2
sS'boys.number'
p928
I1
sS'control.south'
p929
I1
sS'firm'
p930
I32
sS'resting'
p931
I6
sS'fund'
p932
I9
sS'representative'
p933
I3
sS'7.2707/2800'
p934
I2
sS'towns'
p935
I1
sS'dwyer'
p936
I2
sS'straight'
p937
I2
sS'mln'
p938
I4
sS'budget'
p939
I15
sS'8,179.8'
p940
I2
sS'receive'
p941
I2
sS'pressed'
p942
I1
sS'dominic'
p943
I1
sS'scheduled'
p944
I11
sS'imfdeposit'
p945
I1
sS'hoping'
p946
I3
sS'von'
p947
I4
sS'vow'
p948
I1
sS'comission'
p949
I1
sS'fibers'
p950
I1
sS'1.3current'
p951
I4
sS'875'
p952
I1
sS'actuaries'
p953
I2
sS'read'
p954
I1
sS'virtually'
p955
I4
sS'survey'
p956
I10
sS'dealer.dealers'
p957
I1
sS'dooley'
p958
I1
sS'comprehensive'
p959
I1
sS'levels'
p960
I13
sS'recent'
p961
I14
sS'plessis'
p962
I6
sS'delisting'
p963
I1
sS'involves'
p964
I2
sS'johan'
p965
I1
sS'17,060.4'
p966
I1
sS'boer'
p967
I1
sS'ousting'
p968
I2
sS'79,350.72'
p969
I1
sS'pillars'
p970
I1
sS'location'
p971
I4
sS'communiques'
p972
I2
sS'submissions'
p973
I2
sS'surprised'
p974
I5
sS'1.78m'
p975
I6
sS'australia'
p976
I6
sS'victims'
p977
I1
sS'demands'
p978
I3
sS'couple'
p979
I2
sS'suffering'
p980
I6
sS'entrenched'
p981
I1
sS'projects'
p982
I3
sS'formal'
p983
I2
sS'manhandling'
p984
I2
sS'naledi'
p985
I2
sS'consensus'
p986
I29
sS'continue'
p987
I10
sS'yields'
p988
I2
sS'secunda'
p989
I1
sS'methods'
p990
I2
sS'curious'
p991
I1
sS'associationof'
p992
I1
sS'months.against'
p993
I1
sS'modalites'
p994
I1
sS'pollak.the'
p995
I2
sS'thursday.south'
p996
I2
sS'behave'
p997
I2
sS'agoequities'
p998
I1
sS'4.81'
p999
I1
sS'ba'
p1000
I8
sS'bb'
p1001
I4
sS'agreement'
p1002
I12
sS'bv'
p1003
I2
sS'relating'
p1004
I1
sS'dilution'
p1005
I1
sS'snowballed'
p1006
I3
sS'115.6'
p1007
I4
sS'80.0'
p1008
I1
sS'7.2504/2598'
p1009
I2
sS'awaited'
p1010
I1
sS'vaal'
p1011
I1
sS'2.06m'
p1012
I1
sS'9.93'
p1013
I4
sS'primarily'
p1014
I1
sS'repaid'
p1015
I2
sS'16.10'
p1016
I4
sS'16.15'
p1017
I1
sS'spending'
p1018
I1
sS'specifically'
p1019
I2
sS'thursday.bond'
p1020
I1
sS'suit'
p1021
I1
sS'opens'
p1022
I1
sS'considerably'
p1023
I2
sS'6.1inflation'
p1024
I4
sS'relaxed'
p1025
I1
sS'talks.deputy'
p1026
I1
sS'4.4200'
p1027
I1
sS'link'
p1028
I1
sS'westhuizen'
p1029
I1
sS'line'
p1030
I7
sS'10.16'
p1031
I4
sS'redeemed'
p1032
I2
sS'uk'
p1033
I1
sS'apiece'
p1034
I1
sS'marseille'
p1035
I1
sS'defined'
p1036
I1
sS'mines.anglo'
p1037
I1
sS'influence'
p1038
I3
sS'cheap.the'
p1039
I1
sS'honeyfields'
p1040
I4
sS'958'
p1041
I2
sS'edwards'
p1042
I1
sS'105.2'
p1043
I2
sS'points'
p1044
I37
sS'jci'
p1045
I3
sS'unadjusted'
p1046
I1
sS'developmental'
p1047
I1
sS'scrum'
p1048
I2
sS'area.but'
p1049
I1
sS'15.203-month'
p1050
I1
sS'sides'
p1051
I12
sS'wednesday.reuters'
p1052
I1
sS'ago'
p1053
I14
sS'land'
p1054
I3
sS'age'
p1055
I37
sS'walked'
p1056
I1
sS'summit'
p1057
I4
sS'came'
p1058
I16
sS'fresh'
p1059
I1
sS'having'
p1060
I4
sS'said.analysts'
p1061
I2
sS'reuters.the'
p1062
I1
sS'incorporate'
p1063
I1
sS'results'
p1064
I18
sS'existing'
p1065
I7
sS'softer'
p1066
I2
sS'broader'
p1067
I1
sS'shrugged'
p1068
I1
sS'interest.production'
p1069
I1
sS'simonstown'
p1070
I2
sS'longstanding'
p1071
I1
sS'concerned'
p1072
I1
sS'01/04/97'
p1073
I4
sS'young'
p1074
I2
sS'send'
p1075
I3
sS'rejoined'
p1076
I1
sS'resources'
p1077
I1
sS'retire'
p1078
I1
sS'specific'
p1079
I1
sS'continued'
p1080
I11
sS'market.he'
p1081
I2
sS'lynda'
p1082
I1
sS'marry'
p1083
I1
sS'4.4210/4240'
p1084
I1
sS"they've"
p1085
I1
sS'try'
p1086
I6
sS'race'
p1087
I3
sS'jobber'
p1088
I1
sS'pledge'
p1089
I1
sS'products.it'
p1090
I1
sS'thursday.reuters'
p1091
I1
sS'wheat'
p1092
I4
sS'index'
p1093
I42
sS'twine'
p1094
I4
sS'province.industry'
p1095
I1
sS'anton'
p1096
I2
sS'expressed'
p1097
I3
sS'richmond'
p1098
I1
sS'6.4wed'
p1099
I1
sS'indian'
p1100
I1
sS'1402'
p1101
I1
sS'firms'
p1102
I2
sS'1400'
p1103
I2
sS'led'
p1104
I9
sS'90-day'
p1105
I4
sS'690'
p1106
I1
sS'resisting'
p1107
I1
sS'licence'
p1108
I3
sS'consideration'
p1109
I3
sS'blacks.props'
p1110
I1
sS'cts'
p1111
I10
sS'technical'
p1112
I6
sS'involved'
p1113
I11
sS'cronulla'
p1114
I1
sS'resulting'
p1115
I2
sS'residents'
p1116
I4
sS'makes'
p1117
I3
sS'springboks'
p1118
I5
sS'4,70'
p1119
I1
sS'scania'
p1120
I2
sS'7.56'
p1121
I4
sS'nibbling'
p1122
I2
sS'confidence'
p1123
I5
sS'cheered'
p1124
I1
sS'gregor'
p1125
I5
sS'ministers'
p1126
I2
sS'guideline'
p1127
I2
sS'doubt'
p1128
I2
sS'stage.as'
p1129
I1
sS'1995.offshore'
p1130
I1
sS'occurred'
p1131
I1
sS'dealings'
p1132
I5
sS'carrying'
p1133
I4
sS'sharply'
p1134
I4
sS'payrolls'
p1135
I2
sS'lome.the'
p1136
I1
sS'customer'
p1137
I1
sS'15.44'
p1138
I1
sS'insists'
p1139
I1
sS'benefitting'
p1140
I1
sS'groups.lediga'
p1141
I1
sS'saba'
p1142
I1
sS'hlabangane'
p1143
I1
sS'weaker'
p1144
I4
sS'process'
p1145
I12
sS'lock'
p1146
I5
sS'benz'
p1147
I2
sS'high'
p1148
I26
sS'delay'
p1149
I6
sS'1.94m'
p1150
I1
sS'84kg'
p1151
I1
sS'establishment'
p1152
I1
sS'await'
p1153
I1
sS'halted'
p1154
I4
sS'weighed'
p1155
I2
sS'back.wings'
p1156
I1
sS'element'
p1157
I1
sS'allow'
p1158
I1
sS'pyramids'
p1159
I1
sS'132.4'
p1160
I2
sS'counted'
p1161
I1
sS'marks.short'
p1162
I3
sS'producer'
p1163
I7
sS'produces'
p1164
I2
sS'produced'
p1165
I3
sS'operative'
p1166
I19
sS'ltd.dealers'
p1167
I1
sS'chosen'
p1168
I2
sS'stalled'
p1169
I1
sS'7,943'
p1170
I1
sS's.african'
p1171
I4
sS'outlined'
p1172
I2
sS'thursday.however'
p1173
I1
sS'stabilise'
p1174
I2
sS'intelligent'
p1175
I1
sS'02/04'
p1176
I3
sS'merge'
p1177
I1
sS'truth'
p1178
I3
sS'shortage'
p1179
I9
sS'accompanied'
p1180
I1
sS'gary'
p1181
I1
sS'societe'
p1182
I2
sS'sportsman'
p1183
I1
sS'static'
p1184
I3
sS'252-238'
p1185
I3
sS'farhan.according'
p1186
I2
sS'dominated'
p1187
I4
sS'favours'
p1188
I1
sS'waters'
p1189
I3
sS'index.adrian'
p1190
I1
sS'refundability'
p1191
I1
sS'durban'
p1192
I2
sS'surely'
p1193
I1
sS'regulatory'
p1194
I5
sS'dismantled'
p1195
I1
sS'david'
p1196
I3
sS'length'
p1197
I1
sS'davis'
p1198
I7
sS'kendall'
p1199
I2
sS'450'
p1200
I2
sS'scene'
p1201
I1
sS'owned'
p1202
I6
sS'alleged'
p1203
I3
sS'blows'
p1204
I1
sS'fascinating'
p1205
I1
sS'interests'
p1206
I6
sS'accompany'
p1207
I1
sS'stars'
p1208
I1
sS'vouch'
p1209
I4
sS'126kg'
p1210
I1
sS'18,531'
p1211
I3
sS'haven'
p1212
I1
sS'colleagues'
p1213
I1
sS'needs.kasrils'
p1214
I1
sS'warfare'
p1215
I1
sS'johannesburg.but'
p1216
I1
sS'137.50'
p1217
I1
sS'roberts'
p1218
I3
sS'110.0'
p1219
I2
sS'110.2'
p1220
I2
sS'110.9'
p1221
I2
sS'country'
p1222
I37
sS'reprieved'
p1223
I1
sS'rule.the'
p1224
I1
sS'allardice'
p1225
I1
sS'27.20'
p1226
I1
sS'partnership'
p1227
I2
sS'catt.fly'
p1228
I1
sS'selectors'
p1229
I3
sS'subsidiaries.it'
p1230
I1
sS'marais'
p1231
I1
sS'power.zairean'
p1232
I1
sS'mille'
p1233
I2
sS'lipton'
p1234
I2
sS'accuracy'
p1235
I4
sS'worldwide'
p1236
I5
sS'15.54'
p1237
I2
sS'15.50'
p1238
I3
sS'63,669'
p1239
I2
sS'east.a'
p1240
I1
sS'stronger'
p1241
I11
sS'face'
p1242
I10
sS'brey'
p1243
I1
sS'fact'
p1244
I3
sS'bring'
p1245
I5
sS'rough'
p1246
I1
sS'economist'
p1247
I7
sS'decade'
p1248
I3
sS'65,000'
p1249
I1
sS'bad.they'
p1250
I1
sS'roelf'
p1251
I1
sS'quickened'
p1252
I1
sS'maputo'
p1253
I1
sS'jan'
p1254
I28
sS'planted'
p1255
I2
sS'tape'
p1256
I1
sS'hope'
p1257
I4
sS'tests.scrum'
p1258
I1
sS'means'
p1259
I4
sS'1.88m'
p1260
I1
sS'following'
p1261
I14
sS'committees'
p1262
I1
sS'comprising'
p1263
I1
sS'taxed'
p1264
I2
sS'strengthened'
p1265
I2
sS'330.69'
p1266
I4
sS'austrian'
p1267
I1
sS'holomisa'
p1268
I2
sS'melrose'
p1269
I1
sS'1645'
p1270
I1
sS'33.75'
p1271
I1
sS'kofi'
p1272
I4
sS'invited'
p1273
I1
sS'30.90private'
p1274
I1
sS'1.72full'
p1275
I1
sS'drug'
p1276
I1
sS'ltd.this'
p1277
I1
sS'figures'
p1278
I22
sS'bristol'
p1279
I1
sS'distribution.no'
p1280
I1
sS'adjusted'
p1281
I3
sS'malcolm'
p1282
I1
sS'clohessy'
p1283
I2
sS'allocated'
p1284
I1
sS'winning'
p1285
I3
sS'8.1'
p1286
I4
sS'8.0'
p1287
I4
sS'55.0wed'
p1288
I1
sS'8.5'
p1289
I6
sS'8.4'
p1290
I2
sS'8.7'
p1291
I4
sS'8.6'
p1292
I2
sS'8.9'
p1293
I4
sS'8.8'
p1294
I5
sS'richards'
p1295
I1
sS'recurring'
p1296
I1
sS'7.2410/2512'
p1297
I1
sS'spain'
p1298
I1
sS'tonne'
p1299
I3
sS'statement.according'
p1300
I1
sS'fallacious'
p1301
I2
sS'62.4'
p1302
I2
sS'omni'
p1303
I14
sS'fault.trading'
p1304
I1
sS'diversification'
p1305
I1
sS'delaying'
p1306
I1
sS'site'
p1307
I1
sS'vs'
p1308
I40
sS'optimistic'
p1309
I2
sS'newsroom'
p1310
I94
sS'championship.enqvist'
p1311
I1
sS'period.economists'
p1312
I1
sS'withstanding'
p1313
I1
sS'gibbs'
p1314
I2
sS'2,018'
p1315
I1
sS'process.blacks'
p1316
I1
sS'sada'
p1317
I1
sS'ball'
p1318
I3
sS'raymond'
p1319
I1
sS'siphoning'
p1320
I1
sS'forecasts'
p1321
I8
sS'expand'
p1322
I1
sS'colour'
p1323
I1
sS'patterns'
p1324
I1
sS'1.29'
p1325
I2
sS'command'
p1326
I1
sS'350'
p1327
I5
sS'1.21'
p1328
I4
sS'audio'
p1329
I1
sS'reefs'
p1330
I1
sS'restructure'
p1331
I2
sS'world.ranked'
p1332
I1
sS'hosken'
p1333
I1
sS'minbute'
p1334
I1
sS'1997/98'
p1335
I3
sS'paul'
p1336
I10
sS'web'
p1337
I1
sS'0.3-0.7'
p1338
I1
sS'increased'
p1339
I12
sS'government'
p1340
I87
sS'famously'
p1341
I1
sS'1995/96'
p1342
I1
sS'zimbabwe'
p1343
I3
sS'belgium'
p1344
I1
sS'piet'
p1345
I1
sS'45.90'
p1346
I1
sS'chairs'
p1347
I1
sS'replacement'
p1348
I2
sS'poor'
p1349
I4
sS'liquidation'
p1350
I1
sS'2000budget'
p1351
I1
sS'252'
p1352
I4
sS'mozambique'
p1353
I2
sS'kamanda'
p1354
I2
sS'transport'
p1355
I6
sS'kloof'
p1356
I1
sS'literally'
p1357
I3
sS'does'
p1358
I6
sS'schedule'
p1359
I5
sS'shareholdings'
p1360
I1
sS'tries.tony'
p1361
I1
sS'7,927'
p1362
I1
sS'pressure'
p1363
I19
sS'r'
p1364
I1
sS'loans'
p1365
I6
sS'stage'
p1366
I7
sS'gained'
p1367
I6
sS'debentures'
p1368
I3
sS'25.8'
p1369
I1
sS'holdings'
p1370
I19
sS'seeds'
p1371
I1
sS'dsa.its'
p1372
I1
sS'concession'
p1373
I1
sS'revise'
p1374
I1
sS'alliance'
p1375
I10
sS'assess'
p1376
I1
sS'queensland'
p1377
I2
sS'parentage'
p1378
I1
sS'sander'
p1379
I2
sS'housing'
p1380
I1
sS'9.8'
p1381
I5
sS'9.9'
p1382
I1
sS'croeser'
p1383
I2
sS'9.5'
p1384
I3
sS'9.7'
p1385
I4
sS'9.0'
p1386
I1
sS'9.2'
p1387
I6
sS'9.3'
p1388
I3
sS'building'
p1389
I1
sS'morale.allan'
p1390
I1
sS'upholders'
p1391
I1
sS'delivery'
p1392
I2
sS'convergence'
p1393
I1
sS'economy.current'
p1394
I1
sS'84.5'
p1395
I1
sS'places'
p1396
I1
sS'official'
p1397
I23
sS'excitement'
p1398
I1
sS'placed'
p1399
I2
sS'france.modise'
p1400
I1
sS'problem'
p1401
I3
sS'quarterof'
p1402
I1
sS'limitednote'
p1403
I1
sS'irish'
p1404
I2
sS'ltd.but'
p1405
I1
sS'slowing'
p1406
I4
sS'2,016.5foreign'
p1407
I1
sS'ing'
p1408
I3
sS'compared'
p1409
I13
sS'nonetheless'
p1410
I1
sS'agriculture'
p1411
I3
sS'compares'
p1412
I6
sS'details'
p1413
I9
sS'securities.lediga'
p1414
I1
sS'21.2mon'
p1415
I1
sS'15.323-month'
p1416
I1
sS'monday'
p1417
I12
sS'dismantle'
p1418
I1
sS'chance'
p1419
I2
sS'exposure'
p1420
I3
sS'rule'
p1421
I2
sS'torestrain'
p1422
I1
sS'compete'
p1423
I1
sS'pension'
p1424
I3
sS'rural'
p1425
I1
sS'consolidated'
p1426
I1
sS'16.55'
p1427
I5
sS'16.50'
p1428
I2
sS'pregtech'
p1429
I1
sS'situation.the'
p1430
I1
sS'regan'
p1431
I1
sS'worth'
p1432
I22
sS'1.6capital'
p1433
I4
sS'sellers'
p1434
I4
sS'15.78'
p1435
I1
sS'15.79'
p1436
I5
sS'8,239.1.next'
p1437
I1
sS'15.75'
p1438
I2
sS'electronics'
p1439
I4
sS'ctspay'
p1440
I3
sS"we'll"
p1441
I2
sS'ceased'
p1442
I1
sS'handout'
p1443
I1
sS'announced'
p1444
I22
sS'indices'
p1445
I2
sS'nthato'
p1446
I1
sS'293'
p1447
I2
sS'phones'
p1448
I1
sS'established'
p1449
I3
sS'settlement'
p1450
I4
sS'decisions'
p1451
I2
sS'consequent'
p1452
I1
sS'isles'
p1453
I4
sS'reconstruction'
p1454
I1
sS'toll'
p1455
I2
sS'today.wolfgang'
p1456
I1
sS'told'
p1457
I34
sS'conglomerate'
p1458
I1
sS'levels.austin'
p1459
I1
sS'ngbanda'
p1460
I12
sS'obtained'
p1461
I7
sS'watchers'
p1462
I1
sS'items'
p1463
I3
sS'study'
p1464
I1
sS'0.34'
p1465
I2
sS'envoy'
p1466
I12
sS'0.31'
p1467
I1
sS'pooling'
p1468
I1
sS'smoke'
p1469
I1
sS'2,341.1'
p1470
I4
sS'june.in'
p1471
I1
sS'said.applications'
p1472
I1
sS'highly'
p1473
I1
sS'thursday'
p1474
I62
sS'said.another'
p1475
I3
sS'total'
p1476
I20
sS'negative'
p1477
I6
sS'315.72'
p1478
I1
sS'foster'
p1479
I1
sS'wednesday.to'
p1480
I1
sS'71.2'
p1481
I3
sS'legislation.cosatu'
p1482
I1
sS'championships'
p1483
I1
sS'overrun'
p1484
I3
sS'1990'
p1485
I12
sS'1993'
p1486
I7
sS'1992'
p1487
I1
sS'1995'
p1488
I23
sS'1994'
p1489
I12
sS'1997'
p1490
I44
sS'1996'
p1491
I61
sS'1999'
p1492
I4
sS'1998'
p1493
I12
sS'work'
p1494
I2
sS'erf'
p1495
I2
sS'era'
p1496
I1
sS'spendthrift'
p1497
I1
sS'untangling'
p1498
I1
sS'rand.some'
p1499
I1
sS'2.87'
p1500
I1
sS'indicated'
p1501
I6
sS'india'
p1502
I1
sS'550'
p1503
I3
sS'recovery'
p1504
I14
sS'provide'
p1505
I3
sS'18full'
p1506
I3
sS'interview'
p1507
I3
sS'ordinary'
p1508
I5
sS'resignation'
p1509
I1
sS'offshore'
p1510
I4
sS'earlier'
p1511
I18
sS'lotteries'
p1512
I2
sS'customs'
p1513
I5
sS'law'
p1514
I1
sS'arch'
p1515
I1
sS'appreciate'
p1516
I1
sS'supermarkets'
p1517
I1
sS'davies'
p1518
I6
sS'corvettes'
p1519
I3
sS'order'
p1520
I5
sS'triggering'
p1521
I1
sS'112.3'
p1522
I4
sS'112.7'
p1523
I2
sS'office'
p1524
I4
sS'hectare'
p1525
I1
sS'slimmed'
p1526
I1
sS'satisfied'
p1527
I1
sS'6.7'
p1528
I2
sS'5,150'
p1529
I2
sS'plastics'
p1530
I3
sS'12.5'
p1531
I1
sS'6.0'
p1532
I1
sS'icons'
p1533
I1
sS'appeasement'
p1534
I1
sS'production'
p1535
I4
sS'versus'
p1536
I2
sS'affected'
p1537
I3
sS'safe'
p1538
I1
sS'expected.but'
p1539
I2
sS'break'
p1540
I14
sS'86.5kg'
p1541
I1
sS'bank'
p1542
I33
sS'karaha'
p1543
I10
sS'1.02'
p1544
I1
sS'1.05'
p1545
I1
sS'rocky'
p1546
I2
sS'375'
p1547
I1
sS'lifted'
p1548
I3
sS'limit.south'
p1549
I1
sS'councils'
p1550
I2
sS'ratepayers'
p1551
I1
sS'africa.asked'
p1552
I1
sS'network'
p1553
I3
sS'1996/97'
p1554
I2
sS'hooker'
p1555
I2
sS'anc.tutu'
p1556
I1
sS'depots'
p1557
I1
sS'figures.foreigners'
p1558
I1
sS'gauteng'
p1559
I10
sS'recovering'
p1560
I2
sS'created'
p1561
I2
sS'refugee'
p1562
I2
sS'oppose'
p1563
I1
sS'0.3769/3773'
p1564
I2
sS'41,020.2the'
p1565
I1
sS'footsteps'
p1566
I1
sS'electronic'
p1567
I1
sS'14.92eskom'
p1568
I1
sS'1993gdp'
p1569
I4
sS'opportunity'
p1570
I4
sS'takeovers'
p1571
I1
sS'protracted'
p1572
I2
sS'approximately'
p1573
I2
sS'rates'
p1574
I28
sS'john'
p1575
I4
sS'damaging'
p1576
I2
sS'pinpointing'
p1577
I1
sS'streets'
p1578
I1
sS'diversified'
p1579
I2
sS'rejected'
p1580
I10
sS'wasted'
p1581
I1
sS'target'
p1582
I1
sS'ltd.marinus'
p1583
I1
sS'negotiator'
p1584
I3
sS'iron'
p1585
I1
sS'powers'
p1586
I1
sS'96.065'
p1587
I1
sS'portraits'
p1588
I1
sS'500,000'
p1589
I1
sS'30.4'
p1590
I1
sS'manner'
p1591
I1
sS'vigorous'
p1592
I2
sS'delcon'
p1593
I2
sS'forced'
p1594
I2
sS'strength'
p1595
I2
sS'genuine'
p1596
I2
sS'magnus'
p1597
I1
sS'forces'
p1598
I18
sS'transnet'
p1599
I1
sS'month.latest'
p1600
I1
sS'400,000'
p1601
I1
sS'extending'
p1602
I2
sS'germany'
p1603
I1
sS'bracken'
p1604
I1
sS'rand.cullinan'
p1605
I1
sS'accounted'
p1606
I3
sS'19.25bank'
p1607
I4
sS'voting'
p1608
I1
sS'reserve'
p1609
I24
sS'7.2'
p1610
I3
sS'7.3'
p1611
I2
sS'7.1'
p1612
I3
sS'7.7'
p1613
I7
sS'subtle'
p1614
I1
sS'7.9'
p1615
I1
sS'enjoyed'
p1616
I2
sS'sharks'
p1617
I1
sS'6.05capital'
p1618
I4
sS'skye'
p1619
I8
sS'hrc'
p1620
I1
sS'dallaglio.rob'
p1621
I1
sS'preferred'
p1622
I1
sS'10-10-96'
p1623
I4
sS'du'
p1624
I5
sS'dr'
p1625
I2
sS'410'
p1626
I1
sS'province.sahnoun'
p1627
I1
sS'secretary'
p1628
I7
sS'projections'
p1629
I4
sS'discussions'
p1630
I20
sS'110.1'
p1631
I2
sS'away'
p1632
I10
sS'thursday.this'
p1633
I1
sS'cooperation'
p1634
I1
sS'drawn'
p1635
I5
sS'terms'
p1636
I15
sS'wa'
p1637
I1
sS'handful'
p1638
I1
sS'wj'
p1639
I1
sS'steet'
p1640
I1
sS'15.18'
p1641
I7
sS'travellers'
p1642
I3
sS'clues'
p1643
I1
sS'15.13'
p1644
I4
sS'15.10'
p1645
I2
sS'15.16'
p1646
I2
sS'15.15'
p1647
I3
sS'received'
p1648
I1
sS'1998.the'
p1649
I1
sS'ill'
p1650
I3
sS'182.34'
p1651
I1
sS'dealer.next'
p1652
I1
sS'60.0'
p1653
I1
sS'widen'
p1654
I1
sS'379.49'
p1655
I1
sS'massive'
p1656
I4
sS'tony'
p1657
I4
sS'sixmonths'
p1658
I1
sS'telecommunications'
p1659
I2
sS'refurbished'
p1660
I1
sS"r'million"
p1661
I2
sS'duties'
p1662
I2
sS'families'
p1663
I1
sS'poring'
p1664
I1
sS'0.14'
p1665
I1
sS'0.11'
p1666
I2
sS'0.13'
p1667
I1
sS'0.19'
p1668
I1
sS'eskom'
p1669
I1
sS'inhibit'
p1670
I1
sS'publicly'
p1671
I1
sS'launches'
p1672
I2
sS'air'
p1673
I2
sS'brandy.other'
p1674
I2
sS'applies'
p1675
I1
sS'voice'
p1676
I1
sS'launched'
p1677
I4
sS'comparative'
p1678
I1
sS'confirmed'
p1679
I3
sS'said.at'
p1680
I2
sS'perform'
p1681
I4
sS'apparently'
p1682
I2
sS'monarch'
p1683
I1
sS'independent'
p1684
I9
sS'nil'
p1685
I9
sS'rain'
p1686
I1
sS'hand'
p1687
I5
sS'kept'
p1688
I1
sS'scenario'
p1689
I1
sS'1600'
p1690
I4
sS'1974'
p1691
I3
sS'eps'
p1692
I4
sS'contact'
p1693
I1
sS'centres'
p1694
I1
sS'unified'
p1695
I1
sS'quoted'
p1696
I6
sS'target.in'
p1697
I1
sS'bandied'
p1698
I1
sS'mohamed'
p1699
I9
sS'8.12'
p1700
I1
sS'adding'
p1701
I4
sS'similarities'
p1702
I1
sS'fared'
p1703
I2
sS'passive'
p1704
I5
sS'spread'
p1705
I4
sS'board'
p1706
I7
sS'player.sweden'
p1707
I1
sS'nduba'
p1708
I1
sS'expelled'
p1709
I2
sS'insensitive'
p1710
I1
sS'capitalising'
p1711
I1
sS'mayi'
p1712
I7
sS'caps'
p1713
I38
sS'0.3772/3775'
p1714
I2
sS'cape'
p1715
I38
sS'retreat'
p1716
I1
sS'may.modise'
p1717
I1
sS'securities'
p1718
I5
sS'level.the'
p1719
I2
sS'534'
p1720
I1
sS'night'
p1721
I3
sS'security'
p1722
I11
sS'portuguese'
p1723
I1
sS'eyeing'
p1724
I1
sS'cash.fund'
p1725
I1
sS'productions'
p1726
I4
sS'6.63blnnet'
p1727
I4
sS'12,5'
p1728
I1
sS'beating'
p1729
I1
sS'marketing'
p1730
I3
sS'englishmen'
p1731
I2
sS'plc'
p1732
I1
sS'themistocleous'
p1733
I1
sS'substitution'
p1734
I1
sS'peer'
p1735
I2
sS'post'
p1736
I1
sS'arrived.foreign'
p1737
I1
sS'months'
p1738
I43
sS'jacques'
p1739
I4
sS'considerations'
p1740
I1
sS'pragmatism.over'
p1741
I1
sS'mates.barry'
p1742
I1
sS'bound'
p1743
I1
sS'balances'
p1744
I2
sS'capped'
p1745
I1
sS'balanced'
p1746
I1
sS'legislation'
p1747
I3
sS'fight'
p1748
I3
sS'rand.one'
p1749
I1
sS'way'
p1750
I10
sS'war'
p1751
I12
sS'109.0retail'
p1752
I2
sS'converse'
p1753
I2
sS'15.00eskom'
p1754
I2
sS'disembarked'
p1755
I2
sS'responding'
p1756
I1
sS'maximum'
p1757
I4
sS'moore'
p1758
I1
sS'vwv'
p1759
I10
sS'expertise'
p1760
I1
sS'promised'
p1761
I1
sS'potholes'
p1762
I1
sS'line.the'
p1763
I2
sS'physical'
p1764
I4
sS'stake'
p1765
I12
sS'negotiators'
p1766
I4
sS'interested'
p1767
I2
sS'rwandan'
p1768
I1
sS'test'
p1769
I24
sS'daling.at'
p1770
I1
sS'scored'
p1771
I5
sS'welcome'
p1772
I1
sS'8.99imports'
p1773
I4
sS'scorer'
p1774
I1
sS'switched'
p1775
I1
sS'global'
p1776
I16
sS'battle'
p1777
I2
sS'afrikaner'
p1778
I10
sS'za3ba1za10bond1'
p1779
I1
sS'tumbled.on'
p1780
I1
sS'devoted'
p1781
I1
sS'certainly'
p1782
I2
sS'rhythm'
p1783
I2
sS'division'
p1784
I7
sS'reported.the'
p1785
I1
sS'seemingly'
p1786
I1
sS'trouble'
p1787
I5
sS'blast'
p1788
I1
sS'scandinavia'
p1789
I1
sS'presented'
p1790
I2
sS'gun'
p1791
I1
sS'p'
p1792
I4
sS'professionalism'
p1793
I1
sS'cost'
p1794
I3
sS'rowell'
p1795
I1
sS'said.board'
p1796
I1
sS'cargo'
p1797
I8
sS'appear'
p1798
I5
sS'shares'
p1799
I74
sS'shared'
p1800
I1
sS'commensurate'
p1801
I1
sS'satisfy'
p1802
I2
sS'mill.initial'
p1803
I1
sS'appears'
p1804
I2
sS'change'
p1805
I14
sS'trial'
p1806
I1
sS'usually'
p1807
I1
sS'fled.in'
p1808
I1
sS'extra'
p1809
I2
sS'lending'
p1810
I4
sS'marked'
p1811
I1
sS'16.92'
p1812
I3
sS'market'
p1813
I95
sS'prove'
p1814
I2
sS'live'
p1815
I4
sS'372.92'
p1816
I1
sS'15.30'
p1817
I3
sS'commissioner'
p1818
I11
sS'club'
p1819
I3
sS'82.5kg'
p1820
I2
sS'ibm'
p1821
I1
sS'car'
p1822
I13
sS'7,930/45'
p1823
I1
sS'7,930/40'
p1824
I1
sS'reports.the'
p1825
I1
sS'africa.a'
p1826
I1
sS'trans'
p1827
I4
sS'pretoria'
p1828
I21
sS'heart'
p1829
I1
sS'december'
p1830
I11
sS'chip'
p1831
I4
sS"didn't"
p1832
I2
sS'topic'
p1833
I1
sS'heard'
p1834
I4
sS'fortunes'
p1835
I1
sS'spa'
p1836
I4
sS'clothing'
p1837
I4
sS'occur'
p1838
I1
sS'6-10'
p1839
I1
sS'friday.ferreira'
p1840
I1
sS'16,648'
p1841
I2
sS'bonds'
p1842
I30
sS'beat'
p1843
I8
sS'1.86m'
p1844
I1
sS'dominance'
p1845
I1
sS'economy'
p1846
I8
sS'week.sahnoun'
p1847
I2
sS'substructure'
p1848
I1
sS'said.asked'
p1849
I1
sS'southern'
p1850
I9
sS'produce'
p1851
I2
sS'0.77'
p1852
I4
sS'8,239.1.volumes'
p1853
I1
sS'0.75'
p1854
I2
sS'0.78'
p1855
I1
sS'nomination'
p1856
I2
sS'pointscorer'
p1857
I1
sS'dampener'
p1858
I1
sS'slightly'
p1859
I8
sS'futures'
p1860
I8
sS'nosed'
p1861
I1
sS'serving'
p1862
I1
sS'raised'
p1863
I1
sS'ended'
p1864
I33
sS'statistical'
p1865
I2
sS'cold'
p1866
I1
sS'forma'
p1867
I4
sS'forms'
p1868
I1
sS'showered'
p1869
I1
sS'non'
p1870
I11
sS'01/10/96'
p1871
I4
sS'halt'
p1872
I3
sS'1955'
p1873
I1
sS'half'
p1874
I34
sS'nov'
p1875
I6
sS'discuss'
p1876
I12
sS'enacted'
p1877
I1
sS'january'
p1878
I27
sS'drop'
p1879
I12
sS'1993sugar'
p1880
I4
sS'22.6'
p1881
I1
sS'stockholm'
p1882
I1
sS'22.5'
p1883
I2
sS'cents.engen'
p1884
I1
sS'prompted'
p1885
I1
sS'challenged'
p1886
I1
sS'africa.ard'
p1887
I1
sS'ex'
p1888
I1
sS'year'
p1889
I136
sS'ew'
p1890
I3
sS'calling'
p1891
I2
sS'monitors'
p1892
I1
sS'shown'
p1893
I5
sS'opened'
p1894
I2
sS'bullish'
p1895
I4
sS'space'
p1896
I3
sS'hands.two'
p1897
I1
sS'looking'
p1898
I16
sS'gencor'
p1899
I4
sS'shows'
p1900
I1
sS'cars'
p1901
I6
sS'rebel'
p1902
I39
sS'discounts.dana'
p1903
I1
sS'marine'
p1904
I1
sS'care'
p1905
I3
sS'british'
p1906
I19
sS'blacks.less'
p1907
I1
sS'ginsberg'
p1908
I6
sS'warburg.but'
p1909
I1
sS'87kg'
p1910
I1
sS'initial'
p1911
I8
sS'1220'
p1912
I1
sS'omitted'
p1913
I1
sS'variables'
p1914
I1
sS'directly'
p1915
I4
sS'comprises'
p1916
I1
sS'impossible'
p1917
I2
sS'message'
p1918
I1
sS'ways'
p1919
I2
sS'tomorrow'
p1920
I6
sS'size'
p1921
I4
sS'officials'
p1922
I19
sS'atrocities'
p1923
I1
sS'108.5'
p1924
I4
sS'caught'
p1925
I1
sS'year.this'
p1926
I2
sS'desmond'
p1927
I1
sS'national'
p1928
I24
sS'kohler'
p1929
I3
sS'4.shareholders'
p1930
I1
sS'greenwood'
p1931
I1
sS'television'
p1932
I4
sS'threads'
p1933
I1
sS'city.south'
p1934
I1
sS'transferred'
p1935
I1
sS'nedcor'
p1936
I1
sS'investors'
p1937
I7
sS'remained'
p1938
I7
sS'craig'
p1939
I1
sS'correction'
p1940
I11
sS'premier'
p1941
I1
sS'intermediaries.a'
p1942
I1
sS'recover'
p1943
I3
sS'veteran'
p1944
I2
sS'manufacturers'
p1945
I2
sS'equipment'
p1946
I3
sS'objective'
p1947
I2
sS'begin'
p1948
I8
sS'price'
p1949
I40
sS'successive'
p1950
I6
sS'america'
p1951
I1
sS'1,899'
p1952
I2
sS'said.they'
p1953
I1
sS'steady'
p1954
I6
sS'professional'
p1955
I1
sS'typically'
p1956
I1
sS'leicester'
p1957
I6
sS'german'
p1958
I5
sS'1.2wheat'
p1959
I4
sS'fifth'
p1960
I4
sS'ground'
p1961
I3
sS'upgrade'
p1962
I1
sS'ratio'
p1963
I2
sS'title'
p1964
I3
sS'106.6'
p1965
I2
sS'106.3'
p1966
I2
sS'116kg'
p1967
I1
sS'thompson'
p1968
I1
sS'unravel'
p1969
I3
sS'wingers'
p1970
I1
sS'doubt.but'
p1971
I1
sS'truly'
p1972
I1
sS'game.du'
p1973
I1
sS'honours'
p1974
I1
sS'stocks.this'
p1975
I2
sS'3total'
p1976
I1
sS'captaining'
p1977
I1
sS'135.25'
p1978
I1
sS'burst'
p1979
I2
sS'physically'
p1980
I2
sS'flatly'
p1981
I3
sS'sport'
p1982
I6
sS'concern'
p1983
I6
sS'tackling'
p1984
I1
sS'3'
p1985
I11
sS'22,727'
p1986
I5
sS'22,726'
p1987
I3
sS'import'
p1988
I2
sS'notice'
p1989
I4
sS'wages.cosatu'
p1990
I1
sS'pahad'
p1991
I6
sS'talented'
p1992
I2
sS'15.15preliminary'
p1993
I2
sS'enabling'
p1994
I1
sS'said.kwv'
p1995
I5
sS'wallaby'
p1996
I2
sS'comes'
p1997
I1
sS'28.the'
p1998
I1
sS'150'
p1999
I2
sS"couldn't"
p2000
I2
sS'actually'
p2001
I1
sS'pass.the'
p2002
I1
sS'glanville'
p2003
I1
sS'year.he'
p2004
I1
sS'rebuild'
p2005
I2
sS'sese'
p2006
I19
sS'carel'
p2007
I1
sS'1030'
p2008
I2
sS'systems'
p2009
I3
sS'20.25'
p2010
I4
sS'shortages'
p2011
I3
sS'6,442/58'
p2012
I1
sS'10.811'
p2013
I4
sS'percent.south'
p2014
I4
sS'bout'
p2015
I5
sS'7.2710/2804'
p2016
I2
sS'4-1'
p2017
I1
sS'12.also'
p2018
I1
sS'alcoholic'
p2019
I3
sS'consults'
p2020
I2
sS'bristow'
p2021
I1
sS'kenya'
p2022
I2
sS'indebtedness'
p2023
I2
sS'11.5'
p2024
I3
sS'10,406.0'
p2025
I1
sS'11.1'
p2026
I3
sS'11.2'
p2027
I1
sS'inquiry'
p2028
I1
sS'basis.in'
p2029
I2
sS'101.9wholesale'
p2030
I2
sS'noble'
p2031
I3
sS'investigated'
p2032
I1
sS'fruit'
p2033
I1
sS'segmentation.it'
p2034
I1
sS'mentally'
p2035
I1
sS'charges'
p2036
I2
sS'constitutional'
p2037
I1
sS'32nd'
p2038
I1
sS'severe'
p2039
I1
sS'coordinate'
p2040
I1
sS'heaps'
p2041
I2
sS'valuable'
p2042
I1
sS'electrification'
p2043
I1
sS'maternity'
p2044
I1
sS'92.435'
p2045
I1
sS'procare'
p2046
I2
sS'speed'
p2047
I1
sS'mthembu'
p2048
I1
sS'renewed'
p2049
I6
sS'improvement'
p2050
I2
sS'treatment'
p2051
I2
sS'republic'
p2052
I3
sS'struck'
p2053
I1
sS'momentum'
p2054
I4
sS'1.80m'
p2055
I2
sS'real'
p2056
I6
sS'desperately'
p2057
I1
sS'rules'
p2058
I3
sS'ruler'
p2059
I1
sS'early'
p2060
I23
sS'earnest'
p2061
I1
sS'ramshackle'
p2062
I1
sS'0.52'
p2063
I4
sS'ruled'
p2064
I2
sS'heightened'
p2065
I2
sS'pounds'
p2066
I1
sS'collective'
p2067
I2
sS'benefit'
p2068
I3
sS't'
p2069
I10
sS'year.harwill'
p2070
I1
sS'output'
p2071
I5
sS'downward'
p2072
I3
sS'exposed'
p2073
I4
sS'envoys'
p2074
I3
sS'recorded'
p2075
I3
sS'deficit'
p2076
I6
sS'willie'
p2077
I1
sS'assembly'
p2078
I2
sS'business'
p2079
I47
sS'1420'
p2080
I1
sS'sixth'
p2081
I4
sS'equivalent'
p2082
I1
sS'volkswagen'
p2083
I2
sS'8.2'
p2084
I5
sS'1938'
p2085
I1
sS'central'
p2086
I17
sS'liebenberg'
p2087
I2
sS'outlook'
p2088
I3
sS'inclusion'
p2089
I1
sS'officially'
p2090
I2
sS'involvement'
p2091
I1
sS'operator'
p2092
I2
sS'watchdog'
p2093
I1
sS'interimdiv'
p2094
I1
sS'fast'
p2095
I1
sS'prepare'
p2096
I4
sS'area'
p2097
I8
sS'qualifying'
p2098
I1
sS'start'
p2099
I22
sS'forwarder'
p2100
I4
sS'catt'
p2101
I6
sS'low'
p2102
I11
sS'lot'
p2103
I16
sS'13.61'
p2104
I2
sS'fixture'
p2105
I1
sS'delayed'
p2106
I5
sS'wednesday.the'
p2107
I4
sS'recouped'
p2108
I2
sS'trying'
p2109
I3
sS'outskirts'
p2110
I1
sS'hire'
p2111
I1
sS'fraud'
p2112
I2
sS'moved'
p2113
I10
sS'sales'
p2114
I43
sS'said.some'
p2115
I1
sS'midweek'
p2116
I1
sS'nero'
p2117
I1
sS'moves'
p2118
I3
sS'afternoon.rebel'
p2119
I1
sS'unit.but'
p2120
I2
sS'englishman'
p2121
I1
sS'credibility'
p2122
I1
sS'forcing'
p2123
I1
sS'grinaker'
p2124
I5
sS'gaining'
p2125
I1
sS'33,273'
p2126
I2
sS'drift'
p2127
I2
sS'peak'
p2128
I3
sS'entertainment.the'
p2129
I1
sS'fiscal'
p2130
I6
sS'3-7'
p2131
I1
sS'3-2'
p2132
I1
sS'3-1'
p2133
I1
sS'111.5'
p2134
I2
sS'111.0'
p2135
I2
sS'overseas'
p2136
I2
sS'69th'
p2137
I2
sS'before.the'
p2138
I2
sS'month'
p2139
I54
sS'unrest'
p2140
I1
sS'referring'
p2141
I2
sS'auckland'
p2142
I2
sS'refocus'
p2143
I1
sS'40-year'
p2144
I1
sS'8,174.6.dealers'
p2145
I1
sS'sustain'
p2146
I1
sS'airfreight'
p2147
I1
sS'divisions'
p2148
I4
sS'january.bond'
p2149
I1
sS'coloured'
p2150
I3
sS'vera'
p2151
I4
sS'chiefs.a'
p2152
I1
sS'decide'
p2153
I3
sS'colossal'
p2154
I1
sS'khehla'
p2155
I1
sS'opting'
p2156
I1
sS'nearing'
p2157
I3
sS'1.19blnindices'
p2158
I2
sS'value'
p2159
I15
sS'hamper'
p2160
I1
sS'stopped.but'
p2161
I1
sS'africa.the'
p2162
I4
sS'consumers'
p2163
I3
sS'mutombo'
p2164
I1
sS'witnesses'
p2165
I1
sS'industries.black'
p2166
I1
sS'back.botha'
p2167
I2
sS'said.nghenda'
p2168
I1
sS'session.morning'
p2169
I1
sS'plessey'
p2170
I4
sS'selective'
p2171
I1
sS'strong'
p2172
I14
sS'arena'
p2173
I1
sS'lome'
p2174
I5
sS'ahead'
p2175
I27
sS'inspired'
p2176
I3
sS'losses'
p2177
I13
sS'exceptionally'
p2178
I3
sS'lomu'
p2179
I1
sS'656,000'
p2180
I1
sS'tenderer'
p2181
I1
sS'aimed'
p2182
I6
sS'gunmen'
p2183
I1
sS'government.but'
p2184
I1
sS'takes'
p2185
I1
sS'1996.jason'
p2186
I1
sS'contains'
p2187
I1
sS'taken'
p2188
I11
sS'injury'
p2189
I3
sS'said.maintaining'
p2190
I1
sS'broke'
p2191
I13
sS'helped'
p2192
I5
sS'excessively'
p2193
I2
sS'baa3s'
p2194
I4
sS'history'
p2195
I2
sS'pushed'
p2196
I1
sS'firmly'
p2197
I5
sS'136.3'
p2198
I1
sS'foreseen'
p2199
I3
sS'hampered'
p2200
I3
sS'tried'
p2201
I5
sS'fw'
p2202
I1
sS'property.hanekom'
p2203
I2
sS'tries'
p2204
I3
sS'problems.analysts'
p2205
I1
sS'overnight'
p2206
I10
sS'banks'
p2207
I9
sS'help'
p2208
I9
sS'soon'
p2209
I12
sS'held'
p2210
I15
sS'committee'
p2211
I6
sS'committed'
p2212
I4
sS'comment.the'
p2213
I1
sS'bizima'
p2214
I6
sS'fruitful'
p2215
I2
sS'absence'
p2216
I2
sS'finex'
p2217
I1
sS"haven't"
p2218
I2
sS'food'
p2219
I9
sS'anticipated'
p2220
I5
sS'foot'
p2221
I2
sS'competitive.but'
p2222
I1
sS'yr'
p2223
I6
sS'identified.analysts'
p2224
I1
sS'bryan'
p2225
I1
sS'ifp'
p2226
I2
sS'fully'
p2227
I4
sS'intervene'
p2228
I2
sS'stopped'
p2229
I1
sS'zacur1'
p2230
I1
sS'referred'
p2231
I2
sS'heavy'
p2232
I14
sS'neil'
p2233
I5
sS'event'
p2234
I1
sS'robert'
p2235
I2
sS'safety'
p2236
I2
sS'issue'
p2237
I11
sS'state.south'
p2238
I1
sS'houses'
p2239
I1
sS'reason'
p2240
I2
sS'base'
p2241
I14
sS'johnnic'
p2242
I9
sS'aziz'
p2243
I4
sS'launch'
p2244
I2
sS'persuading'
p2245
I1
sS'terrible'
p2246
I1
sS'136.0'
p2247
I2
sS'american'
p2248
I11
sS'expecting'
p2249
I4
sS'businessmen'
p2250
I1
sS'automobile'
p2251
I2
sS'carling'
p2252
I1
sS'undergo'
p2253
I1
sS'partnerships'
p2254
I1
sS'reflected'
p2255
I3
sS'dominating'
p2256
I1
sS'miss'
p2257
I2
sS'identity'
p2258
I2
sS'scheme'
p2259
I3
sS'8,174.6.nearly'
p2260
I1
sS'selling'
p2261
I5
sS'ncp'
p2262
I1
sS'1910'
p2263
I2
sS'financing'
p2264
I9
sS'grew'
p2265
I5
sS'rates.however'
p2266
I1
sS'performers'
p2267
I1
sS'anticipate'
p2268
I1
sS'battering'
p2269
I2
sS'ousted'
p2270
I3
sS'boland'
p2271
I4
sS'juicy'
p2272
I2
sS'substantial'
p2273
I2
sS'vulnerable'
p2274
I1
sS'lie'
p2275
I1
sS'stranglehold'
p2276
I1
sS'scotland'
p2277
I13
sS'labour'
p2278
I5
sS'experienced'
p2279
I3
sS'experiences'
p2280
I1
sS'kat'
p2281
I1
sS'privatised'
p2282
I3
sS'salary'
p2283
I1
sS'tonga'
p2284
I1
sS'sturdy'
p2285
I1
sS'performances'
p2286
I2
sS'clear'
p2287
I6
sS'snapping'
p2288
I1
sS'2.09'
p2289
I1
sS'36.0-50.0'
p2290
I1
sS'firms.now'
p2291
I1
sS'phenomenon'
p2292
I1
sS'ltd.it'
p2293
I1
sS'northern'
p2294
I4
sS'zaprime1'
p2295
I1
sS'flights'
p2296
I1
sS'13.61m2'
p2297
I1
sS'surveyed'
p2298
I2
sS'pretty'
p2299
I3
sS'rands'
p2300
I2
sS'isolationist'
p2301
I2
sS'executive'
p2302
I11
sS'zambia'
p2303
I2
sS'famous'
p2304
I1
sS'competing'
p2305
I2
sS'combinations'
p2306
I2
sS'added.others'
p2307
I1
sS'1.83'
p2308
I4
sS'1.87'
p2309
I2
sS'exhibiting'
p2310
I1
sS'u.s.macmed'
p2311
I1
sS'oppenheimer'
p2312
I1
sS'price.the'
p2313
I2
sS'interim'
p2314
I7
sS'recommendations'
p2315
I1
sS'switzerland'
p2316
I2
sS'hobbled'
p2317
I1
sS'ltdnote'
p2318
I1
sS'9.2-9.6'
p2319
I1
sS'culture'
p2320
I1
sS'0.49blnindices'
p2321
I2
sS'mediators'
p2322
I1
sS'close'
p2323
I7
sS'howley'
p2324
I1
sS'probable'
p2325
I1
sS'engen'
p2326
I9
sS'won'
p2327
I21
sS'probably'
p2328
I10
sS'chin.sentrachem'
p2329
I1
sS'conditions'
p2330
I2
sS'departure.it'
p2331
I1
sS'poorer'
p2332
I1
sS'unstoppable'
p2333
I1
sS'ranked'
p2334
I8
sS'59.52'
p2335
I2
sS'league'
p2336
I7
sS'minorities'
p2337
I1
sS'sensitive'
p2338
I4
sS'headed'
p2339
I7
sS'likes'
p2340
I1
sS'vessel'
p2341
I1
sS'grenfell'
p2342
I1
sS'friday.they'
p2343
I1
sS'describes'
p2344
I1
sS'maintenance'
p2345
I1
sS'13.9percent'
p2346
I1
sS'territory'
p2347
I5
sS'sankorp'
p2348
I2
sS'alliance.the'
p2349
I2
sS'partly'
p2350
I4
sS'packs'
p2351
I1
sS'markets.south'
p2352
I3
sS'lives'
p2353
I1
sS'leapfrogged'
p2354
I1
sS'orthopaedics'
p2355
I1
sS'look'
p2356
I3
sS'pace'
p2357
I3
sS'match'
p2358
I13
sS'fleet'
p2359
I1
sS'bbc.on'
p2360
I1
sS'pack'
p2361
I3
sS'uncompromising'
p2362
I2
sS'voters'
p2363
I1
sS'overlooked'
p2364
I1
sS'geologists'
p2365
I1
sS'year.tenderers'
p2366
I1
sS'ready'
p2367
I9
sS'welshman'
p2368
I2
sS'shaw'
p2369
I1
sS'6,981.1.dealers'
p2370
I1
sS'grant'
p2371
I6
sS'television.a'
p2372
I1
sS'parastatal'
p2373
I1
sS'conflict'
p2374
I4
sS'used'
p2375
I5
sS'lawyers'
p2376
I7
sS'ratings'
p2377
I4
sS'000'
p2378
I4
sS'whisky.utility'
p2379
I1
sS'15.7'
p2380
I1
sS'obviously'
p2381
I1
sS'auditor'
p2382
I1
sS'consistency'
p2383
I1
sS'retirement'
p2384
I2
sS'informal'
p2385
I1
sS'carat'
p2386
I1
sS'exercising'
p2387
I1
sS'remaining'
p2388
I1
sS'march'
p2389
I45
sS'showing'
p2390
I2
sS'game'
p2391
I12
sS'defied'
p2392
I1
sS'excluding'
p2393
I4
sS'toyota'
p2394
I2
sS'said.against'
p2395
I1
sS'samcor'
p2396
I2
sS'weekend.the'
p2397
I1
sS'popular'
p2398
I2
sS'113.2'
p2399
I4
sS'saturdays'
p2400
I1
sS'brakes'
p2401
I1
sS'creation'
p2402
I2
sS'metres'
p2403
I1
sS'urgent'
p2404
I2
sS'trends'
p2405
I1
sS'economic'
p2406
I22
sS'28th'
p2407
I1
sS'percent.malbak'
p2408
I1
sS'share.but'
p2409
I1
sS'run'
p2410
I7
sS'step'
p2411
I5
sS'abroad'
p2412
I2
sS'bourses'
p2413
I2
sS'sake'
p2414
I3
sS'cuptennis'
p2415
I1
sS'73'
p2416
I2
sS'said.money'
p2417
I1
sS'block'
p2418
I2
sS'seeing'
p2419
I3
sS'71'
p2420
I1
sS'encircling'
p2421
I2
sS'subaru'
p2422
I2
sS'reuters.he'
p2423
I1
sS'saucony'
p2424
I2
sS'rolls'
p2425
I1
sS'statistics'
p2426
I5
sS'rand.peer'
p2427
I2
sS'placing'
p2428
I2
sS'approved'
p2429
I3
sS'15.90'
p2430
I14
sS'friday.reuters'
p2431
I1
sS'15.99'
p2432
I2
sS'politicans'
p2433
I1
sS'properly'
p2434
I1
sS'dull'
p2435
I4
sS'dealers'
p2436
I21
sS'restarted'
p2437
I2
sS'motlana'
p2438
I1
sS'5-2'
p2439
I1
sS'asset.locks'
p2440
I1
sS'chelsea'
p2441
I1
sS'said.in'
p2442
I2
sS'metals'
p2443
I2
sS'sharing'
p2444
I3
sS'rupert'
p2445
I1
sS'cotton'
p2446
I3
sS'amounts'
p2447
I1
sS'spokesmen'
p2448
I1
sS'application'
p2449
I2
sS'politicians'
p2450
I4
sS'forgn'
p2451
I4
sS'electrical'
p2452
I5
sS'department'
p2453
I13
sS'draw'
p2454
I1
sS'johnnies'
p2455
I1
sS'swede'
p2456
I5
sS'years.johnson'
p2457
I1
sS'structure'
p2458
I3
sS'unseasonally'
p2459
I1
sS'required'
p2460
I4
sS'utilised'
p2461
I2
sS'depth'
p2462
I1
sS'said.gentech'
p2463
I1
sS'period.but'
p2464
I1
sS'state.tshisekedi'
p2465
I1
sS'156.75'
p2466
I1
sS'percentfeb'
p2467
I1
sS'169.4'
p2468
I2
sS'excluded'
p2469
I3
sS'friendly'
p2470
I1
sS'miniere'
p2471
I1
sS'portfolios'
p2472
I1
sS'cellular'
p2473
I4
sS'telling'
p2474
I3
sS'gentech'
p2475
I14
sS'positions'
p2476
I6
sS'button'
p2477
I1
sS'michael'
p2478
I1
sS'2.27'
p2479
I5
sS'2.24'
p2480
I2
sS'honore'
p2481
I4
sS'jump'
p2482
I5
sS'picked'
p2483
I5
sS'price.it'
p2484
I4
sS'zairean'
p2485
I26
sS'282.77'
p2486
I2
sS'plays'
p2487
I2
sS'evoked'
p2488
I1
sS'marketer'
p2489
I3
sS'interests.at'
p2490
I1
sS'stance'
p2491
I1
sS'commercial'
p2492
I17
sS'popplewell'
p2493
I1
sS'focused'
p2494
I5
sS'convert'
p2495
I2
sS'products'
p2496
I10
sS'joost'
p2497
I1
sS'clark'
p2498
I1
sS'win'
p2499
I2
sS'101kg'
p2500
I2
sS'surpluses'
p2501
I1
sS'4.70'
p2502
I2
sS'ltd.even'
p2503
I1
sS'57.31'
p2504
I1
sS'previousthur'
p2505
I1
sS'vehicle'
p2506
I8
sS'jonathan'
p2507
I7
sS'malawi'
p2508
I1
sS'reflects'
p2509
I1
sS'compatriot'
p2510
I1
sS'formally'
p2511
I1
sS'started'
p2512
I6
sS'benchmark'
p2513
I1
sS'43.6'
p2514
I2
sS'appointed'
p2515
I2
sS'stafford'
p2516
I10
sS'crosses'
p2517
I4
sS'sanctions'
p2518
I1
sS'servants'
p2519
I1
sS'meet'
p2520
I11
sS'withdrew'
p2521
I3
sS'control'
p2522
I22
sS'policing'
p2523
I2
sS'sought'
p2524
I1
sS'powertech'
p2525
I2
sS'stemmed'
p2526
I1
sS'17.42'
p2527
I3
sS'africans'
p2528
I1
sS'saturday.kabila'
p2529
I1
sS'year.according'
p2530
I2
sS'circular'
p2531
I1
sS'w.b.beaumont'
p2532
I1
sS'mining.in'
p2533
I1
sS'chiefs'
p2534
I1
sS'engineering'
p2535
I2
sS'32-15'
p2536
I1
sS'said.economists'
p2537
I1
sS'agenda'
p2538
I7
sS'favourites'
p2539
I1
sS'10.414'
p2540
I3
sS'commerical'
p2541
I1
sS'facilitated'
p2542
I1
sS'percent.dealers'
p2543
I1
sS'offences'
p2544
I1
sS'including'
p2545
I21
sS'exclusion'
p2546
I1
sS'irish.david'
p2547
I1
sS'eckhard'
p2548
I2
sS'314.63'
p2549
I1
sS'redpath'
p2550
I1
sS'emphasises'
p2551
I1
sS'0.3785/3788'
p2552
I1
sS'university'
p2553
I1
sS'stronghold.half'
p2554
I1
sS'registrations'
p2555
I1
sS'slide'
p2556
I3
sS'upward'
p2557
I5
sS'700'
p2558
I1
sS'144'
p2559
I1
sS'constitute'
p2560
I2
sS'measure'
p2561
I2
sS'margins'
p2562
I5
sS'special'
p2563
I9
sS'unlawful'
p2564
I1
sS'airport.the'
p2565
I1
sS'cause'
p2566
I1
sS'decade.buthelezi'
p2567
I1
sS'wines'
p2568
I18
sS'60.0-80.0'
p2569
I1
sS'withdrawal'
p2570
I1
sS'delegates'
p2571
I1
sS'ecu'
p2572
I1
sS'advisor'
p2573
I2
sS'resumed'
p2574
I2
sS'florida'
p2575
I1
sS'times'
p2576
I6
sS'counterpart'
p2577
I1
sS'keen'
p2578
I2
sS'bjorkman'
p2579
I16
sS'said.following'
p2580
I1
sS'prospective'
p2581
I1
sS'evans'
p2582
I2
sS'hehr'
p2583
I2
sS'bars'
p2584
I1
sS'congo'
p2585
I7
sS'africa.wall'
p2586
I1
sS'1989'
p2587
I1
sS'quality'
p2588
I1
sS'long'
p2589
I25
sS'bears'
p2590
I1
sS'data'
p2591
I46
sS'relations'
p2592
I1
sS'attack'
p2593
I1
sS'ankle'
p2594
I3
sS'final'
p2595
I11
sS'townsend'
p2596
I7
sS'2-6'
p2597
I5
sS'point.will'
p2598
I1
sS'rsa'
p2599
I1
sS'lists'
p2600
I1
sS'9.4'
p2601
I7
sS'chemicals'
p2602
I5
sS'carsons'
p2603
I2
sS'arthroplasty'
p2604
I1
sS'shares.the'
p2605
I1
sS'providing'
p2606
I3
sS'bet'
p2607
I1
sS'thepositive'
p2608
I1
sS'unchanged'
p2609
I2
sS'buy'
p2610
I2
sS'need'
p2611
I5
sS'assurances'
p2612
I1
sS'1,314'
p2613
I2
sS'able'
p2614
I7
sS'battles'
p2615
I1
sS'issuing'
p2616
I2
sS'declined'
p2617
I5
sS'africa.sahnoun'
p2618
I1
sS'fuels'
p2619
I1
sS'1,292.3.trade'
p2620
I2
sS'laurent'
p2621
I18
sS'impression'
p2622
I3
sS'emerging'
p2623
I2
sS'movement.key'
p2624
I1
sS'emptive'
p2625
I1
sS'violation'
p2626
I1
sS'indoor'
p2627
I1
sS'soldiers'
p2628
I3
sS'partners'
p2629
I2
sS'forex'
p2630
I5
sS'based'
p2631
I28
sS'earned'
p2632
I2
sS'hopeful'
p2633
I2
sS"won't"
p2634
I5
sS'earner'
p2635
I1
sS'finalised'
p2636
I1
sS'versatile'
p2637
I3
sS'employee'
p2638
I1
sS'achieve'
p2639
I1
sS'overall'
p2640
I5
sS'maritime'
p2641
I1
sS'120'
p2642
I1
sS'121'
p2643
I2
sS'124'
p2644
I1
sS'125'
p2645
I1
sS'126'
p2646
I4
sS'nethold'
p2647
I2
sS'dodgy'
p2648
I1
sS'holloway'
p2649
I1
sS'shr'
p2650
I6
sS'evident'
p2651
I4
sS'trucks'
p2652
I2
sS'course'
p2653
I3
sS'rodber'
p2654
I1
sS'thursday.against'
p2655
I1
sS'spotted'
p2656
I1
sS'34.7'
p2657
I2
sS'petrochemicals'
p2658
I1
sS'computer'
p2659
I1
sS'cup.john'
p2660
I1
sS'blooded'
p2661
I1
sS'state'
p2662
I16
sS'horrible'
p2663
I1
sS'sorely'
p2664
I2
sS'importance'
p2665
I2
sS'date.saa'
p2666
I1
sS'kicking'
p2667
I2
sS'key'
p2668
I19
sS'police'
p2669
I6
sS'distribution'
p2670
I4
sS'2.47'
p2671
I1
sS'career'
p2672
I2
sS'business.black'
p2673
I1
sS'minds'
p2674
I1
sS'tutsi'
p2675
I1
sS'jersey'
p2676
I1
sS'diplomats'
p2677
I2
sS'tuesday'
p2678
I31
sS'mobutu.rebel'
p2679
I1
sS'industrials'
p2680
I18
sS'addition'
p2681
I7
sS'cent'
p2682
I5
sS'slowly'
p2683
I3
sS'shoulders'
p2684
I1
sS'controlled'
p2685
I1
sS'expenditure'
p2686
I2
sS'decreased'
p2687
I4
sS'kicks'
p2688
I1
sS'58.1'
p2689
I2
sS'intimidate'
p2690
I1
sS'harder'
p2691
I2
sS'democracy.delegations'
p2692
I1
sS'owns'
p2693
I3
sS'resident'
p2694
I5
sS'surface'
p2695
I2
sS'soon.the'
p2696
I1
sS'4.55'
p2697
I2
sS'wks'
p2698
I4
sS'345.3transfer'
p2699
I1
sS'capture'
p2700
I1
sS'began'
p2701
I13
sS'parts'
p2702
I1
sS'party'
p2703
I28
sS'1-1'
p2704
I2
sS'1-0'
p2705
I3
sS'effect'
p2706
I19
sS'1998.la'
p2707
I2
sS'days.gentech'
p2708
I1
sS'zae168'
p2709
I1
sS'nation'
p2710
I1
sS'transaction'
p2711
I2
sS'zyl'
p2712
I1
sS'trials'
p2713
I1
sS'1,108'
p2714
I1
sS'said.aside'
p2715
I1
sS'increasingly'
p2716
I1
sS'sources'
p2717
I10
sS'40'
p2718
I4
sS'deposits'
p2719
I2
sS'brozin'
p2720
I1
sS'wooed'
p2721
I1
sS'ample'
p2722
I1
sS'261'
p2723
I1
sS'260'
p2724
I1
sS'immediately'
p2725
I4
sS'report.foreigners'
p2726
I1
sS'necessary'
p2727
I2
sS'renegade'
p2728
I1
sS'lost'
p2729
I10
sS'88.3'
p2730
I3
sS'lose'
p2731
I3
sS'2.36offshore'
p2732
I1
sS'refugees'
p2733
I3
sS'shed'
p2734
I2
sS'cents.the'
p2735
I1
sS'arbitrage'
p2736
I1
sS'1.27exports'
p2737
I4
sS'home'
p2738
I9
sS'peter'
p2739
I2
sS'pinpoint'
p2740
I1
sS'broad'
p2741
I3
sS'consultative'
p2742
I1
sS'warranties'
p2743
I2
sS'decline'
p2744
I6
sS'monetary'
p2745
I1
sS'carats'
p2746
I3
sS'scots'
p2747
I1
sS'said.since'
p2748
I1
sS'offset'
p2749
I1
sS'freedom'
p2750
I4
sS'stakes'
p2751
I3
sS'previously'
p2752
I5
sS'h1'
p2753
I6
sS'townships'
p2754
I2
sS'leniency'
p2755
I1
sS'5.25'
p2756
I1
sS'utility'
p2757
I3
sS'accused'
p2758
I1
sS'additional'
p2759
I2
sS"pick'n'pay"
p2760
I2
sS'refrigeration'
p2761
I1
sS'backhand'
p2762
I2
sS'cricket'
p2763
I3
sS'williamson'
p2764
I1
sS'north'
p2765
I1
sS'neutral'
p2766
I1
sS'goals'
p2767
I1
sS'highest'
p2768
I2
sS'signed'
p2769
I2
sS'726'
p2770
I2
sS'109kg'
p2771
I1
sS'limit'
p2772
I1
sS'720'
p2773
I1
sS'895/906'
p2774
I1
sS'4.4140/4170'
p2775
I1
sS'marketplace'
p2776
I1
sS'mcfoods'
p2777
I4
sS'ellerine'
p2778
I1
sS'daling'
p2779
I1
sS'eric'
p2780
I1
sS'kinshasa'
p2781
I14
sS'envisaged'
p2782
I3
sS'trebling'
p2783
I1
sS'star'
p2784
I3
sS'80kg'
p2785
I1
sS'january.the'
p2786
I3
sS'dealings.an'
p2787
I1
sS'cities.future'
p2788
I1
sS'portion'
p2789
I3
sS'dallaglio'
p2790
I1
sS'frankfurt'
p2791
I1
sS'indirectly'
p2792
I1
sS'simpson'
p2793
I1
sS'hoechst'
p2794
I1
sS'november.jeremy'
p2795
I1
sS'andre'
p2796
I4
sS'protest'
p2797
I1
sS'6,583'
p2798
I2
sS'captain'
p2799
I13
sS'1,377'
p2800
I2
sS'disability'
p2801
I1
sS'contained'
p2802
I1
sS'investigation'
p2803
I3
sS'characterised'
p2804
I1
sS'updated'
p2805
I12
sS'downstream'
p2806
I1
sS'controls.it'
p2807
I1
sS'govern'
p2808
I1
sS'affect'
p2809
I3
sS'skills'
p2810
I1
sS'companies'
p2811
I21
sS'solution'
p2812
I5
sS'ups'
p2813
I1
sS'favoured'
p2814
I2
sS'force'
p2815
I8
sS'japanese'
p2816
I1
sS'likely'
p2817
I19
sS'spokesman'
p2818
I10
sS'liberated'
p2819
I1
sS'scale.the'
p2820
I1
sS'new'
p2821
I87
sS'net'
p2822
I32
sS'19.09'
p2823
I1
sS'niche'
p2824
I4
sS'incentives'
p2825
I1
sS'men'
p2826
I3
sS'disposable'
p2827
I3
sS'met'
p2828
I7
sS'108'
p2829
I1
sS'governing'
p2830
I3
sS'active'
p2831
I6
sS'100'
p2832
I9
sS'taper'
p2833
I1
sS'economics'
p2834
I2
sS'ignoring'
p2835
I2
sS'golds'
p2836
I11
sS'credit'
p2837
I34
sS'chrysler'
p2838
I2
sS'permit'
p2839
I1
sS'adopting'
p2840
I1
sS'campaign'
p2841
I2
sS'mobility'
p2842
I1
sS'broadcasters'
p2843
I1
sS'ltd.market'
p2844
I1
sS'unnamed'
p2845
I1
sS'army'
p2846
I2
sS'arms'
p2847
I3
sS'calm'
p2848
I1
sS'type'
p2849
I3
sS'tell'
p2850
I1
sS'said.charles'
p2851
I1
sS'supporters'
p2852
I9
sS'wary'
p2853
I3
sS'exchnange'
p2854
I1
sS'gilts'
p2855
I1
sS'warm'
p2856
I1
sS'thabo'
p2857
I3
sS'shelters'
p2858
I1
sS'ward'
p2859
I5
sS'retail.it'
p2860
I2
sS'gmt.but'
p2861
I1
sS'room'
p2862
I2
sS'rights'
p2863
I5
sS'exceptions'
p2864
I1
sS'operative.co'
p2865
I1
sS'gordon'
p2866
I2
sS'wednesday.police'
p2867
I1
sS'undergoing'
p2868
I1
sS'replacing'
p2869
I1
sS'president'
p2870
I28
sS'purchase'
p2871
I2
sS'attempt'
p2872
I1
sS'pastsouth'
p2873
I1
sS'capitalise'
p2874
I1
sS'maintain'
p2875
I1
sS'1993.the'
p2876
I1
sS'operate'
p2877
I1
sS'operations'
p2878
I9
sS'helens'
p2879
I1
sS'said.she'
p2880
I1
sS'murray'
p2881
I3
sS'4.39'
p2882
I3
sS'4.33'
p2883
I4
sS'96m3'
p2884
I1
sS'4.35'
p2885
I1
sS'scoring'
p2886
I1
sS'10.3'
p2887
I2
sS'10.2'
p2888
I1
sS'10.4'
p2889
I4
sS'10.7'
p2890
I2
sS'personal'
p2891
I3
sS'better'
p2892
I13
sS'differently'
p2893
I2
sS'weeks'
p2894
I5
sS'confidently'
p2895
I1
sS'weakness'
p2896
I5
sS'therapy'
p2897
I1
sS'104kg'
p2898
I1
sS'giant.they'
p2899
I1
sS'went'
p2900
I8
sS'bone'
p2901
I1
sS'bond'
p2902
I18
sS'share.as'
p2903
I1
sS'17.07'
p2904
I6
sS'17.06'
p2905
I5
sS'trading'
p2906
I16
sS'downplayed'
p2907
I1
sS'navy'
p2908
I3
sS'crucial'
p2909
I4
sS'sets.that'
p2910
I1
sS'content'
p2911
I1
sS'up.the'
p2912
I1
sS'surprise'
p2913
I5
sS'turning'
p2914
I4
sS'247'
p2915
I1
sS'246'
p2916
I6
sS'set.the'
p2917
I1
sS'struggle'
p2918
I2
sS'logging'
p2919
I1
sS'3.99'
p2920
I2
sS'scrounge'
p2921
I1
sS'trebled'
p2922
I1
sS'1,121'
p2923
I2
sS'arrived'
p2924
I12
sS'offer.tshisekedi'
p2925
I1
sS'week.non'
p2926
I1
sS'features'
p2927
I2
sS'economists'
p2928
I10
sS'grade'
p2929
I2
sS'downside'
p2930
I3
sS'451.6'
p2931
I1
sS'sets.ranked'
p2932
I1
sS'15.1'
p2933
I6
sS'villages'
p2934
I1
sS'said.ward'
p2935
I1
sS'aquitaine'
p2936
I1
sS'matting'
p2937
I1
sS'court.ginsberg'
p2938
I2
sS'preparation'
p2939
I1
sS'10.455'
p2940
I2
sS'mini'
p2941
I2
sS'sees'
p2942
I3
sS'mind'
p2943
I1
sS'mining'
p2944
I22
sS'seen'
p2945
I18
sS'seek'
p2946
I4
sS'divulge'
p2947
I1
sS'rolewhen'
p2948
I1
sS'davidson'
p2949
I1
sS'14,000'
p2950
I2
sS'470.4'
p2951
I4
sS'psychologically'
p2952
I2
sS'regular'
p2953
I1
sS'zealand'
p2954
I6
sS'don'
p2955
I2
sS'medical'
p2956
I2
sS'm'
p2957
I2
sS'3,616.5tender'
p2958
I1
sS'primedia'
p2959
I6
sS'competitors'
p2960
I2
sS'definitely'
p2961
I5
sS'principle'
p2962
I2
sS'consumer'
p2963
I5
sS'dow'
p2964
I14
sS'urgency'
p2965
I2
sS'beaten'
p2966
I1
sS'probe'
p2967
I4
sS'ending'
p2968
I2
sS'attempts'
p2969
I3
sS'21.24'
p2970
I1
sS'acquit'
p2971
I1
sS'surged'
p2972
I1
sS'sugar'
p2973
I9
sS'brimstone'
p2974
I3
sS'wearing'
p2975
I1
sS'exports'
p2976
I21
sS'compounded'
p2977
I2
sS'endorse'
p2978
I1
sS'stop'
p2979
I1
sS'coast'
p2980
I2
sS'barlow'
p2981
I1
sS'said.u.n'
p2982
I1
sS'earn'
p2983
I4
sS'previousno'
p2984
I2
sS'uncapped'
p2985
I1
sS'fields'
p2986
I1
sS'cofounded'
p2987
I1
sS'bag'
p2988
I1
sS'bad'
p2989
I3
sS'country.honore'
p2990
I1
sS'said.u.s'
p2991
I1
sS'14.75'
p2992
I2
sS'unworthy'
p2993
I1
sS'306.38'
p2994
I2
sS'zones'
p2995
I1
sS'decided'
p2996
I5
sS'subject'
p2997
I1
sS'said'
p2998
I367
sS'scrap'
p2999
I2
sS'bbmoody'
p3000
I4
sS'loudhailers'
p3001
I1
sS'lazy'
p3002
I1
sS'6-1jonas'
p3003
I1
sS'385'
p3004
I1
sS'upfront'
p3005
I1
sS'said.south'
p3006
I5
sS'suggested'
p3007
I1
sS'uncertainty'
p3008
I2
sS'fiancee'
p3009
I1
sS'contribution'
p3010
I1
sS'appeared'
p3011
I10
sS'height'
p3012
I3
sS'said.on'
p3013
I3
sS'initiative'
p3014
I1
sS'101.5kg'
p3015
I1
sS'targeting'
p3016
I2
sS'puts'
p3017
I3
sS'basis'
p3018
I7
sS'particulars'
p3019
I1
sS'19.23'
p3020
I4
sS'commission'
p3021
I9
sS'recognised'
p3022
I1
sS'petronas'
p3023
I2
sS'entered'
p3024
I4
sS'exhibition'
p3025
I1
sS'deeper'
p3026
I1
sS'quantities'
p3027
I2
sS'exception'
p3028
I1
sS'2,831.0'
p3029
I2
sS'near'
p3030
I7
sS'15.283-month'
p3031
I1
sS'undewood.back'
p3032
I1
sS'balance'
p3033
I18
sS'seven'
p3034
I10
sS'cane'
p3035
I2
sS'327.42'
p3036
I1
sS'metropolitan'
p3037
I6
sS'defeated'
p3038
I1
sS'tuesday.some'
p3039
I1
sS'guscott'
p3040
I2
sS'80,000'
p3041
I1
sS'grown'
p3042
I6
sS'make'
p3043
I13
sS'potentially'
p3044
I2
sS'belly'
p3045
I1
sS'sidelines'
p3046
I1
sS'generale'
p3047
I2
sS'101.0wholesale'
p3048
I2
sS'killed.fighting'
p3049
I1
sS'nicklas'
p3050
I3
sS'10,144.7'
p3051
I1
sS'emissary'
p3052
I2
sS'changes'
p3053
I2
sS'failing'
p3054
I2
sS'claims'
p3055
I1
sS'investments'
p3056
I9
sS'left'
p3057
I15
sS'quickerbut'
p3058
I1
sS'just'
p3059
I15
sS'unfair'
p3060
I2
sS'statement.in'
p3061
I1
sS'price.on'
p3062
I2
sS'human'
p3063
I4
sS'bill.among'
p3064
I1
sS'1,291.3.the'
p3065
I2
sS'buyers'
p3066
I7
sS'belfast'
p3067
I1
sS'regarded'
p3068
I2
sS'character'
p3069
I3
sS'potential'
p3070
I2
sS'save'
p3071
I2
sS'said.kabila'
p3072
I1
sS'natal'
p3073
I9
sS'govt'
p3074
I4
sS'ago3'
p3075
I4
sS'shoulder'
p3076
I2
sS'15.193-month'
p3077
I1
sS'performing'
p3078
I2
sS'1,701'
p3079
I2
sS'dean'
p3080
I1
sS'deal'
p3081
I17
sS'dead'
p3082
I2
sS'57.50'
p3083
I1
sS'6,981.1'
p3084
I1
sS'shapes'
p3085
I1
sS'22.37'
p3086
I1
sS'plan.the'
p3087
I1
sS'shakespeare'
p3088
I1
sS'predicting'
p3089
I4
sS'said.this'
p3090
I1
sS'super'
p3091
I3
sS'empowerment'
p3092
I18
sS'programmes.the'
p3093
I1
sS'afternoon'
p3094
I7
sS'attrib'
p3095
I7
sS'hotly'
p3096
I1
sS'managers'
p3097
I8
sS'amounted'
p3098
I2
sS'lies'
p3099
I2
sS'cardiff'
p3100
I2
sS'1990s'
p3101
I1
sS'tennis'
p3102
I3
sS'15.7-17.2'
p3103
I1
sS'country.economists'
p3104
I1
sS'unseat'
p3105
I1
sS'announcement.the'
p3106
I2
sS'factions'
p3107
I2
sS'1,602.5'
p3108
I1
sS'form'
p3109
I5
sS'interims'
p3110
I1
sS'fireworks'
p3111
I1
sS'11.25'
p3112
I4
sS'98.5kg'
p3113
I3
sS'failure'
p3114
I4
sS'226'
p3115
I2
sS'analyst'
p3116
I11
sS'geoghegan'
p3117
I2
sS'expected.the'
p3118
I1
sS'reporters.a'
p3119
I1
sS'classic'
p3120
I1
sS'facilitator'
p3121
I1
sS'drive'
p3122
I1
sS'floating'
p3123
I2
sS'marking'
p3124
I3
sS'generally'
p3125
I2
sS'exporter'
p3126
I1
sS'felt'
p3127
I8
sS'makubetse'
p3128
I1
sS'fell'
p3129
I6
sS'exported'
p3130
I3
sS'authorities'
p3131
I4
sS'weekend'
p3132
I10
sS'unlocking'
p3133
I1
sS'billion'
p3134
I68
sS'13.62'
p3135
I2
sS'pre-1995'
p3136
I1
sS'happening'
p3137
I1
sS'35.99'
p3138
I2
sS'profits'
p3139
I7
sS'managed'
p3140
I6
sS'farhan'
p3141
I4
sS'14.48private'
p3142
I2
sS'manager'
p3143
I10
sS'anticipation'
p3144
I2
sS'depend'
p3145
I1
sS'124.50'
p3146
I1
sS'father'
p3147
I3
sS'0'
p3148
I8
sS'finally'
p3149
I1
sS'sahnoun.their'
p3150
I1
sS'marks'
p3151
I4
sS'suffered'
p3152
I3
sS'ones.such'
p3153
I1
sS'adviser'
p3154
I8
sS'zaire.south'
p3155
I1
sS'uneventful'
p3156
I1
sS'advised'
p3157
I9
sS'word'
p3158
I2
sS'agoconsumer'
p3159
I4
sS'wore'
p3160
I2
sS'swapping'
p3161
I1
sS'did'
p3162
I20
sS'apartheid'
p3163
I8
sS'proposals'
p3164
I2
sS'travels'
p3165
I1
sS'item'
p3166
I1
sS'set.however'
p3167
I1
sS'div'
p3168
I8
sS'dip'
p3169
I1
sS'round'
p3170
I5
sS"it'll"
p3171
I1
sS'fearing'
p3172
I1
sS'dealing'
p3173
I5
sS'were.its'
p3174
I1
sS'months.in'
p3175
I1
sS'semifinals'
p3176
I2
sS'3,082'
p3177
I2
sS'favour'
p3178
I7
sS'months.honore'
p3179
I1
sS'days.along'
p3180
I1
sS'international'
p3181
I20
sS'filled'
p3182
I2
sS'hypermarket'
p3183
I1
sS'makeup'
p3184
I1
sS'french'
p3185
I4
sS'raided'
p3186
I1
sS'street.the'
p3187
I1
sS'exemplified'
p3188
I1
sS'shift'
p3189
I3
sS'bob'
p3190
I2
sS'elect'
p3191
I1
sS'ailing'
p3192
I5
sS'beeld'
p3193
I4
sS'hotels'
p3194
I1
sS'everybody'
p3195
I1
sS'troops'
p3196
I6
sS'sharper'
p3197
I1
sS'otis'
p3198
I1
sS'unfortified'
p3199
I3
sS'visit'
p3200
I2
sS'france'
p3201
I4
sS'cooperated'
p3202
I1
sS'outweighs'
p3203
I1
sS'botha'
p3204
I5
sS'8,170.0'
p3205
I2
sS'malan'
p3206
I2
sS'fly'
p3207
I13
sS'growing'
p3208
I11
sS'making'
p3209
I10
sS'arrive'
p3210
I3
sS'claim'
p3211
I1
sS'unbundling'
p3212
I8
sS'lobbying'
p3213
I1
sS'bottomline'
p3214
I1
sS'confused'
p3215
I1
sS'agent'
p3216
I1
sS'9,396'
p3217
I2
sS'council'
p3218
I3
sS'dennis'
p3219
I1
sS'chemical'
p3220
I1
sS'sunday'
p3221
I3
sS'pure'
p3222
I1
sS'guarantee'
p3223
I1
sS'staying'
p3224
I1
sS'mar'
p3225
I15
sS'140'
p3226
I2
sS'critics'
p3227
I1
sS'guys'
p3228
I1
sS'grow'
p3229
I3
sS'man'
p3230
I5
sS'scrambling'
p3231
I1
sS'neck'
p3232
I1
sS'johnson'
p3233
I9
sS'maybe'
p3234
I3
sS'borrowing'
p3235
I1
sS'tale'
p3236
I1
sS'deposit'
p3237
I6
sS'african'
p3238
I167
sS'tall'
p3239
I1
sS'talk'
p3240
I9
sS'pointed'
p3241
I2
sS'northampton'
p3242
I2
sS'seizing'
p3243
I1
sS'emerged.the'
p3244
I1
sS'stability'
p3245
I1
sS'introductions'
p3246
I2
sS'shake'
p3247
I1
sS'constituted.a'
p3248
I1
sS'268.50'
p3249
I1
sS'group'
p3250
I51
sS'speciality.neil'
p3251
I1
sS'interesting'
p3252
I3
sS'plethora'
p3253
I1
sS'sentrachem'
p3254
I8
sS'listing'
p3255
I1
sS'policy'
p3256
I4
sS'main'
p3257
I9
sS'prime'
p3258
I20
sS'finance'
p3259
I12
sS'views'
p3260
I4
sS'killer'
p3261
I1
sS'undisclosed'
p3262
I2
sS'352.09'
p3263
I1
sS'killed'
p3264
I5
sS'developments'
p3265
I2
sS'14.0'
p3266
I1
sS'14.2'
p3267
I1
sS'said.nominal'
p3268
I3
sS'vogue'
p3269
I1
sS'bridging'
p3270
I2
sS's&p'
p3271
I2
sS'unlock'
p3272
I1
sS'living'
p3273
I1
sS'nominal'
p3274
I1
sS'emerged'
p3275
I1
sS'wainwright'
p3276
I1
sS'correct'
p3277
I2
sS'assurance'
p3278
I1
sS'ore'
p3279
I1
sS'keith'
p3280
I1
sS'realignment'
p3281
I1
sS'advance'
p3282
I5
sS'lanseria'
p3283
I3
sS'ministry'
p3284
I10
sS'high.several'
p3285
I1
sS'88.0mon'
p3286
I1
sS'registrar'
p3287
I1
sS'think'
p3288
I5
sS'8,118.the'
p3289
I1
sS'seychelles'
p3290
I1
sS'said.buthelezi'
p3291
I1
sS'fleeing'
p3292
I1
sS'rebels.the'
p3293
I1
sS'suspended'
p3294
I3
sS'carry'
p3295
I4
sS'discharged'
p3296
I2
sS'little'
p3297
I14
sS'murky'
p3298
I1
sS'swaziland'
p3299
I5
sS'participated'
p3300
I1
sS'speaking'
p3301
I6
sS'289.08'
p3302
I4
sS'eyes'
p3303
I5
sS'adjourned'
p3304
I2
sS'broadcast'
p3305
I2
sS'mobutu.tshisekedi'
p3306
I1
sS'38,926.8'
p3307
I4
sS'ceramics'
p3308
I1
sS'11'
p3309
I87
sS'10'
p3310
I25
sS'13'
p3311
I2
sS'12'
p3312
I15
sS'15'
p3313
I7
sS'14'
p3314
I3
sS'17'
p3315
I9
sS'16'
p3316
I3
sS'19'
p3317
I3
sS'18'
p3318
I11
sS'protected'
p3319
I1
sS'venture'
p3320
I6
sS'273.00'
p3321
I1
sS'occupied'
p3322
I1
sS'speakers'
p3323
I1
sS'price.under'
p3324
I1
sS'consortium'
p3325
I3
sS'squad'
p3326
I23
sS'performance'
p3327
I9
sS'switching'
p3328
I1
sS'channel'
p3329
I1
sS'1,700'
p3330
I1
sS'200'
p3331
I2
sS'normal'
p3332
I1
sS'track'
p3333
I2
sS'paid'
p3334
I9
sS'sheets'
p3335
I1
sS'pair'
p3336
I1
sS'conspicuous'
p3337
I1
sS'especially'
p3338
I2
sS'thursday.honore'
p3339
I1
sS'precise'
p3340
I3
sS'shot'
p3341
I4
sS'tentatively'
p3342
I4
sS'corner'
p3343
I1
sS'dick'
p3344
I1
sS'11.43'
p3345
I1
sS'black'
p3346
I28
sS'treasury'
p3347
I1
sS'pegged'
p3348
I4
sS'2.01m'
p3349
I2
sS'contracts'
p3350
I4
sS'designated'
p3351
I1
sS'nearly'
p3352
I8
sS'proposed.zaire'
p3353
I1
sS'12.3'
p3354
I1
sS'colossus'
p3355
I1
sS'malaysian'
p3356
I1
sS'yield'
p3357
I1
sS'morning'
p3358
I7
sS'3.0gdp'
p3359
I4
sS'miles'
p3360
I1
sS'finishing'
p3361
I1
sS'worrying'
p3362
I1
sS'5.41'
p3363
I4
sS'declared'
p3364
I3
sS'honesty'
p3365
I1
sS'relative'
p3366
I1
sS'sean'
p3367
I1
sS'stigma'
p3368
I1
sS'emulating'
p3369
I1
sS'miba'
p3370
I1
sS'lediga'
p3371
I1
sS'forecast'
p3372
I16
sS'whereabouts'
p3373
I1
sS'diamonds'
p3374
I2
sS'infrastructure'
p3375
I1
sS'august'
p3376
I4
sS'parent'
p3377
I2
sS'june.catt'
p3378
I1
sS'conference.a'
p3379
I1
sS'11,438.0'
p3380
I1
sS'rugby'
p3381
I16
sS'similar'
p3382
I1
sS'trader'
p3383
I14
sS'trades'
p3384
I6
sS'according'
p3385
I5
sS'27,231'
p3386
I2
sS'uneconomic'
p3387
I1
sS'tour'
p3388
I24
sS'disappointment'
p3389
I1
sS'traded'
p3390
I2
sS'cancer'
p3391
I1
sS'refocused'
p3392
I1
sS'maintained'
p3393
I1
sS'anddebentures'
p3394
I1
sS'cancel'
p3395
I2
sS'barry'
p3396
I1
sS'mark'
p3397
I5
sS'computers.however'
p3398
I1
sS'stellenbosch'
p3399
I3
sS'loxton'
p3400
I1
sS'educated'
p3401
I1
sS'offered'
p3402
I10
sS'gripped'
p3403
I1
sS'bmw'
p3404
I2
sS'show.january'
p3405
I1
sS'sound'
p3406
I1
sS'warning'
p3407
I1
sS'ongoing'
p3408
I4
sS'cancelled'
p3409
I4
sS'margin'
p3410
I2
sS'mentality.south'
p3411
I1
sS'cluster'
p3412
I5
sS'datatec'
p3413
I2
sS'rowntree'
p3414
I1
sS'war.he'
p3415
I1
sS'different'
p3416
I2
sS'doctor'
p3417
I1
sS'pay'
p3418
I12
sS'17.2'
p3419
I1
sS'previouswed'
p3420
I2
sS'17.5'
p3421
I2
sS'struggling'
p3422
I3
sS'dated'
p3423
I1
sS'autonomously'
p3424
I2
sS'oil'
p3425
I15
sS'assist'
p3426
I2
sS'478.11'
p3427
I1
sS'running'
p3428
I4
sS'ground.they'
p3429
I1
sS'totally'
p3430
I3
sS'band'
p3431
I1
sS'macro'
p3432
I4
sS'roughly'
p3433
I7
sS'bottle'
p3434
I1
sS'easing'
p3435
I3
sS'money'
p3436
I33
sS'sights'
p3437
I1
sS'dipped'
p3438
I2
sS'tourism'
p3439
I4
sS'4'
p3440
I14
sS'zulu'
p3441
I3
sS'nando'
p3442
I1
sS'mon'
p3443
I1
sS'aiming'
p3444
I1
sS'disappointed'
p3445
I2
sS'585.62div'
p3446
I1
sS'1.04'
p3447
I1
sS'adams'
p3448
I3
sS'identifying'
p3449
I1
sS'facing'
p3450
I1
sS'retailers'
p3451
I2
sS'served'
p3452
I4
sS'stronger.at'
p3453
I1
sS'wigan'
p3454
I1
sS'910/25'
p3455
I1
sS'naas'
p3456
I2
sS'smarting'
p3457
I1
sS'gross'
p3458
I6
sS'ellis'
p3459
I3
sS'4.4175/4205'
p3460
I1
sS'3,616.5'
p3461
I2
sS'pioneer'
p3462
I1
sS'critical'
p3463
I2
sS'kms'
p3464
I1
sS'airways'
p3465
I5
sS'manufactured'
p3466
I1
sS'lineout'
p3467
I2
sS'broken'
p3468
I1
sS'855,000'
p3469
I3
sS'years.england'
p3470
I1
sS'manufacturer'
p3471
I2
sS'1.93m'
p3472
I3
sS'island'
p3473
I1
sS'violence'
p3474
I4
sS'power.there'
p3475
I1
sS'airline'
p3476
I2
sS'mixed'
p3477
I8
sS'alec'
p3478
I1
sS'provisional'
p3479
I2
sS'road'
p3480
I1
sS'whites'
p3481
I3
sS'skilled'
p3482
I1
sS'5,754.72'
p3483
I1
sS'numbers.he'
p3484
I1
sS'klerk'
p3485
I1
sS'10,800.17'
p3486
I1
sS'friday.gold'
p3487
I1
sS'lions'
p3488
I50
sS'lieres'
p3489
I4
sS'clohessey'
p3490
I1
sS'203.72'
p3491
I4
sS"wasn't"
p3492
I3
sS'joubert'
p3493
I4
sS'manuel'
p3494
I3
sS'leaked'
p3495
I1
sS'videos'
p3496
I2
sS'13-match'
p3497
I2
sS'8,025/35'
p3498
I1
sS'deep'
p3499
I2
sS'general'
p3500
I14
sS'22.6wed'
p3501
I1
sS'importing'
p3502
I2
sS'drivers'
p3503
I1
sS'field'
p3504
I2
sS'neighbouring'
p3505
I1
sS'fruitless'
p3506
I1
sS'4,000'
p3507
I1
sS'note.but'
p3508
I1
sS'important'
p3509
I9
sS'years.it'
p3510
I1
sS'brands'
p3511
I2
sS'482'
p3512
I52
sS'morning.soldiers'
p3513
I1
sS'assets'
p3514
I39
sS'operation.cullinan'
p3515
I1
sS'hugely'
p3516
I1
sS'starting'
p3517
I9
sS'represent'
p3518
I3
sS'85,435.91'
p3519
I1
sS'dollar'
p3520
I15
sS'levelling'
p3521
I3
sS'talks'
p3522
I88
sS'weighting'
p3523
I4
sS'children'
p3524
I1
sS'offthe'
p3525
I1
sS'rand.last'
p3526
I1
sS'mandela'
p3527
I7
sS'premium'
p3528
I1
sS'parcel'
p3529
I2
sS'6,981.1.de'
p3530
I1
sS'fall'
p3531
I17
sS'difference'
p3532
I1
sS'1,297.5'
p3533
I2
sS'shanty'
p3534
I1
sS'perception'
p3535
I2
sS'lawyer'
p3536
I4
sS'10.41'
p3537
I1
sS'appreciating'
p3538
I4
sS'defence'
p3539
I9
sS'stood'
p3540
I5
sS'opted'
p3541
I1
sS'1997.additional'
p3542
I1
sS'37.53'
p3543
I1
sS'movement'
p3544
I10
sS'12.49'
p3545
I7
sS'32,108'
p3546
I2
sS'component'
p3547
I6
sS'jonah'
p3548
I1
sS'ranges'
p3549
I1
sS'operating'
p3550
I3
sS'continued.at'
p3551
I1
sS'standard'
p3552
I6
sS'906'
p3553
I1
sS'909'
p3554
I1
sS'airport'
p3555
I2
sS'published'
p3556
I1
sS'narrow'
p3557
I1
sS'themis'
p3558
I1
sS'africa'
p3559
I174
sS'establish'
p3560
I2
sS'shareholders'
p3561
I21
sS'eye'
p3562
I3
sS'hardcourt'
p3563
I1
sS'destination'
p3564
I1
sS'humphreys'
p3565
I1
sS'0.005'
p3566
I1
sS'0.003'
p3567
I1
sS'diamond'
p3568
I11
sS'statement.the'
p3569
I2
sS'117.5kg'
p3570
I1
sS'figure.some'
p3571
I2
sS'leonard'
p3572
I1
sS'controlling'
p3573
I3
sS'particular'
p3574
I4
sS'nineteen'
p3575
I1
sS'town'
p3576
I31
sS'hour'
p3577
I5
sS'der'
p3578
I1
sS'des'
p3579
I1
sS'remain'
p3580
I12
sS'abandon'
p3581
I1
sS'strategies'
p3582
I1
sS'dec'
p3583
I12
sS'stubborn'
p3584
I2
sS'rand.repurchase'
p3585
I1
sS'numbers'
p3586
I2
sS'sharp'
p3587
I10
sS'rand.total'
p3588
I1
sS'3,043'
p3589
I2
sS'technology'
p3590
I3
sS'acts'
p3591
I1
sS'movements'
p3592
I9
sS'css'
p3593
I2
sS'blood'
p3594
I1
sS'coming'
p3595
I14
sS'response'
p3596
I2
sS'percent.the'
p3597
I2
sS'conglomerates'
p3598
I5
sS'mangosuthu'
p3599
I1
sS'responsibility'
p3600
I1
sS'480.64'
p3601
I2
sS'playing'
p3602
I6
sS'vaxjo'
p3603
I2
sS'setback'
p3604
I1
sS'winger'
p3605
I1
sS'24'
p3606
I11
sS'42,794.4new'
p3607
I4
sS'26'
p3608
I10
sS'27'
p3609
I98
sS'20'
p3610
I11
sS'21'
p3611
I20
sS'22'
p3612
I7
sS'23'
p3613
I11
sS'oppressors.deutsche'
p3614
I1
sS'28'
p3615
I15
sS'29'
p3616
I8
sS'pct'
p3617
I13
sS'seasonally'
p3618
I4
sS'late'
p3619
I23
sS'thursday.the'
p3620
I6
sS'reuters'
p3621
I26
sS'etienne'
p3622
I11
sS'7.07'
p3623
I1
sS'good'
p3624
I23
sS'seeking'
p3625
I6
sS'encouraging'
p3626
I2
sS'association'
p3627
I5
sS'zar150'
p3628
I1
sS'robbie'
p3629
I1
sS'baa1'
p3630
I4
sS'namibia'
p3631
I5
sS'6,509'
p3632
I1
sS'competition.in'
p3633
I1
sS'breakdown'
p3634
I3
sS'786.71'
p3635
I1
sS'house'
p3636
I3
sS'energy'
p3637
I4
sS'hard'
p3638
I6
sS'idea'
p3639
I1
sS'rail.the'
p3640
I1
sS'32.15'
p3641
I1
sS'initiatives'
p3642
I1
sS'funding'
p3643
I1
sS'acting'
p3644
I2
sS'longtime'
p3645
I1
sS'1.78'
p3646
I1
sS'lawrence'
p3647
I1
sS'lottery.the'
p3648
I1
sS'sbc'
p3649
I1
sS'members'
p3650
I13
sS'reparations'
p3651
I1
sS'beginning'
p3652
I1
sS'benefits'
p3653
I1
sS'omit'
p3654
I1
sS'harris'
p3655
I6
sS'stimpson'
p3656
I2
sS'copper'
p3657
I3
sS'elevator'
p3658
I1
sS'secondround'
p3659
I1
sS'modise'
p3660
I2
sS'doubles.larsson'
p3661
I1
sS'pains'
p3662
I2
sS'6,400/500.south'
p3663
I2
sS'mentality'
p3664
I2
sS'believe'
p3665
I5
sS'peaked'
p3666
I2
sS'wednesday.economists'
p3667
I1
sS'b'
p3668
I2
sS'largely'
p3669
I7
sS'recording'
p3670
I1
sS'trip.instead'
p3671
I1
sS'conciliationmandela'
p3672
I1
sS'327.21'
p3673
I1
sS'biccard'
p3674
I2
sS'kananga'
p3675
I1
sS'1.91m'
p3676
I2
sS'management.vwv'
p3677
I2
sS'declare'
p3678
I1
sS'interactive'
p3679
I4
sS'trudged'
p3680
I1
sS'ages'
p3681
I1
sS'1.77m'
p3682
I2
sS'55,685'
p3683
I2
sS'orders'
p3684
I2
sS'built'
p3685
I1
sS'onset'
p3686
I1
sS'majority'
p3687
I2
sS'build'
p3688
I4
sS'falconry'
p3689
I1
sS'province'
p3690
I12
sS'group.in'
p3691
I1
sS'chetty'
p3692
I1
sS'significant'
p3693
I1
sS'services'
p3694
I2
sS'extremely'
p3695
I1
sS'11,176'
p3696
I2
sS'kg'
p3697
I4
sS'goodwill'
p3698
I1
sS'country.on'
p3699
I1
sS'km'
p3700
I2
sS'252238'
p3701
I1
sS'weigh'
p3702
I2
sS'joining'
p3703
I3
sS'sector'
p3704
I19
sS'thomas'
p3705
I4
sS'particularly'
p3706
I5
sS'rebels'
p3707
I46
sS'businesses'
p3708
I23
sS'fine'
p3709
I1
sS'said.ngabanda'
p3710
I1
sS'merger'
p3711
I5
sS'nervous'
p3712
I4
sS'generators'
p3713
I1
sS'8'
p3714
I4
sS'distributes'
p3715
I2
sS'merged'
p3716
I2
sS'kabila'
p3717
I45
sS'permission'
p3718
I2
sS'express'
p3719
I4
sS'1997.also'
p3720
I2
sS'rest'
p3721
I7
sS'theft'
p3722
I1
sS'transitional'
p3723
I3
sS'common'
p3724
I2
sS'doubles'
p3725
I3
sS'164.8'
p3726
I2
sS'day.however'
p3727
I1
sS'vine'
p3728
I2
sS'geoff'
p3729
I1
sS'individual'
p3730
I5
sS'leslie'
p3731
I1
sS'tender'
p3732
I10
sS'forthcoming'
p3733
I1
sS'materially'
p3734
I1
sS'1,211'
p3735
I1
sS'repairs'
p3736
I1
sS'137.00'
p3737
I1
sS'expert'
p3738
I2
sS'visiting'
p3739
I1
sS'halves'
p3740
I3
sS'fans'
p3741
I1
sS'vascular'
p3742
I1
sS'said.hlabangane'
p3743
I1
sS'responses'
p3744
I2
sS'dividends'
p3745
I1
sS'pepsi'
p3746
I1
sS'reverse'
p3747
I3
sS'restaurant'
p3748
I1
sS'tapered'
p3749
I1
sS'annual'
p3750
I12
sS'foreign'
p3751
I63
sS'mean'
p3752
I1
sS'roumat'
p3753
I2
sS'supply'
p3754
I22
sS'asserted'
p3755
I1
sS'platinum'
p3756
I1
sS'raise'
p3757
I2
sS'create'
p3758
I2
sS'rivals'
p3759
I1
sS'secret'
p3760
I3
sS'dropping'
p3761
I2
sS'ireland'
p3762
I6
sS'said.the'
p3763
I25
sS'meeting'
p3764
I15
sS'35-man'
p3765
I7
sS'gap'
p3766
I3
sS'understand'
p3767
I2
sS'prices'
p3768
I31
sS'classifications'
p3769
I1
sS'solid'
p3770
I1
sS'avitronics'
p3771
I3
sS'elections'
p3772
I8
sS'war.diplomats'
p3773
I2
sS'century'
p3774
I1
sS'cents'
p3775
I64
sS'encountered'
p3776
I1
sS'finalists'
p3777
I1
sS'11.058'
p3778
I2
sS'italy'
p3779
I5
sS'papendorp'
p3780
I5
sS'903/913'
p3781
I1
sS'corridor'
p3782
I2
sS'1999.but'
p3783
I1
sS'1,217.80'
p3784
I1
sS'development'
p3785
I10
sS'currencies'
p3786
I1
sS'moment'
p3787
I4
sS'aggregate'
p3788
I2
sS'task'
p3789
I1
sS'6,962.4'
p3790
I2
sS'spent'
p3791
I4
sS'y'
p3792
I2
sS'entry'
p3793
I2
sS'signalled'
p3794
I1
sS'265.75'
p3795
I1
sS'tyco'
p3796
I3
sS'kobus'
p3797
I1
sS'discipline'
p3798
I1
sS'impetus'
p3799
I1
sS'cut'
p3800
I2
sS'cup'
p3801
I14
sS'source'
p3802
I9
sS'administrative'
p3803
I1
sS'big'
p3804
I11
sS'bid'
p3805
I3
sS'matters'
p3806
I1
sS'foreigners'
p3807
I7
sS'bit'
p3808
I3
sS'knock'
p3809
I2
sS'follows'
p3810
I1
sS'surging'
p3811
I3
sS'1415'
p3812
I1
sS'2,753'
p3813
I2
sS'1,966.8'
p3814
I1
sS'shares.an'
p3815
I1
sS'delegation'
p3816
I5
sS'pricing'
p3817
I2
sS'commented.at'
p3818
I1
sS'scale'
p3819
I3
sS'decision'
p3820
I4
sS'pen'
p3821
I1
sS'commentator'
p3822
I1
sS'taxing'
p3823
I1
sS'remembered'
p3824
I1
sS'goma'
p3825
I5
sS'feb'
p3826
I53
sS'goods'
p3827
I3
sS'pepsico'
p3828
I1
sS'conciliatory'
p3829
I1
sS'drama'
p3830
I1
sS'ounce'
p3831
I6
sS'ltd.wednesday'
p3832
I1
sS'1,020'
p3833
I2
sS'retailer'
p3834
I1
sS'neutrality'
p3835
I1
sS'steven'
p3836
I2
sS'frames'
p3837
I1
sS'78.3'
p3838
I3
sS'abrahamson.the'
p3839
I1
sS'78.0'
p3840
I1
sS'bs1/bs2'
p3841
I1
sS'intermediaries'
p3842
I1
sS'pharmaceuticals'
p3843
I1
sS'forward'
p3844
I3
sS'opponent'
p3845
I1
sS'boyd'
p3846
I3
sS'bitterly'
p3847
I2
sS'hoped'
p3848
I1
sS'hopes'
p3849
I9
sS'subsidiary'
p3850
I2
sS'rejection'
p3851
I4
sS'tours.eric'
p3852
I1
sS'6,380'
p3853
I1
sS'continuing.in'
p3854
I2
sS'metal'
p3855
I6
sS'single'
p3856
I3
sS'16.89wed'
p3857
I2
sS'yearbook'
p3858
I1
sS'zazar1'
p3859
I1
sS'interactive.the'
p3860
I2
sS'underweight'
p3861
I3
sS'167.1'
p3862
I1
sS'favourite'
p3863
I1
sS'aggregates'
p3864
I1
sS'prepared'
p3865
I2
sS'intensified'
p3866
I1
sS'16.08monetary'
p3867
I1
sS'income.however'
p3868
I2
sS'vehicles'
p3869
I16
sS'2000'
p3870
I3
sS'2005'
p3871
I4
sS'enrichment'
p3872
I2
sS'discards'
p3873
I1
sS'7,975'
p3874
I1
sS'marks.money'
p3875
I1
sS'intensive'
p3876
I1
sS'quarterly'
p3877
I5
sS'882.98'
p3878
I1
sS'nervousness'
p3879
I3
sS'said.all'
p3880
I1
sS'putting'
p3881
I3
sS'5,294'
p3882
I2
sS'7.6new'
p3883
I4
sS'colours.ranked'
p3884
I1
sS'entire'
p3885
I4
sS'shock'
p3886
I1
sS'choppy'
p3887
I2
sS'ceasefire'
p3888
I18
sS'year.an'
p3889
I1
sS'crop'
p3890
I4
sS'fredville'
p3891
I1
sS'war.tshisekedi'
p3892
I1
sS'depression'
p3893
I1
sS'reconciliation'
p3894
I3
sS'giving'
p3895
I8
sS'access'
p3896
I1
sS'exercise'
p3897
I9
sS'body'
p3898
I3
sS'exchange'
p3899
I45
sS'got'
p3900
I10
sS'baring'
p3901
I2
sS'7706'
p3902
I1
sS'38,388.5'
p3903
I4
sS'39'
p3904
I2
sS'38'
p3905
I5
sS'talent'
p3906
I1
sS'inkatha'
p3907
I9
sS'33'
p3908
I3
sS'32'
p3909
I8
sS'31'
p3910
I22
sS'30'
p3911
I23
sS'37'
p3912
I2
sS'36'
p3913
I2
sS'implement'
p3914
I3
sS'looted'
p3915
I2
sS'composed'
p3916
I1
sS'named'
p3917
I6
sS'private'
p3918
I14
sS'decrease'
p3919
I1
sS'names'
p3920
I4
sS'space.the'
p3921
I1
sS'beefed'
p3922
I1
sS'oils'
p3923
I1
sS'siltek'
p3924
I1
sS'0.2'
p3925
I1
sS'40.26'
p3926
I1
sS'hints'
p3927
I1
sS'account'
p3928
I8
sS'16.09'
p3929
I3
sS'embarked'
p3930
I1
sS'16.06'
p3931
I1
sS'0800'
p3932
I3
sS'erwin'
p3933
I1
sS'praise'
p3934
I1
sS'closing'
p3935
I5
sS'reserved'
p3936
I4
sS'15.45'
p3937
I2
sS'effectively'
p3938
I1
sS'reserves'
p3939
I16
sS'15.41'
p3940
I2
sS'15.40'
p3941
I1
sS'quarter.naamsa'
p3942
I2
sS'contempt'
p3943
I2
sS'barlows'
p3944
I1
sS'democracy'
p3945
I4
sS'timetables'
p3946
I2
sS'hampshire'
p3947
I1
sS'gcn'
p3948
I1
sS'regions'
p3949
I3
sS'responsibilities'
p3950
I1
sS'winners'
p3951
I2
sS'said.but'
p3952
I3
sS'addding'
p3953
I1
sS'stock'
p3954
I25
sS'profile'
p3955
I2
sS'years.the'
p3956
I1
sS'buildings'
p3957
I2
sS'annualised'
p3958
I1
sS'fran'
p3959
I2
sS'highs'
p3960
I4
sS'zakey1'
p3961
I1
sS'legality'
p3962
I1
sS'yielded'
p3963
I1
sS'red.anglo'
p3964
I1
sS'3.86bln'
p3965
I4
sS'14,270.56'
p3966
I1
sS'guru'
p3967
I1
sS'lines'
p3968
I5
sS'chief'
p3969
I12
sS'institutional'
p3970
I7
sS'wedding'
p3971
I1
sS'grayson'
p3972
I4
sS'agricultural'
p3973
I2
sS'industries'
p3974
I4
sS'le'
p3975
I1
sS'la'
p3976
I11
sS'transvaal'
p3977
I1
sS'malbak'
p3978
I3
sS'criminal'
p3979
I1
sS'extradition'
p3980
I1
sS'friday.the'
p3981
I3
sS'greater'
p3982
I4
sS'10,710.44'
p3983
I1
sS'spell'
p3984
I1
sS'dai'
p3985
I1
sS'insisting'
p3986
I1
sS'day'
p3987
I53
sS'february'
p3988
I52
sS'warned'
p3989
I4
sS'identified'
p3990
I1
sS'slipping'
p3991
I1
sS'3,000'
p3992
I2
sS'jones'
p3993
I1
sS'tension'
p3994
I1
sS'restructured'
p3995
I1
sS'day.the'
p3996
I2
sS'rev'
p3997
I2
sS'wholly'
p3998
I2
sS'mate'
p3999
I1
sS'38.13'
p4000
I1
sS'postpone'
p4001
I1
sS'red'
p4002
I5
sS'approaches'
p4003
I2
sS'receipts'
p4004
I1
sS'allies'
p4005
I3
sS'term.the'
p4006
I3
sS'barriers'
p4007
I1
sS'retain'
p4008
I3
sS'retail'
p4009
I14
sS'facilitate'
p4010
I3
sS'south'
p4011
I284
sS'unspent'
p4012
I1
sS'2,008'
p4013
I2
sS'strategic'
p4014
I5
sS'reached'
p4015
I2
sS'pretoria.one'
p4016
I2
sS'ripples'
p4017
I2
sS'pakistani'
p4018
I1
sS'plantings'
p4019
I2
sS'completed'
p4020
I4
sS'acquire'
p4021
I5
sS'environmental'
p4022
I1
sS'17.07wed'
p4023
I1
sS'completes'
p4024
I1
sS'jocky'
p4025
I1
sS'swedes'
p4026
I1
sS'sweden'
p4027
I10
sS'visited'
p4028
I1
sS'said.unusually'
p4029
I1
sS'comfortably'
p4030
I1
sS'unlikely'
p4031
I3
sS'show.non'
p4032
I1
sS'continents'
p4033
I1
sS'newlands'
p4034
I1
sS'cosatu'
p4035
I3
sS'mid'
p4036
I2
sS'incentive'
p4037
I1
sS'tranches'
p4038
I1
sS'diversity.robin'
p4039
I1
sS'1.32'
p4040
I1
sS'unless'
p4041
I5
sS'released.overall'
p4042
I1
sS'preliminary'
p4043
I12
sS'herman'
p4044
I3
sS'1,290.9'
p4045
I2
sS'12th.the'
p4046
I2
sS'26-member'
p4047
I1
sS'absurd'
p4048
I2
sS'supported'
p4049
I2
sS'stockbroking'
p4050
I1
sS'percent.van'
p4051
I1
sS'portfolio'
p4052
I9
sS'saa.cn'
p4053
I2
sS'supporter'
p4054
I1
sS'controls'
p4055
I5
sS'ksa'
p4056
I2
sS'affairs.mandela'
p4057
I1
sS'regularly'
p4058
I1
sS'exceptional'
p4059
I2
sS'thursday.it'
p4060
I3
sS'bear'
p4061
I3
sS'beal'
p4062
I2
sS'buthelezi'
p4063
I4
sS'timing'
p4064
I1
sS'areas'
p4065
I5
sS'133'
p4066
I1
sS'overnight.troops'
p4067
I1
sS'teams'
p4068
I6
sS'influenced'
p4069
I1
sS'mercedes'
p4070
I2
sS'tightening'
p4071
I2
sS'fixed'
p4072
I4
sS'omission'
p4073
I1
sS'exists'
p4074
I1
sS'1996interim'
p4075
I2
sS'division.these'
p4076
I1
sS'36.8'
p4077
I2
sS'phases'
p4078
I2
sS'rebhold'
p4079
I8
sS'bbag'
p4080
I1
sS'pattern'
p4081
I1
sS'bruno'
p4082
I1
sS'progress'
p4083
I6
sS'brentwood'
p4084
I2
sS'commenting'
p4085
I1
sS'buster'
p4086
I1
sS'taking'
p4087
I8
sS'parlimentarian'
p4088
I1
sS'comment'
p4089
I7
sS'relevant'
p4090
I1
sS'ushering'
p4091
I1
sS'6.5producer'
p4092
I4
sS'ago.for'
p4093
I1
sS'earning'
p4094
I3
sS'asenda'
p4095
I1
sS'ago.it'
p4096
I2
sS'nb'
p4097
I1
sS'indicators'
p4098
I7
sS'proposal'
p4099
I1
sS'15.90rsa'
p4100
I3
sS'stationed'
p4101
I1
sS'climate'
p4102
I2
sS'bulk'
p4103
I1
sS'finished'
p4104
I1
sS'tense'
p4105
I1
sS'fellow'
p4106
I2
sS'homes'
p4107
I3
sS'7-3'
p4108
I2
sS'7-6'
p4109
I1
sS'7-5'
p4110
I4
sS'3-64-6'
p4111
I1
sS'hampering'
p4112
I1
sS'dykes'
p4113
I2
sS'respected'
p4114
I2
sS'arrangements'
p4115
I8
sS'partner'
p4116
I2
sS'tumbled'
p4117
I4
sS'york.the'
p4118
I1
sS'powell'
p4119
I2
sS'easter'
p4120
I4
sS'power.now'
p4121
I1
sS'reporting'
p4122
I1
sS'numbered'
p4123
I1
sS'16.62'
p4124
I1
sS'thought'
p4125
I2
sS'sets'
p4126
I7
sS'position'
p4127
I5
sS'muscle'
p4128
I1
sS'latest'
p4129
I25
sS'stores'
p4130
I9
sS'excise'
p4131
I4
sS'orthopaedic'
p4132
I2
sS'proximity'
p4133
I3
sS'hands'
p4134
I3
sS'domestic'
p4135
I16
sS'nicknamed'
p4136
I3
sS'underlying'
p4137
I2
sS'nghenda'
p4138
I3
sS'tough'
p4139
I5
sS'benco'
p4140
I2
sS'investor'
p4141
I2
sS'gmt.the'
p4142
I1
sS'add'
p4143
I2
sS'114kg'
p4144
I1
sS'delegations'
p4145
I2
sS'adj'
p4146
I1
sS'287'
p4147
I1
sS'gmt'
p4148
I28
sS'resolved'
p4149
I2
sS'tests'
p4150
I13
sS'apologise.he'
p4151
I1
sS'displaced'
p4152
I4
sS'like'
p4153
I8
sS'success'
p4154
I1
sS'mustaq'
p4155
I1
sS'admitted'
p4156
I2
sS'italian'
p4157
I1
sS'mushroomed'
p4158
I1
sS'authority'
p4159
I2
sS'recommendation'
p4160
I1
sS'proper'
p4161
I4
sS'friday.however'
p4162
I2
sS'0.24'
p4163
I1
sS'0.25'
p4164
I1
sS'0.23'
p4165
I1
sS'host'
p4166
I2
sS'stranglehold.dealers'
p4167
I1
sS'actual'
p4168
I2
sS'boards'
p4169
I2
sS'exchange.opus'
p4170
I1
sS'certainty'
p4171
I1
sS'122.00full'
p4172
I1
sS'dealer.after'
p4173
I2
sS'economy.a'
p4174
I1
sS'introduced'
p4175
I1
sS'billions'
p4176
I2
sS'1987'
p4177
I2
sS'bentley'
p4178
I2
sS'1980'
p4179
I1
sS'reigned'
p4180
I1
sS'biggest'
p4181
I9
sS'92.74'
p4182
I1
sS'recently.anglo'
p4183
I1
sS'insurer'
p4184
I1
sS'brand'
p4185
I4
sS'markgraaff'
p4186
I1
sS'preparations'
p4187
I2
sS'repeated'
p4188
I1
sS'wealthier'
p4189
I1
sS'memphis'
p4190
I1
sS'sprawling'
p4191
I1
sS'dangerous'
p4192
I2
sS'breweries'
p4193
I1
sS'minutes'
p4194
I1
sS'mbuji'
p4195
I7
sS'supreme'
p4196
I2
sS'deaths'
p4197
I2
sS'exceeded'
p4198
I1
sS'dawson'
p4199
I1
sS'shooting'
p4200
I2
sS'identities'
p4201
I2
sS'said.cash'
p4202
I1
sS'48'
p4203
I1
sS'49'
p4204
I2
sS'46'
p4205
I1
sS'corporation'
p4206
I6
sS'44'
p4207
I2
sS'45'
p4208
I2
sS'43'
p4209
I1
sS'virtual'
p4210
I1
sS'41'
p4211
I2
sS'commented.against'
p4212
I1
sS'unrecovered'
p4213
I1
sS'cheque'
p4214
I3
sS'stirred'
p4215
I2
sS'hikes'
p4216
I2
sS'7,960/970'
p4217
I1
sS'tigon'
p4218
I2
sS'augmented'
p4219
I1
sS'limited'
p4220
I1
sS'team.a'
p4221
I1
sS'poorly'
p4222
I2
sS'replacements'
p4223
I1
sS'346'
p4224
I1
sS'820.33total'
p4225
I1
sS'divergent'
p4226
I1
sS'risk'
p4227
I4
sS'abrahamson'
p4228
I2
sS'rise'
p4229
I15
sS'pummelled'
p4230
I1
sS'jack'
p4231
I1
sS'missionary'
p4232
I1
sS'594'
p4233
I2
sS'magnate'
p4234
I1
sS'venue'
p4235
I4
sS'omini'
p4236
I2
sS'bleak.the'
p4237
I1
sS'leaders'
p4238
I7
sS'capitalisation'
p4239
I4
sS'estimates'
p4240
I9
sS'direct'
p4241
I2
sS'nail'
p4242
I8
sS'surrounding'
p4243
I2
sS'street'
p4244
I32
sS'stake.vwv'
p4245
I2
sS'borrowings'
p4246
I1
sS'estimated'
p4247
I2
sS'blue'
p4248
I7
sS'selected'
p4249
I2
sS'rey.gold'
p4250
I1
sS'deficits'
p4251
I1
sS'conduct'
p4252
I3
sS'supplies'
p4253
I2
sS'kicked'
p4254
I2
sS'philippi'
p4255
I1
sS'hundreds'
p4256
I3
sS'kicker'
p4257
I3
sS'represented'
p4258
I3
sS'property'
p4259
I2
sS'hunting'
p4260
I4
sS'forum'
p4261
I1
sS'changed'
p4262
I2
sS'mandela.holomisa'
p4263
I1
sS'moonstone'
p4264
I2
sS'analysts'
p4265
I17
sS'settled'
p4266
I1
sS'erected'
p4267
I1
sS'tenders'
p4268
I1
sS'33rd'
p4269
I1
sS'asset'
p4270
I10
sS'm3'
p4271
I20
sS'phone'
p4272
I2
sS'excellent'
p4273
I1
sS'join'
p4274
I3
sS'sucrose'
p4275
I1
sS'graft.graham'
p4276
I1
sS'mr'
p4277
I3
sS'preserving'
p4278
I1
sS'53.5'
p4279
I1
sS'15.75m1'
p4280
I1
sS'said.among'
p4281
I1
sS'end'
p4282
I37
sS'36,309.5'
p4283
I1
sS'issues.the'
p4284
I1
sS'elizabeth'
p4285
I2
sS'9record'
p4286
I3
sS'demanding'
p4287
I2
sS'parallel'
p4288
I1
sS'stronghold'
p4289
I1
sS'danny'
p4290
I1
sS'amid'
p4291
I2
sS'acknowledged'
p4292
I1
sS'amic'
p4293
I6
sS'complexity'
p4294
I2
sS'upside'
p4295
I1
sS'hike.charl'
p4296
I1
sS'executed'
p4297
I1
sS'sets.after'
p4298
I1
sS'london'
p4299
I7
sS'imf'
p4300
I3
sS'expectations'
p4301
I2
sS'destroyed'
p4302
I1
sS'16.6'
p4303
I2
sS'compensatory'
p4304
I2
sS'400'
p4305
I3
sS'409'
p4306
I4
sS'prevented'
p4307
I1
sS'9.48'
p4308
I4
sS'emptivebuying'
p4309
I1
sS'rental'
p4310
I3
sS'30-year'
p4311
I2
sS'filling'
p4312
I1
sS'listless'
p4313
I2
sS'victory'
p4314
I3
sS'fitness'
p4315
I2
sS'strategy.a'
p4316
I1
sS'lasting'
p4317
I1
sS'consolidate'
p4318
I1
sS'broker'
p4319
I1
sS'diane'
p4320
I2
sS'15.09'
p4321
I5
sS'15.02'
p4322
I1
sS'saturday'
p4323
I24
sS'15.07'
p4324
I4
sS'15.06'
p4325
I3
sS'depress'
p4326
I1
sS'driving'
p4327
I3
sS'8,383'
p4328
I2
sS'arizona'
p4329
I1
sS'free'
p4330
I2
sS'fred'
p4331
I1
sS'management'
p4332
I16
sS'formation'
p4333
I2
sS'wanted'
p4334
I6
sS'commission.but'
p4335
I1
sS'borkum'
p4336
I1
sS'geldenhuys'
p4337
I1
sS'days'
p4338
I6
sS'filter'
p4339
I2
sS'unknown'
p4340
I1
sS'rand'
p4341
I230
sS'industrial'
p4342
I19
sS'researcher'
p4343
I1
sS'primary'
p4344
I1
sS'hearing'
p4345
I6
sS'0.02'
p4346
I1
sS'0.03'
p4347
I1
sS'0.06'
p4348
I1
sS'0.07'
p4349
I2
sS'0.04'
p4350
I1
sS'0.05'
p4351
I4
sS'tom'
p4352
I1
sS'percentage'
p4353
I2
sS'237.64'
p4354
I1
sS'hare.analysts'
p4355
I1
sS'serve'
p4356
I9
sS'took'
p4357
I7
sS'negotiating'
p4358
I10
sS'western'
p4359
I5
sS'152.30'
p4360
I1
sS'1.85m'
p4361
I1
sS'representatives.south'
p4362
I1
sS'10th'
p4363
I3
sS'18.7'
p4364
I2
sS'seminal'
p4365
I1
sS'bbag.bbag'
p4366
I1
sS'loftus'
p4367
I1
sS'talking'
p4368
I1
sS'shell'
p4369
I3
sS'botswana'
p4370
I2
sS'relatively'
p4371
I3
sS'traditionally'
p4372
I1
sS'1968'
p4373
I1
sS'1964'
p4374
I1
sS'1965'
p4375
I1
sS'1962'
p4376
I1
sS'predominantly'
p4377
I1
sS'client'
p4378
I1
sS'derek'
p4379
I3
sS'2.93'
p4380
I1
sS'8.05'
p4381
I1
sS'abd'
p4382
I1
sS'kabila.zaire'
p4383
I1
sS'peers'
p4384
I1
sS'1.90m'
p4385
I1
sS'tanzania'
p4386
I1
sS'flow'
p4387
I1
sS'4.41'
p4388
I6
sS'seko'
p4389
I19
sS'6.0change'
p4390
I4
sS'10.980'
p4391
I2
sS'river.it'
p4392
I1
sS'radio'
p4393
I7
sS'earth'
p4394
I1
sS'july'
p4395
I12
sS'spite'
p4396
I1
sS'542'
p4397
I1
sS'announce'
p4398
I4
sS'oct'
p4399
I2
sS'hostility'
p4400
I1
sS'watch'
p4401
I1
sS'fluid'
p4402
I1
sS'despite'
p4403
I9
sS'report'
p4404
I16
sS'gareth'
p4405
I2
sS'countries'
p4406
I11
sS'witbank'
p4407
I1
sS'public'
p4408
I17
sS'twice'
p4409
I2
sS'118.9manufacturing'
p4410
I4
sS'liquor'
p4411
I6
sS'friday.results'
p4412
I1
sS'agogdp'
p4413
I4
sS'amalgamated'
p4414
I1
sS'capacity'
p4415
I3
sS'tuesday.in'
p4416
I2
sS'confusion'
p4417
I5
sS'weak'
p4418
I3
sS'news'
p4419
I8
sS'improve'
p4420
I2
sS'faced'
p4421
I1
sS'protect'
p4422
I2
sS'kasrils'
p4423
I3
sS'fault'
p4424
I3
sS'players'
p4425
I25
sS'games'
p4426
I6
sS'jonas'
p4427
I3
sS'expense'
p4428
I1
sS'2,908.79'
p4429
I1
sS'7.1882/2008'
p4430
I1
sS'753.19foreign'
p4431
I1
sS'kwv'
p4432
I32
sS'trust'
p4433
I1
sS'conference'
p4434
I6
sS'zaire.kabila'
p4435
I1
sS'beef'
p4436
I1
sS'quickly'
p4437
I2
sS'confident'
p4438
I1
sS'belongs'
p4439
I1
sS'beet'
p4440
I5
sS'expected'
p4441
I67
sS'1996.detailed'
p4442
I2
sS'refuted'
p4443
I2
sS'fleeting'
p4444
I1
sS'107.7leading'
p4445
I2
sS'enterprises'
p4446
I1
sS'craft'
p4447
I2
sS'catch'
p4448
I1
sS'move.gold'
p4449
I1
sS'n'
p4450
I9
sS'teachers'
p4451
I1
sS'cracked'
p4452
I1
sS'grew.dealers'
p4453
I2
sS'procedure'
p4454
I1
sS'holomisa.the'
p4455
I1
sS'108.5kg'
p4456
I1
sS'broth'
p4457
I1
sS'expenses'
p4458
I1
sS'border'
p4459
I1
sS'wound'
p4460
I1
sS'complex'
p4461
I1
sS'team.flankers'
p4462
I1
sS'january.a'
p4463
I1
sS'welsh'
p4464
I8
sS'pick'
p4465
I5
sS'suburb'
p4466
I1
sS'unyielding'
p4467
I1
sS'shortly'
p4468
I1
sS'saracens.neil'
p4469
I1
sS'greatest'
p4470
I1
sS'stantronic'
p4471
I5
sS'seasonal'
p4472
I1
sS'departed'
p4473
I1
sS'proposed'
p4474
I9
sS'unemployment'
p4475
I2
sS'harmonise'
p4476
I2
sS'purchasing'
p4477
I1
sS'year.on'
p4478
I2
sS'depart'
p4479
I1
sS'elf'
p4480
I1
sS'uganda.johnson'
p4481
I1
sS'els'
p4482
I2
sS'gave'
p4483
I6
sS'9,268.4'
p4484
I1
sS'advances'
p4485
I3
sS'breaks'
p4486
I1
sS'newcastle'
p4487
I2
sS'advanced'
p4488
I3
sS'overnight.rebels'
p4489
I1
sS'55'
p4490
I2
sS'56'
p4491
I1
sS'51'
p4492
I4
sS'50'
p4493
I10
sS'52'
p4494
I1
sS'95kg'
p4495
I1
sS'zeal'
p4496
I1
sS'offices'
p4497
I2
sS'afternoon.the'
p4498
I3
sS'friday.preliminary'
p4499
I1
sS'zaire.earlier'
p4500
I1
sS'successfully'
p4501
I4
sS'election'
p4502
I3
sS'escape'
p4503
I1
sS'indirect'
p4504
I1
sS'incontinence'
p4505
I1
sS'clash'
p4506
I2
sS'testperformances'
p4507
I1
sS'icy'
p4508
I1
sS'425'
p4509
I3
sS'christmas'
p4510
I1
sS'core'
p4511
I5
sS'rand.south'
p4512
I1
sS'payment'
p4513
I1
sS'9.28'
p4514
I4
sS'discount'
p4515
I2
sS'corp'
p4516
I7
sS'meyer'
p4517
I1
sS'attacks'
p4518
I4
sS'plunging'
p4519
I1
sS'ensure'
p4520
I1
sS'logistical'
p4521
I2
sS'efforts'
p4522
I3
sS'15.26'
p4523
I3
sS'afrikaners'
p4524
I8
sS'presence'
p4525
I3
sS'civil'
p4526
I11
sS'ppi'
p4527
I6
sS'15.29'
p4528
I1
sS'15.28'
p4529
I1
sS'prices.but'
p4530
I2
sS'year.the'
p4531
I4
sS'unfocused'
p4532
I1
sS'lags'
p4533
I1
sS'stuck'
p4534
I1
sS'anderson'
p4535
I1
sS'fought'
p4536
I1
sS'head'
p4537
I9
sS'medium'
p4538
I12
sS'attempted'
p4539
I1
sS'differences'
p4540
I2
sS'payable'
p4541
I1
sS'heat'
p4542
I2
sS'hear'
p4543
I1
sS'sustained'
p4544
I2
sS'removed'
p4545
I2
sS'zaire.karaha'
p4546
I1
sS'born'
p4547
I7
sS'4.4190/20'
p4548
I1
sS'identified.a'
p4549
I2
sS'bids'
p4550
I4
sS'bargain'
p4551
I3
sS'influence.new'
p4552
I1
sS'0.67'
p4553
I1
sS'check'
p4554
I1
sS'said.for'
p4555
I1
sS'soaring193.5'
p4556
I1
sS'then.the'
p4557
I1
sS'tim'
p4558
I3
sS'setting'
p4559
I1
sS'stagnant'
p4560
I3
sS'tie'
p4561
I12
sS'erosion'
p4562
I1
sS'permitting'
p4563
I1
sS'longer'
p4564
I4
sS'fears'
p4565
I3
sS'29.06'
p4566
I1
sS'29.02'
p4567
I1
sS'coach'
p4568
I8
sS'remarkable'
p4569
I1
sS'rob'
p4570
I1
sS'focus'
p4571
I7
sS'row'
p4572
I2
sS'1948'
p4573
I1
sS'environment'
p4574
I2
sS'charge'
p4575
I4
sS'tshisekedi.in'
p4576
I1
sS'federation'
p4577
I2
sS'advantage'
p4578
I1
sS'162.87'
p4579
I1
sS'ginsburg'
p4580
I2
sS'4,562,nissan'
p4581
I1
sS'level'
p4582
I23
sS'517.2'
p4583
I1
sS'posts'
p4584
I6
sS'brother'
p4585
I4
sS'standards'
p4586
I1
sS'quick'
p4587
I4
sS'landrover'
p4588
I1
sS"pick'npay"
p4589
I2
sS'says'
p4590
I4
sS'trend'
p4591
I23
sS'0.3777/3782'
p4592
I2
sS'player.bjorkman'
p4593
I1
sS'colin'
p4594
I1
sS'catapulted'
p4595
I1
sS'co.the'
p4596
I1
sS'port'
p4597
I4
sS'drinks'
p4598
I1
sS'constitution'
p4599
I2
sS'sandton'
p4600
I2
sS'4.4215/4245'
p4601
I1
sS'december.but'
p4602
I1
sS'amounting'
p4603
I1
sS'dealings.the'
p4604
I1
sS'water'
p4605
I2
sS'pioneered'
p4606
I1
sS'groups'
p4607
I5
sS'6-7'
p4608
I1
sS'6-4'
p4609
I5
sS'6-2'
p4610
I1
sS'6-3'
p4611
I1
sS'6-1'
p4612
I2
sS'healthy'
p4613
I3
sS'dublin'
p4614
I1
sS'restructuring'
p4615
I6
sS'sharpening'
p4616
I1
sS'purchases'
p4617
I9
sS'bribery'
p4618
I1
sS'crisis'
p4619
I2
sS'prel'
p4620
I1
sS'urology'
p4621
I1
sS'sports'
p4622
I4
sS'australian'
p4623
I1
sS'prev'
p4624
I12
sS'today'
p4625
I4
sS'share'
p4626
I90
sS'fuel'
p4627
I2
sS'beers'
p4628
I3
sS'cases'
p4629
I9
sS'local'
p4630
I36
sS'cents.this'
p4631
I1
sS'jude'
p4632
I1
sS'placements'
p4633
I2
sS'performer'
p4634
I2
sS'figure'
p4635
I20
sS'said.government'
p4636
I1
sS'dropped'
p4637
I6
sS'parliamentary'
p4638
I4
sS'requirements'
p4639
I2
sS'1'
p4640
I19
sS'fourth'
p4641
I6
sS'prelim'
p4642
I2
sS'3.47'
p4643
I1
sS'professing'
p4644
I1
sS'information'
p4645
I9
sS'kiernan'
p4646
I1
sS'crashed'
p4647
I2
sS'tipped'
p4648
I3
sS'hanekom'
p4649
I6
sS'joint'
p4650
I12
sS'zwelithini'
p4651
I1
sS'imminent'
p4652
I1
sS'mainly'
p4653
I4
sS'procedures'
p4654
I3
sS'organisation'
p4655
I10
sS'offers'
p4656
I1
sS'iscor'
p4657
I1
sS'cautioned.some'
p4658
I1
sS'happened'
p4659
I1
sS'processes'
p4660
I1
sS'warranted'
p4661
I4
sS'cauldron'
p4662
I1
sS'26.5'
p4663
I1
sS'country.as'
p4664
I1
sS'term'
p4665
I22
sS'bullion'
p4666
I7
sS'realise'
p4667
I1
sS'weighted'
p4668
I6
sS'7.2money'
p4669
I1
sS'begun'
p4670
I2
sS'distributor'
p4671
I2
sS'plans'
p4672
I8
sS'ultimately'
p4673
I2
sS'factors'
p4674
I6
sS'profit'
p4675
I12
sS'attracted'
p4676
I2
sS'attended'
p4677
I3
sS'turn'
p4678
I3
sS'place'
p4679
I19
sS'swing'
p4680
I1
sS'1003'
p4681
I52
sS'345.00'
p4682
I2
sS'revenue'
p4683
I3
sS'statement.both'
p4684
I1
sS'transform'
p4685
I1
sS'soaring'
p4686
I1
sS'acct'
p4687
I4
sS'george'
p4688
I1
sS'millions'
p4689
I1
sS'surveys'
p4690
I2
sS'ian'
p4691
I2
sS'opus'
p4692
I2
sS'white'
p4693
I9
sS'gives'
p4694
I1
sS'16.80'
p4695
I4
sS'hub'
p4696
I3
sS'season'
p4697
I16
sS'16.89'
p4698
I8
sS'alan'
p4699
I2
sS'released'
p4700
I10
sS'6,981.1.continuing'
p4701
I1
sS'28.2'
p4702
I2
sS'holder'
p4703
I2
sS'population'
p4704
I1
sS'wide'
p4705
I1
sS'looting'
p4706
I2
sS'require'
p4707
I1
sS'diplomatic'
p4708
I5
sS'spokeswoman'
p4709
I5
sS'mbeki'
p4710
I3
sS'mcbride'
p4711
I2
sS'cards'
p4712
I1
sS'pre'
p4713
I13
sS'rene'
p4714
I1
sS'anc'
p4715
I12
sS'pro'
p4716
I8
sS'conversion'
p4717
I4
sS'coal'
p4718
I1
sS'ideal'
p4719
I1
sS'fracture'
p4720
I1
sS'tentacles'
p4721
I1
sS'strengths'
p4722
I1
sS'nelspruit'
p4723
I1
sS'captained'
p4724
I1
sS'rand.ward'
p4725
I1
sS'sure'
p4726
I6
sS'falls'
p4727
I3
sS'05-06-96'
p4728
I4
sS'later'
p4729
I11
sS'senior'
p4730
I15
sS'11,434.1'
p4731
I1
sS'detective'
p4732
I1
sS'footwear.its'
p4733
I2
sS'cheap'
p4734
I1
sS'trod'
p4735
I2
sS'0.45'
p4736
I4
sS'crime'
p4737
I2
sS'wood'
p4738
I2
sS'44.0'
p4739
I1
sS'cautioned'
p4740
I1
sS'44.9'
p4741
I1
sS'kulti'
p4742
I5
sS'293,345'
p4743
I1
sS'166.3'
p4744
I1
sS'hedge'
p4745
I1
sS'cautionary'
p4746
I9
sS'homestead'
p4747
I1
sS'orphans'
p4748
I1
sS'paper'
p4749
I1
sS'predicted'
p4750
I3
sS'9.2thur'
p4751
I1
sS'1.81m'
p4752
I1
sS'ignored'
p4753
I4
sS'1924'
p4754
I1
sS'week.but'
p4755
I1
sS'encouraged'
p4756
I1
sS'1,966.8foreign'
p4757
I1
sS'spares'
p4758
I3
sS'farmers'
p4759
I3
sS'federal'
p4760
I3
sS'review'
p4761
I4
sS'commitments'
p4762
I1
sS'weapons'
p4763
I1
sS'outside'
p4764
I4
sS'shareholding'
p4765
I3
sS'cantered'
p4766
I1
sS'arrival'
p4767
I4
sS'confontation'
p4768
I1
sS'rumours'
p4769
I3
sS'25'
p4770
I14
sS'15.50/16.92'
p4771
I2
sS'sacked'
p4772
I1
sS'come'
p4773
I18
sS'reaction'
p4774
I5
sS'twickenham.peter'
p4775
I1
sS'successes'
p4776
I1
sS'region'
p4777
I2
sS'quiet'
p4778
I3
sS'contract'
p4779
I15
sS'briefing'
p4780
I2
sS'85.5kg'
p4781
I1
sS'joe'
p4782
I1
sS'period'
p4783
I30
sS'60'
p4784
I4
sS'61'
p4785
I4
sS'62'
p4786
I1
sS'64'
p4787
I2
sS'approval'
p4788
I2
sS'69'
p4789
I1
sS'bizarre'
p4790
I1
sS'poll'
p4791
I4
sS'abdul'
p4792
I2
sS'consultancy'
p4793
I2
sS'peaceful'
p4794
I3
sS'502'
p4795
I2
sS'500'
p4796
I4
sS'631'
p4797
I2
sS'robben'
p4798
I1
sS'telkom'
p4799
I2
sS'minister'
p4800
I33
sS'85,045'
p4801
I1
sS'champions'
p4802
I3
sS'pilot'
p4803
I1
sS'case'
p4804
I7
sS'specialised'
p4805
I2
sS'washington'
p4806
I1
sS'cash'
p4807
I11
sS'irrespective'
p4808
I3
sS'shops'
p4809
I1
sS'colleague'
p4810
I1
sS'announced.ngabanda'
p4811
I1
sS'refinery'
p4812
I3
sS'sweden.bjorkman'
p4813
I1
sS'mcgregor'
p4814
I1
sS'metalworkers'
p4815
I1
sS'friday.but'
p4816
I1
sS'granted'
p4817
I1
sS'trip'
p4818
I4
sS'buys'
p4819
I2
sS'events'
p4820
I4
sS'week'
p4821
I39
sS'6,365'
p4822
I1
sS'drives'
p4823
I1
sS'director'
p4824
I10
sS'submarines'
p4825
I4
sS'statutory'
p4826
I2
sS'changing'
p4827
I3
sS'week.thomas'
p4828
I1
sS'vowed'
p4829
I1
sS'relief'
p4830
I2
sS'said.a'
p4831
I2
sS'model'
p4832
I2
sS'commercials'
p4833
I2
sS'researchers'
p4834
I1
sS'mahlangu'
p4835
I6
sS'guided'
p4836
I2
sS'actions'
p4837
I1
sS'cease'
p4838
I1
sS'named.the'
p4839
I1
sS'17.83gold'
p4840
I2
sS'halfway'
p4841
I2
sS'blow'
p4842
I1
sS'announcement'
p4843
I19
sS'rose'
p4844
I14
sS'airfield'
p4845
I1
sS'kingdom'
p4846
I3
sS'holding'
p4847
I12
sS'32,000'
p4848
I1
sS'inflation'
p4849
I10
sS'confined'
p4850
I1
sS'accepted'
p4851
I1
sS'daewoo'
p4852
I2
sS'said.kasrils'
p4853
I1
sS'nissan'
p4854
I1
sS'reduced'
p4855
I1
sS'jewellery'
p4856
I1
sS'madrid'
p4857
I1
sS'said.after'
p4858
I1
sS'competition'
p4859
I4
sS'table'
p4860
I3
sS'intact'
p4861
I1
sS'provided'
p4862
I4
sS'legae'
p4863
I2
sS'2,466.2'
p4864
I4
sS'legal'
p4865
I6
sS'nafhold'
p4866
I3
sS'hania'
p4867
I2
sS'provider'
p4868
I1
sS'offer.the'
p4869
I2
sS'affording'
p4870
I1
sS'gunshots'
p4871
I1
sS'thursday.local'
p4872
I1
sS'discussed'
p4873
I2
sS'20-11-95'
p4874
I4
sS'stand'
p4875
I2
sS'op'
p4876
I1
sS'instruments'
p4877
I1
sS'rising'
p4878
I11
sS'36,309.5short-term'
p4879
I1
sS'ltd.analysts'
p4880
I1
sS'england'
p4881
I42
sS'currencyibca'
p4882
I4
sS'2.6current'
p4883
I4
sS'kyran'
p4884
I1
sS'disposed'
p4885
I1
sS'racist'
p4886
I1
sS'dislocated'
p4887
I2
sS'expatriate'
p4888
I2
sS'fish'
p4889
I2
sS'tainers'
p4890
I1
sS'101.7'
p4891
I2
sS'fundamentals'
p4892
I4
sS'regard'
p4893
I1
sS'cabinet'
p4894
I7
sS'slowdown'
p4895
I1
sS'faster'
p4896
I1
sS'zappi1'
p4897
I1
sS'offical'
p4898
I1
sS'wholesale'
p4899
I5
sS'summits'
p4900
I1
sS'internationale'
p4901
I1
sS'1994.companies'
p4902
I1
sS'creeping'
p4903
I1
sS'strongly'
p4904
I4
sS'91kg'
p4905
I1
sS'britain'
p4906
I6
sS'21.54full'
p4907
I1
sS'politics'
p4908
I1
sS'4.0'
p4909
I4
sS'4.2'
p4910
I1
sS'4.9'
p4911
I4
sS'rubber'
p4912
I1
sS'5'
p4913
I6
sS'stalwart'
p4914
I2
sS'championship'
p4915
I1
sS'separate'
p4916
I4
sS'cove'
p4917
I1
sS'includes'
p4918
I6
sS'recognise'
p4919
I2
sS'included'
p4920
I9
sS'inroads'
p4921
I1
sS'stocks'
p4922
I8
sS'finals'
p4923
I2
sS'booked'
p4924
I1
sS'calls'
p4925
I1
sS'directors'
p4926
I3
sS'apparel'
p4927
I2
sS'1996.it'
p4928
I1
sS'lack'
p4929
I5
sS'bl1/bl2'
p4930
I1
sS'pty'
p4931
I1
sS'follow'
p4932
I3
sS'overnight.u.s'
p4933
I1
sS'1.macmed'
p4934
I2
sS'synthetic'
p4935
I1
sS'41.25'
p4936
I1
sS'opportunities'
p4937
I3
sS'removal'
p4938
I2
sS'presentation'
p4939
I1
sS'fax'
p4940
I1
sS'worse'
p4941
I1
sS'far'
p4942
I3
sS'ticked'
p4943
I2
sS'worst'
p4944
I4
sS'evaluation'
p4945
I2
sS'list'
p4946
I1
sS'becker'
p4947
I1
sS'programme'
p4948
I2
sS'tel'
p4949
I1
sS'90.7'
p4950
I2
sS'rate'
p4951
I43
sS'design'
p4952
I1
sS'nzanga'
p4953
I1
sS'shows.year'
p4954
I1
sS'imported'
p4955
I11
sS'sub'
p4956
I1
sS'percent.annual'
p4957
I3
sS'brief'
p4958
I2
sS'mpumulanga'
p4959
I1
sS'importer'
p4960
I1
sS'482-1003'
p4961
I26
sS'bakafu'
p4962
I1
sS'recoveries'
p4963
I1
sS'cut.money'
p4964
I1
sS'naval'
p4965
I4
sS'1.83m'
p4966
I6
sS'versfeld'
p4967
I1
sS'options'
p4968
I1
sS'footwear'
p4969
I4
sS'appliances'
p4970
I1
sS'proceed'
p4971
I2
sS'tsishekedi'
p4972
I1
sS'shareholders.in'
p4973
I1
sS'management.the'
p4974
I1
sS'branded'
p4975
I4
sS'markets'
p4976
I17
sS'flat'
p4977
I10
sS'81kg'
p4978
I1
sS'ball.doddie'
p4979
I1
sS'domination'
p4980
I1
sS'basically'
p4981
I2
sS'known'
p4982
I3
sS'saharan'
p4983
I1
sS'berth'
p4984
I1
sS'freightliner'
p4985
I1
sS'equation'
p4986
I1
sS'sekhonyane'
p4987
I2
sS'debated'
p4988
I1
sS'exchange.the'
p4989
I1
sS'computers'
p4990
I2
sS'embarrassing'
p4991
I1
sS'1996.the'
p4992
I3
sS'123.5kg'
p4993
I1
sS'19,677trade'
p4994
I1
sS'swung'
p4995
I1
sS'345.3'
p4996
I3
sS'5.0'
p4997
I1
sS'5.1'
p4998
I4
sS'5.2'
p4999
I4
sS'5.3'
p5000
I4
sS'court'
p5001
I8
sS'5.5'
p5002
I2
sS'breaking'
p5003
I2
sS'johannesburg'
p5004
I106
sS'playmaker'
p5005
I1
sS'said.allardice'
p5006
I1
sS'mould'
p5007
I1
sS'619'
p5008
I1
sS'weaknesses'
p5009
I1
sS'reflect'
p5010
I1
sS'bazan'
p5011
I1
sS'lighting'
p5012
I1
sS'reached.the'
p5013
I1
sS'oau'
p5014
I3
sS'dissolving'
p5015
I2
sS'short'
p5016
I6
sS'departure'
p5017
I6
sS'trevor'
p5018
I3
sS'turnover'
p5019
I11
sS'added.mobutu'
p5020
I1
sS'september'
p5021
I3
sS'emmanuel'
p5022
I1
sS'mission'
p5023
I1
sS'1.98'
p5024
I2
sS'1.97'
p5025
I4
sS'1.90'
p5026
I2
sS'style'
p5027
I3
sS'inward'
p5028
I2
sS'unity'
p5029
I9
sS'argentina'
p5030
I1
sS'soccer'
p5031
I1
sS'return'
p5032
I9
sS'communities'
p5033
I1
sS'frigate'
p5034
I1
sS'algerian'
p5035
I4
sS'cents.they'
p5036
I1
sS'2,831.0transfer'
p5037
I1
sS'weight'
p5038
I1
sS'oppressed'
p5039
I1
sS'arrived.a'
p5040
I1
sS'expect'
p5041
I7
sS'scratching'
p5042
I1
sS'organised'
p5043
I3
sS'alcohol'
p5044
I1
sS'poachers'
p5045
I1
sS'ingham'
p5046
I1
sS'health'
p5047
I7
sS'hill'
p5048
I1
sS'friday'
p5049
I55
sS'organising'
p5050
I1
sS'generate'
p5051
I1
sS'49.59'
p5052
I1
sS'thrown'
p5053
I1
sS'threat'
p5054
I2
sS'consequence'
p5055
I1
sS'events.in'
p5056
I2
sS'feed'
p5057
I1
sS'radical'
p5058
I1
sS'linking'
p5059
I1
sS'11.94'
p5060
I4
sS'6-1.ferreira'
p5061
I1
sS'story'
p5062
I2
sS'metlife'
p5063
I4
sS'percent.domestic'
p5064
I3
sS'leading'
p5065
I7
sS'financed'
p5066
I6
sS'recovered'
p5067
I2
sS'mainstay'
p5068
I1
sS'statement'
p5069
I20
sS'relieved'
p5070
I1
sS'convinced'
p5071
I1
sS'king'
p5072
I3
sS'kind'
p5073
I3
sS'double'
p5074
I2
sS'risks'
p5075
I1
sS'insulted'
p5076
I1
sS'strengthen'
p5077
I3
sS'imports'
p5078
I1
sS'abroad.in'
p5079
I1
sS'premises.the'
p5080
I1
sS'wilson'
p5081
I1
sS'toughen'
p5082
I1
sS'anglos'
p5083
I1
sS'chairman'
p5084
I15
sS'finding'
p5085
I5
sS'jse'
p5086
I18
sS'added'
p5087
I19
sS'93.0'
p5088
I1
sS'measures'
p5089
I7
sS'reach'
p5090
I1
sS'75'
p5091
I2
sS'shareholder'
p5092
I1
sS'72'
p5093
I1
sS'enduring'
p5094
I3
sS'70'
p5095
I2
sS'seasons'
p5096
I1
sS'soared'
p5097
I1
sS'mineral'
p5098
I3
sS'coincided'
p5099
I1
sS'institutions'
p5100
I5
sS'23-year'
p5101
I1
sS'hit'
p5102
I5
sS'gains'
p5103
I9
sS'strongholds'
p5104
I1
sS'activity'
p5105
I1
sS'sustainable'
p5106
I3
sS'nibbled'
p5107
I1
sS'wrote'
p5108
I1
sS'pvs'
p5109
I5
sS'achieved'
p5110
I4
sS'2.9'
p5111
I8
sS'2.8'
p5112
I4
sS'ard'
p5113
I2
sS'2.3'
p5114
I3
sS'2.1'
p5115
I2
sS'2.0'
p5116
I1
sS'2.7'
p5117
I4
sS'arm'
p5118
I6
sS'2.5'
p5119
I3
sS'1965.the'
p5120
I1
sS'unions'
p5121
I3
sS'various'
p5122
I2
sS'consecutive'
p5123
I3
sS'swansea'
p5124
I1
sS'tactically'
p5125
I2
sS'australia.jeremy'
p5126
I1
sS'recently'
p5127
I12
sS'creating'
p5128
I1
sS'initially'
p5129
I3
sS'sold'
p5130
I4
sS'attention'
p5131
I1
sS'opposition'
p5132
I15
sS'oversee'
p5133
I1
sS'32,903'
p5134
I2
sS'15.82'
p5135
I10
sS'context'
p5136
I1
sS'1,321'
p5137
I2
sS'reasons'
p5138
I4
sS'14.72gold'
p5139
I1
sS'regulated'
p5140
I1
sS'village'
p5141
I1
sS'14.91eskom'
p5142
I1
sS'startling'
p5143
I2
sS'incomes'
p5144
I3
sS'political'
p5145
I24
sS'strategy'
p5146
I2
sS'pf'
p5147
I1
sS'21/11/96'
p5148
I8
sS'transaction.it'
p5149
I1
sS'mugabe'
p5150
I1
sS'referee'
p5151
I2
sS'togo'
p5152
I6
sS'demand'
p5153
I6
sS'stolen'
p5154
I1
sS'frozen'
p5155
I1
sS'evaluated'
p5156
I1
sS'tweaking'
p5157
I2
sS'year.hookers'
p5158
I1
sS'continuedtheir'
p5159
I1
sS'19.2'
p5160
I2
sS'pienaar'
p5161
I1
sS'alliances'
p5162
I1
sS'widely'
p5163
I2
sS'9'
p5164
I4
sS'higher'
p5165
I25
sS'895'
p5166
I1
sS'cheques'
p5167
I4
sS'8.83'
p5168
I4
sS'negotiate'
p5169
I3
sS'moving'
p5170
I6
sS'03/04'
p5171
I3
sS'1.77maize'
p5172
I4
sS'lower'
p5173
I14
sS'ieuan'
p5174
I1
sS'edge'
p5175
I1
sS'99kg'
p5176
I1
sS'machinery'
p5177
I2
sS'cash.ksa'
p5178
I1
sS'february.south'
p5179
I1
sS'cultivars'
p5180
I5
sS'52.6'
p5181
I2
sS'polled'
p5182
I7
sS'01/04'
p5183
I3
sS'competitive'
p5184
I2
sS'15-year'
p5185
I2
sS'continent'
p5186
I1
sS'illusions'
p5187
I1
sS'workers'
p5188
I1
sS'mpumalanga'
p5189
I2
sS'violations'
p5190
I1
sS'loss'
p5191
I21
sS'springbok'
p5192
I5
sS'ignore'
p5193
I1
sS'nairobi'
p5194
I1
sS'hinted'
p5195
I1
sS'3.6'
p5196
I1
sS'3.7'
p5197
I1
sS'3.4'
p5198
I4
sS'3.5'
p5199
I9
sS'3.2'
p5200
I4
sS'3.3'
p5201
I8
sS'3.0'
p5202
I4
sS'3.1'
p5203
I4
sS'1,093.09'
p5204
I1
sS'3.8'
p5205
I4
sS'3,600.0'
p5206
I1
sS'gradually'
p5207
I4
sS'province.south'
p5208
I1
sS'15.24gdfi'
p5209
I4
sS'89kg'
p5210
I1
sS'prop'
p5211
I1
sS'ticking'
p5212
I1
sS'martin'
p5213
I5
sS'weir'
p5214
I1
sS'refused'
p5215
I6
sS'4.4050'
p5216
I1
sS'0900'
p5217
I8
sS'2,330'
p5218
I1
sS'intense'
p5219
I2
sS'cautious'
p5220
I1
sS'range'
p5221
I22
sS'forpublic'
p5222
I1
sS'daphne'
p5223
I2
sS'drifted'
p5224
I4
sS'inventories'
p5225
I4
sS'intraday'
p5226
I1
sS'justify.conglomerates'
p5227
I1
sS'impressed'
p5228
I4
sS'said.rebels'
p5229
I1
sS'weekend.saturday'
p5230
I1
sS'amidst'
p5231
I1
sS'vendors'
p5232
I4
sS"we're"
p5233
I7
sS'sections'
p5234
I1
sS'monday.u.s'
p5235
I1
sS'delta'
p5236
I2
sS'raising'
p5237
I2
sS'called'
p5238
I6
sS'associated'
p5239
I3
sS'associates'
p5240
I3
sS'105.3'
p5241
I2
sS'rally'
p5242
I8
sS'peace'
p5243
I25
sS'backs'
p5244
I2
sS'nick'
p5245
I2
sS'14.47preliminary'
p5246
I2
sS'income'
p5247
I20
sS'problems'
p5248
I8
sS'helping'
p5249
I2
sS'happier'
p5250
I1
sS'vice'
p5251
I2
sS'departments'
p5252
I1
sS'talks.the'
p5253
I1
sS'issued'
p5254
I7
sS'resistance'
p5255
I5
sS'30.registration'
p5256
I1
sS'operations.other'
p5257
I1
sS'contributions'
p5258
I1
sS'simon'
p5259
I2
sS'disposal'
p5260
I4
sS'stable'
p5261
I1
sS'breach'
p5262
I1
sS'107.4leading'
p5263
I2
sS'include'
p5264
I11
sS'0.7pct'
p5265
I1
sS'confirmation'
p5266
I3
sS'seized'
p5267
I8
sS'8,202.3'
p5268
I2
sS'1,603.0total'
p5269
I1
sS'engineered'
p5270
I1
sS'tutu'
p5271
I3
sS'redistribute'
p5272
I1
sS'deals'
p5273
I4
sS'dealt'
p5274
I2
sS'maxtel'
p5275
I1
sS'noted'
p5276
I4
sS'concluded'
p5277
I6
sS'1,289.0'
p5278
I2
sS'makers'
p5279
I1
sS'hourly'
p5280
I4
sS'concessions'
p5281
I1
sS'waiting'
p5282
I4
sS'capital'
p5283
I17
sS'chose'
p5284
I1
sS'13.99gold'
p5285
I3
sS'underwood'
p5286
I2
sS'overvalued'
p5287
I5
sS'youngest'
p5288
I2
sS'367.01m3'
p5289
I1
sS'added.the'
p5290
I1
sS'expansion'
p5291
I2
sS'totalled'
p5292
I2
sS'658.37'
p5293
I1
sS'africa.zairean'
p5294
I1
sS'larger'
p5295
I2
sS'suggests'
p5296
I1
sS'olivier'
p5297
I2
sS'deputy'
p5298
I13
sS'11.5-13.5bln'
p5299
I1
sS'captaincy'
p5300
I1
sS'motor'
p5301
I1
sS'apply'
p5302
I1
sS'use'
p5303
I8
sS'lottery'
p5304
I5
sS'93,978'
p5305
I2
sS'expanding'
p5306
I4
sS'shares.each'
p5307
I2
sS'sort'
p5308
I2
sS'parliament'
p5309
I6
sS'989.79'
p5310
I1
sS'factor'
p5311
I4
sS'inexperience'
p5312
I1
sS'1,300'
p5313
I3
sS'dissolve'
p5314
I1
sS'performed'
p5315
I1
sS'0.8'
p5316
I3
sS'patrol'
p5317
I1
sS'0.0'
p5318
I7
sS'2007/9'
p5319
I4
sS'tax'
p5320
I24
sS'0.4'
p5321
I1
sS'0.7'
p5322
I2
sS'urged'
p5323
I2
sS'rape'
p5324
I1
sS'summers'
p5325
I2
sS'united'
p5326
I14
sS'sit'
p5327
I1
sS'160.25'
p5328
I1
sS'traders'
p5329
I7
sS'brian'
p5330
I2
sS'sid'
p5331
I1
sS'instead'
p5332
I3
sS'struggled'
p5333
I3
sS'47.7'
p5334
I3
sS'swedish'
p5335
I3
sS'0.3799/3805'
p5336
I1
sS'abuse'
p5337
I1
sS'powerbase'
p5338
I1
sS'ethnic'
p5339
I1
sS'market.a'
p5340
I1
sS'light'
p5341
I8
sS'sweetens'
p5342
I1
sS'hyperactive.matt'
p5343
I1
sS'looks'
p5344
I3
sS'africawere'
p5345
I1
sS'restrain'
p5346
I1
sS'underpin'
p5347
I1
sS'orange'
p5348
I1
sS'clusters'
p5349
I1
sS'holiday'
p5350
I1
sS'crash'
p5351
I1
sS'contention'
p5352
I1
sS'said.he'
p5353
I4
sS'leisure'
p5354
I2
sS'correction.dealers'
p5355
I2
sS'negligent'
p5356
I1
sS'flee'
p5357
I4
sS'fled'
p5358
I4
sS'eased'
p5359
I1
sS'bills'
p5360
I6
sS'studios'
p5361
I2
sS'privatisation'
p5362
I2
sS'product'
p5363
I5
sS'related'
p5364
I2
sS'88'
p5365
I1
sS'zaire'
p5366
I62
sS'tabulate'
p5367
I1
sS'taking.at'
p5368
I1
sS'giant'
p5369
I1
sS'sentiment'
p5370
I4
sS'chaos'
p5371
I1
sS'career.so'
p5372
I1
sS'provident'
p5373
I2
sS'york'
p5374
I15
sS'philip'
p5375
I5
sS'nganza'
p5376
I1
sS'feasible'
p5377
I1
sS'conversation'
p5378
I1
sS'navies'
p5379
I1
sS'dickie'
p5380
I2
sS'sasol'
p5381
I3
sS'proposing'
p5382
I2
sS'someconsolidation'
p5383
I1
sS'657'
p5384
I2
sS'1500'
p5385
I9
sS'1899-1902'
p5386
I1
sS'reuters.sab'
p5387
I1
sS'academy'
p5388
I1
sS'shallow'
p5389
I1
sS'4.42'
p5390
I2
sS'4.43'
p5391
I1
sS'4.40'
p5392
I4
sS'reflecting'
p5393
I1
sS'4.45'
p5394
I1
sS'unbundle'
p5395
I1
sS'16.00term'
p5396
I4
sS'institution'
p5397
I2
sS'blind'
p5398
I3
sS'isolation'
p5399
I1
sS'lion'
p5400
I1
sS'3,600.0corporation'
p5401
I2
sS'steenkampskraal'
p5402
I2
sS'1.6'
p5403
I2
sS'1.7'
p5404
I1
sS'1.2'
p5405
I2
sS'1.3'
p5406
I1
sS'1.8'
p5407
I1
sS'1.9'
p5408
I2
sS'westward'
p5409
I2
sS'pretoria.in'
p5410
I1
sS'roux'
p5411
I1
sS'anglo'
p5412
I13
sS'1994.leslie'
p5413
I1
sS'combat'
p5414
I1
sS'centre'
p5415
I6
sS'history.england'
p5416
I1
sS'class'
p5417
I1
sS'rand.it'
p5418
I4
sS'looked'
p5419
I3
sS'rand.in'
p5420
I1
sS'gain'
p5421
I5
sS'sceptical'
p5422
I1
sS'agreed'
p5423
I4
sS'him.mobutu'
p5424
I1
sS'headquarter'
p5425
I1
sS'planning'
p5426
I3
sS'ayear'
p5427
I1
sS'chicken'
p5428
I1
sS'agrees'
p5429
I1
sS'day.but'
p5430
I1
sS'tramlines'
p5431
I1
sS'operational'
p5432
I2
sS'company.lawyers'
p5433
I2
sS'candidates'
p5434
I1
sS'thousands'
p5435
I2
sS'996'
p5436
I1
sS'topple'
p5437
I2
sS'watching'
p5438
I6
sS'ones'
p5439
I1
sS'chips'
p5440
I3
sS'econometrix'
p5441
I2
sS'married'
p5442
I1
sS'queries'
p5443
I1
sS'generations'
p5444
I1
sS'view'
p5445
I3
sS'available'
p5446
I10
sS'acquired'
p5447
I9
sS'merits'
p5448
I1
sS'closer'
p5449
I3
sS'superb'
p5450
I1
sS'rulers'
p5451
I1
sS'touchdown.ngbanda'
p5452
I1
sS'nickname.he'
p5453
I1
sS'closed'
p5454
I2
sS'crude'
p5455
I2
sS'stories'
p5456
I8
sS'bought'
p5457
I8
sS'weighing'
p5458
I2
sS'ability'
p5459
I2
sS'opening'
p5460
I10
sS'beverages'
p5461
I5
sS'job'
p5462
I3
sS'takeover'
p5463
I1
sS'5.31'
p5464
I4
sS'probing'
p5465
I1
sS'swift'
p5466
I2
sS'declining'
p5467
I1
sS'april'
p5468
I23
sS'unclear'
p5469
I2
sS'wall'
p5470
I33
sS'party.lawrence'
p5471
I1
sS'packaging'
p5472
I2
sS'respect'
p5473
I1
sS'withdrawn'
p5474
I1
sS'occured'
p5475
I1
sS'bbc'
p5476
I3
sS'bbb'
p5477
I8
sS'mike'
p5478
I7
sS'painted'
p5479
I1
sS'sufficient'
p5480
I1
sS'ensuring'
p5481
I1
sS'unmoved'
p5482
I2
sS'overturn'
p5483
I1
sS'present'
p5484
I1
sS'2full'
p5485
I1
sS'abandoned'
p5486
I1
sS'7.1percent'
p5487
I1
sS'madeleine'
p5488
I1
sS'coach.utility'
p5489
I1
sS'01/03/97'
p5490
I4
sS'dual'
p5491
I1
sS'68.3'
p5492
I2
sS'cross'
p5493
I1
sS'member'
p5494
I10
sS'retailing'
p5495
I3
sS'largest'
p5496
I10
sS'units'
p5497
I5
sS'samson'
p5498
I2
sS'difficult'
p5499
I2
sS'3,470.39'
p5500
I1
sS'diplomat'
p5501
I8
sS'coaches'
p5502
I2
sS'issuance'
p5503
I1
sS'numbered.finance'
p5504
I1
sS'banded'
p5505
I1
sS'fighting'
p5506
I11
sS'english'
p5507
I10
sS'undertaken'
p5508
I1
sS'realised'
p5509
I1
sS'tuesday.the'
p5510
I1
sS'heavily'
p5511
I9
sS'tendering'
p5512
I1
sS'obtain'
p5513
I1
sS'sides.a'
p5514
I2
sS'increases.in'
p5515
I2
sS'harare'
p5516
I1
sS'43,038.6'
p5517
I1
sS'point'
p5518
I8
sS'smith'
p5519
I6
sS'capabilities'
p5520
I2
sS'usage'
p5521
I1
sS'sparking'
p5522
I1
sS'africa.answering'
p5523
I1
sS'provisions'
p5524
I3
sS'1,587'
p5525
I1
sS'know'
p5526
I3
sS'press'
p5527
I7
sS'overtures'
p5528
I1
sS'help.the'
p5529
I1
sS'searching'
p5530
I1
sS'117'
p5531
I1
sS'growth'
p5532
I41
sS'export'
p5533
I2
sS'110'
p5534
I2
sS'empire'
p5535
I1
sS'employment'
p5536
I7
sS'118'
p5537
I2
sS'lead'
p5538
I15
sS'metair'
p5539
I2
sS'13.5wed'
p5540
I1
sS'andsustained'
p5541
I1
sS'smyth'
p5542
I1
sS'leader'
p5543
I20
sS'weekend.pahad'
p5544
I1
sS'27.5'
p5545
I2
sS'27.4'
p5546
I1
sS'stay'
p5547
I5
sS'1.98m'
p5548
I2
sS'rare'
p5549
I1
sS'carried'
p5550
I4
sS'extension'
p5551
I8
sS'getting'
p5552
I3
sS'shipping'
p5553
I1
sS'surge'
p5554
I2
sS'fear'
p5555
I2
sS'irishman'
p5556
I1
sS'weather'
p5557
I1
sS'significantly'
p5558
I2
sS'convicted'
p5559
I1
sS'van'
p5560
I6
sS'2.54'
p5561
I1
sS'transfer'
p5562
I1
sS'zulus'
p5563
I1
sS'intention'
p5564
I3
sS'vat'
p5565
I2
sS'cullinan'
p5566
I4
sS'appointing'
p5567
I1
sS'triggered'
p5568
I2
sS"i've"
p5569
I1
sS'funds'
p5570
I14
sS'volume'
p5571
I2
sS'fall.the'
p5572
I1
sS'record'
p5573
I5
sS'ruling'
p5574
I1
sS'demonstrate'
p5575
I1
sS'broadly'
p5576
I1
sS'inadequate'
p5577
I2
sS'1996/q4'
p5578
I12
sS'dbrs.z'
p5579
I1
sS'mutual'
p5580
I3
sS'percent'
p5581
I188
sS'book'
p5582
I1
sS'branch'
p5583
I1
sS'toured'
p5584
I1
sS'hysteria'
p5585
I2
sS'9.850'
p5586
I1
sS'enqvist'
p5587
I16
sS'june'
p5588
I30
sS'richardson'
p5589
I1
sS'29.5'
p5590
I1
sS'priced'
p5591
I4
sS'29.3'
p5592
I3
sS'upwards'
p5593
I1
sS'shares.last'
p5594
I1
sS'commencement'
p5595
I1
sS'volumes'
p5596
I7
sS'tonnes'
p5597
I11
sS'mobutu'
p5598
I59
s.