(dp0
S'aided'
p1
I1
sS'27.52-62'
p2
I1
sS'assembles'
p3
I1
sS'facilities'
p4
I1
sS'asian'
p5
I3
sS'controversial'
p6
I1
sS'jeopardising'
p7
I1
sS'granting'
p8
I2
sS'demand.the'
p9
I1
sS'plunges.foreign'
p10
I1
sS'worth'
p11
I3
sS'lure'
p12
I3
sS'rise'
p13
I10
sS'eprom'
p14
I2
sS'dirctor'
p15
I1
sS'jack'
p16
I2
sS'affect'
p17
I1
sS'cme'
p18
I2
sS'companies'
p19
I4
sS'wednesday'
p20
I25
sS'red'
p21
I1
sS'enhance'
p22
I1
sS'enjoy'
p23
I1
sS'leaders'
p24
I1
sS'japanese'
p25
I2
sS'likely'
p26
I4
sS'street'
p27
I4
sS'chen'
p28
I5
sS'close.turnover'
p29
I4
sS'machines'
p30
I1
sS'fattening'
p31
I1
sS'pace'
p32
I1
sS'asia'
p33
I2
sS'spokesman'
p34
I5
sS'en'
p35
I1
sS'cheng'
p36
I2
sS'supplier'
p37
I1
sS'new'
p38
I9
sS'percent.at'
p39
I1
sS'increasing'
p40
I2
sS'seeks'
p41
I1
sS'told'
p42
I12
sS'avert'
p43
I1
sS'drew'
p44
I1
sS'herd'
p45
I1
sS'reported'
p46
I8
sS'ching'
p47
I5
sS'109'
p48
I1
sS'china'
p49
I29
sS'active'
p50
I2
sS'100'
p51
I1
sS'107'
p52
I1
sS'tapes'
p53
I2
sS'clarify'
p54
I1
sS'k'
p55
I14
sS'economics'
p56
I1
sS'reports'
p57
I5
sS'lin.paper'
p58
I1
sS'credit'
p59
I1
sS'analysts'
p60
I2
sS'abolition'
p61
I1
sS'adopting'
p62
I1
sS'spotty'
p63
I1
sS'settled'
p64
I1
sS'criticism'
p65
I1
sS'golden'
p66
I2
sS'canola'
p67
I1
sS'explained'
p68
I1
sS'155,000'
p69
I1
sS'taichung.taiwan'
p70
I1
sS'soybean'
p71
I15
sS'total'
p72
I8
sS'unit'
p73
I4
sS'derivatives'
p74
I1
sS'cdroms'
p75
I2
sS'woule'
p76
I1
sS'334-seat'
p77
I1
sS'arms'
p78
I2
sS'tenders'
p79
I3
sS'asset'
p80
I7
sS'dns'
p81
I2
sS'h'
p82
I1
sS'13.35'
p83
I2
sS'type'
p84
I2
sS'slaughtered'
p85
I2
sS'1989.in'
p86
I1
sS'71.5'
p87
I2
sS'18.18'
p88
I1
sS'thursday.dain'
p89
I1
sS'5.12'
p90
I1
sS'phone'
p91
I1
sS'hold'
p92
I3
sS'holidays.the'
p93
I1
sS'1995'
p94
I3
sS'room'
p95
I1
sS'1997'
p96
I8
sS'1996'
p97
I17
sS'1999'
p98
I1
sS'1998'
p99
I2
sS'movies'
p100
I2
sS'vow'
p101
I1
sS'sharp'
p102
I1
sS'886-2-508-0815'
p103
I2
sS'said.hsueh'
p104
I1
sS'2.87'
p105
I1
sS'2.80'
p106
I1
sS'wang'
p107
I4
sS'estate'
p108
I4
sS'currency'
p109
I3
sS'foods'
p110
I1
sS'65-870'
p111
I1
sS'hog'
p112
I13
sS'end'
p113
I4
sS'recovery'
p114
I4
sS'provide'
p115
I1
sS'86/4'
p116
I1
sS'infringement'
p117
I4
sS'hot'
p118
I2
sS'keelung'
p119
I2
sS'prices.the'
p120
I1
sS'offshore'
p121
I1
sS'issues.the'
p122
I1
sS'minority'
p123
I1
sS'mouths'
p124
I1
sS'attacks.five'
p125
I1
sS'earlier'
p126
I4
sS'chief.commercial'
p127
I1
sS'modest'
p128
I3
sS'president'
p129
I12
sS'law'
p130
I3
sS'chilled'
p131
I2
sS'effective'
p132
I6
sS'amid'
p133
I1
sS'acknowledged'
p134
I1
sS'6.173'
p135
I2
sS'maintain'
p136
I5
sS'worst'
p137
I1
sS'operate'
p138
I1
sS'wing'
p139
I1
sS'triggering'
p140
I1
sS'interpretation'
p141
I1
sS'office'
p142
I1
sS'6.0940'
p143
I1
sS'telecom'
p144
I4
sS'expects'
p145
I4
sS'6.5'
p146
I1
sS'soyoil'
p147
I7
sS'london'
p148
I2
sS'japan'
p149
I5
sS'homebuyers'
p150
I5
sS'position'
p151
I1
sS'expectations'
p152
I2
sS'percent.pacific'
p153
I1
sS'better'
p154
I8
sS'production'
p155
I6
sS'8,258.92.turnover'
p156
I1
sS'weeks'
p157
I1
sS'408'
p158
I1
sS'affected'
p159
I1
sS'powerful'
p160
I1
sS'break'
p161
I1
sS'township'
p162
I1
sS'homebuyers.the'
p163
I1
sS'bank'
p164
I15
sS'commission.gingrich'
p165
I1
sS'alex'
p166
I2
sS'meat'
p167
I2
sS'1.09'
p168
I1
sS'debut'
p169
I1
sS'automobile'
p170
I1
sS'affiliate'
p171
I1
sS'feeds'
p172
I1
sS'yung'
p173
I4
sS'meal'
p174
I1
sS'bond'
p175
I6
sS'27/09'
p176
I1
sS'lifted'
p177
I2
sS'farms.taiwan'
p178
I1
sS'financial'
p179
I1
sS'6-25'
p180
I1
sS'dodged'
p181
I1
sS'trading'
p182
I9
sS'navy'
p183
I1
sS'saturday'
p184
I3
sS'6.35-6.40'
p185
I1
sS'network'
p186
I1
sS'vessels'
p187
I1
sS'semiconductor'
p188
I2
sS'1996/97'
p189
I1
sS'sluggish'
p190
I3
sS'smithfield'
p191
I2
sS'27.52-55'
p192
I1
sS'resume'
p193
I1
sS'veto'
p194
I1
sS'threatened'
p195
I1
sS'free'
p196
I1
sS'standard'
p197
I4
sS'campaigns'
p198
I3
sS'corrects'
p199
I1
sS'estimate'
p200
I2
sS'alert'
p201
I1
sS'recovering'
p202
I1
sS'starts'
p203
I1
sS'days'
p204
I1
sS'outfits'
p205
I3
sS'silicon'
p206
I2
sS'market.central'
p207
I1
sS'industrial'
p208
I1
sS'16-30/cnf'
p209
I1
sS'encouraging'
p210
I1
sS'channels'
p211
I1
sS'adopted'
p212
I1
sS'electronic'
p213
I2
sS'77.00'
p214
I2
sS'infringed'
p215
I4
sS'service'
p216
I1
sS'fang.the'
p217
I1
sS'needed'
p218
I3
sS'confirming'
p219
I2
sS'rates'
p220
I7
sS'listed'
p221
I2
sS'albert'
p222
I2
sS'took'
p223
I1
sS'said.with'
p224
I1
sS'direct'
p225
I1
sS'somewhat'
p226
I1
sS'sulphur'
p227
I1
sS'said.chang'
p228
I1
sS'target'
p229
I2
sS'hike'
p230
I2
sS'second'
p231
I9
sS'project'
p232
I3
sS'18.1'
p233
I1
sS'reporters.the'
p234
I1
sS'powers'
p235
I3
sS'128.2'
p236
I1
sS'pigs'
p237
I6
sS'seen'
p238
I7
sS'relatively'
p239
I1
sS'affairs'
p240
I2
sS'estimated'
p241
I6
sS'responsible'
p242
I3
sS'absorbed'
p243
I1
sS'kaohsiung'
p244
I3
sS'2.97'
p245
I2
sS'2.96'
p246
I1
sS'400,000'
p247
I1
sS'affairs.beijing'
p248
I1
sS'regular'
p249
I2
sS'mouth'
p250
I4
sS'stood'
p251
I1
sS'tibetan'
p252
I1
sS'promotions'
p253
I1
sS'51.00'
p254
I2
sS'professor'
p255
I2
sS'flow'
p256
I2
sS'dog'
p257
I1
sS'spend'
p258
I1
sS'points'
p259
I5
sS'principle'
p260
I3
sS'enterprise'
p261
I1
sS'consumer'
p262
I2
sS'calculates'
p263
I1
sS'came'
p264
I1
sS'reserve'
p265
I2
sS'saying'
p266
I5
sS'contacted'
p267
I2
sS'reductions'
p268
I1
sS'bonnie'
p269
I1
sS'fleming'
p270
I1
sS'kanemat'
p271
I2
sS'radio'
p272
I2
sS'supplied'
p273
I1
sS'thirds'
p274
I1
sS'enjoyed'
p275
I2
sS'27.575'
p276
I1
sS'just'
p277
I6
sS'hrw'
p278
I2
sS'sugar'
p279
I2
sS'quarter.semiconductor'
p280
I1
sS'announce'
p281
I1
sS'capel'
p282
I2
sS'touchen'
p283
I1
sS'plate'
p284
I2
sS'exports'
p285
I8
sS'4.03'
p286
I1
sS'monday.on'
p287
I2
sS'13'
p288
I1
sS'25,000'
p289
I3
sS'20.66'
p290
I1
sS'despite'
p291
I5
sS'report'
p292
I2
sS'net'
p293
I7
sS'countries'
p294
I1
sS'bay'
p295
I1
sS'twice'
p296
I1
sS'6.098'
p297
I1
sS'piggy'
p298
I1
sS'favors'
p299
I1
sS'ban'
p300
I5
sS'holidays.analysts'
p301
I1
sS'motherboard'
p302
I1
sS'287,000'
p303
I1
sS'unexpectedly'
p304
I3
sS'decided'
p305
I3
sS'result'
p306
I1
sS'financials'
p307
I1
sS'situation'
p308
I1
sS'said'
p309
I117
sS'capacity'
p310
I1
sS'159.21'
p311
I1
sS'sail'
p312
I1
sS'144.25'
p313
I1
sS'shaved'
p314
I1
sS'unable'
p315
I1
sS'360'
p316
I1
sS'rolled'
p317
I2
sS'ww'
p318
I2
sS'wittenburg'
p319
I5
sS'huang'
p320
I1
sS'defiance'
p321
I1
sS'news'
p322
I11
sS'downgraded'
p323
I1
sS'newt'
p324
I4
sS'kitchen'
p325
I1
sS'accident'
p326
I3
sS'met'
p327
I1
sS'planned'
p328
I7
sS'faces'
p329
I1
sS'asked'
p330
I1
sS'tough'
p331
I1
sS'offloading'
p332
I1
sS'appeared'
p333
I1
sS'excess'
p334
I6
sS'epidemic'
p335
I2
sS'wider'
p336
I2
sS'telecommunications'
p337
I1
sS'bathroom'
p338
I1
sS'basis'
p339
I1
sS'holdings'
p340
I3
sS'faltering'
p341
I1
sS'6.0975-6.1035'
p342
I1
sS'commission'
p343
I5
sS'basic'
p344
I2
sS'expected'
p345
I20
sS'flexible'
p346
I1
sS'entered'
p347
I1
sS'families'
p348
I1
sS'30-day'
p349
I5
sS'concerning'
p350
I2
sS'lift'
p351
I1
sS'168.13march'
p352
I1
sS'soymeal.traders'
p353
I1
sS'n'
p354
I1
sS'aim'
p355
I1
sS'information'
p356
I6
sS'near'
p357
I4
sS'property'
p358
I11
sS'launched'
p359
I3
sS'seven'
p360
I6
sS'climbed'
p361
I1
sS'mexico'
p362
I1
sS'taiwan.ruling'
p363
I1
sS'complaint'
p364
I4
sS'experts'
p365
I2
sS'95-octane'
p366
I1
sS'levied'
p367
I3
sS'said.brokers'
p368
I1
sS'hong'
p369
I1
sS'stella'
p370
I1
sS'patent'
p371
I8
sS'make'
p372
I6
sS'sidelined'
p373
I1
sS'wednesday.cpc'
p374
I1
sS'split'
p375
I1
sS'vegetable'
p376
I2
sS'tonnes.taiwan'
p377
I1
sS'bid'
p378
I5
sS'european'
p379
I5
sS'independent'
p380
I1
sS'hand'
p381
I1
sS'ownership'
p382
I2
sS'dark'
p383
I1
sS'tung'
p384
I2
sS'blamed'
p385
I3
sS'station.central'
p386
I1
sS'roms'
p387
I1
sS'nurth'
p388
I1
sS'1601'
p389
I1
sS'eps'
p390
I1
sS'operations.an'
p391
I1
sS'detained'
p392
I1
sS'claims'
p393
I3
sS'corporate'
p394
I1
sS'investments'
p395
I1
sS'left'
p396
I1
sS'spurred'
p397
I1
sS'said.loans'
p398
I1
sS'yen'
p399
I2
sS'proposes'
p400
I1
sS'previous'
p401
I1
sS'buyers'
p402
I2
sS'enters'
p403
I1
sS'sunflower'
p404
I1
sS'1979'
p405
I1
sS'regarded'
p406
I1
sS'states.a'
p407
I1
sS'spread'
p408
I1
sS'collections'
p409
I1
sS'board'
p410
I2
sS'east'
p411
I1
sS'370,000'
p412
I1
sS'injuring'
p413
I1
sS'nationalists'
p414
I1
sS'54'
p415
I1
sS'hunt'
p416
I1
sS'50'
p417
I1
sS'securities'
p418
I9
sS'officer'
p419
I1
sS'hung'
p420
I1
sS'security'
p421
I3
sS'right'
p422
I3
sS'old'
p423
I3
sS'people'
p424
I7
sS'successfully'
p425
I1
sS'eyeing'
p426
I2
sS'189.39'
p427
I1
sS'denies'
p428
I1
sS'force.united'
p429
I1
sS'centre'
p430
I1
sS'cnf'
p431
I1
sS'340,808'
p432
I1
sS'anangel'
p433
I1
sS'18,650'
p434
I1
sS'depositary'
p435
I2
sS'marketing'
p436
I2
sS'corn'
p437
I38
sS'deadly'
p438
I2
sS'corp'
p439
I11
sS'defensive'
p440
I1
sS'hsu'
p441
I2
sS'derailed'
p442
I2
sS'newspapers'
p443
I3
sS'months'
p444
I7
sS'plunging'
p445
I1
sS'ensure'
p446
I1
sS'afternoon'
p447
I1
sS'steadily'
p448
I1
sS'lacked'
p449
I1
sS'slightly'
p450
I1
sS'discharging'
p451
I1
sS'civil'
p452
I1
sS'balances'
p453
I1
sS'coastal'
p454
I1
sS'60,299'
p455
I1
sS'reducing'
p456
I1
sS'soon'
p457
I1
sS'communists'
p458
I1
sS'china.liberty'
p459
I1
sS'outbreaks'
p460
I1
sS'support'
p461
I1
sS'crisis.since'
p462
I1
sS'available'
p463
I2
sS'stuck'
p464
I1
sS'destroyed.as'
p465
I1
sS'way'
p466
I2
sS'war'
p467
I1
sS'head'
p468
I4
sS'medium'
p469
I1
sS'offering'
p470
I1
sS'offer'
p471
I3
sS'market.low'
p472
I1
sS'analyst'
p473
I4
sS'stagem'
p474
I1
sS'bellwether'
p475
I1
sS'economic'
p476
I10
sS'smashed'
p477
I1
sS'polsky'
p478
I1
sS'trim'
p479
I1
sS'passenger'
p480
I1
sS'percent.other'
p481
I1
sS'dealer'
p482
I3
sS'marking'
p483
I1
sS'loosening'
p484
I2
sS'tin'
p485
I1
sS'role'
p486
I1
sS'holding'
p487
I3
sS'brisk'
p488
I2
sS'exporter'
p489
I3
sS'immediate'
p490
I1
sS'proposals'
p491
I1
sS'liquidate'
p492
I2
sS'felt'
p493
I1
sS'fell'
p494
I10
sS'mid-1995.u'
p495
I1
sS'discharge'
p496
I1
sS'weekend'
p497
I2
sS'died'
p498
I1
sS'billion'
p499
I20
sS'faster'
p500
I1
sS'proposed'
p501
I1
sS'vigorously'
p502
I2
sS'daily'
p503
I17
sS'time'
p504
I7
sS'profits'
p505
I4
sS'kustrena'
p506
I1
sS'period.taiwan'
p507
I1
sS'switched'
p508
I1
sS'global'
p509
I1
sS'manager'
p510
I2
sS'adamantly'
p511
I1
sS'5.61'
p512
I1
sS'27,402'
p513
I1
sS'21st'
p514
I1
sS'1949'
p515
I1
sS'zone'
p516
I1
sS'flash'
p517
I2
sS'freigh'
p518
I1
sS'promoting'
p519
I3
sS'string'
p520
I1
sS'tonnages'
p521
I1
sS'consolidation'
p522
I2
sS'spate'
p523
I1
sS'untenable'
p524
I1
sS'10-year'
p525
I1
sS'join'
p526
I2
sS'1994'
p527
I1
sS'level'
p528
I4
sS'did'
p529
I2
sS'philippines'
p530
I1
sS'percent.president'
p531
I1
sS'standards'
p532
I2
sS'mm'
p533
I3
sS'team'
p534
I1
sS'depository'
p535
I1
sS'round'
p536
I1
sS'fujian'
p537
I1
sS'pork'
p538
I21
sS'factors.consolidation'
p539
I1
sS'says'
p540
I5
sS'trend'
p541
I1
sS'establishing'
p542
I1
sS'slowed'
p543
I2
sS'cost'
p544
I5
sS'eating'
p545
I1
sS'fear'
p546
I2
sS'cargo'
p547
I2
sS'appear'
p548
I1
sS'flows.economic'
p549
I1
sS'shares'
p550
I9
sS'current'
p551
I8
sS'hunesty'
p552
I1
sS'goes'
p553
I1
sS'international'
p554
I8
sS'falling'
p555
I3
sS'boost'
p556
I5
sS'transportation'
p557
I1
sS'bosworth'
p558
I3
sS'change'
p559
I2
sS'passengers'
p560
I1
sS'incoming'
p561
I1
sS'healthy'
p562
I2
sS'57.5'
p563
I2
sS'cargill'
p564
I3
sS'usually'
p565
I1
sS'taipei'
p566
I27
sS'emerge'
p567
I1
sS'extra'
p568
I1
sS'soybeans'
p569
I5
sS'prefer'
p570
I2
sS'24.00'
p571
I1
sS'flexibility'
p572
I1
sS'china.united'
p573
I1
sS'crisis'
p574
I3
sS'market'
p575
I51
sS'opposes'
p576
I3
sS'indicated'
p577
I1
sS'angry'
p578
I1
sS'8,367.57'
p579
I2
sS'shortfalls'
p580
I1
sS'27.3.domestic'
p581
I1
sS'live'
p582
I1
sS'139.85'
p583
I1
sS'memory'
p584
I4
sS'australian'
p585
I1
sS'unwarranted'
p586
I2
sS'1996.the'
p587
I1
sS'goods'
p588
I1
sS'effort'
p589
I1
sS'40-45'
p590
I1
sS'rebounding'
p591
I1
sS'democracy.in'
p592
I1
sS'edible'
p593
I1
sS'cap'
p594
I3
sS'reviews'
p595
I1
sS'following'
p596
I6
sS'fgep'
p597
I1
sS'arrive'
p598
I1
sS'figure'
p599
I1
sS'december'
p600
I2
sS'chip'
p601
I4
sS'chiu'
p602
I5
sS'chih'
p603
I2
sS'chin'
p604
I2
sS'dropped'
p605
I1
sS'council'
p606
I2
sS'allowed'
p607
I5
sS'chia'
p608
I1
sS'inflows'
p609
I2
sS'litre'
p610
I1
sS'winter'
p611
I1
sS'1'
p612
I4
sS'immune'
p613
I1
sS'fourth'
p614
I1
sS'subsidiaries'
p615
I1
sS'atmel'
p616
I8
sS'economy'
p617
I3
sS'product'
p618
I2
sS'13-year'
p619
I2
sS'critics'
p620
I1
sS'0.70'
p621
I1
sS'designed'
p622
I2
sS'data'
p623
I1
sS'processors'
p624
I2
sS'commodity'
p625
I2
sS'16,000'
p626
I1
sS'futures'
p627
I3
sS'sw'
p628
I1
sS'tapah'
p629
I2
sS'truck'
p630
I4
sS'5080815'
p631
I19
sS'opportunity'
p632
I1
sS'nearly'
p633
I1
sS'serve'
p634
I1
sS'gradual'
p635
I1
sS'mainly'
p636
I2
sS'raised'
p637
I5
sS'years'
p638
I5
sS'ended'
p639
I5
sS'cdrom'
p640
I1
sS'april.banks'
p641
I1
sS'cold'
p642
I1
sS'relegate'
p643
I1
sS'group'
p644
I9
sS'monitor'
p645
I1
sS'jin'
p646
I1
sS'organisation'
p647
I1
sS'constitution.commercial'
p648
I1
sS'listing'
p649
I1
sS'policy'
p650
I3
sS'mail'
p651
I1
sS'main'
p652
I7
sS'instantly'
p653
I1
sS'non'
p654
I3
sS'halt'
p655
I1
sS'rattled'
p656
I1
sS'100,000'
p657
I1
sS'half'
p658
I3
sS'discuss'
p659
I1
sS'enacted'
p660
I2
sS'execute'
p661
I1
sS'firming'
p662
I1
sS'january'
p663
I11
sS'drop'
p664
I2
sS'telephone.she'
p665
I1
sS'crushers'
p666
I2
sS'29/03'
p667
I1
sS'parliament.under'
p668
I1
sS'quarter'
p669
I4
sS'27.53-56'
p670
I1
sS'costs.in'
p671
I1
sS'asustek'
p672
I1
sS'significantly'
p673
I1
sS'states.the'
p674
I1
sS'kang'
p675
I1
sS'crushing'
p676
I7
sS'soy'
p677
I12
sS'fires'
p678
I1
sS'investing.blockbuster'
p679
I1
sS'entering'
p680
I2
sS'year'
p681
I18
sS'worried'
p682
I1
sS'contine'
p683
I2
sS'shown'
p684
I1
sS'bullish'
p685
I2
sS'factors'
p686
I3
sS'profit'
p687
I5
sS'oubreak'
p688
I1
sS'interference'
p689
I1
sS'increase'
p690
I12
sS'investigation'
p691
I2
sS'emerged'
p692
I1
sS'internet'
p693
I1
sS'shows'
p694
I1
sS'lawmaker'
p695
I2
sS'cars'
p696
I1
sS'million'
p697
I23
sS'seventh'
p698
I2
sS'governing'
p699
I2
sS'lucrative'
p700
I1
sS'taxed'
p701
I2
sS'ministry'
p702
I14
sS'listings'
p703
I2
sS'ck'
p704
I7
sS'turn'
p705
I2
sS'10-30/cnf'
p706
I3
sS'place'
p707
I1
sS'massive'
p708
I1
sS'8720'
p709
I1
sS'26-june'
p710
I1
sS'crushed'
p711
I1
sS'initial'
p712
I2
sS'symbolic'
p713
I1
sS'comprised'
p714
I1
sS'reopen'
p715
I2
sS'soaring'
p716
I1
sS'long'
p717
I5
sS'directly'
p718
I2
sS'overheating'
p719
I1
sS'kuai'
p720
I1
sS'open'
p721
I4
sS'george'
p722
I3
sS'given'
p723
I1
sS'effect.the'
p724
I1
sS'trillion'
p725
I1
sS'162,000'
p726
I1
sS'bourse'
p727
I1
sS'2'
p728
I1
sS'white'
p729
I1
sS'speaking'
p730
I1
sS'slashes'
p731
I1
sS'inefficient'
p732
I1
sS'cope'
p733
I1
sS'season'
p734
I1
sS'taxation'
p735
I2
sS'continuous'
p736
I1
sS'hui'
p737
I8
sS'broadcast'
p738
I1
sS'released'
p739
I1
sS'ridiculous'
p740
I1
sS'surged'
p741
I7
sS'interbank'
p742
I5
sS'population'
p743
I1
sS'11'
p744
I1
sS'10'
p745
I6
sS'television'
p746
I7
sS'12'
p747
I3
sS'15'
p748
I8
sS'14'
p749
I3
sS'17'
p750
I4
sS'16'
p751
I1
sS'19'
p752
I2
sS'rival'
p753
I2
sS'require'
p754
I1
sS'crowded'
p755
I1
sS'diplomatic'
p756
I1
sS'hsbc'
p757
I2
sS'computer'
p758
I10
sS'6.30-6.35.the'
p759
I1
sS'russia'
p760
I1
sS'pre'
p761
I4
sS'10-13'
p762
I2
sS'investors'
p763
I6
sS'remained'
p764
I2
sS'correction'
p765
I2
sS'premier'
p766
I3
sS'slow.late'
p767
I1
sS'say'
p768
I3
sS'allen'
p769
I1
sS'recover'
p770
I1
sS'saw'
p771
I2
sS'july.the'
p772
I1
sS'kevin'
p773
I1
sS'speakers'
p774
I3
sS'form'
p775
I1
sS'jardine'
p776
I1
sS'masse'
p777
I1
sS'intends'
p778
I2
sS'interior'
p779
I2
sS'performance'
p780
I3
sS'switching'
p781
I1
sS'1,700'
p782
I1
sS'200'
p783
I5
sS'normal'
p784
I1
sS'price'
p785
I16
sS'falls'
p786
I2
sS'america'
p787
I1
sS'rentals'
p788
I2
sS'forever'
p789
I1
sS'democratic'
p790
I2
sS'april.brokers'
p791
I1
sS'hsueh'
p792
I2
sS'considered'
p793
I1
sS'average'
p794
I6
sS'steady'
p795
I4
sS'30,000'
p796
I2
sS'liquidity'
p797
I4
sS'forecasters'
p798
I1
sS'laws'
p799
I2
sS'3.72'
p800
I1
sS'rating'
p801
I1
sS'3.71'
p802
I1
sS'surplus'
p803
I1
sS'3.74'
p804
I2
sS'percentage.brent'
p805
I1
sS'allegations'
p806
I2
sS'aggressive'
p807
I3
sS'285,000'
p808
I1
sS'fifth'
p809
I1
sS'ratio'
p810
I1
sS'gulf'
p811
I1
sS'49.00'
p812
I2
sS'pump'
p813
I1
sS'production.in'
p814
I1
sS'implemented'
p815
I1
sS'cautioned'
p816
I2
sS'pegged'
p817
I1
sS'congressional'
p818
I1
sS'dispute'
p819
I1
sS'televisions'
p820
I1
sS'9786'
p821
I1
sS'6.50'
p822
I1
sS'explosions'
p823
I1
sS'tallow.total'
p824
I1
sS'6.00-6.10.routine'
p825
I1
sS'reuters.currently'
p826
I1
sS'outperform'
p827
I1
sS'irritant'
p828
I1
sS'yield'
p829
I1
sS'morning'
p830
I2
sS'worries'
p831
I2
sS'5.42'
p832
I1
sS'1.98'
p833
I1
sS'5.47'
p834
I1
sS'imposing'
p835
I2
sS'signs'
p836
I2
sS'elected'
p837
I1
sS'june.the'
p838
I2
sS'153.73'
p839
I1
sS'paired'
p840
I1
sS'jumped'
p841
I1
sS'representatives'
p842
I1
sS'forecast'
p843
I3
sS'3'
p844
I2
sS'term.a'
p845
I1
sS'import'
p846
I5
sS'checks'
p847
I1
sS'arrival'
p848
I3
sS'august'
p849
I1
sS'parent'
p850
I1
sS'fanning'
p851
I1
sS'killing'
p852
I1
sS'come'
p853
I1
sS'392.833'
p854
I1
sS'0.35.dain'
p855
I1
sS'dates'
p856
I2
sS'according'
p857
I2
sS's'
p858
I8
sS'3.5'
p859
I1
sS'dated'
p860
I1
sS'traded'
p861
I1
sS'comes'
p862
I1
sS'tonne'
p863
I7
sS'28'
p864
I2
sS'period'
p865
I3
sS'60'
p866
I1
sS'65'
p867
I2
sS'injured.police'
p868
I1
sS'considering'
p869
I2
sS'destroyed'
p870
I1
sS'oliver'
p871
I1
sS'20/cnfdelivery'
p872
I1
sS'billion.almost'
p873
I1
sS'rebuild'
p874
I1
sS'absence'
p875
I3
sS'11-25'
p876
I1
sS'5.0-5.5'
p877
I1
sS'wants'
p878
I1
sS'20.26'
p879
I1
sS'reaction'
p880
I1
sS'offered'
p881
I1
sS'spills'
p882
I1
sS'minister'
p883
I4
sS'sound'
p884
I2
sS'4-6'
p885
I3
sS'cash'
p886
I1
sS'gulf.basic'
p887
I1
sS'said.taiwan'
p888
I5
sS'policies'
p889
I3
sS'newspaper'
p890
I1
sS'investigating'
p891
I1
sS'shops'
p892
I1
sS'spotlight'
p893
I1
sS'aluminium'
p894
I8
sS'rammed'
p895
I1
sS'telephone'
p896
I2
sS'commander'
p897
I1
sS'refinery'
p898
I1
sS'telephony'
p899
I1
sS'heels'
p900
I1
sS'protein'
p901
I1
sS'technology'
p902
I1
sS'worry'
p903
I1
sS'different'
p904
I1
sS'verified'
p905
I3
sS'media'
p906
I1
sS'check'
p907
I2
sS'17.1'
p908
I1
sS'inquiry'
p909
I1
sS'figures'
p910
I1
sS'pao'
p911
I2
sS'week'
p912
I8
sS'oil'
p913
I26
sS'singapore'
p914
I1
sS'driver'
p915
I2
sS'producers'
p916
I2
sS'totally'
p917
I1
sS'vowed'
p918
I1
sS'gingrich'
p919
I7
sS'0.5-percent'
p920
I3
sS'charges'
p921
I2
sS'marubeni'
p922
I1
sS'constitutional'
p923
I2
sS'notebook'
p924
I1
sS'costs'
p925
I5
sS'said.a'
p926
I1
sS'easing'
p927
I2
sS'280,000'
p928
I1
sS'money'
p929
I8
sS'adjustments'
p930
I1
sS'relevant'
p931
I1
sS'market.construction'
p932
I1
sS'rose'
p933
I20
sS'attache'
p934
I5
sS'confirmed'
p935
I1
sS'wall'
p936
I6
sS'4'
p937
I1
sS'struck'
p938
I1
sS'momentum'
p939
I1
sS'scheduled'
p940
I2
sS'rules'
p941
I4
sS'early'
p942
I3
sS'inflation'
p943
I1
sS'preference'
p944
I1
sS'world'
p945
I11
sS'0.56'
p946
I1
sS'identifying'
p947
I4
sS'benefit'
p948
I2
sS't'
p949
I97
sS'downward'
p950
I1
sS'reduced'
p951
I3
sS'6.62'
p952
I1
sS'said.blockbuster'
p953
I1
sS'overheated'
p954
I2
sS'pacific'
p955
I5
sS'supplementary'
p956
I1
sS'68.constructions'
p957
I1
sS'booming'
p958
I2
sS'gross'
p959
I2
sS'slaughtering'
p960
I1
sS'agerx'
p961
I1
sS'13.53'
p962
I1
sS'situation.traders'
p963
I1
sS'maersk'
p964
I2
sS'deficit'
p965
I5
sS'said.smithfield'
p966
I1
sS'inventories.in'
p967
I1
sS'assembly'
p968
I5
sS'business'
p969
I1
sS'permit.the'
p970
I1
sS'broker'
p971
I1
sS'slaughter'
p972
I4
sS'credits'
p973
I2
sS'30/04'
p974
I1
sS'contracts'
p975
I2
sS'manufactures'
p976
I1
sS'manufacturer'
p977
I2
sS'central'
p978
I7
sS'contagion'
p979
I2
sS'island'
p980
I15
sS'industry'
p981
I6
sS'maintenance.liu'
p982
I1
sS'airline'
p983
I1
sS'processor'
p984
I1
sS'heavy'
p985
I2
sS'outlook'
p986
I2
sS'accumulates'
p987
I1
sS'rising'
p988
I7
sS'parties'
p989
I1
sS'accumulated'
p990
I2
sS'alleged'
p991
I3
sS'start'
p992
I3
sS'low'
p993
I8
sS'alleges'
p994
I2
sS'january.loans'
p995
I1
sS'jones'
p996
I2
sS'positioned'
p997
I1
sS'cabinet'
p998
I4
sS'consumption.construction'
p999
I1
sS'trying'
p1000
I1
sS'buying'
p1001
I4
sS'agrex'
p1002
I1
sS'asso'
p1003
I2
sS'october'
p1004
I2
sS'applying'
p1005
I1
sS'monopoly'
p1006
I6
sS'31.4'
p1007
I1
sS'151.50'
p1008
I1
sS'agree'
p1009
I1
sS'strongly'
p1010
I1
sS'ad'
p1011
I3
sS'certain'
p1012
I1
sS'sales'
p1013
I25
sS'deep'
p1014
I1
sS'importing'
p1015
I1
sS'politics'
p1016
I1
sS'intra'
p1017
I1
sS'piracy'
p1018
I1
sS'10-25/cnf'
p1019
I1
sS'tight'
p1020
I1
sS'valid'
p1021
I1
sS'5'
p1022
I5
sS'forcing'
p1023
I2
sS'886,000'
p1024
I1
sS'even.it'
p1025
I1
sS'gaining'
p1026
I1
sS'25,000-tonne'
p1027
I1
sS'briefly'
p1028
I2
sS'bergerco'
p1029
I1
sS'separate'
p1030
I2
sS'important'
p1031
I2
sS'included'
p1032
I1
sS'486'
p1033
I2
sS'stocks'
p1034
I7
sS'reuters.lee'
p1035
I1
sS'building'
p1036
I1
sS'6.35-6.40.dealers'
p1037
I1
sS'cpc'
p1038
I4
sS'mask'
p1039
I2
sS'dramatic'
p1040
I1
sS'mass'
p1041
I3
sS'overseas'
p1042
I1
sS'original'
p1043
I1
sS'bottoming'
p1044
I1
sS'chinese'
p1045
I11
sS'dollar'
p1046
I6
sS'month'
p1047
I4
sS'zinc'
p1048
I1
sS'decisions'
p1049
I3
sS'rom'
p1050
I2
sS'ports.the'
p1051
I1
sS'subjected'
p1052
I1
sS'thursday'
p1053
I19
sS'dairy'
p1054
I1
sS'lawmakers'
p1055
I2
sS'peavey'
p1056
I1
sS'shipment'
p1057
I1
sS'tainaron'
p1058
I1
sS'far'
p1059
I2
sS'balancing'
p1060
I1
sS'fall'
p1061
I7
sS'cable'
p1062
I3
sS'stimulus'
p1063
I1
sS'list'
p1064
I1
sS'mild'
p1065
I1
sS'fy98'
p1066
I1
sS'macronix'
p1067
I12
sS'small'
p1068
I2
sS'fy97'
p1069
I1
sS'economically'
p1070
I1
sS'199'
p1071
I2
sS'3.10'
p1072
I1
sS'hou.car'
p1073
I1
sS'derivatives@reuters.com'
p1074
I1
sS'shortfalls.the'
p1075
I1
sS'rate'
p1076
I13
sS'design'
p1077
I1
sS'investment'
p1078
I6
sS'defence'
p1079
I2
sS'imported'
p1080
I4
sS'sun'
p1081
I1
sS'18'
p1082
I4
sS'crush'
p1083
I1
sS'1949.the'
p1084
I1
sS'showed.the'
p1085
I1
sS'public'
p1086
I2
sS'reuters.analysts'
p1087
I1
sS'cancelled'
p1088
I2
sS'selective'
p1089
I1
sS'operating'
p1090
I2
sS'relaxation'
p1091
I2
sS'strong'
p1092
I6
sS'61.477'
p1093
I2
sS'applicable'
p1094
I2
sS'ahead'
p1095
I1
sS'prior'
p1096
I1
sS'tuesday.taiwan'
p1097
I1
sS'pick'
p1098
I1
sS'action'
p1099
I2
sS'narrow'
p1100
I2
sS'mfig'
p1101
I3
sS'ase'
p1102
I1
sS'family'
p1103
I1
sS'941.5'
p1104
I1
sS'hogs'
p1105
I3
sS'feedings'
p1106
I1
sS'fifth.a'
p1107
I1
sS'shareholders'
p1108
I2
sS'earliest'
p1109
I1
sS'petroleum'
p1110
I10
sS'6'
p1111
I3
sS'markets'
p1112
I6
sS'company'
p1113
I19
sS'leonard'
p1114
I1
sS'basically'
p1115
I1
sS"i'm"
p1116
I1
sS'akra'
p1117
I1
sS'producing'
p1118
I1
sS'glad'
p1119
I1
sS'gravel'
p1120
I1
sS'level.attache'
p1121
I1
sS'frustratingly'
p1122
I1
sS'2-508-0815'
p1123
I2
sS'remain'
p1124
I3
sS'abandon'
p1125
I1
sS'pushes'
p1126
I1
sS'stated'
p1127
I2
sS'share'
p1128
I14
sS'states'
p1129
I4
sS'pushed'
p1130
I1
sS'minimum'
p1131
I1
sS'numbers'
p1132
I1
sS'sense'
p1133
I1
sS'gallon'
p1134
I1
sS'huge'
p1135
I3
sS'needs'
p1136
I3
sS'strait.liberty'
p1137
I1
sS'5.5'
p1138
I1
sS'beijing.beijing'
p1139
I1
sS'funds.the'
p1140
I1
sS'earnings'
p1141
I3
sS'99.85'
p1142
I1
sS'plant'
p1143
I2
sS'plans'
p1144
I1
sS'capture'
p1145
I1
sS'inflationary'
p1146
I1
sS'signature'
p1147
I2
sS'reflect'
p1148
I1
sS'headlineschina'
p1149
I3
sS'director'
p1150
I1
sS'seemingly'
p1151
I1
sS'offset'
p1152
I1
sS'coming'
p1153
I1
sS'fo'
p1154
I1
sS'short'
p1155
I1
sS'percent.the'
p1156
I3
sS'frictions'
p1157
I1
sS'tsai'
p1158
I2
sS'quoted'
p1159
I2
sS'ministers.banks'
p1160
I1
sS'overnight'
p1161
I5
sS'tsan'
p1162
I1
sS'corruption.united'
p1163
I1
sS'banks'
p1164
I16
sS'resource.common'
p1165
I1
sS'turnover'
p1166
I1
sS'rocketed'
p1167
I1
sS'help'
p1168
I3
sS'september'
p1169
I3
sS'itc'
p1170
I2
sS'tuessday'
p1171
I1
sS'trade'
p1172
I5
sS'held'
p1173
I1
sS'attitude'
p1174
I2
sS'paper'
p1175
I12
sS'committee'
p1176
I1
sS'1.99'
p1177
I1
sS'comment.the'
p1178
I1
sS'24'
p1179
I1
sS'26'
p1180
I1
sS'27'
p1181
I4
sS'20'
p1182
I14
sS'21'
p1183
I1
sS'22'
p1184
I1
sS'argoris'
p1185
I1
sS'late'
p1186
I7
sS'detected'
p1187
I2
sS'reuters'
p1188
I8
sS'systems'
p1189
I1
sS'tumbling'
p1190
I1
sS'formosa'
p1191
I9
sS'hurting'
p1192
I1
sS'good'
p1193
I3
sS'return'
p1194
I1
sS'food'
p1195
I1
sS'reflected'
p1196
I2
sS'outbreak'
p1197
I6
sS'foot'
p1198
I4
sS'held.the'
p1199
I1
sS'yu'
p1200
I2
sS'viewers'
p1201
I1
sS'easily'
p1202
I2
sS'9903'
p1203
I1
sS'450,000'
p1204
I1
sS'fully'
p1205
I4
sS'amendments.the'
p1206
I1
sS'authorisation'
p1207
I2
sS'ports'
p1208
I1
sS'barrels'
p1209
I1
sS'house'
p1210
I3
sS'fish'
p1211
I1
sS'hard'
p1212
I2
sS'reduce'
p1213
I1
sS'40,000'
p1214
I1
sS'police'
p1215
I2
sS'flavia'
p1216
I1
sS'expect'
p1217
I2
sS'operation'
p1218
I1
sS'funding'
p1219
I1
sS'projected'
p1220
I1
sS'research'
p1221
I5
sS'7'
p1222
I2
sS'1,465'
p1223
I1
sS'issue'
p1224
I3
sS'percent.friday'
p1225
I1
sS'market.state'
p1226
I1
sS'reporting'
p1227
I1
sS'dictatorial'
p1228
I1
sS'risen'
p1229
I4
sS'lawrence'
p1230
I2
sS'3.02'
p1231
I1
sS'imports.soybean'
p1232
I1
sS'friday'
p1233
I13
sS'difficulty'
p1234
I1
sS'base'
p1235
I2
sS'term'
p1236
I3
sS'members'
p1237
I2
sS'ask'
p1238
I1
sS'rises'
p1239
I2
sS'beginning'
p1240
I3
sS'driven'
p1241
I2
sS'market.finance'
p1242
I1
sS'computers'
p1243
I13
sS'american'
p1244
I2
sS'27.543'
p1245
I2
sS'expecting'
p1246
I2
sS'27.546'
p1247
I2
sS'27.547'
p1248
I3
sS'feed'
p1249
I9
sS'copper'
p1250
I2
sS'major'
p1251
I10
sS'usda'
p1252
I1
sS'encoding'
p1253
I2
sS'number'
p1254
I1
sS'dong'
p1255
I1
sS'fuller'
p1256
I1
sS'leading'
p1257
I4
sS'financed'
p1258
I1
sS'index.on'
p1259
I1
sS'183'
p1260
I1
sS'statement'
p1261
I11
sS'staggered'
p1262
I1
sS'188'
p1263
I1
sS'scheme'
p1264
I1
sS'jen'
p1265
I2
sS'store'
p1266
I1
sS'5.98'
p1267
I1
sS'selling'
p1268
I1
sS'adonis'
p1269
I1
sS'telephone.chang'
p1270
I1
sS'peaked'
p1271
I1
sS'critically'
p1272
I1
sS'mercantil'
p1273
I1
sS'dismantling'
p1274
I1
sS'strengthen'
p1275
I1
sS'imports'
p1276
I15
sS'ties.gingrich'
p1277
I1
sS'6.250'
p1278
I1
sS'pork.wittenburg'
p1279
I1
sS'constructions'
p1280
I1
sS'built'
p1281
I1
sS'zero'
p1282
I1
sS'miao'
p1283
I1
sS'unions.economic'
p1284
I1
sS'cargoes'
p1285
I1
sS'liu'
p1286
I1
sS'internal'
p1287
I1
sS'chairman'
p1288
I2
sS'province'
p1289
I1
sS'added'
p1290
I3
sS'electric'
p1291
I1
sS'54,000'
p1292
I12
sS'eggs'
p1293
I1
sS'sets'
p1294
I3
sS'reach'
p1295
I1
sS'kam'
p1296
I1
sS'virus'
p1297
I2
sS'assoc'
p1298
I1
sS'plan'
p1299
I10
sS'significant'
p1300
I5
sS'70'
p1301
I2
sS'services'
p1302
I6
sS'85.5'
p1303
I1
sS'approved'
p1304
I3
sS'soared'
p1305
I1
sS'kg'
p1306
I10
sS'dealers'
p1307
I14
sS'mobile'
p1308
I2
sS'networks.in'
p1309
I1
sS'cover'
p1310
I1
sS'unreasonable'
p1311
I1
sS'ku'
p1312
I1
sS'barrel'
p1313
I2
sS'chipmaker'
p1314
I2
sS'2.00'
p1315
I3
sS'bulletin'
p1316
I1
sS'2.03'
p1317
I1
sS'sector'
p1318
I10
sS'particularly'
p1319
I1
sS'666'
p1320
I1
sS'scattered'
p1321
I1
sS'feed.taiwan'
p1322
I1
sS'nasdaq'
p1323
I2
sS'session'
p1324
I1
sS'businesses'
p1325
I2
sS'freight'
p1326
I2
sS'impact'
p1327
I1
sS'giant'
p1328
I6
sS'northern'
p1329
I1
sS'assertion'
p1330
I1
sS'foong'
p1331
I2
sS'said.macronix'
p1332
I2
sS'cassette'
p1333
I1
sS'pretty'
p1334
I2
sS'equity'
p1335
I1
sS'override'
p1336
I1
sS'8'
p1337
I2
sS'giants'
p1338
I1
sS'hold.the'
p1339
I1
sS'hit'
p1340
I2
sS'dependent'
p1341
I1
sS'banned'
p1342
I3
sS'57,400'
p1343
I1
sS'wujih.it'
p1344
I1
sS'disapproves.central'
p1345
I1
sS'preparing'
p1346
I1
sS'closely'
p1347
I1
sS'shared'
p1348
I1
sS'progressive'
p1349
I1
sS'retaliation'
p1350
I1
sS'banking'
p1351
I3
sS'common'
p1352
I2
sS'months.chinese'
p1353
I1
sS'declines'
p1354
I2
sS'28.3.for'
p1355
I1
sS'sec'
p1356
I2
sS'reverberations'
p1357
I1
sS'huang.steel'
p1358
I1
sS'companies.economic'
p1359
I1
sS'close'
p1360
I9
sS'immediately.under'
p1361
I1
sS'2.6'
p1362
I1
sS'declined'
p1363
I2
sS'2.4'
p1364
I2
sS'movie'
p1365
I1
sS'16-30'
p1366
I1
sS'currently'
p1367
I3
sS'won'
p1368
I1
sS'24.57'
p1369
I1
sS'downturn'
p1370
I2
sS'europe'
p1371
I1
sS'korea'
p1372
I2
sS'recently'
p1373
I2
sS'creating'
p1374
I1
sS'targeted'
p1375
I2
sS'franchises'
p1376
I1
sS'sole'
p1377
I1
sS'ranked'
p1378
I1
sS'importers'
p1379
I2
sS'opposition'
p1380
I3
sS'stereos'
p1381
I1
sS'dividend'
p1382
I4
sS'c'
p1383
I1
sS'40.48'
p1384
I1
sS'sino'
p1385
I1
sS'annual'
p1386
I1
sS'begun'
p1387
I1
sS'foreign'
p1388
I17
sS'1.65'
p1389
I1
sS'newsdesk'
p1390
I1
sS'let'
p1391
I1
sS'supply'
p1392
I1
sS'loan'
p1393
I1
sS'55,300'
p1394
I1
sS'improper'
p1395
I1
sS'simply'
p1396
I2
sS'shutdown'
p1397
I1
sS'vessel'
p1398
I2
sS'steels'
p1399
I1
sS'complied'
p1400
I2
sS'party.chen'
p1401
I1
sS'decline'
p1402
I3
sS'percent.taiwan'
p1403
I2
sS'monthly'
p1404
I2
sS'million.the'
p1405
I1
sS'hitting'
p1406
I1
sS'8,392.96'
p1407
I1
sS'feburary'
p1408
I1
sS'skewing'
p1409
I1
sS'said.the'
p1410
I11
sS'threaten'
p1411
I1
sS'meeting'
p1412
I5
sS'firm'
p1413
I4
sS'0001'
p1414
I1
sS'parliament.political'
p1415
I1
sS'gas'
p1416
I1
sS'priced'
p1417
I2
sS'fund'
p1418
I4
sS'500,000'
p1419
I2
sS'demand'
p1420
I21
sS'prices'
p1421
I24
sS'exemption'
p1422
I1
sS'1.965'
p1423
I2
sS'look'
p1424
I1
sS'solid'
p1425
I3
sS'budget'
p1426
I2
sS'governor'
p1427
I1
sS'reopens'
p1428
I1
sS'date.taiwan'
p1429
I1
sS'percent.turnover'
p1430
I1
sS'real'
p1431
I4
sS'hoping'
p1432
I3
sS'cents'
p1433
I3
sS'rim'
p1434
I1
sS'overconcentration'
p1435
I1
sS'limit'
p1436
I12
sS'leaving'
p1437
I1
sS'chase'
p1438
I1
sS'management.although'
p1439
I1
sS'grant'
p1440
I1
sS'870'
p1441
I1
sS'port'
p1442
I2
sS'virtually'
p1443
I1
sS'9'
p1444
I2
sS'survey'
p1445
I1
sS'dozen'
p1446
I1
sS'shan'
p1447
I2
sS'higher'
p1448
I10
sS'currencies'
p1449
I1
sS'temporary'
p1450
I1
sS'7325'
p1451
I1
sS'bonus'
p1452
I1
sS'29-30'
p1453
I3
sS'cement'
p1454
I1
sS'holidays'
p1455
I3
sS'26,000'
p1456
I2
sS'levels'
p1457
I2
sS'moving'
p1458
I4
sS'user'
p1459
I1
sS'aggregate'
p1460
I1
sS'yuan'
p1461
I3
sS'chang'
p1462
I4
sS'recent'
p1463
I12
sS'downtrend'
p1464
I1
sS'lower'
p1465
I2
sS'5.80'
p1466
I1
sS'revising'
p1467
I2
sS'lin'
p1468
I8
sS'quarters'
p1469
I1
sS'shape'
p1470
I1
sS'inactive'
p1471
I1
sS'plagued'
p1472
I1
sS'0.50'
p1473
I1
sS'taiwan'
p1474
I131
sS'cut'
p1475
I5
sS'majority'
p1476
I2
sS'nikko'
p1477
I1
sS'source'
p1478
I2
sS'hsin'
p1479
I2
sS'labour'
p1480
I1
sS'said.giant'
p1481
I1
sS'impact.the'
p1482
I1
sS'ruled'
p1483
I2
sS'easter'
p1484
I1
sS'remaining'
p1485
I1
sS'unloading'
p1486
I1
sS'customers'
p1487
I1
sS'march'
p1488
I31
sS'forces'
p1489
I3
sS'hurzon'
p1490
I1
sS'big'
p1491
I6
sS'rebound'
p1492
I2
sS'soar.the'
p1493
I1
sS'foreigners'
p1494
I1
sS'renegade'
p1495
I1
sS'imposed'
p1496
I2
sS'scrutiny.u.s'
p1497
I1
sS'continue'
p1498
I2
sS'yields'
p1499
I3
sS'163.68'
p1500
I3
sS'breeder'
p1501
I1
sS'shipments'
p1502
I5
sS'spring'
p1503
I2
sS'2-5080815'
p1504
I7
sS'6.10-6.15'
p1505
I3
sS'palm'
p1506
I1
sS'3.1'
p1507
I1
sS'newsletter'
p1508
I1
sS'gradually'
p1509
I2
sS'capital.taiwan'
p1510
I1
sS'contacts'
p1511
I1
sS'decision'
p1512
I1
sS'8,150-8,250'
p1513
I1
sS'11.50'
p1514
I2
sS'constitution.the'
p1515
I1
sS'seller'
p1516
I2
sS'eliminate'
p1517
I1
sS'slash'
p1518
I1
sS'lard'
p1519
I1
sS'iuanis'
p1520
I1
sS'510,000'
p1521
I1
sS'beleaguered'
p1522
I3
sS'run'
p1523
I5
sS'300'
p1524
I2
sS'word'
p1525
I1
sS'agreement'
p1526
I3
sS'306'
p1527
I1
sS'4.64'
p1528
I1
sS'relating'
p1529
I2
sS'intense'
p1530
I2
sS'cautious'
p1531
I2
sS'range'
p1532
I8
sS'involving'
p1533
I1
sS'block'
p1534
I1
sS'added.banks'
p1535
I1
sS'visit'
p1536
I3
sS'inventories'
p1537
I3
sS'8,250-8,500'
p1538
I1
sS'zoodotis'
p1539
I1
sS'intraday'
p1540
I2
sS'9.99'
p1541
I1
sS'statistics'
p1542
I1
sS'that.china'
p1543
I1
sS'fast'
p1544
I1
sS'740,000'
p1545
I1
sS'51.5.electronics'
p1546
I1
sS'angre'
p1547
I1
sS'said.after'
p1548
I2
sS'competition'
p1549
I2
sS'filed'
p1550
I2
sS'hopes'
p1551
I5
sS'subsidiary'
p1552
I1
sS'line'
p1553
I3
sS'dull'
p1554
I1
sS'raising'
p1555
I2
sS'posted'
p1556
I2
sS'power.commercial'
p1557
I1
sS'sheu'
p1558
I1
sS'viacom'
p1559
I1
sS'similar'
p1560
I3
sS'shih'
p1561
I1
sS'ralla'
p1562
I1
sS'ordered'
p1563
I2
sS'nationalist'
p1564
I9
sS'metal'
p1565
I1
sS'influence'
p1566
I1
sS'metals'
p1567
I3
sS'61.00'
p1568
I2
sS'single'
p1569
I3
sS'6-20/cnf'
p1570
I1
sS'said.it'
p1571
I1
sS'prevail'
p1572
I2
sS'peace'
p1573
I1
sS'said.consumer'
p1574
I1
sS'income'
p1575
I1
sS'department'
p1576
I2
sS'scurrying'
p1577
I1
sS'revision'
p1578
I1
sS'berthing'
p1579
I3
sS'draw'
p1580
I2
sS'ingots'
p1581
I2
sS'problems'
p1582
I1
sS'prepared'
p1583
I2
sS'165.4'
p1584
I1
sS'allowing'
p1585
I2
sS'reservation'
p1586
I1
sS'lang'
p1587
I2
sS'land'
p1588
I1
sS'e'
p1589
I1
sS'wafer'
p1590
I1
sS'vice'
p1591
I1
sS'required'
p1592
I1
sS'dow'
p1593
I2
sS'rallies'
p1594
I2
sS'fresh'
p1595
I1
sS'wednesday.however'
p1596
I1
sS'issued'
p1597
I1
sS'results'
p1598
I3
sS'existing'
p1599
I1
sS'farms'
p1600
I4
sS'8,163.41'
p1601
I1
sS'adjustment'
p1602
I5
sS'15,000'
p1603
I1
sS'issues'
p1604
I2
sS'send'
p1605
I1
sS'citing'
p1606
I1
sS'stable'
p1607
I4
sS'include'
p1608
I3
sS'sent'
p1609
I1
sS'23/cnf'
p1610
I1
sS'update.taiwan'
p1611
I1
sS'outside'
p1612
I1
sS'seizes'
p1613
I1
sS'continued'
p1614
I2
sS'threat'
p1615
I1
sS'inspection'
p1616
I1
sS'noted'
p1617
I2
sS'2.25'
p1618
I1
sS'logistics'
p1619
I1
sS'312-408-8750'
p1620
I1
sS'smaller'
p1621
I1
sS'56,700'
p1622
I1
sS'pledge'
p1623
I1
sS'5175'
p1624
I1
sS'video'
p1625
I11
sS'wheat'
p1626
I8
sS'makers'
p1627
I3
sS'year.at'
p1628
I1
sS'index'
p1629
I11
sS'hui.national'
p1630
I1
sS'power'
p1631
I8
sS'chicago'
p1632
I2
sS'giving'
p1633
I3
sS'multimedia'
p1634
I10
sS'volatile'
p1635
I2
sS'capital'
p1636
I4
sS'firms'
p1637
I7
sS'body'
p1638
I1
sS'completion'
p1639
I1
sS'lee'
p1640
I11
sS'exchange'
p1641
I8
sS'respectively'
p1642
I3
sS'commercial'
p1643
I6
sS'announced.before'
p1644
I1
sS'slated'
p1645
I1
sS'growing'
p1646
I1
sS'added.the'
p1647
I2
sS'scrapped'
p1648
I1
sS'soymeal'
p1649
I15
sS'great'
p1650
I3
sS'33'
p1651
I1
sS'31'
p1652
I2
sS'30'
p1653
I1
sS'computers.the'
p1654
I1
sS'34'
p1655
I3
sS'repen'
p1656
I1
sS'products'
p1657
I5
sS'opinion'
p1658
I1
sS'implement'
p1659
I1
sS'maker'
p1660
I7
sS'199.5'
p1661
I1
sS'ago'
p1662
I1
sS'deputy'
p1663
I1
sS'manage'
p1664
I1
sS'ahead.the'
p1665
I1
sS'private'
p1666
I2
sS'decrease'
p1667
I1
sS'particpate'
p1668
I1
sS'motor'
p1669
I3
sS'apply'
p1670
I1
sS'4.78'
p1671
I1
sS'tenders.basic'
p1672
I1
sS'members.chang'
p1673
I1
sS'consumption'
p1674
I1
sS'remains'
p1675
I2
sS'chi'
p1676
I2
sS'unattractive.taiwan'
p1677
I1
sS'chu'
p1678
I1
sS'calculated.the'
p1679
I1
sS'midday'
p1680
I1
sS'parliament'
p1681
I11
sS'8,367.57.turnover'
p1682
I1
sS'benchmark'
p1683
I4
sS'cooperate'
p1684
I2
sS'train'
p1685
I5
sS'sharply'
p1686
I3
sS'8650'
p1687
I1
sS'arranging'
p1688
I2
sS'150'
p1689
I1
sS'challenge'
p1690
I2
sS'clients'
p1691
I1
sS'insists'
p1692
I1
sS'pour'
p1693
I3
sS'recession'
p1694
I1
sS'meet'
p1695
I4
sS'1.47'
p1696
I1
sS'gains.the'
p1697
I1
sS'1.42'
p1698
I1
sS'control'
p1699
I2
sS'beijing'
p1700
I2
sS'slid'
p1701
I1
sS'links'
p1702
I1
sS'process'
p1703
I2
sS'proportions'
p1704
I1
sS'1994-95'
p1705
I1
sS'tax'
p1706
I19
sS'high'
p1707
I12
sS'reserves'
p1708
I1
sS'tan'
p1709
I1
sS'10-percent'
p1710
I1
sS'13-percent'
p1711
I1
sS'deadline.the'
p1712
I1
sS'reuters.liu'
p1713
I1
sS'hocheng'
p1714
I1
sS'traders'
p1715
I7
sS'27.538'
p1716
I1
sS'animal'
p1717
I2
sS'said.but'
p1718
I1
sS'instead'
p1719
I1
sS'stock'
p1720
I13
sS'buildings'
p1721
I3
sS'1.0-percent'
p1722
I2
sS'farm'
p1723
I1
sS'halted'
p1724
I3
sS'united'
p1725
I10
sS'ties'
p1726
I2
sS'cheaper'
p1727
I1
sS'rental'
p1728
I1
sS'ambiguous'
p1729
I1
sS'59,100'
p1730
I1
sS'99.9995'
p1731
I1
sS'light'
p1732
I1
sS'76.00'
p1733
I2
sS'counter'
p1734
I3
sS'lines'
p1735
I1
sS'plant.wu'
p1736
I1
sS'chief'
p1737
I5
sS'allow'
p1738
I3
sS'5,000'
p1739
I1
sS'billion.the'
p1740
I2
sS'producer'
p1741
I1
sS'institutional'
p1742
I1
sS'reporters'
p1743
I1
sS'balanced'
p1744
I1
sS'percent.dealers'
p1745
I1
sS'131'
p1746
I1
sS'including'
p1747
I3
sS'agricultural'
p1748
I1
sS'industries'
p1749
I1
sS'mitsui'
p1750
I2
sS'continen'
p1751
I1
sS'tse'
p1752
I1
sS'factors.in'
p1753
I1
sS'estimating'
p1754
I1
sS'holiday'
p1755
I5
sS'friday.the'
p1756
I1
sS'greater'
p1757
I1
sS'flour'
p1758
I4
sS'investor'
p1759
I2
sS'day'
p1760
I7
sS'presidential'
p1761
I1
sS'taichung'
p1762
I3
sS'february'
p1763
I5
sS'university'
p1764
I1
sS'eased'
p1765
I1
sS'identified'
p1766
I1
sS'july.dealers'
p1767
I1
sS'legiony'
p1768
I1
sS'shortage'
p1769
I1
sS'accounts'
p1770
I1
sS'eases'
p1771
I1
sS'upward'
p1772
I1
sS'3,000'
p1773
I2
sS'attachments'
p1774
I1
sS'chung'
p1775
I3
sS'strip'
p1776
I1
sS'related'
p1777
I1
sS'measure'
p1778
I2
sS'relates'
p1779
I1
sS'80'
p1780
I2
sS'agriculture'
p1781
I4
sS'2.37'
p1782
I1
sS'260,000'
p1783
I1
sS'defend'
p1784
I4
sS'141'
p1785
I1
sS'liberalisations'
p1786
I1
sS'memey'
p1787
I1
sS'liberalisation'
p1788
I1
sS'vcr'
p1789
I1
sS'exporting'
p1790
I1
sS'electronics'
p1791
I9
sS'announced'
p1792
I2
sS'maintains'
p1793
I1
sS'payroll'
p1794
I1
sS'consortiums'
p1795
I1
sS'fluctuated'
p1796
I1
sS'york'
p1797
I4
sS'princess'
p1798
I1
sS'receipts'
p1799
I3
sS'mainland'
p1800
I8
sS'deprived'
p1801
I1
sS'confident'
p1802
I2
sS'steam.company'
p1803
I1
sS'times'
p1804
I12
sS'counterpart'
p1805
I3
sS'produce'
p1806
I2
sS'resumes'
p1807
I1
sS'retail'
p1808
I4
sS'south'
p1809
I2
sS'plastics'
p1810
I2
sS'yulon'
p1811
I2
sS'owned'
p1812
I5
sS'strategic'
p1813
I1
sS'monday.dealers'
p1814
I1
sS'reached'
p1815
I5
sS'awarded'
p1816
I1
sS'quality'
p1817
I4
sS"doesn't"
p1818
I1
sS'198.20'
p1819
I1
sS'there.in'
p1820
I1
sS'plant.fang'
p1821
I1
sS'relations'
p1822
I2
sS'chen.late'
p1823
I1
sS'attack'
p1824
I2
sS'312'
p1825
I1
sS'3084'
p1826
I1
sS'99.7'
p1827
I1
sS'final'
p1828
I2
sS'interests'
p1829
I5
sS'lists'
p1830
I1
sS'slides'
p1831
I1
sS'vouch'
p1832
I3
sS'reflecting'
p1833
I2
sS'july'
p1834
I5
sS'480,000'
p1835
I1
sS'steel'
p1836
I17
sS'sectors'
p1837
I1
sS'days.in'
p1838
I1
sS'year.blockbuster'
p1839
I1
sS'compensation'
p1840
I3
sS'1.5'
p1841
I4
sS'1.6'
p1842
I1
sS'1.0'
p1843
I1
sS'1.1'
p1844
I1
sS'1.2'
p1845
I2
sS'1.3'
p1846
I3
sS'unchanged'
p1847
I3
sS'1.9'
p1848
I1
sS'speculative'
p1849
I1
sS'tender'
p1850
I5
sS'mongolian'
p1851
I1
sS'2.2'
p1852
I1
sS'need'
p1853
I3
sS'blockbuster'
p1854
I5
sS'16.75'
p1855
I1
sS'mid'
p1856
I3
sS'216,000'
p1857
I1
sS'best'
p1858
I2
sS'soar'
p1859
I1
sS'10.35'
p1860
I2
sS'available.other'
p1861
I1
sS'holiday.on'
p1862
I1
sS'petrol'
p1863
I1
sS'december.after'
p1864
I1
sS'oilseed'
p1865
I1
sS'preliminary'
p1866
I1
sS'volume'
p1867
I4
sS'stereo'
p1868
I3
sS'disease'
p1869
I9
sS'face'
p1870
I1
sS'1,008'
p1871
I1
sS'worldwide.workers'
p1872
I1
sS'away'
p1873
I1
sS'ho'
p1874
I1
sS'selection'
p1875
I1
sS'membership.the'
p1876
I1
sS'agreed'
p1877
I1
sS'bring'
p1878
I2
sS'planning'
p1879
I1
sS'rebuke'
p1880
I1
sS'data.taiwan'
p1881
I1
sS'chicken'
p1882
I1
sS'debate'
p1883
I1
sS'staff'
p1884
I1
sS'partners'
p1885
I1
sS'based'
p1886
I2
sS'q4'
p1887
I1
sS'controls'
p1888
I1
sS'fuel'
p1889
I3
sS'communist'
p1890
I3
sS'local'
p1891
I20
sS'hope'
p1892
I1
sS'bonds'
p1893
I2
sS'overall'
p1894
I5
sS'121'
p1895
I1
sS'ones'
p1896
I1
sS'legitimate'
p1897
I1
sS'consecutive'
p1898
I2
sS'buyer'
p1899
I7
sS'kong'
p1900
I1
sS'chips'
p1901
I2
sS'areas'
p1902
I1
sS'denmark'
p1903
I2
sS'affluent'
p1904
I1
sS'tightening'
p1905
I2
sS'view'
p1906
I2
sS'yick'
p1907
I1
sS'temporarily'
p1908
I1
sS'national'
p1909
I12
sS'181.4'
p1910
I2
sS'taiwanese'
p1911
I5
sS'officials'
p1912
I9
sS'exchanges.the'
p1913
I1
sS'5-25'
p1914
I1
sS'closes'
p1915
I1
sS'wire'
p1916
I2
sS'reform'
p1917
I4
sS'teng'
p1918
I5
sS'state'
p1919
I9
sS'closed'
p1920
I12
sS'telephone.one'
p1921
I1
sS'crude'
p1922
I8
sS'29,219'
p1923
I1
sS'sold'
p1924
I1
sS'bought'
p1925
I2
sS'opening'
p1926
I1
sS'agencies'
p1927
I2
sS'key'
p1928
I3
sS'approval'
p1929
I4
sS'declining'
p1930
I1
sS'6.346'
p1931
I4
sS'restrictions'
p1932
I1
sS'1.538'
p1933
I2
sS'6.340'
p1934
I2
sS'2.48'
p1935
I1
sS'taking'
p1936
I3
sS'recorders'
p1937
I1
sS'attributed'
p1938
I1
sS'pulp'
p1939
I7
sS'april'
p1940
I41
sS'admit'
p1941
I1
sS'grain'
p1942
I4
sS'comment'
p1943
I1
sS'detailed'
p1944
I1
sS'unclear'
p1945
I1
sS'authorised'
p1946
I3
sS'tuesday'
p1947
I16
sS'cd'
p1948
I1
sS'packaging'
p1949
I1
sS'11,000'
p1950
I1
sS'table'
p1951
I1
sS'3,100'
p1952
I1
sS'earning'
p1953
I1
sS'authorises'
p1954
I1
sS'erased'
p1955
I1
sS'8.0'
p1956
I1
sS'5.02'
p1957
I1
sS'addition'
p1958
I1
sS'dazzling'
p1959
I1
sS'funds.taitung'
p1960
I1
sS'outflow'
p1961
I1
sS'slowly'
p1962
I1
sS'8,203.89'
p1963
I1
sS'proposal'
p1964
I5
sS'said.because'
p1965
I1
sS'controlled'
p1966
I3
sS'bspa'
p1967
I5
sS'bulk'
p1968
I2
sS'finished'
p1969
I6
sS'shortfall'
p1970
I1
sS'present'
p1971
I2
sS'multi'
p1972
I1
sS'couple'
p1973
I1
sS'value'
p1974
I9
sS'164-seat'
p1975
I1
sS'surveyors'
p1976
I1
sS'telephone.buyers'
p1977
I1
sS'helped'
p1978
I1
sS'51,000'
p1979
I1
sS'swinging'
p1980
I1
sS'acer'
p1981
I1
sS'4.56'
p1982
I1
sS'4.53'
p1983
I1
sS'finance'
p1984
I6
sS'tumbled'
p1985
I1
sS'42.00'
p1986
I2
sS'productivity'
p1987
I1
sS'recorders.chang'
p1988
I1
sS'newsroom'
p1989
I24
sS'169.00'
p1990
I2
sS'member'
p1991
I1
sS'speaker'
p1992
I4
sS'northwest'
p1993
I2
sS'largest'
p1994
I5
sS'party'
p1995
I13
sS'difficult'
p1996
I1
sS'injured'
p1997
I2
sS'tighten'
p1998
I1
sS'absorb'
p1999
I1
sS'said.nationalist'
p2000
I1
sS'effect'
p2001
I4
sS'expand'
p2002
I2
sS'poultry'
p2003
I2
sS'contest'
p2004
I2
sS'350'
p2005
I1
sS'1.22'
p2006
I1
sS'arising'
p2007
I1
sS'latest'
p2008
I3
sS'dain'
p2009
I2
sS'stores'
p2010
I5
sS'february.the'
p2011
I1
sS'heavily'
p2012
I1
sS'increasingly'
p2013
I1
sS'executive'
p2014
I1
sS'domestic'
p2015
I10
sS'sources'
p2016
I2
sS'rooms'
p2017
I3
sS'paul'
p2018
I2
sS'7,000'
p2019
I1
sS'residential'
p2020
I3
sS'wen'
p2021
I1
sS'killed'
p2022
I3
sS'6.30-6.35'
p2023
I3
sS'sparking'
p2024
I1
sS'0.5'
p2025
I1
sS'gmt'
p2026
I1
sS'northeastern'
p2027
I1
sS'increased'
p2028
I2
sS'government'
p2029
I13
sS'1995/96'
p2030
I1
sS'fats'
p2031
I1
sS'increases'
p2032
I1
sS'267'
p2033
I2
sS'know'
p2034
I1
sS'desk'
p2035
I1
sS'press'
p2036
I3
sS'immediately'
p2037
I2
sS'crusher'
p2038
I1
sS'loss'
p2039
I2
sS'necessary'
p2040
I1
sS'like'
p2041
I3
sS'payments'
p2042
I1
sS'james'
p2043
I6
sS'works'
p2044
I1
sS'soft'
p2045
I1
sS'high.company'
p2046
I1
sS'growth'
p2047
I4
sS'export'
p2048
I4
sS'home'
p2049
I1
sS'supportive'
p2050
I1
sS'focused'
p2051
I2
sS'lead'
p2052
I3
sS'upswing'
p2053
I1
sS'february.in'
p2054
I1
sS'does'
p2055
I6
sS'added.industry'
p2056
I1
sS'schedule'
p2057
I1
sS'shareholdings'
p2058
I2
sS'centre.it'
p2059
I1
sS'pressure'
p2060
I2
sS'host'
p2061
I1
sS'yuen'
p2062
I2
sS'loans'
p2063
I6
sS'raise'
p2064
I5
sS'gained'
p2065
I2
sS'actual'
p2066
I2
sS'impose'
p2067
I1
sS'shipping'
p2068
I3
sS'union'
p2069
I2
sS'carrier'
p2070
I3
sS'emperor'
p2071
I1
sS'revise'
p2072
I1
sS'stakes'
p2073
I1
sS'160,315'
p2074
I1
sS'political'
p2075
I2
sS'washington'
p2076
I4
sS'assess'
p2077
I1
sS'chronic'
p2078
I1
sS'weighted'
p2079
I2
sS'closing'
p2080
I1
sS'additional'
p2081
I1
sS'rushed'
p2082
I1
sS'housing'
p2083
I1
sS'6,900'
p2084
I1
sS'55,700'
p2085
I1
sS'biggest'
p2086
I1
sS'breeding'
p2087
I1
sS'function'
p2088
I2
sS'fiscal'
p2089
I2
sS'buy'
p2090
I4
sS'triggered'
p2091
I2
sS'funds'
p2092
I6
sS'extended'
p2093
I2
sS'hu'
p2094
I2
sS'delivery'
p2095
I10
sS'construction'
p2096
I11
sS'gain'
p2097
I2
sS'shenao'
p2098
I1
sS'official'
p2099
I5
sS'43,000'
p2100
I1
sS'record'
p2101
I2
sS'projecting'
p2102
I1
sS'stories'
p2103
I6
sS'ruling'
p2104
I3
sS'200,000'
p2105
I1
sS'minutes'
p2106
I3
sS'21-may'
p2107
I1
sS'budgeted'
p2108
I1
sS'03/07at'
p2109
I1
sS'slowing'
p2110
I1
sS'pig'
p2111
I2
sS'attack.liberty'
p2112
I1
sS'periods'
p2113
I1
sS'margins'
p2114
I2
sS'functions'
p2115
I1
sS'compared'
p2116
I2
sS'nonetheless'
p2117
I3
sS'47'
p2118
I1
sS'44'
p2119
I1
sS'45'
p2120
I1
sS'percent'
p2121
I80
sS'43'
p2122
I1
sS'40'
p2123
I3
sS'details'
p2124
I2
sS'branch'
p2125
I1
sS'fledgling'
p2126
I2
sS'disease.as'
p2127
I1
sS'conclusion'
p2128
I1
sS'92-octane'
p2129
I1
sS'star'
p2130
I1
sS'shung'
p2131
I4
sS'monday'
p2132
I5
sS'june'
p2133
I7
sS'accuracy.newspaper'
p2134
I3
sS'ttet'
p2135
I3
sS'microelectronics'
p2136
I2
sS'hikes'
p2137
I6
sS'clevo'
p2138
I1
sS'volumes'
p2139
I1
sS'tonnes'
p2140
I27
sS'brokers'
p2141
I15
s.