(dp0
S'capital.isbank'
p1
I2
sS'consolidated'
p2
I1
sS'26.136'
p3
I1
sS'hate'
p4
I1
sS'7.11'
p5
I1
sS'looking'
p6
I5
sS'rafinerileri'
p7
I1
sS'pointing'
p8
I1
sS'electricity'
p9
I3
sS'bureaucrats'
p10
I1
sS't.isbank'
p11
I2
sS'created'
p12
I1
sS'nominal'
p13
I2
sS'voted'
p14
I1
sS'stationery'
p15
I1
sS'12.660'
p16
I1
sS'rightist'
p17
I1
sS'worth'
p18
I2
sS'316.6'
p19
I1
sS'risk'
p20
I6
sS'mumcu'
p21
I1
sS'rise'
p22
I17
sS'tolga'
p23
I2
sS'15.678'
p24
I1
sS'reforms'
p25
I3
sS'exporters'
p26
I1
sS'income.year'
p27
I2
sS'8.910'
p28
I1
sS'said.elkatmis'
p29
I1
sS'bewildered'
p30
I1
sS'3,099,149'
p31
I1
sS'office.an'
p32
I1
sS'cause'
p33
I3
sS'companies'
p34
I9
sS'wednesday'
p35
I23
sS'1,578'
p36
I1
sS'announced'
p37
I4
sS'gdp'
p38
I2
sS'1,570'
p39
I2
sS'297'
p40
I1
sS'abolishing'
p41
I1
sS'immunities'
p42
I1
sS'ups'
p43
I1
sS'1,577'
p44
I2
sS'favoured'
p45
I1
sS'1,602'
p46
I2
sS'leaders'
p47
I6
sS'1,600'
p48
I2
sS'phones'
p49
I1
sS'warns'
p50
I1
sS'estimates'
p51
I2
sS'direct'
p52
I2
sS'q3/96'
p53
I1
sS'270'
p54
I2
sS'messy'
p55
I1
sS'second'
p56
I5
sS'1,592'
p57
I2
sS'1,590'
p58
I2
sS'23.942'
p59
I1
sS'estimated'
p60
I1
sS'2,625.5m3'
p61
I1
sS'deliberate'
p62
I1
sS'6/96'
p63
I4
sS'decisions'
p64
I1
sS'overview.dunya'
p65
I1
sS'6/95'
p66
I1
sS'profitability'
p67
I1
sS'supplied'
p68
I1
sS'children'
p69
I2
sS'spokesman'
p70
I2
sS'bonuses'
p71
I2
sS'endorse'
p72
I2
sS'new'
p73
I10
sS'net'
p74
I7
sS'officially'
p75
I2
sS'1996.year'
p76
I1
sS'seeks'
p77
I1
sS'told'
p78
I17
sS'987.2'
p79
I2
sS'deemed'
p80
I1
sS'receivables'
p81
I1
sS'1,727.actives'
p82
I1
sS'join'
p83
I1
sS'10.467'
p84
I1
sS'reported'
p85
I4
sS'protection'
p86
I1
sS'path'
p87
I5
sS'100'
p88
I4
sS'2,798.7'
p89
I1
sS'digits'
p90
I1
sS'balance'
p91
I3
sS'auction'
p92
I5
sS'employees'
p93
I2
sS'changed'
p94
I1
sS'envoy'
p95
I1
sS'0.32'
p96
I3
sS'aydin'
p97
I1
sS'694.6'
p98
I1
sS'credit'
p99
I2
sS'there.hurriyet'
p100
I1
sS'analysts'
p101
I8
sS'kilos.gold'
p102
I1
sS'military'
p103
I12
sS'215.320'
p104
I1
sS'cancellation'
p105
I5
sS'campaign'
p106
I2
sS'engineering'
p107
I2
sS'lengthen'
p108
I2
sS'feelings'
p109
I1
sS'brought'
p110
I4
sS'visible'
p111
I2
sS'opportunities'
p112
I1
sS'costly'
p113
I1
sS'counts'
p114
I3
sS'total'
p115
I12
sS'unit'
p116
I1
sS'opponents'
p117
I1
sS'four.soylemez'
p118
I1
sS'army'
p119
I10
sS'arms'
p120
I1
sS'tenders'
p121
I7
sS'leaks'
p122
I1
sS'160.57'
p123
I1
sS'oguz'
p124
I2
sS'assessment'
p125
I1
sS'flury'
p126
I1
sS'award'
p127
I1
sS'pierced'
p128
I2
sS'93'
p129
I1
sS'hold'
p130
I1
sS'95'
p131
I1
sS'squad'
p132
I1
sS'97'
p133
I2
sS'96'
p134
I5
sS'1990'
p135
I1
sS'1993'
p136
I3
sS'1992'
p137
I1
sS'1995'
p138
I11
sS'1994'
p139
I6
sS'1997'
p140
I11
sS'rights'
p141
I6
sS'1999'
p142
I2
sS'findings.the'
p143
I2
sS'mo'
p144
I4
sS'work'
p145
I7
sS'gasoline'
p146
I3
sS'rulings'
p147
I1
sS'mp'
p148
I1
sS'runzheimer.zaman'
p149
I1
sS'revenues'
p150
I5
sS'example'
p151
I3
sS'indicated'
p152
I1
sS'activities'
p153
I1
sS'53.3'
p154
I1
sS'53.0'
p155
I1
sS'53.4'
p156
I1
sS'53.5'
p157
I1
sS'currency'
p158
I6
sS'22,000'
p159
I1
sS'minister.turkey'
p160
I1
sS'drive'
p161
I1
sS'wreckage.bucak'
p162
I1
sS'1,149.8'
p163
I1
sS'autonomy'
p164
I2
sS'end'
p165
I9
sS'75.8'
p166
I2
sS'generals'
p167
I3
sS'enquiry'
p168
I1
sS'1.605'
p169
I1
sS'travel'
p170
I1
sS'damage'
p171
I1
sS'78,000'
p172
I1
sS'1,439,800'
p173
I4
sS'interview'
p174
I1
sS'disappoint'
p175
I2
sS'widespread'
p176
I1
sS'77.7'
p177
I4
sS'77.0'
p178
I4
sS'november.the'
p179
I1
sS'77.3'
p180
I4
sS'kilowatt'
p181
I1
sS'railways'
p182
I2
sS'earlier'
p183
I7
sS'90-212-275'
p184
I2
sS'president'
p185
I3
sS'law'
p186
I16
sS'extortion'
p187
I1
sS'2,734.7'
p188
I1
sS'guerilla'
p189
I1
sS'attempt'
p190
I1
sS'483.433'
p191
I1
sS'amid'
p192
I4
sS'2,736.0'
p193
I1
sS'green'
p194
I1
sS'ultimate'
p195
I1
sS'securities.turkey'
p196
I2
sS'operate'
p197
I7
sS'wing'
p198
I8
sS'reforming'
p199
I2
sS'operations'
p200
I3
sS'cumulative'
p201
I2
sS'office'
p202
I3
sS'welcomed'
p203
I1
sS'57,000'
p204
I1
sS'sheltering'
p205
I2
sS'78.0wholesale'
p206
I1
sS'6.6'
p207
I1
sS'delegation.turkish'
p208
I1
sS'6.4'
p209
I1
sS'6.2'
p210
I9
sS'6.0'
p211
I5
sS'japan'
p212
I1
sS'4.36'
p213
I1
sS'10.2'
p214
I1
sS'imf'
p215
I31
sS'highlights'
p216
I1
sS'expectations'
p217
I9
sS'better'
p218
I2
sS'16.5'
p219
I1
sS'production'
p220
I6
sS'16.3'
p221
I1
sS'400'
p222
I1
sS'hidden'
p223
I1
sS'cred'
p224
I1
sS'easier'
p225
I4
sS'overcome'
p226
I5
sS'harmony'
p227
I1
sS'versus'
p228
I4
sS'april.turkey'
p229
I1
sS'tourist'
p230
I1
sS'32.580'
p231
I1
sS'weakness'
p232
I1
sS'455'
p233
I1
sS'tunceli'
p234
I3
sS'23.270'
p235
I1
sS'tourism'
p236
I1
sS'bank'
p237
I15
sS'structural'
p238
I6
sS'netherlands'
p239
I2
sS'insurgency.parliament'
p240
I1
sS'1.09'
p241
I1
sS'90-312-446'
p242
I5
sS'shadowy'
p243
I3
sS'schools.ciller'
p244
I1
sS'telekom'
p245
I9
sS'crackdown'
p246
I1
sS'victory'
p247
I1
sS'372'
p248
I1
sS'bond'
p249
I3
sS'signing'
p250
I1
sS'schemes'
p251
I3
sS'financial'
p252
I11
sS'2,963.0'
p253
I1
sS'dumping'
p254
I2
sS'principles'
p255
I1
sS'capacities.ozbalak'
p256
I1
sS'79.8'
p257
I2
sS'trading'
p258
I5
sS'scandal.milliyet'
p259
I1
sS'ratingsmoody'
p260
I1
sS'79.0'
p261
I1
sS'15,125,092'
p262
I1
sS'79.6'
p263
I1
sS'network'
p264
I3
sS'encourage'
p265
I1
sS'independence'
p266
I2
sS'market.the'
p267
I1
sS'provide'
p268
I1
sS'telecommunication'
p269
I1
sS'barrier'
p270
I2
sS'fugitive'
p271
I1
sS'free'
p272
I5
sS'1,479'
p273
I1
sS'241'
p274
I2
sS'struggle'
p275
I1
sS'242'
p276
I2
sS'mobsters'
p277
I2
sS'accuracy.sabah'
p278
I3
sS'wanted'
p279
I5
sS'9-11'
p280
I1
sS'imkb'
p281
I20
sS'3.93'
p282
I4
sS'cukurova'
p283
I4
sS'ata'
p284
I1
sS'days'
p285
I2
sS'local'
p286
I2
sS'levels'
p287
I5
sS'secularist'
p288
I7
sS'1993-c'
p289
I1
sS'arrived'
p290
I1
sS'b1standard'
p291
I1
sS'industrial'
p292
I8
sS'economists'
p293
I3
sS'contractors'
p294
I1
sS'restrict'
p295
I1
sS'plurality'
p296
I1
sS'implicated'
p297
I1
sS'force'
p298
I4
sS'electronic'
p299
I1
sS'172'
p300
I1
sS'service'
p301
I1
sS'needed'
p302
I1
sS'tonnes'
p303
I9
sS'rates'
p304
I6
sS'snags'
p305
I2
sS'percentage'
p306
I1
sS'legs'
p307
I1
sS'murder'
p308
I6
sS'catli.an'
p309
I1
sS'15.1'
p310
I1
sS'years.another'
p311
I1
sS'15.2'
p312
I1
sS'rejected'
p313
I2
sS'western'
p314
I5
sS'added.turkey'
p315
I1
sS'58.8raw'
p316
I1
sS'reuters.turkish'
p317
I1
sS'minibus'
p318
I1
sS'target'
p319
I4
sS'5.4-agricu'
p320
I1
sS'likely'
p321
I1
sS'final'
p322
I3
sS'aydan'
p323
I5
sS'soner'
p324
I2
sS'iron'
p325
I2
sS'18.3'
p326
I1
sS'minus'
p327
I2
sS'70,733'
p328
I1
sS'18.6'
p329
I2
sS'percent.five'
p330
I1
sS'sees'
p331
I1
sS'30.3'
p332
I1
sS'128.2'
p333
I1
sS'modern'
p334
I2
sS'mind'
p335
I1
sS'raw'
p336
I1
sS'lull'
p337
I1
sS'3,339.087'
p338
I1
sS'seen'
p339
I4
sS'union.erbakan'
p340
I1
sS'seek'
p341
I2
sS'contents'
p342
I1
sS'affairs'
p343
I2
sS'midibuses'
p344
I1
sS'implemented'
p345
I1
sS'400.5'
p346
I1
sS'thoroughly'
p347
I1
sS'wednesday.they'
p348
I1
sS'responsible'
p349
I2
sS'ihlas'
p350
I1
sS'isolated'
p351
I1
sS'thorough'
p352
I1
sS'hamper'
p353
I1
sS'readywear'
p354
I2
sS'recommended'
p355
I1
sS'forces'
p356
I5
sS'punish'
p357
I1
sS'indexed'
p358
I5
sS'degenerated'
p359
I1
sS'1,814'
p360
I1
sS'highest.five'
p361
I1
sS'transactions'
p362
I1
sS'24-26.tupras'
p363
I1
sS'regular'
p364
I1
sS'germany'
p365
I1
sS'letter'
p366
I1
sS'exercises'
p367
I1
sS'stood'
p368
I1
sS'germans'
p369
I1
sS'27.776'
p370
I1
sS'18.927'
p371
I1
sS'4,779,338'
p372
I1
sS'paper.on'
p373
I1
sS'points'
p374
I8
sS'principle'
p375
I1
sS'left'
p376
I3
sS'consumer'
p377
I8
sS'came'
p378
I5
sS'saying'
p379
I1
sS'selected'
p380
I1
sS'bomb'
p381
I1
sS'meetings'
p382
I1
sS'yuzyil'
p383
I4
sS'approval.on'
p384
I1
sS'devised'
p385
I2
sS'7.2'
p386
I2
sS'alliance.one'
p387
I1
sS'7.0'
p388
I2
sS'7.1'
p389
I2
sS'radio'
p390
I1
sS'7.7'
p391
I1
sS'7.4'
p392
I1
sS'participate'
p393
I1
sS'pkk'
p394
I8
sS'7.9'
p395
I1
sS'said.bourse'
p396
I1
sS'lessons'
p397
I1
sS'agaoglu'
p398
I1
sS'1,404.0'
p399
I1
sS'koyuncu'
p400
I3
sS'implementation'
p401
I1
sS'explain'
p402
I1
sS'655.03'
p403
I1
sS'booing'
p404
I1
sS'sugar'
p405
I1
sS'turkey.turkey'
p406
I1
sS'announce'
p407
I3
sS'adequate'
p408
I1
sS'population'
p409
I1
sS'oct'
p410
I1
sS'exports'
p411
I12
sS'4.05'
p412
I1
sS'wide'
p413
I1
sS'wednesday.dealers'
p414
I1
sS'stop'
p415
I1
sS'television'
p416
I1
sS'25,000'
p417
I1
sS'cracks'
p418
I1
sS'1.728'
p419
I1
sS'despite'
p420
I4
sS'report'
p421
I17
sS'comply'
p422
I1
sS'forbids'
p423
I1
sS'31/12/95int'
p424
I1
sS'960.1'
p425
I1
sS'5/96'
p426
I1
sS'countries'
p427
I4
sS'emo'
p428
I2
sS'21.255'
p429
I1
sS'guns'
p430
I3
sS'sanayii'
p431
I1
sS'18'
p432
I1
sS'12.391'
p433
I1
sS'identify'
p434
I1
sS'men.agar'
p435
I1
sS'democracy.despite'
p436
I1
sS'leasing'
p437
I1
sS'envisaged'
p438
I1
sS'reference'
p439
I1
sS'result'
p440
I2
sS'discussions'
p441
I1
sS'resigned'
p442
I3
sS'subject'
p443
I2
sS'said'
p444
I93
sS'capacity'
p445
I3
sS'away'
p446
I1
sS'interviewing'
p447
I1
sS'1,068.493'
p448
I1
sS'volume.all'
p449
I1
sS'pressures'
p450
I2
sS'unable'
p451
I3
sS'finger'
p452
I1
sS'deputies'
p453
I4
sS'approach'
p454
I1
sS'accord'
p455
I9
sS'terms'
p456
I14
sS'invigorated'
p457
I1
sS'handful'
p458
I1
sS'weak'
p459
I4
sS'leaping'
p460
I2
sS'southeast'
p461
I9
sS'16.491'
p462
I1
sS'110.8'
p463
I1
sS'izmir.selim'
p464
I1
sS'news'
p465
I8
sS'debt'
p466
I8
sS'downgraded'
p467
I2
sS'improve'
p468
I1
sS'faced'
p469
I1
sS'hours'
p470
I1
sS'accident'
p471
I1
sS'figures.critics'
p472
I2
sS'country'
p473
I7
sS'ill'
p474
I2
sS'uncertainty'
p475
I2
sS'demanded'
p476
I1
sS'1970s.bucak'
p477
I1
sS'party.the'
p478
I1
sS'meting'
p479
I1
sS'asked'
p480
I2
sS'33.9'
p481
I1
sS'islamists'
p482
I13
sS'kwh'
p483
I1
sS'ozkan'
p484
I2
sS'civilians'
p485
I1
sS'aftermath'
p486
I1
sS'loaded'
p487
I1
sS'resignation'
p488
I1
sS'telecommunications'
p489
I1
sS'bureaucratic'
p490
I1
sS'energy.zaman'
p491
I1
sS'conference'
p492
I3
sS'targeting'
p493
I2
sS'koranic'
p494
I2
sS'circulars.sekerbank'
p495
I1
sS'union'
p496
I4
sS'unions.large'
p497
I1
sS'subside'
p498
I2
sS'sachs'
p499
I1
sS'drafting'
p500
I1
sS'commission'
p501
I8
sS'19.24'
p502
I2
sS'expected'
p503
I12
sS'deliberately'
p504
I1
sS'shares.under'
p505
I1
sS'obtained'
p506
I1
sS'life'
p507
I1
sS'families'
p508
I2
sS'eastern'
p509
I2
sS'drugs'
p510
I3
sS'concerning'
p511
I2
sS'3,551.275'
p512
I1
sS'lift'
p513
I3
sS'0.13'
p514
I2
sS'0.12'
p515
I1
sS'year.cumhuriyet'
p516
I1
sS'gnp'
p517
I5
sS'12/94'
p518
I1
sS'81.9'
p519
I1
sS'air'
p520
I2
sS'near'
p521
I7
sS'murders'
p522
I2
sS'agents.anadolu'
p523
I1
sS'seven'
p524
I3
sS'compliance'
p525
I1
sS'said.another'
p526
I1
sS'1994expenditures'
p527
I1
sS'separatist'
p528
I2
sS'reports'
p529
I1
sS'80,000'
p530
I1
sS'prices.the'
p531
I1
sS'bottles'
p532
I1
sS'suggest'
p533
I1
sS'make'
p534
I4
sS'demands'
p535
I7
sS'813.571'
p536
I1
sS'split'
p537
I1
sS'win.already'
p538
I1
sS'european'
p539
I5
sS'leftist'
p540
I2
sS'governors'
p541
I1
sS'declaring'
p542
I1
sS'pick'
p543
I1
sS'evis'
p544
I2
sS'workings'
p545
I1
sS'said.turkey'
p546
I1
sS'firmer'
p547
I4
sS'trucks'
p548
I1
sS'209.6'
p549
I1
sS'shortly'
p550
I2
sS'suspicions'
p551
I1
sS'changes'
p552
I2
sS'security.diplomats'
p553
I1
sS'tupras'
p554
I3
sS'materials'
p555
I2
sS'greatest'
p556
I1
sS'uneasy'
p557
I1
sS'800'
p558
I1
sS'corporate'
p559
I1
sS'investments'
p560
I3
sS'1,472.421'
p561
I1
sS'entangled'
p562
I1
sS'polisan'
p563
I1
sS'1,793.009'
p564
I1
sS'quoted'
p565
I2
sS'sentence'
p566
I1
sS'statement.it'
p567
I1
sS'aside'
p568
I1
sS'quotes'
p569
I1
sS'bugged'
p570
I1
sS'human'
p571
I1
sS'previous'
p572
I9
sS'adding'
p573
I5
sS'occuped'
p574
I1
sS'ease'
p575
I4
sS'amoco'
p576
I2
sS'glencore'
p577
I1
sS'eregli'
p578
I1
sS'spread'
p579
I2
sS'board'
p580
I1
sS'prison'
p581
I1
sS'playing'
p582
I1
sS'expelled'
p583
I1
sS'gave'
p584
I2
sS'dealer.gold'
p585
I1
sS'casting'
p586
I1
sS'575.513'
p587
I1
sS'possible'
p588
I4
sS'schooling'
p589
I1
sS'tmrw'
p590
I2
sS'13.774'
p591
I1
sS'127,630'
p592
I2
sS'firmed'
p593
I6
sS'advanced'
p594
I2
sS'programme.the'
p595
I2
sS'1.715'
p596
I1
sS'tendered'
p597
I1
sS'zeal'
p598
I1
sS'56'
p599
I3
sS'51'
p600
I1
sS'50'
p601
I3
sS'securities'
p602
I2
sS'55'
p603
I2
sS'3.770'
p604
I1
sS'security'
p605
I21
sS'effect.turkey'
p606
I1
sS'right'
p607
I11
sS'old'
p608
I1
sS'deal'
p609
I3
sS'people'
p610
I12
sS'frustrations'
p611
I1
sS'borr'
p612
I3
sS'eyeing'
p613
I2
sS'huseyin'
p614
I1
sS'fell.gold'
p615
I1
sS'affair.the'
p616
I1
sS'criminology'
p617
I1
sS'changed.any'
p618
I1
sS'links.but'
p619
I1
sS'comments'
p620
I1
sS'totals'
p621
I3
sS'5,504.6'
p622
I1
sS'38.04'
p623
I1
sS'dispelled'
p624
I1
sS'core'
p625
I1
sS'9.21'
p626
I1
sS'secularists'
p627
I1
sS'28.9raw'
p628
I1
sS'1994gnp'
p629
I1
sS'passenger.the'
p630
I1
sS'brokerage'
p631
I1
sS'post'
p632
I1
sS'census'
p633
I1
sS'attacks'
p634
I3
sS'newspapers'
p635
I1
sS'months'
p636
I9
sS'19.234'
p637
I1
sS'plus'
p638
I1
sS'afternoon'
p639
I3
sS'shared'
p640
I1
sS'efforts'
p641
I1
sS'slightly'
p642
I4
sS'raised'
p643
I2
sS'managers'
p644
I1
sS'governments'
p645
I1
sS'3,017.3'
p646
I1
sS'civil'
p647
I1
sS'marshall'
p648
I2
sS'refiner'
p649
I1
sS'bound'
p650
I1
sS'negative'
p651
I6
sS'year.economists'
p652
I1
sS'raises'
p653
I1
sS'48,000'
p654
I1
sS'eksin'
p655
I5
sS'balanced'
p656
I3
sS'1990s'
p657
I2
sS'slim'
p658
I1
sS'methods'
p659
I1
sS'21.5'
p660
I1
sS'support'
p661
I8
sS'21.8'
p662
I1
sS'fight'
p663
I5
sS'percent.as'
p664
I1
sS'wrongdoing'
p665
I1
sS'war'
p666
I2
sS'head'
p667
I6
sS'medium'
p668
I6
sS'offer'
p669
I6
sS'1,650'
p670
I8
sS'bottlenecks'
p671
I1
sS'1,217-trillion'
p672
I1
sS'removed'
p673
I2
sS'true'
p674
I5
sS'analyst'
p675
I1
sS'1,684.top'
p676
I1
sS'procedures.a'
p677
I1
sS'490.7'
p678
I1
sS'3.5'
p679
I1
sS'stages'
p680
I1
sS'passenger'
p681
I2
sS'percent.other'
p682
I1
sS'154'
p683
I1
sS'flat'
p684
I1
sS'textbook'
p685
I1
sS'evidence'
p686
I1
sS'0.64'
p687
I1
sS'dealer'
p688
I1
sS'physical'
p689
I1
sS'1,000'
p690
I3
sS'said.for'
p691
I1
sS'polarisation'
p692
I1
sS'stake'
p693
I2
sS'tim'
p694
I1
sS'role'
p695
I3
sS'ambitious'
p696
I1
sS'papers'
p697
I1
sS'130.51'
p698
I1
sS'taner'
p699
I2
sS'picture'
p700
I1
sS'2,902.026'
p701
I1
sS'models'
p702
I4
sS'welcome'
p703
I1
sS'975.3'
p704
I1
sS'fell'
p705
I5
sS'days.dunya'
p706
I1
sS'32,673'
p707
I1
sS'weekend'
p708
I4
sS'died'
p709
I9
sS'billion'
p710
I33
sS'30,000'
p711
I1
sS'outskirts'
p712
I1
sS'proposed'
p713
I2
sS'daily'
p714
I2
sS'time'
p715
I4
sS'push'
p716
I1
sS'necessitated'
p717
I1
sS'profits'
p718
I5
sS'overdue'
p719
I1
sS'managed'
p720
I3
sS'global'
p721
I1
sS'manager'
p722
I2
sS'delays'
p723
I3
sS'mafia'
p724
I1
sS'privatisations'
p725
I1
sS'902.5revenues'
p726
I1
sS'row'
p727
I3
sS'52.1consumables'
p728
I1
sS'certainly'
p729
I2
sS'killings'
p730
I1
sS'depend'
p731
I1
sS'1,682.leading'
p732
I1
sS'casualties'
p733
I1
sS'1.383'
p734
I4
sS'silencers'
p735
I1
sS'charge'
p736
I1
sS'terror'
p737
I2
sS'added.total'
p738
I1
sS'127,950'
p739
I2
sS'adviser'
p740
I1
sS'advantage'
p741
I1
sS'spate'
p742
I1
sS'tuesday.bourse'
p743
I1
sS'uneventful'
p744
I2
sS'word'
p745
I1
sS'little'
p746
I2
sS'3,951.0'
p747
I1
sS'perceived'
p748
I1
sS'impressive'
p749
I1
sS'4,414'
p750
I1
sS'level'
p751
I8
sS'did'
p752
I7
sS'teas'
p753
I1
sS'1996'
p754
I24
sS'gun'
p755
I2
sS'standards'
p756
I1
sS'leave'
p757
I2
sS'4.672'
p758
I1
sS'team'
p759
I5
sS'75.7consumer'
p760
I1
sS'913.4'
p761
I2
sS'prevent'
p762
I1
sS'says'
p763
I7
sS'hindered'
p764
I1
sS'period.soylemez'
p765
I1
sS'sign'
p766
I2
sS'42.932-short'
p767
I1
sS'q4/95'
p768
I1
sS'q4/96'
p769
I1
sS'port'
p770
I1
sS'reporters.his'
p771
I1
sS'constitution'
p772
I2
sS'contracted'
p773
I1
sS'favour'
p774
I1
sS'shares'
p775
I14
sS'current'
p776
I6
sS'1,361.0'
p777
I1
sS'international'
p778
I12
sS'law.zaman'
p779
I1
sS'drafted'
p780
I1
sS'1,097.980'
p781
I1
sS'sirnak'
p782
I1
sS'french'
p783
I1
sS'understanding'
p784
I1
sS'water'
p785
I3
sS'fractious'
p786
I1
sS'groups'
p787
I4
sS'address'
p788
I6
sS'privatisation.the'
p789
I1
sS'change'
p790
I4
sS'institute'
p791
I5
sS'bot'
p792
I11
sS'activists'
p793
I1
sS'eks'
p794
I3
sS'flexibility'
p795
I1
sS'16.92'
p796
I1
sS'1995.anadolu'
p797
I1
sS'crime'
p798
I5
sS'crisis'
p799
I4
sS'market'
p800
I20
sS'challenging'
p801
I1
sS'yatirimbank'
p802
I1
sS'opposes'
p803
I1
sS'troops'
p804
I3
sS'working'
p805
I1
sS'prove'
p806
I1
sS'1,785.031'
p807
I1
sS'positive'
p808
I7
sS'visit'
p809
I7
sS'live'
p810
I1
sS'capacity.co'
p811
I1
sS'plan.radikal'
p812
I1
sS'1,270.4m2y'
p813
I1
sS'prosecutor'
p814
I4
sS'annuls'
p815
I1
sS'share'
p816
I12
sS'1,390'
p817
I1
sS'validity'
p818
I1
sS'goods'
p819
I2
sS'states'
p820
I2
sS'valued'
p821
I2
sS'11-13.it'
p822
I1
sS'car'
p823
I6
sS'originally'
p824
I1
sS'achieve'
p825
I1
sS'growing'
p826
I2
sS'making'
p827
I1
sS'15.701'
p828
I1
sS'ozbalak'
p829
I1
sS'claim'
p830
I1
sS'citizens'
p831
I1
sS'ministry.turkey'
p832
I1
sS'figure'
p833
I1
sS'predict'
p834
I3
sS'night.a'
p835
I1
sS'1980s'
p836
I2
sS'heard'
p837
I1
sS'dropped'
p838
I3
sS'council'
p839
I13
sS'allowed'
p840
I1
sS'parliamentary'
p841
I10
sS'2,950'
p842
I1
sS'discussion'
p843
I2
sS'range'
p844
I3
sS'1'
p845
I1
sS'292.84'
p846
I1
sS'fourth'
p847
I1
sS'firmly'
p848
I1
sS'26.06'
p849
I2
sS'economy'
p850
I8
sS'criminal'
p851
I2
sS'product'
p852
I1
sS'mar'
p853
I2
sS'142'
p854
I1
sS'140'
p855
I1
sS'huge'
p856
I1
sS'critics'
p857
I1
sS'dyp'
p858
I4
sS'2.396'
p859
I1
sS'needs'
p860
I2
sS'4.bankers'
p861
I1
sS'crashed'
p862
I1
sS'produce'
p863
I3
sS'date'
p864
I1
sS'court'
p865
I25
sS'data'
p866
I9
sS'7,854,887'
p867
I1
sS'lifting'
p868
I1
sS'man'
p869
I2
sS'3/97'
p870
I2
sS'3/96'
p871
I1
sS'branches'
p872
I2
sS'drained'
p873
I1
sS'sectors'
p874
I2
sS'4.318'
p875
I1
sS'borrowing'
p876
I5
sS'year.for'
p877
I1
sS'ones'
p878
I1
sS'jail'
p879
I1
sS'29.901'
p880
I1
sS'talk'
p881
I2
sS'breaking'
p882
I2
sS'pointed'
p883
I1
sS'shaky'
p884
I1
sS'mainly'
p885
I6
sS'years'
p886
I11
sS'stability'
p887
I2
sS'ended'
p888
I3
sS'cold'
p889
I4
sS'blocked'
p890
I1
sS'police'
p891
I6
sS'dogan'
p892
I1
sS'employees.bulut'
p893
I1
sS'maldistribution'
p894
I2
sS'offers'
p895
I2
sS'policy'
p896
I1
sS'decreased'
p897
I1
sS'main'
p898
I1
sS'decades'
p899
I1
sS'non'
p900
I6
sS'nsc'
p901
I1
sS'finance'
p902
I3
sS'civilian'
p903
I1
sS'matches'
p904
I1
sS'selected.turkey'
p905
I1
sS'150.4net'
p906
I1
sS'far.more'
p907
I1
sS'vitol'
p908
I1
sS'nov'
p909
I2
sS'discuss'
p910
I4
sS'developments'
p911
I1
sS'14.4'
p912
I1
sS'term'
p913
I8
sS'14.0'
p914
I2
sS'january'
p915
I1
sS'24.0'
p916
I1
sS'debating'
p917
I2
sS'possibilities'
p918
I1
sS'catli'
p919
I1
sS'quarter'
p920
I5
sS'prompted'
p921
I2
sS'challenged'
p922
I1
sS'2,394.3'
p923
I1
sS'crushing'
p924
I1
sS'hitmen'
p925
I1
sS'fires'
p926
I1
sS'begun'
p927
I2
sS'year'
p928
I43
sS'eu'
p929
I2
sS'reform.the'
p930
I2
sS'es'
p931
I2
sS'tried'
p932
I1
sS'sekerbank'
p933
I5
sS'opened'
p934
I2
sS'factors'
p935
I1
sS'profit'
p936
I7
sS'tensions'
p937
I2
sS'increase'
p938
I9
sS'investigation'
p939
I2
sS'dutch'
p940
I1
sS'dominate'
p941
I1
sS'bugging'
p942
I1
sS'theory'
p943
I1
sS'75.410'
p944
I1
sS'hefty'
p945
I2
sS'million'
p946
I24
sS'mechanisms'
p947
I3
sS'possibility'
p948
I2
sS'quite'
p949
I2
sS'cut'
p950
I1
sS'turkiye'
p951
I1
sS'rebel'
p952
I5
sS'economy.it'
p953
I1
sS'inevitable'
p954
I1
sS'card'
p955
I1
sS'220,000'
p956
I1
sS'ministry'
p957
I6
sS'place'
p958
I3
sS'invitation'
p959
I2
sS'outcry'
p960
I1
sS'bulgaria'
p961
I1
sS'frequent'
p962
I1
sS'blind'
p963
I1
sS'yasas'
p964
I1
sS'yasar'
p965
I3
sS'striking'
p966
I2
sS'yatirim'
p967
I2
sS'bankasi'
p968
I1
sS'overheating'
p969
I1
sS'carry'
p970
I3
sS'impossible'
p971
I1
sS'tomorrow'
p972
I6
sS'city'
p973
I1
sS'given'
p974
I5
sS'108.7'
p975
I2
sS'district'
p976
I1
sS'6.0gdp'
p977
I1
sS'caught'
p978
I3
sS'trillion'
p979
I58
sS'response'
p980
I1
sS'bourse'
p981
I1
sS'2'
p982
I2
sS'draft'
p983
I10
sS'1,716.actives'
p984
I1
sS'gives'
p985
I1
sS'eyes'
p986
I1
sS'150.9'
p987
I1
sS'way'
p988
I3
sS'turkey.it'
p989
I1
sS'proving'
p990
I1
sS'programme.hardy'
p991
I1
sS'1,555.322'
p992
I1
sS'decision.yuksel'
p993
I1
sS'70,517'
p994
I1
sS'immigrant'
p995
I1
sS'surged'
p996
I2
sS'28.7'
p997
I1
sS'11'
p998
I2
sS'10'
p999
I14
sS'13'
p1000
I3
sS'12'
p1001
I4
sS'15'
p1002
I2
sS'17'
p1003
I2
sS'16'
p1004
I4
sS'19'
p1005
I1
sS'occurred.yeni'
p1006
I1
sS'cooperatives'
p1007
I1
sS'accused'
p1008
I4
sS'venture'
p1009
I1
sS'fills'
p1010
I1
sS'cengiz'
p1011
I1
sS'details.companies'
p1012
I1
sS'10-12'
p1013
I1
sS'bbjcr'
p1014
I1
sS'elektrik'
p1015
I4
sS'investors'
p1016
I9
sS'remained'
p1017
I1
sS'pro'
p1018
I5
sS'turned'
p1019
I1
sS'prostitution'
p1020
I1
sS'say'
p1021
I15
sS'81.2'
p1022
I1
sS'recover'
p1023
I4
sS'uranium'
p1024
I1
sS'vernik'
p1025
I1
sS'coal'
p1026
I1
sS'efficient'
p1027
I1
sS"d'etat"
p1028
I1
sS'consortium'
p1029
I3
sS'intends'
p1030
I2
sS'potential'
p1031
I1
sS'forming'
p1032
I1
sS'interior'
p1033
I6
sS'performance'
p1034
I1
sS'encouraged'
p1035
I1
sS'73.278'
p1036
I1
sS'1996.some'
p1037
I1
sS'205'
p1038
I1
sS'price'
p1039
I12
sS'enter'
p1040
I1
sS'suspects'
p1041
I1
sS'paid'
p1042
I1
sS'falls'
p1043
I2
sS'hamstrung'
p1044
I3
sS'printed'
p1045
I1
sS'pair'
p1046
I2
sS'involving'
p1047
I1
sS'said.they'
p1048
I1
sS'democratic'
p1049
I1
sS'esengun'
p1050
I1
sS'failure'
p1051
I1
sS'average'
p1052
I7
sS'later'
p1053
I3
sS'steady'
p1054
I2
sS'sale'
p1055
I10
sS'order'
p1056
I2
sS'trafficking'
p1057
I2
sS'senior'
p1058
I11
sS'march.consumer'
p1059
I1
sS'liquidity'
p1060
I3
sS'laws'
p1061
I5
sS'rating'
p1062
I2
sS'german'
p1063
I4
sS'allegations'
p1064
I2
sS'offer.of'
p1065
I1
sS'mirza'
p1066
I4
sS'744.7'
p1067
I1
sS'11/96'
p1068
I3
sS'0.45'
p1069
I1
sS'slow'
p1070
I1
sS'223'
p1071
I1
sS'dull'
p1072
I1
sS'going'
p1073
I3
sS'treasury'
p1074
I7
sS'cautioned'
p1075
I1
sS'54.291'
p1076
I1
sS'ranking'
p1077
I1
sS'closed'
p1078
I16
sS'contracts'
p1079
I2
sS'assistant'
p1080
I1
sS'shares.tupras'
p1081
I1
sS'expectation'
p1082
I2
sS'repo'
p1083
I3
sS'dyo'
p1084
I1
sS'nearly'
p1085
I1
sS'denials'
p1086
I1
sS'prime'
p1087
I12
sS'12.1'
p1088
I1
sS'693.3'
p1089
I1
sS'morning'
p1090
I4
sS'predicted'
p1091
I2
sS'7,762,456gnp'
p1092
I1
sS'worries'
p1093
I2
sS'5.461'
p1094
I1
sS'70.3net'
p1095
I1
sS'1.922'
p1096
I1
sS'session.gold'
p1097
I1
sS'imposing'
p1098
I2
sS'violated'
p1099
I2
sS'dived'
p1100
I3
sS'night.tens'
p1101
I1
sS'gangster'
p1102
I6
sS'june.the'
p1103
I1
sS'week.but'
p1104
I2
sS'thursday.leading'
p1105
I1
sS'concern'
p1106
I1
sS'israeli'
p1107
I1
sS'registering'
p1108
I3
sS'tackling'
p1109
I2
sS'managing'
p1110
I1
sS'jumped'
p1111
I3
sS'review'
p1112
I1
sS'forecast'
p1113
I1
sS'moslems'
p1114
I1
sS'said.bankers'
p1115
I2
sS'import'
p1116
I1
sS'arrival'
p1117
I2
sS'infrastructure'
p1118
I4
sS'style'
p1119
I1
sS'killing'
p1120
I1
sS'concentrate'
p1121
I1
sS'article'
p1122
I5
sS'said.five'
p1123
I1
sS'come'
p1124
I4
sS'according'
p1125
I3
sS's'
p1126
I16
sS'leftists'
p1127
I1
sS'3,300'
p1128
I1
sS'multi'
p1129
I1
sS'1,443,900'
p1130
I1
sS'traded'
p1131
I6
sS'comes'
p1132
I2
sS'1,716.368'
p1133
I1
sS'5.9consumer'
p1134
I1
sS'period'
p1135
I3
sS'60'
p1136
I2
sS'anti'
p1137
I4
sS'approval'
p1138
I2
sS'68'
p1139
I2
sS'paraded'
p1140
I1
sS'disciplinary'
p1141
I1
sS'runaway'
p1142
I3
sS'licenses.these'
p1143
I1
sS'turkey'
p1144
I64
sS'clashes'
p1145
I1
sS'underworld'
p1146
I3
sS'securities.of'
p1147
I1
sS'west'
p1148
I5
sS'mark'
p1149
I3
sS'living'
p1150
I1
sS'502'
p1151
I1
sS'erbakan.yeni'
p1152
I1
sS'7/96'
p1153
I1
sS'formed'
p1154
I1
sS'17.362'
p1155
I1
sS'217.195'
p1156
I1
sS'minister'
p1157
I22
sS'declaration'
p1158
I1
sS'weeks'
p1159
I1
sS'case'
p1160
I1
sS'tribal'
p1161
I2
sS'cash'
p1162
I3
sS'cast'
p1163
I1
sS'ongoing'
p1164
I1
sS'policies'
p1165
I1
sS'cancelled'
p1166
I2
sS'situation'
p1167
I1
sS'invited'
p1168
I1
sS'9.902'
p1169
I1
sS'bibca'
p1170
I1
sS'quiet'
p1171
I3
sS'refinery'
p1172
I1
sS'strain'
p1173
I1
sS'evening'
p1174
I2
sS'13.7'
p1175
I1
sS'different'
p1176
I1
sS'verified'
p1177
I4
sS'11.9'
p1178
I1
sS'considerable'
p1179
I2
sS'pay'
p1180
I4
sS'11.2'
p1181
I1
sS'inquiry'
p1182
I12
sS'canoglu'
p1183
I2
sS'patrons'
p1184
I1
sS'struggling'
p1185
I1
sS'document'
p1186
I1
sS'status'
p1187
I2
sS'investigated'
p1188
I2
sS'edged'
p1189
I3
sS'brute'
p1190
I1
sS'2,570'
p1191
I1
sS'defy'
p1192
I2
sS'oib'
p1193
I1
sS'director'
p1194
I2
sS'annulled'
p1195
I1
sS'running'
p1196
I5
sS'1996.marshall'
p1197
I1
sS'changing'
p1198
I1
sS'krefeld'
p1199
I1
sS'railway'
p1200
I1
sS'3,589.200'
p1201
I1
sS'drain'
p1202
I2
sS'171.02'
p1203
I1
sS'largely'
p1204
I5
sS'charges'
p1205
I1
sS'macro'
p1206
I1
sS'constitutional'
p1207
I14
sS'roughly'
p1208
I2
sS'12.574'
p1209
I1
sS'costs'
p1210
I2
sS'relied'
p1211
I2
sS'easing'
p1212
I3
sS'model'
p1213
I7
sS'dimension'
p1214
I2
sS'charged'
p1215
I2
sS'respectively.soylemez'
p1216
I1
sS'summer'
p1217
I1
sS'2.625'
p1218
I1
sS'money'
p1219
I7
sS'rest'
p1220
I1
sS'unofficial'
p1221
I1
sS'kill'
p1222
I3
sS'kilo'
p1223
I1
sS'touch'
p1224
I3
sS'suleyman'
p1225
I1
sS'speed'
p1226
I1
sS'captured'
p1227
I1
sS'harbouring'
p1228
I1
sS'announcement'
p1229
I1
sS'dipped'
p1230
I1
sS'rose'
p1231
I13
sS'smugglers'
p1232
I1
sS'improvement'
p1233
I1
sS'4'
p1234
I1
sS'week.the'
p1235
I1
sS'republic'
p1236
I2
sS'1,482.339'
p1237
I1
sS'scheduled'
p1238
I3
sS'deficits.it'
p1239
I1
sS'holding'
p1240
I6
sS'289.5others'
p1241
I1
sS'early'
p1242
I1
sS'postal'
p1243
I1
sS'inflation'
p1244
I31
sS'traffic'
p1245
I4
sS'world'
p1246
I6
sS'aiming'
p1247
I2
sS'unwilling'
p1248
I2
sS'ruled'
p1249
I2
sS'alaatin'
p1250
I1
sS'1.804'
p1251
I1
sS'983.725'
p1252
I1
sS'interview.ozbalak'
p1253
I1
sS'drop.compared'
p1254
I1
sS't'
p1255
I1
sS'robbery'
p1256
I1
sS'output'
p1257
I1
sS'downward'
p1258
I1
sS'demirel'
p1259
I1
sS'imprisonment'
p1260
I1
sS'weaknesses.perhaps'
p1261
I2
sS'say.bankers'
p1262
I1
sS'reserves.he'
p1263
I1
sS'racial'
p1264
I1
sS'thinks'
p1265
I1
sS'gross'
p1266
I1
sS'2,949.147'
p1267
I1
sS'46,500'
p1268
I1
sS'confirm'
p1269
I2
sS'ability'
p1270
I1
sS'moslem'
p1271
I2
sS'legal'
p1272
I4
sS'conservative'
p1273
I3
sS'3,870'
p1274
I2
sS'deficit'
p1275
I2
sS'1995.the'
p1276
I1
sS'refer'
p1277
I1
sS'football'
p1278
I1
sS'assembly'
p1279
I1
sS'racism'
p1280
I1
sS'business'
p1281
I6
sS'1,297.004'
p1282
I1
sS'strained'
p1283
I2
sS'general.the'
p1284
I1
sS'credits'
p1285
I6
sS'leadership'
p1286
I4
sS'dead.the'
p1287
I1
sS'trln'
p1288
I4
sS'3,077.5'
p1289
I1
sS'462.8'
p1290
I1
sS'central'
p1291
I7
sS'package'
p1292
I2
sS'industry'
p1293
I1
sS'violence'
p1294
I1
sS'discussed'
p1295
I1
sS'generated'
p1296
I1
sS'stand'
p1297
I6
sS'act'
p1298
I4
sS'mixed'
p1299
I2
sS'oct96'
p1300
I1
sS'provisional'
p1301
I2
sS'clamp'
p1302
I1
sS'purported'
p1303
I1
sS'lands'
p1304
I2
sS'coupon'
p1305
I1
sS'68.5short-term'
p1306
I1
sS'lifted'
p1307
I2
sS'involvement'
p1308
I4
sS'parties'
p1309
I5
sS'prepare'
p1310
I1
sS'alleged'
p1311
I3
sS'456.0'
p1312
I1
sS'127,850'
p1313
I2
sS'start'
p1314
I2
sS'72.1'
p1315
I2
sS'low'
p1316
I4
sS'series'
p1317
I5
sS'decisive'
p1318
I1
sS'passports'
p1319
I2
sS'racism.turkey'
p1320
I1
sS'complete'
p1321
I2
sS'quo.that'
p1322
I2
sS'fundamentals'
p1323
I2
sS'smuggling'
p1324
I4
sS'delayed'
p1325
I2
sS'strikes'
p1326
I2
sS'cabinet'
p1327
I2
sS'trying'
p1328
I1
sS'buying'
p1329
I2
sS'happening'
p1330
I1
sS'october'
p1331
I4
sS'romantic'
p1332
I1
sS'wholesale'
p1333
I4
sS'18.92'
p1334
I4
sS'rise.oguz'
p1335
I1
sS'18.97'
p1336
I1
sS'dirty'
p1337
I5
sS'abuses'
p1338
I1
sS'politically'
p1339
I3
sS'builders'
p1340
I1
sS'agree'
p1341
I2
sS'strongly'
p1342
I1
sS'moved'
p1343
I4
sS'sales'
p1344
I6
sS'deep'
p1345
I3
sS'general'
p1346
I4
sS'cbs'
p1347
I1
sS'importing'
p1348
I1
sS'politics'
p1349
I6
sS'moves'
p1350
I1
sS'4.5'
p1351
I1
sS'istanbul'
p1352
I36
sS'personnel'
p1353
I1
sS'4.8'
p1354
I1
sS'tight'
p1355
I2
sS'thermal'
p1356
I2
sS'98.4'
p1357
I1
sS'gambling'
p1358
I1
sS'immunity'
p1359
I7
sS'poor'
p1360
I1
sS'offensive'
p1361
I1
sS'12.4'
p1362
I1
sS'includes'
p1363
I2
sS'constitution.they'
p1364
I1
sS'important'
p1365
I1
sS'included'
p1366
I2
sS'assets'
p1367
I2
sS'islamists.agar'
p1368
I1
sS'invest'
p1369
I1
sS'mass'
p1370
I1
sS'starting'
p1371
I1
sS'consider'
p1372
I4
sS'founder'
p1373
I1
sS'ali'
p1374
I1
sS'1,119.755'
p1375
I1
sS'caused'
p1376
I6
sS'lack'
p1377
I5
sS'dollar'
p1378
I14
sS'month'
p1379
I11
sS'deadline'
p1380
I1
sS'hydraulic'
p1381
I3
sS'welfare'
p1382
I6
sS'talks'
p1383
I10
sS'follow'
p1384
I1
sS'14,854,405'
p1385
I1
sS'religious'
p1386
I4
sS'1,028.997'
p1387
I1
sS'causes'
p1388
I3
sS'group.the'
p1389
I1
sS'apartment'
p1390
I1
sS'thursday'
p1391
I15
sS'tl'
p1392
I7
sS'voters.elements'
p1393
I1
sS'taib'
p1394
I2
sS'1,052'
p1395
I1
sS'premium'
p1396
I9
sS'far'
p1397
I8
sS'1,500'
p1398
I4
sS'floated'
p1399
I2
sS'results'
p1400
I3
sS'coalition.the'
p1401
I1
sS'fan'
p1402
I1
sS'mps'
p1403
I14
sS'29,627'
p1404
I1
sS'fall'
p1405
I4
sS'1995gdp'
p1406
I1
sS'anatolian'
p1407
I5
sS'condition'
p1408
I2
sS'19.015'
p1409
I1
sS'751.6budget'
p1410
I1
sS'959.8'
p1411
I1
sS'evaluation'
p1412
I9
sS'list'
p1413
I2
sS'joined'
p1414
I1
sS'manages'
p1415
I1
sS'small'
p1416
I4
sS'programme'
p1417
I10
sS'jan-june95'
p1418
I1
sS'jan-june96'
p1419
I1
sS'fence'
p1420
I1
sS'190'
p1421
I1
sS'past'
p1422
I2
sS'rate'
p1423
I2
sS'investment'
p1424
I10
sS'128,340'
p1425
I1
sS'defence'
p1426
I1
sS'imported'
p1427
I4
sS'sub'
p1428
I2
sS'richard'
p1429
I1
sS'1,720.6'
p1430
I1
sS'investing'
p1431
I1
sS'poisonous'
p1432
I1
sS'10.8-ind'
p1433
I1
sS'10.169'
p1434
I1
sS'10/96'
p1435
I3
sS'6,116.0'
p1436
I1
sS'otomotiv'
p1437
I1
sS'apply'
p1438
I1
sS'public'
p1439
I19
sS'iran'
p1440
I1
sS'plants.projects'
p1441
I1
sS'varnish'
p1442
I3
sS'ranges'
p1443
I4
sS'newspaper'
p1444
I2
sS'investigating'
p1445
I1
sS'said.islamist'
p1446
I1
sS'november'
p1447
I3
sS'strong'
p1448
I3
sS'arena'
p1449
I1
sS'ciller'
p1450
I8
sS'12/96'
p1451
I5
sS'ahead'
p1452
I8
sS'12/95'
p1453
I4
sS'enmity'
p1454
I1
sS'said.turkish'
p1455
I3
sS'introductory'
p1456
I1
sS'losses'
p1457
I3
sS'allows'
p1458
I1
sS'fired'
p1459
I3
sS'breakdown'
p1460
I2
sS'social'
p1461
I3
sS'action'
p1462
I1
sS'formation'
p1463
I2
sS'narrow'
p1464
I5
sS'smuggle'
p1465
I1
sS'corrects'
p1466
I1
sS'1,224.633'
p1467
I1
sS'board.tupras'
p1468
I1
sS'family'
p1469
I3
sS'islamisation'
p1470
I1
sS'ask'
p1471
I1
sS'aimed'
p1472
I2
sS'armed'
p1473
I4
sS'1997.tim'
p1474
I1
sS'eye'
p1475
I1
sS'proceed'
p1476
I1
sS'0.83'
p1477
I1
sS'barracks'
p1478
I1
sS'vehicle.newspapers'
p1479
I1
sS'markets'
p1480
I5
sS'entails'
p1481
I1
sS'minor'
p1482
I1
sS'lowering'
p1483
I1
sS'door'
p1484
I1
sS'company'
p1485
I17
sS'682.005'
p1486
I1
sS'site'
p1487
I1
sS'surface'
p1488
I1
sS'broke'
p1489
I4
sS'particular'
p1490
I1
sS'known'
p1491
I2
sS'town'
p1492
I6
sS'14/3/97'
p1493
I3
sS'debates'
p1494
I1
sS'middle'
p1495
I1
sS'policemen'
p1496
I2
sS'coalition'
p1497
I20
sS'guards'
p1498
I3
sS'consortia'
p1499
I2
sS'exchange.the'
p1500
I1
sS'8/96'
p1501
I1
sS'dec'
p1502
I1
sS'history'
p1503
I1
sS'200.8'
p1504
I2
sS'neglected'
p1505
I2
sS'sympathisers'
p1506
I1
sS'pushed'
p1507
I4
sS'numbers'
p1508
I1
sS'fundamentalism'
p1509
I1
sS'2940'
p1510
I5
sS'maturing'
p1511
I2
sS'5.2'
p1512
I2
sS'5.4'
p1513
I6
sS'5.5'
p1514
I6
sS'5.6'
p1515
I5
sS'5.7'
p1516
I7
sS'5.9'
p1517
I1
sS'comfort'
p1518
I2
sS'pressing'
p1519
I1
sS'stayed'
p1520
I1
sS'15.979'
p1521
I1
sS'215,000'
p1522
I2
sS'duff&phelps'
p1523
I1
sS'plant'
p1524
I3
sS'okay'
p1525
I2
sS'plans'
p1526
I5
sS'questioning'
p1527
I1
sS'reflect'
p1528
I2
sS'okan'
p1529
I1
sS'blood'
p1530
I1
sS'coming'
p1531
I1
sS'173.644'
p1532
I1
sS'1,353.1'
p1533
I1
sS'compulsory'
p1534
I2
sS'bleak'
p1535
I1
sS'erbakan'
p1536
I18
sS'said.all'
p1537
I1
sS'short'
p1538
I1
sS'detail.the'
p1539
I1
sS'june.miras'
p1540
I1
sS'register'
p1541
I2
sS'overnight'
p1542
I4
sS'supervision'
p1543
I1
sS'3,351.7'
p1544
I1
sS'responsibility'
p1545
I1
sS'irreligious'
p1546
I1
sS'media'
p1547
I4
sS'banks'
p1548
I14
sS'6,198.1'
p1549
I1
sS'privileges'
p1550
I2
sS'turnover'
p1551
I5
sS'help'
p1552
I2
sS'developed'
p1553
I2
sS'soon'
p1554
I2
sS'trade'
p1555
I29
sS'market.most'
p1556
I1
sS'held'
p1557
I3
sS'riseinvestment'
p1558
I2
sS'paper'
p1559
I2
sS'committee'
p1560
I1
sS'strength'
p1561
I1
sS'1,805.600'
p1562
I1
sS'crime.hurriyet'
p1563
I1
sS'islam'
p1564
I4
sS'24'
p1565
I4
sS'25'
p1566
I6
sS'26'
p1567
I1
sS'27'
p1568
I2
sS'20'
p1569
I7
sS'21'
p1570
I1
sS'22'
p1571
I2
sS'23'
p1572
I2
sS'28'
p1573
I4
sS'pct'
p1574
I2
sS'fruitful'
p1575
I1
sS'late'
p1576
I5
sS'thursday.the'
p1577
I1
sS'reuters'
p1578
I10
sS'disclosed'
p1579
I1
sS'speech'
p1580
I1
sS'lira'
p1581
I81
sS'soccer'
p1582
I1
sS'cetin'
p1583
I2
sS'good'
p1584
I1
sS'motivated'
p1585
I1
sS'6,433'
p1586
I1
sS'underground'
p1587
I1
sS'sweeping'
p1588
I2
sS'yr'
p1589
I4
sS'handing'
p1590
I1
sS'elected'
p1591
I1
sS'fully'
p1592
I1
sS'mandarins'
p1593
I2
sS'presented'
p1594
I4
sS'stopped'
p1595
I1
sS'repeating'
p1596
I1
sS'difficult'
p1597
I1
sS'investigators'
p1598
I2
sS'heavy'
p1599
I2
sS'week'
p1600
I23
sS'energy'
p1601
I13
sS'4,956,208'
p1602
I1
sS'idea'
p1603
I1
sS'oil'
p1604
I4
sS'expect'
p1605
I5
sS'organised'
p1606
I4
sS'stands'
p1607
I1
sS'gangland'
p1608
I1
sS'funding'
p1609
I2
sS'25.971'
p1610
I1
sS'research'
p1611
I2
sS'1,463'
p1612
I2
sS'acting'
p1613
I2
sS'dominated'
p1614
I1
sS'5.6wholesale'
p1615
I1
sS'issue'
p1616
I2
sS'brewery'
p1617
I1
sS'nervously'
p1618
I2
sS'2.042'
p1619
I1
sS'risen'
p1620
I1
sS'friday'
p1621
I10
sS'houses'
p1622
I1
sS'vehicle.a'
p1623
I1
sS'base'
p1624
I2
sS'1996.he'
p1625
I1
sS'members'
p1626
I13
sS'backed'
p1627
I2
sS'rises'
p1628
I3
sS'beginning'
p1629
I3
sS'year.turkey'
p1630
I2
sS'producers'
p1631
I3
sS'89.4'
p1632
I1
sS'just'
p1633
I4
sS'tcdd'
p1634
I2
sS'conducted'
p1635
I2
sS'businessmen'
p1636
I4
sS'threat'
p1637
I3
sS'scheme.many'
p1638
I1
sS'syria'
p1639
I1
sS'bonds.banks'
p1640
I1
sS'major'
p1641
I2
sS'consultations'
p1642
I3
sS'number'
p1643
I2
sS'481.8'
p1644
I1
sS'17,250'
p1645
I1
sS'heads'
p1646
I4
sS'month.milliyet'
p1647
I1
sS'contra'
p1648
I1
sS'leading'
p1649
I8
sS'koc'
p1650
I2
sS'obligatory'
p1651
I1
sS'paint'
p1652
I3
sS'statement'
p1653
I4
sS'compromise'
p1654
I1
sS'3,336.8'
p1655
I1
sS'finances'
p1656
I1
sS'selling'
p1657
I4
sS'warmly'
p1658
I1
sS'relationship'
p1659
I2
sS'believe'
p1660
I2
sS'rampant'
p1661
I1
sS'kind'
p1662
I1
sS'grew'
p1663
I2
sS'exempt'
p1664
I1
sS'mechanisms.it'
p1665
I1
sS'cost'
p1666
I2
sS'lifted.sabah'
p1667
I1
sS'sentenced'
p1668
I2
sS'outstanding'
p1669
I1
sS'fuelling'
p1670
I1
sS'imports'
p1671
I2
sS'fights'
p1672
I1
sS'ages'
p1673
I2
sS'balance-1,215.0'
p1674
I1
sS'orders'
p1675
I1
sS'sell'
p1676
I14
sS'mountain'
p1677
I1
sS'constructions'
p1678
I1
sS'reform.turkey'
p1679
I1
sS'majority'
p1680
I1
sS'291.9'
p1681
I1
sS'labour'
p1682
I2
sS'chairman'
p1683
I5
sS'finding'
p1684
I1
sS'province'
p1685
I4
sS'127,650'
p1686
I3
sS'added'
p1687
I2
sS'electric'
p1688
I1
sS'435.8consumer'
p1689
I1
sS'goldman'
p1690
I1
sS'approves'
p1691
I1
sS'measures'
p1692
I4
sS'took'
p1693
I2
sS'75'
p1694
I2
sS'plan'
p1695
I5
sS'71'
p1696
I1
sS'services'
p1697
I6
sS'prestige'
p1698
I1
sS'extremely'
p1699
I1
sS'approved'
p1700
I4
sS'79'
p1701
I1
sS'78'
p1702
I1
sS'constructed'
p1703
I1
sS'dealers'
p1704
I1
sS'arson'
p1705
I4
sS'seize'
p1706
I1
sS'mobile'
p1707
I1
sS'soviet'
p1708
I1
sS'clear'
p1709
I6
sS'cover'
p1710
I3
sS'traditional'
p1711
I1
sS'giving'
p1712
I1
sS'organise'
p1713
I1
sS'2.09'
p1714
I1
sS'institutions'
p1715
I1
sS'277.3'
p1716
I1
sS'million.in'
p1717
I1
sS'abdullah'
p1718
I1
sS'rebels'
p1719
I8
sS'gold'
p1720
I14
sS'commissions'
p1721
I2
sS'session'
p1722
I2
sS'networks'
p1723
I3
sS'instability.milliyet'
p1724
I1
sS'67'
p1725
I1
sS'writer'
p1726
I1
sS'failed'
p1727
I2
sS'7/3/97'
p1728
I3
sS'factor'
p1729
I2
sS'hit'
p1730
I1
sS'gains'
p1731
I1
sS'secular'
p1732
I2
sS'express'
p1733
I1
sS'concerts.through'
p1734
I1
sS'b'
p1735
I2
sS'5,000'
p1736
I1
sS'preparing'
p1737
I2
sS'reporters'
p1738
I1
sS'gangs.the'
p1739
I1
sS'firms'
p1740
I4
sS'1.86'
p1741
I1
sS'place.yuksel'
p1742
I1
sS'findings.a'
p1743
I1
sS'necati'
p1744
I2
sS'investigate'
p1745
I1
sS'tottering'
p1746
I2
sS'common'
p1747
I1
sS'activity'
p1748
I1
sS'sustainable'
p1749
I1
sS'wrote'
p1750
I1
sS'bars'
p1751
I2
sS'set'
p1752
I9
sS'talk.but'
p1753
I1
sS'achieved'
p1754
I2
sS'intelligence'
p1755
I2
sS'17.061'
p1756
I1
sS'kilos'
p1757
I10
sS'izmit'
p1758
I1
sS'aims'
p1759
I2
sS'tender'
p1760
I2
sS'close'
p1761
I4
sS'2.1'
p1762
I1
sS'2.0'
p1763
I1
sS'2.7'
p1764
I3
sS'acts'
p1765
I1
sS'declined'
p1766
I3
sS'2.4'
p1767
I1
sS'21.635'
p1768
I1
sS'stance'
p1769
I2
sS'matter'
p1770
I3
sS'radikal'
p1771
I1
sS'unions'
p1772
I2
sS'103'
p1773
I1
sS'various'
p1774
I1
sS'use'
p1775
I3
sS'burned'
p1776
I1
sS'conditions'
p1777
I2
sS'corruption'
p1778
I1
sS'15th'
p1779
I1
sS'europe'
p1780
I3
sS'recently'
p1781
I4
sS'creating'
p1782
I1
sS'isuzu'
p1783
I7
sS'targeted'
p1784
I1
sS'sold'
p1785
I6
sS'request.turkey'
p1786
I1
sS'1,891.541'
p1787
I1
sS'14.074'
p1788
I1
sS'opposition'
p1789
I7
sS'dividend'
p1790
I1
sS'1,225.144'
p1791
I1
sS'viennese'
p1792
I1
sS'c'
p1793
I3
sS'bucak'
p1794
I8
sS'reverse'
p1795
I2
sS'influential'
p1796
I1
sS'annual'
p1797
I4
sS'foreign'
p1798
I28
sS'1.64'
p1799
I1
sS'context'
p1800
I1
sS'thursday.tim'
p1801
I1
sS'hatred.on'
p1802
I1
sS'point'
p1803
I3
sS'community'
p1804
I1
sS'9/96'
p1805
I4
sS'79,000.they'
p1806
I1
sS'village'
p1807
I4
sS'bulut'
p1808
I3
sS'expensive'
p1809
I1
sS'decline'
p1810
I1
sS'raise'
p1811
I6
sS'monthly'
p1812
I3
sS'overlook'
p1813
I1
sS'political'
p1814
I34
sS'6,047.5'
p1815
I1
sS'3,138.1'
p1816
I1
sS'said.the'
p1817
I13
sS'meeting'
p1818
I12
sS'trafigura'
p1819
I1
sS'endustri'
p1820
I1
sS'year.earlier'
p1821
I1
sS'firm'
p1822
I5
sS'repayments'
p1823
I1
sS'organisations'
p1824
I1
sS'1,568'
p1825
I1
sS'gas'
p1826
I4
sS'1.211'
p1827
I1
sS'sanayi'
p1828
I1
sS'fund'
p1829
I5
sS'brokers'
p1830
I9
sS'bidding'
p1831
I1
sS'demand'
p1832
I7
sS'prices'
p1833
I15
sS'plants'
p1834
I7
sS'georgia'
p1835
I1
sS'necmettin'
p1836
I10
sS'look'
p1837
I1
sS'grains'
p1838
I1
sS'judicial'
p1839
I1
sS'budget'
p1840
I8
sS'governor'
p1841
I2
sS'unprecedented'
p1842
I1
sS'erbakan.in'
p1843
I1
sS'erbakan.cumhuriyet'
p1844
I1
sS'engineers'
p1845
I1
sS'real'
p1846
I4
sS'ahead.to'
p1847
I1
sS'hoping'
p1848
I2
sS'guilty'
p1849
I1
sS'motors'
p1850
I1
sS'74.28'
p1851
I1
sS'limit'
p1852
I1
sS'34'
p1853
I1
sS'58.808'
p1854
I1
sS'mediating'
p1855
I1
sS'jan-dec95'
p1856
I2
sS'state.a'
p1857
I1
sS'48.823'
p1858
I1
sS'textile'
p1859
I1
sS'virtually'
p1860
I2
sS'widely'
p1861
I1
sS'forever.and'
p1862
I2
sS'conflict'
p1863
I3
sS'higher'
p1864
I2
sS'development'
p1865
I1
sS'used'
p1866
I8
sS'70.23'
p1867
I1
sS'bonus'
p1868
I2
sS'yesterday'
p1869
I3
sS'attempted'
p1870
I1
sS'leapt'
p1871
I4
sS'moving'
p1872
I8
sS'imposed.so'
p1873
I2
sS'repos.it'
p1874
I1
sS'recent'
p1875
I4
sS'kurdish'
p1876
I10
sS'lower'
p1877
I4
sS'18.533'
p1878
I1
sS'15.5'
p1879
I1
sS'15.7'
p1880
I1
sS'double'
p1881
I1
sS'nonetheless'
p1882
I1
sS'8.774'
p1883
I1
sS'know'
p1884
I1
sS'coup'
p1885
I3
sS'246.34'
p1886
I1
sS'law.agar'
p1887
I1
sS'tender.cumhuriyet'
p1888
I1
sS'belgium'
p1889
I1
sS'openly'
p1890
I1
sS'50.9'
p1891
I1
sS'questions'
p1892
I1
sS'using'
p1893
I1
sS'alternative'
p1894
I2
sS'retirement'
p1895
I2
sS'conclusions'
p1896
I1
sS'workers'
p1897
I9
sS'76.5'
p1898
I1
sS'exhibition'
p1899
I1
sS'1,246.589'
p1900
I1
sS'administrative'
p1901
I1
sS'35.709'
p1902
I1
sS'build'
p1903
I6
sS'haigerseelbach'
p1904
I1
sS'march'
p1905
I26
sS'24,680'
p1906
I1
sS'emergency'
p1907
I2
sS'format'
p1908
I3
sS'big'
p1909
I9
sS'bid'
p1910
I8
sS'2,105.3'
p1911
I1
sS'game'
p1912
I1
sS'private'
p1913
I5
sS'priv.banks'
p1914
I1
sS'projects'
p1915
I15
sS'yuksel'
p1916
I2
sS'2,801.7'
p1917
I1
sS'egged'
p1918
I1
sS'semi'
p1919
I1
sS'southeast.it'
p1920
I1
sS'capitals'
p1921
I1
sS'cevre'
p1922
I1
sS'bribery'
p1923
I1
sS'actives'
p1924
I2
sS'consensus'
p1925
I2
sS'collect'
p1926
I2
sS'netherlands.hurriyet'
p1927
I1
sS'continue'
p1928
I9
sS'yields'
p1929
I1
sS'54.6'
p1930
I1
sS'1997there'
p1931
I1
sS'3,315.2'
p1932
I1
sS'spring'
p1933
I1
sS'creation'
p1934
I1
sS'delegation'
p1935
I6
sS'urgent'
p1936
I1
sS'3.4'
p1937
I1
sS'economic'
p1938
I15
sS'3.2'
p1939
I2
sS'3.3'
p1940
I1
sS'redefining'
p1941
I1
sS'7,500'
p1942
I3
sS'3.9'
p1943
I1
sS'delivered'
p1944
I1
sS'scale'
p1945
I1
sS'describing'
p1946
I1
sS'109.8'
p1947
I4
sS'tools'
p1948
I1
sS'decision'
p1949
I1
sS'constitution.the'
p1950
I1
sS'religion'
p1951
I1
sS'eliminate'
p1952
I1
sS'55,000'
p1953
I1
sS'2,605.574'
p1954
I1
sS'commentator'
p1955
I1
sS'journalist'
p1956
I1
sS'run'
p1957
I6
sS'bb'
p1958
I1
sS'300'
p1959
I2
sS'bo'
p1960
I4
sS'continuing'
p1961
I1
sS'agreement'
p1962
I3
sS'2,339'
p1963
I1
sS'step'
p1964
I1
sS'150.4financing'
p1965
I1
sS'relating'
p1966
I3
sS'abroad'
p1967
I4
sS'analysing'
p1968
I1
sS'1,203'
p1969
I1
sS'cautious'
p1970
I2
sS'bourses'
p1971
I2
sS'ambush'
p1972
I1
sS'ounce'
p1973
I4
sS'militia'
p1974
I4
sS'offshoot'
p1975
I1
sS'block'
p1976
I2
sS'72'
p1977
I1
sS'significant'
p1978
I1
sS'terrorists'
p1979
I1
sS'depose'
p1980
I1
sS'party.parliament'
p1981
I1
sS'awaited'
p1982
I3
sS'80.9'
p1983
I1
sS'85.7'
p1984
I1
sS'82.2'
p1985
I1
sS'78.6'
p1986
I6
sS'national-100'
p1987
I8
sS'statistics'
p1988
I4
sS'spending'
p1989
I1
sS'question'
p1990
I1
sS'long'
p1991
I2
sS'annulment'
p1992
I6
sS'20,806'
p1993
I1
sS'consultation'
p1994
I1
sS'tenders.the'
p1995
I1
sS'forward'
p1996
I3
sS'1,443'
p1997
I1
sS'ticaret'
p1998
I1
sS'mountains'
p1999
I1
sS'boya'
p2000
I1
sS'farm'
p2001
I1
sS'invite'
p2002
I2
sS'divestment'
p2003
I1
sS'susurluk'
p2004
I1
sS'filed'
p2005
I2
sS'hopes'
p2006
I2
sS'line'
p2007
I3
sS'junior'
p2008
I1
sS'raising'
p2009
I7
sS'posted'
p2010
I2
sS'184.615'
p2011
I1
sS'politically.gone'
p2012
I1
sS'maturity'
p2013
I1
sS'interlocutors'
p2014
I3
sS'116'
p2015
I1
sS'called'
p2016
I7
sS'said.in'
p2017
I2
sS'ordered'
p2018
I1
sS'limits.instead'
p2019
I2
sS'influence'
p2020
I2
sS'15.3imports'
p2021
I1
sS'single'
p2022
I1
sS'unleashing'
p2023
I1
sS'curb'
p2024
I2
sS'1,442,100'
p2025
I1
sS'objection'
p2026
I1
sS'96.41'
p2027
I1
sS'fears'
p2028
I1
sS'resistances'
p2029
I1
sS'12.0consumables'
p2030
I1
sS'politicians'
p2031
I4
sS'electrical'
p2032
I3
sS'recognition'
p2033
I1
sS'income'
p2034
I4
sS'department'
p2035
I1
sS'80.9-wpi'
p2036
I1
sS'undertakers'
p2037
I1
sS'draw'
p2038
I1
sS'5.163'
p2039
I1
sS'prosecution'
p2040
I4
sS'prepared'
p2041
I2
sS'militants'
p2042
I2
sS'lent'
p2043
I1
sS'684.050'
p2044
I1
sS'sides'
p2045
I1
sS'ago'
p2046
I3
sS'396.0m2'
p2047
I1
sS'vice'
p2048
I1
sS'required'
p2049
I2
sS'holes'
p2050
I1
sS'bankers'
p2051
I6
sS'55.592-long'
p2052
I1
sS'2000'
p2053
I2
sS'train'
p2054
I1
sS'fresh'
p2055
I2
sS'requires'
p2056
I1
sS'having'
p2057
I2
sS'sector'
p2058
I6
sS'reuters.the'
p2059
I1
sS'advisory'
p2060
I1
sS'delivery'
p2061
I1
sS'issued'
p2062
I2
sS'resistance'
p2063
I5
sS'existing'
p2064
I1
sS'gang'
p2065
I1
sS'intricate'
p2066
I1
sS'sabah.the'
p2067
I1
sS'27/12/96'
p2068
I3
sS'venerated'
p2069
I1
sS'turkish'
p2070
I50
sS'concerned'
p2071
I3
sS'summer.this'
p2072
I1
sS'send'
p2073
I2
sS'citing'
p2074
I2
sS'helps'
p2075
I1
sS'said.brokers'
p2076
I2
sS'stable'
p2077
I2
sS'breach'
p2078
I1
sS'include'
p2079
I3
sS'celik'
p2080
I1
sS'sent'
p2081
I3
sS'attempts'
p2082
I1
sS'mainstream'
p2083
I1
sS'65.601'
p2084
I1
sS'automotive'
p2085
I5
sS'continues'
p2086
I1
sS'ankara'
p2087
I10
sS'telling'
p2088
I1
sS'continued'
p2089
I1
sS'sought.the'
p2090
I2
sS'sabanci'
p2091
I1
sS'severely'
p2092
I1
sS'90-212-2750875'
p2093
I13
sS'positions'
p2094
I1
sS'miras'
p2095
I1
sS'deals'
p2096
I2
sS'ufuk'
p2097
I2
sS'7.6'
p2098
I1
sS'inspection'
p2099
I1
sS'rack'
p2100
I1
sS'government.hurriyet'
p2101
I1
sS'smaller'
p2102
I1
sS'unprofitable'
p2103
I1
sS'jump'
p2104
I4
sS'fold'
p2105
I2
sS'turkey.radikal'
p2106
I1
sS'picked'
p2107
I1
sS'earth'
p2108
I1
sS'teker'
p2109
I2
sS'index'
p2110
I15
sS'power'
p2111
I15
sS'concessions'
p2112
I1
sS'expressed'
p2113
I1
sS'punishment'
p2114
I1
sS'21,000'
p2115
I1
sS'capital'
p2116
I8
sS'property.turkey'
p2117
I1
sS'body'
p2118
I2
sS'completion'
p2119
I1
sS'go.yeni'
p2120
I1
sS'led'
p2121
I15
sS'desires'
p2122
I3
sS'exchange'
p2123
I9
sS'announced.banks'
p2124
I1
sS'respectively'
p2125
I1
sS'commercial'
p2126
I4
sS'jointly'
p2127
I1
sS'slated'
p2128
I5
sS'consideration'
p2129
I1
sS'831.4'
p2130
I1
sS'solingen'
p2131
I1
sS'mehmet'
p2132
I11
sS'likened'
p2133
I1
sS'broken'
p2134
I1
sS'involved'
p2135
I3
sS'31'
p2136
I1
sS'30'
p2137
I3
sS'67.356'
p2138
I1
sS'3.517'
p2139
I1
sS'642'
p2140
I1
sS'products'
p2141
I1
sS'implement'
p2142
I2
sS'makes'
p2143
I1
sS'maker'
p2144
I2
sS'2,631'
p2145
I1
sS'deputy'
p2146
I4
sS'331'
p2147
I1
sS'clout'
p2148
I2
sS'hardy'
p2149
I1
sS'1/97'
p2150
I3
sS'scandal'
p2151
I7
sS'boasts'
p2152
I2
sS'standing'
p2153
I2
sS'confidence'
p2154
I2
sS'cheered'
p2155
I2
sS'feb'
p2156
I1
sS'remains'
p2157
I3
sS'illegal'
p2158
I2
sS'ministers'
p2159
I3
sS'throw'
p2160
I1
sS'doubt'
p2161
I3
sS'examination'
p2162
I1
sS'vehicle'
p2163
I2
sS'2,928.699'
p2164
I1
sS'reflects'
p2165
I1
sS'27.38'
p2166
I4
sS'parliament'
p2167
I9
sS'journalists'
p2168
I1
sS'started'
p2169
I1
sS'equity'
p2170
I3
sS'807.1'
p2171
I2
sS'lira.sekerbank'
p2172
I1
sS'subdued'
p2173
I2
sS'43.8'
p2174
I1
sS'sharply'
p2175
I3
sS'2,890.9'
p2176
I1
sS'43.5'
p2177
I1
sS'75.3'
p2178
I1
sS'appointed'
p2179
I3
sS'150'
p2180
I2
sS'challenge'
p2181
I3
sS'2,880.429'
p2182
I1
sS'recession'
p2183
I1
sS'1,490'
p2184
I1
sS'12.614'
p2185
I1
sS'61.4'
p2186
I1
sS'servants'
p2187
I1
sS'trillion.over'
p2188
I1
sS'meet'
p2189
I4
sS'1.43'
p2190
I4
sS'thursday.for'
p2191
I1
sS'control'
p2192
I2
sS'unveiled'
p2193
I1
sS'links'
p2194
I5
sS'process'
p2195
I5
sS'0.3'
p2196
I1
sS'0.2'
p2197
I1
sS'tax'
p2198
I11
sS'0.4'
p2199
I1
sS'high'
p2200
I7
sS'reserves'
p2201
I4
sS'78.042'
p2202
I1
sS'stemmed'
p2203
I2
sS'maturities'
p2204
I3
sS'democracy'
p2205
I3
sS'hurriyet'
p2206
I1
sS'holds'
p2207
I3
sS'regions'
p2208
I1
sS'lutfu'
p2209
I1
sS'instead'
p2210
I2
sS'establishment'
p2211
I2
sS'stock'
p2212
I4
sS'tension'
p2213
I3
sS'27,000'
p2214
I1
sS'relates'
p2215
I1
sS'outdid'
p2216
I2
sS'351.00'
p2217
I2
sS'united'
p2218
I3
sS'77.110total'
p2219
I1
sS'ties'
p2220
I4
sS'spelling'
p2221
I1
sS'earlier.zaman'
p2222
I1
sS'introduced'
p2223
I2
sS'11.310'
p2224
I1
sS'12-13'
p2225
I1
sS'light'
p2226
I6
sS'lines'
p2227
I1
sS'element'
p2228
I1
sS'chief'
p2229
I3
sS'unsolved'
p2230
I1
sS'producer'
p2231
I2
sS'produces'
p2232
I1
sS'institutional'
p2233
I1
sS'quietly'
p2234
I1
sS'133'
p2235
I2
sS'including'
p2236
I6
sS'mentioned'
p2237
I2
sS'agricultural'
p2238
I2
sS'1,141.0'
p2239
I1
sS'distaste'
p2240
I1
sS'basis.with'
p2241
I1
sS'adalet'
p2242
I1
sS'12.04'
p2243
I1
sS'covered'
p2244
I1
sS'holiday'
p2245
I2
sS'antidote'
p2246
I1
sS'property.in'
p2247
I1
sS'violating'
p2248
I1
sS'crash'
p2249
I6
sS'unreported'
p2250
I1
sS'said.he'
p2251
I3
sS'material'
p2252
I1
sS'wednesday.wednesday'
p2253
I1
sS'launder'
p2254
I1
sS'unnerved'
p2255
I2
sS'mention'
p2256
I1
sS'1.17'
p2257
I1
sS'hands'
p2258
I3
sS'organistaion'
p2259
I1
sS'squabbling'
p2260
I1
sS'day'
p2261
I8
sS'articles'
p2262
I11
sS'february'
p2263
I11
sS'turk'
p2264
I8
sS'warned'
p2265
I2
sS'eased'
p2266
I9
sS'guard'
p2267
I1
sS'rising'
p2268
I2
sS'identifies'
p2269
I1
sS'1,446,500'
p2270
I2
sS'29/12/95m1'
p2271
I1
sS'fund.turkish'
p2272
I2
sS'activism.radikal'
p2273
I1
sS'3,000'
p2274
I2
sS'privatisation'
p2275
I25
sS'inputs'
p2276
I2
sS'doing'
p2277
I2
sS'said.gold'
p2278
I1
sS'related'
p2279
I1
sS'society'
p2280
I1
sS'204.2'
p2281
I1
sS'measure'
p2282
I1
sS'slumped'
p2283
I1
sS'80'
p2284
I1
sS'special'
p2285
I2
sS'3,143.9'
p2286
I1
sS'2.37'
p2287
I1
sS'2.30'
p2288
I1
sS'sentiment'
p2289
I3
sS'activism'
p2290
I4
sS'chaos'
p2291
I1
sS'islamist'
p2292
I16
sS'monday.most'
p2293
I1
sS'214.1'
p2294
I2
sS'postpone'
p2295
I1
sS'supports'
p2296
I3
sS'red'
p2297
I3
sS'project.but'
p2298
I1
sS'recommendations'
p2299
I2
sS'37.441-investment'
p2300
I1
sS'17.874'
p2301
I1
sS'conservatives'
p2302
I4
sS'regulatory'
p2303
I1
sS'71.79'
p2304
I1
sS'20,000'
p2305
I3
sS'steering'
p2306
I1
sS'receipts'
p2307
I2
sS'inter'
p2308
I1
sS'islamic'
p2309
I2
sS'concerns'
p2310
I10
sS'4,887,219'
p2311
I1
sS'times'
p2312
I4
sS'abuse'
p2313
I1
sS'retail'
p2314
I1
sS'monday.trade'
p2315
I2
sS'said.more'
p2316
I1
sS'2,000'
p2317
I2
sS'powerful'
p2318
I5
sS'redefine'
p2319
I2
sS'owned'
p2320
I4
sS'strategic'
p2321
I1
sS'monday.dealers'
p2322
I1
sS'improvements'
p2323
I1
sS'gatherings'
p2324
I1
sS'reached'
p2325
I1
sS'legislative'
p2326
I1
sS'publication'
p2327
I1
sS'revealed'
p2328
I1
sS'attack.cumhuriyet'
p2329
I1
sS'relations'
p2330
I3
sS'awaited.they'
p2331
I2
sS'attack'
p2332
I4
sS'racist'
p2333
I4
sS'tourists'
p2334
I1
sS'interests'
p2335
I1
sS'2,314'
p2336
I1
sS'2,775.503'
p2337
I1
sS'2,068.833'
p2338
I1
sS'352.00'
p2339
I2
sS'turkey.the'
p2340
I1
sS'brokerage.turkey'
p2341
I1
sS'said.economic'
p2342
I1
sS'lists'
p2343
I1
sS'vouch'
p2344
I4
sS'public.the'
p2345
I1
sS'1993exports'
p2346
I1
sS'policeman'
p2347
I4
sS'elite'
p2348
I1
sS'institution'
p2349
I2
sS'25.62'
p2350
I4
sS'steel'
p2351
I1
sS'yeni'
p2352
I1
sS'photograph'
p2353
I1
sS'culture'
p2354
I1
sS'themselves.the'
p2355
I1
sS'limiting'
p2356
I1
sS'accuracy.milliyet'
p2357
I1
sS'ozfirat'
p2358
I4
sS'visited'
p2359
I1
sS'billion.but'
p2360
I1
sS'bet'
p2361
I1
sS'1.4'
p2362
I1
sS'1.5'
p2363
I1
sS'1.6'
p2364
I2
sS'1.7'
p2365
I6
sS'1.0'
p2366
I1
sS'1.1'
p2367
I1
sS'1.2'
p2368
I5
sS'1.3'
p2369
I2
sS'unchanged'
p2370
I2
sS'partnership'
p2371
I1
sS'1.9'
p2372
I1
sS'97wholesale'
p2373
I1
sS'schemes.it'
p2374
I1
sS'unlikely'
p2375
I1
sS'need'
p2376
I1
sS'linked'
p2377
I1
sS'acceleration'
p2378
I1
sS'basis.the'
p2379
I1
sS'agency'
p2380
I7
sS'able'
p2381
I1
sS'gravity'
p2382
I2
sS'soylemez'
p2383
I5
sS'1.39'
p2384
I2
sS'issuing'
p2385
I3
sS'2.5'
p2386
I1
sS'provoked'
p2387
I1
sS'328'
p2388
I1
sS'warily'
p2389
I2
sS'sedat'
p2390
I5
sS'28/2/97'
p2391
I1
sS'year.elkatmis'
p2392
I1
sS'clash'
p2393
I1
sS'petrol'
p2394
I1
sS'oilseed'
p2395
I1
sS'zeal.of'
p2396
I1
sS'future'
p2397
I1
sS'payment'
p2398
I1
sS'1994cash'
p2399
I1
sS'deny'
p2400
I3
sS'visiting'
p2401
I2
sS'request'
p2402
I8
sS'face'
p2403
I3
sS'looked'
p2404
I1
sS'3/96-cpi'
p2405
I1
sS'84.9'
p2406
I1
sS'1,556'
p2407
I2
sS'mid-1980s'
p2408
I1
sS'1,554'
p2409
I2
sS'1,007'
p2410
I1
sS'wounded'
p2411
I1
sS'normally'
p2412
I2
sS'08'
p2413
I2
sS'fact'
p2414
I3
sS'selection'
p2415
I1
sS'57.577'
p2416
I1
sS'supported'
p2417
I1
sS'bring'
p2418
I1
sS'planning'
p2419
I3
sS'soldiers'
p2420
I3
sS'economist'
p2421
I3
sS'debate'
p2422
I3
sS'columnists.this'
p2423
I1
sS'q1'
p2424
I1
sS'partners'
p2425
I2
sS'q3'
p2426
I1
sS'q2'
p2427
I1
sS'based'
p2428
I6
sS'q4'
p2429
I2
sS'jan'
p2430
I1
sS'entities'
p2431
I1
sS'finalised'
p2432
I1
sS'won'
p2433
I1
sS'tape'
p2434
I3
sS'hakkari'
p2435
I1
sS'studded'
p2436
I1
sS'thousands'
p2437
I1
sS'hope'
p2438
I2
sS'commanders'
p2439
I2
sS'bonds'
p2440
I3
sS'mgk'
p2441
I4
sS'overall'
p2442
I1
sS'799.3'
p2443
I1
sS'pave'
p2444
I1
sS'joint'
p2445
I2
sS'29/12/95total'
p2446
I1
sS'3,373.880'
p2447
I1
sS'procedures'
p2448
I1
sS'85.755'
p2449
I1
sS'5.543'
p2450
I1
sS'3.320'
p2451
I1
sS'3.323'
p2452
I1
sS'numerous'
p2453
I1
sS'employees.taib'
p2454
I1
sS'gram'
p2455
I3
sS'growth.in'
p2456
I1
sS'pulses'
p2457
I1
sS'fixed'
p2458
I1
sS'national'
p2459
I6
sS'34.4'
p2460
I1
sS'yawning'
p2461
I3
sS'officials'
p2462
I17
sS'greece'
p2463
I1
sS'bidders'
p2464
I1
sS'90-312-4462940'
p2465
I2
sS'wire'
p2466
I2
sS'turks'
p2467
I4
sS'reform'
p2468
I5
sS'pattern'
p2469
I1
sS'state'
p2470
I54
sS'difficulties'
p2471
I1
sS'policies.but'
p2472
I3
sS'week.turkish'
p2473
I1
sS'routine'
p2474
I2
sS'progress'
p2475
I1
sS'2/96'
p2476
I1
sS'2/97'
p2477
I2
sS'bridges'
p2478
I1
sS'3,045,359'
p2479
I1
sS'agencies'
p2480
I2
sS'bilal'
p2481
I1
sS'5.36'
p2482
I1
sS'parliamentarians'
p2483
I1
sS'grow'
p2484
I1
sS'key'
p2485
I3
sS'group'
p2486
I9
sS'centrepiece'
p2487
I1
sS'secrets'
p2488
I1
sS'restrictions'
p2489
I1
sS'2.43'
p2490
I1
sS'taking'
p2491
I5
sS'deficits'
p2492
I5
sS'drug'
p2493
I5
sS'creeping'
p2494
I1
sS'april'
p2495
I16
sS'ministers.but'
p2496
I1
sS'tripled'
p2497
I1
sS'figures'
p2498
I3
sS'auctions'
p2499
I1
sS'utilizations'
p2500
I1
sS'18.106'
p2501
I1
sS'organisation'
p2502
I1
sS'authorised'
p2503
I1
sS'cb'
p2504
I1
sS'tuesday'
p2505
I18
sS'56.5'
p2506
I1
sS'equalise'
p2507
I1
sS'congresses'
p2508
I1
sS'allocated'
p2509
I1
sS'inflicted'
p2510
I1
sS'8.0'
p2511
I3
sS'3.6'
p2512
I2
sS'8.2'
p2513
I2
sS'8.6'
p2514
I1
sS'8.9'
p2515
I1
sS'8.8'
p2516
I2
sS'said.six'
p2517
I1
sS'underlying'
p2518
I4
sS'poured'
p2519
I2
sS'slowly'
p2520
I1
sS'agreements'
p2521
I1
sS'adapting'
p2522
I1
sS'senses'
p2523
I1
sS'controlled'
p2524
I2
sS'occurred.no'
p2525
I1
sS'received'
p2526
I1
sS'painted'
p2527
I1
sS'1,374.114-retail'
p2528
I1
sS'guerrillas'
p2529
I4
sS'finished'
p2530
I1
sS'naphtha'
p2531
I2
sS'4,864,738'
p2532
I1
sS'tanks'
p2533
I3
sS'present'
p2534
I1
sS'tonne'
p2535
I3
sS'meeting.it'
p2536
I2
sS'novel'
p2537
I1
sS'58.1'
p2538
I1
sS'58.3'
p2539
I2
sS'value'
p2540
I1
sS'agar'
p2541
I8
sS'promoted'
p2542
I1
sS've'
p2543
I2
sS'kurdistan'
p2544
I8
sS'said.mehmet'
p2545
I1
sS'auction.turkish'
p2546
I1
sS'laundering'
p2547
I1
sS'helped'
p2548
I4
sS'draining'
p2549
I1
sS'68.1'
p2550
I1
sS'partner'
p2551
I4
sS'arabic'
p2552
I1
sS'iran.but'
p2553
I1
sS'commentators'
p2554
I1
sS'halt'
p2555
I1
sS'capture'
p2556
I1
sS'productivity'
p2557
I1
sS'10,488'
p2558
I1
sS'newsroom'
p2559
I22
sS'began'
p2560
I5
sS'administration'
p2561
I3
sS'member'
p2562
I3
sS'parts'
p2563
I2
sS'largest'
p2564
I1
sS'lengthening'
p2565
I1
sS'party'
p2566
I22
sS'otosan'
p2567
I3
sS'names.the'
p2568
I1
sS'planned'
p2569
I4
sS'injured'
p2570
I1
sS'cankiri'
p2571
I1
sS'3,148.9'
p2572
I1
sS'novels'
p2573
I1
sS'lines.some'
p2574
I1
sS'effects.share'
p2575
I2
sS'effect'
p2576
I3
sS'days.a'
p2577
I1
sS'april.they'
p2578
I1
sS'goksin'
p2579
I2
sS'audit'
p2580
I1
sS'ugur'
p2581
I1
sS'10-15'
p2582
I1
sS'said.kemal'
p2583
I1
sS'weapon'
p2584
I1
sS'obstacles'
p2585
I5
sS'overshadowed'
p2586
I2
sS'fighting'
p2587
I4
sS'southeastern'
p2588
I1
sS'procurement'
p2589
I1
sS'352'
p2590
I1
sS'350'
p2591
I1
sS'position'
p2592
I4
sS'1.27'
p2593
I1
sS'tuesday.the'
p2594
I2
sS'45'
p2595
I2
sS'heavily'
p2596
I1
sS'percent'
p2597
I127
sS'executive'
p2598
I2
sS'domestic'
p2599
I11
sS'sources'
p2600
I1
sS'anadolu'
p2601
I6
sS'tansu'
p2602
I7
sS'tough'
p2603
I1
sS'glue'
p2604
I3
sS'izmir'
p2605
I2
sS'taken'
p2606
I2
sS'web'
p2607
I1
sS'rapid'
p2608
I1
sS'isbank'
p2609
I1
sS'accident.bucak'
p2610
I2
sS'supply'
p2611
I1
sS'deposits'
p2612
I3
sS'killed'
p2613
I7
sS'elkatmis'
p2614
I5
sS'crack'
p2615
I1
sS'1,565'
p2616
I2
sS'activism.press'
p2617
I1
sS'507.8'
p2618
I1
sS'1,561'
p2619
I1
sS'1,614'
p2620
I2
sS'increased'
p2621
I5
sS'fate'
p2622
I1
sS'government'
p2623
I49
sS'4-1/2-day'
p2624
I2
sS'1,584'
p2625
I2
sS'1,580'
p2626
I2
sS'1,583'
p2627
I1
sS'supervise'
p2628
I1
sS'press'
p2629
I4
sS'immediately'
p2630
I2
sS'findings.elkatmis'
p2631
I1
sS'loss'
p2632
I4
sS'necessary'
p2633
I1
sS'like'
p2634
I2
sS'lost'
p2635
I4
sS'222,500'
p2636
I1
sS'gangsters'
p2637
I5
sS'payments'
p2638
I5
sS'martin'
p2639
I1
sS'amendment'
p2640
I3
sS'shed'
p2641
I2
sS'sept96'
p2642
I1
sS'arbitrage'
p2643
I3
sS'87.903'
p2644
I1
sS'3,101.2'
p2645
I1
sS'980'
p2646
I1
sS'212.188'
p2647
I1
sS'authority'
p2648
I1
sS'growth'
p2649
I5
sS'export'
p2650
I1
sS'home'
p2651
I6
sS'transport'
p2652
I1
sS'lead'
p2653
I1
sS'public.erbakan'
p2654
I1
sS'does'
p2655
I8
sS'1992total'
p2656
I1
sS'market.of'
p2657
I1
sS'speak'
p2658
I1
sS'leader'
p2659
I1
sS'leader.several'
p2660
I1
sS'reaching'
p2661
I1
sS'29.4balance'
p2662
I1
sS'monetary'
p2663
I5
sS'expansion'
p2664
I2
sS'pressure'
p2665
I4
sS'host'
p2666
I1
sS'board.dunya'
p2667
I1
sS'loans'
p2668
I1
sS'stage'
p2669
I4
sS'gained'
p2670
I2
sS'25.2'
p2671
I1
sS'carried'
p2672
I4
sS'25.6'
p2673
I2
sS'staked'
p2674
I1
sS'friday.it'
p2675
I1
sS'birand'
p2676
I2
sS'obscene.dunya'
p2677
I1
sS'petitition'
p2678
I1
sS'1,528.914'
p2679
I1
sS'stakes'
p2680
I4
sS'alliance'
p2681
I1
sS'fuat'
p2682
I1
sS'washington'
p2683
I4
sS'criticised'
p2684
I1
sS'5.25'
p2685
I1
sS'1,027.3'
p2686
I1
sS'utility'
p2687
I4
sS'1987'
p2688
I1
sS'1984'
p2689
I3
sS'1983'
p2690
I1
sS'1980'
p2691
I1
sS'confident'
p2692
I1
sS'transfer'
p2693
I3
sS'12-year'
p2694
I3
sS'populated'
p2695
I1
sS'wims'
p2696
I1
sS'awarded'
p2697
I1
sS'dropping'
p2698
I1
sS'glimmer'
p2699
I3
sS'71.82.bond'
p2700
I1
sS'biggest'
p2701
I1
sS'9.6'
p2702
I1
sS'buy'
p2703
I3
sS'funds'
p2704
I4
sS'427.283'
p2705
I1
sS'volume'
p2706
I16
sS'dollar.of'
p2707
I1
sS'month.of'
p2708
I1
sS'gain'
p2709
I1
sS'highest'
p2710
I2
sS'84.4'
p2711
I1
sS'calls'
p2712
I2
sS'official'
p2713
I9
sS'signed'
p2714
I2
sS'record'
p2715
I4
sS'stories'
p2716
I8
sS'ruling'
p2717
I9
sS'distribution'
p2718
I3
sS'lira.the'
p2719
I1
sS'286.4'
p2720
I1
sS'147.9'
p2721
I2
sS'deaths'
p2722
I2
sS'exceeded'
p2723
I1
sS'83'
p2724
I1
sS'partly'
p2725
I2
sS'141.9'
p2726
I1
sS'education'
p2727
I5
sS'said.erbakan'
p2728
I1
sS'diplomat'
p2729
I1
sS'compared'
p2730
I14
sS'49'
p2731
I1
sS'46'
p2732
I1
sS'attacked'
p2733
I3
sS'42'
p2734
I1
sS'43'
p2735
I2
sS'40'
p2736
I2
sS'41'
p2737
I1
sS'details'
p2738
I9
sS'outlines'
p2739
I1
sS'gat'
p2740
I1
sS'star'
p2741
I1
sS'monday'
p2742
I18
sS'chamber'
p2743
I1
sS'june'
p2744
I1
sS'shrank'
p2745
I1
sS'294.3'
p2746
I2
sS'29.4'
p2747
I1
sS'period.reserves'
p2748
I1
sS'friends'
p2749
I1
sS'rule'
p2750
I1
sS'pension'
p2751
I3
sS'volumes'
p2752
I2
sS'rural'
p2753
I2
sS'dismissal'
p2754
I1
s.