(dp0
S'producer'
p1
I2
sS'3712'
p2
I1
sS'tolstov'
p3
I1
sS'uzbekistan'
p4
I4
sS'asian'
p5
I1
sS'fifth'
p6
I1
sS'27'
p7
I1
sS'reuters'
p8
I1
sS'enriched'
p9
I1
sS'fuel'
p10
I1
sS'gave'
p11
I1
sS'plants'
p12
I1
sS'increased'
p13
I1
sS'advantage'
p14
I1
sS'rise'
p15
I1
sS'55,000'
p16
I1
sS'fall'
p17
I1
sS'world'
p18
I2
sS'fields'
p19
I1
sS'yevgeny'
p20
I1
sS'navoi'
p21
I2
sS'output'
p22
I4
sS'strengthened'
p23
I1
sS'3,000'
p24
I2
sS'exporter'
p25
I1
sS'year'
p26
I3
sS'shamil'
p27
I1
sS'said'
p28
I4
sS'nuclear'
p29
I2
sS'increase'
p30
I1
sS'state'
p31
I1
sS'7'
p32
I1
sS'tonnes.observers'
p33
I1
sS'international'
p34
I1
sS'boost'
p35
I1
sS'told'
p36
I1
sS'power'
p37
I2
sS'friday'
p38
I1
sS'central'
p39
I1
sS'uzbek'
p40
I2
sS'annual'
p41
I1
sS'allows'
p42
I1
sS'times'
p43
I1
sS'seeing'
p44
I1
sS'2,000'
p45
I1
sS'engineer'
p46
I1
sS'said.the'
p47
I1
sS'markets'
p48
I1
sS'mining'
p49
I2
sS'tashkent'
p50
I1
sS'361958'
p51
I1
sS'2,400'
p52
I1
sS'demand'
p53
I1
sS'prices'
p54
I1
sS'peaked'
p55
I1
sS'1995'
p56
I1
sS'1996'
p57
I2
sS'1999'
p58
I2
sS'1998'
p59
I1
sS'official'
p60
I1
sS'plunged'
p61
I1
sS'stations.tolstov'
p62
I1
sS'metallurgical'
p63
I1
sS'imports'
p64
I1
sS'proven'
p65
I1
sS'states'
p66
I1
sS'say'
p67
I1
sS'reserves'
p68
I1
sS'united'
p69
I1
sS'end'
p70
I1
sS'newsroom'
p71
I1
sS'uranium'
p72
I10
sS'details.he'
p73
I1
sS'republic'
p74
I1
sS'largest'
p75
I2
sS'1,700'
p76
I2
sS'plant'
p77
I2
sS'used'
p78
I2
sS'plans'
p79
I1
sS'quota'
p80
I1
sS'baigin'
p81
I1
sS'3,500'
p82
I1
sS'1996.tolstov'
p83
I1
sS'chief'
p84
I1
sS'enterprise'
p85
I1
sS'tonnes'
p86
I7
sS'soviet'
p87
I2
s.